 gmsv_navigation_win32

 Timestamp is 50d778b2 (Sun Dec 23 16:33:38 2012)

 Preferred load address is 10000000

 Start         Length     Name                   Class
 0001:00000000 0002c50aH .text                   CODE
 0001:0002c510 00000d9aH .text$x                 CODE
 0001:0002d2b0 00000a1aH .text$yc                CODE
 0001:0002dcd0 000000b8H .text$yd                CODE
 0002:00000000 00000184H .idata$5                DATA
 0002:00000184 00000004H .CRT$XCA                DATA
 0002:00000188 00000164H .CRT$XCU                DATA
 0002:000002ec 00000004H .CRT$XCZ                DATA
 0002:000002f0 00000004H .CRT$XIA                DATA
 0002:000002f4 00000014H .CRT$XIC                DATA
 0002:00000308 00000004H .CRT$XIU                DATA
 0002:0000030c 00000004H .CRT$XIZ                DATA
 0002:00000310 00000004H .CRT$XLA                DATA
 0002:00000314 00000004H .CRT$XLC                DATA
 0002:00000318 00000004H .CRT$XLZ                DATA
 0002:0000031c 00000004H .CRT$XPA                DATA
 0002:00000320 00000008H .CRT$XPX                DATA
 0002:00000328 00000004H .CRT$XPXA               DATA
 0002:0000032c 00000004H .CRT$XPZ                DATA
 0002:00000330 00000004H .CRT$XTA                DATA
 0002:00000334 00000004H .CRT$XTU                DATA
 0002:00000338 00000004H .CRT$XTZ                DATA
 0002:00000340 0000d928H .rdata                  DATA
 0002:0000dc68 00000018H .rdata$T                DATA
 0002:0000dc80 0000008cH .rdata$debug            DATA
 0002:0000dd0c 00001039H .rdata$r                DATA
 0002:0000ed50 00000150H .rdata$sxdata           DATA
 0002:0000eea0 00000004H .rtc$IAA                DATA
 0002:0000eea4 00000004H .rtc$IZZ                DATA
 0002:0000eea8 00000004H .rtc$TAA                DATA
 0002:0000eeac 00000004H .rtc$TZZ                DATA
 0002:0000eeb0 00001bb8H .xdata$x                DATA
 0002:00010a68 00000028H .idata$2                DATA
 0002:00010a90 00000014H .idata$3                DATA
 0002:00010aa4 00000184H .idata$4                DATA
 0002:00010c28 000006fcH .idata$6                DATA
 0002:00011330 00000089H .edata                  DATA
 0003:00000000 00002748H .data                   DATA
 0003:00002760 0000b4d8H .bss                    DATA
 0004:00000000 00000001H .tls                    DATA
 0004:00000001 00000001H .tls$ZZZ                DATA
 0005:00000000 00000058H .rsrc$01                DATA
 0005:00000060 00000180H .rsrc$02                DATA

  Address         Publics by Value              Rva+Base       Lib:Object

 0000:00000000       __except_list              00000000     <absolute>
 0000:00000054       ___safe_se_handler_count   00000054     <absolute>
 0000:00000000       ___ImageBase               10000000     <linker-defined>
 0001:00000000       ??2@YAPAXIPAX@Z            10001000 f i ILuaInterface.obj
 0001:00000008       ?UtlMemory_CalcNewAllocationCount@@YAHHHHH@Z 10001008 f i ILuaInterface.obj
 0001:0000004d       ??0Vector2D@@QAE@MM@Z      1000104d f i ILuaInterface.obj
 0001:00000074       ??_H@YGXPAXIHP6EPAX0@Z@Z   10001074 f i ILuaInterface.obj
 0001:00000095       ?V_memmove@@YAXPAXPBXH@Z   10001095 f i ILuaInterface.obj
 0001:000000ab       ??0ILuaInterface@@QAE@PAUlua_State@@@Z 100010ab f   ILuaInterface.obj
 0001:00000250       ??1ILuaInterface@@QAE@XZ   10001250 f   ILuaInterface.obj
 0001:00000285       ?GetNewTable@ILuaInterface@@QAEPAVILuaObject@@XZ 10001285 f   ILuaInterface.obj
 0001:00000310       ?NewTable@ILuaInterface@@QAEXXZ 10001310 f   ILuaInterface.obj
 0001:0000032a       ?PushUserData@ILuaInterface@@QAEXPAVILuaObject@@PAXE@Z 1000132a f   ILuaInterface.obj
 0001:000003d3       ?Error@ILuaInterface@@QAAXPBDZZ 100013d3 f   ILuaInterface.obj
 0001:00000432       ?ErrorNoHalt@ILuaInterface@@QAAXPBDZZ 10001432 f   ILuaInterface.obj
 0001:000004af       ?GetGlobal@ILuaInterface@@QAEPAVILuaObject@@PBD@Z 100014af f   ILuaInterface.obj
 0001:00000579       ?SetGlobal@ILuaInterface@@QAEXPBDPAVILuaObject@@@Z 10001579 f   ILuaInterface.obj
 0001:000005de       ?GetObject@ILuaInterface@@QAEPAVILuaObject@@H@Z 100015de f   ILuaInterface.obj
 0001:0000067d       ?GetString@ILuaInterface@@QAEPBDHPAI@Z 1000167d f   ILuaInterface.obj
 0001:0000069f       ?GetInteger@ILuaInterface@@QAEHH@Z 1000169f f   ILuaInterface.obj
 0001:000006c3       ?GetNumber@ILuaInterface@@QAENH@Z 100016c3 f   ILuaInterface.obj
 0001:000006e2       ?GetBool@ILuaInterface@@QAE_NH@Z 100016e2 f   ILuaInterface.obj
 0001:00000701       ?GetUserData@ILuaInterface@@QAEPAXH@Z 10001701 f   ILuaInterface.obj
 0001:00000729       ?GetAllTableMembers@ILuaInterface@@QAEPAV?$CUtlVector@ULuaKeyValue@@V?$CUtlMemory@ULuaKeyValue@@H@@@@H@Z 10001729 f   ILuaInterface.obj
 0001:00000861       ?DeleteLuaVector@ILuaInterface@@QAEXPAV?$CUtlVector@ULuaKeyValue@@V?$CUtlMemory@ULuaKeyValue@@H@@@@@Z 10001861 f   ILuaInterface.obj
 0001:000008e4       ??_G?$CUtlVector@ULuaKeyValue@@V?$CUtlMemory@ULuaKeyValue@@H@@@@QAEPAXI@Z 100018e4 f i ILuaInterface.obj
 0001:0000090b       ?GetReference@ILuaInterface@@QAEHH@Z 1000190b f   ILuaInterface.obj
 0001:00000944       ?FreeReference@ILuaInterface@@QAEXH@Z 10001944 f   ILuaInterface.obj
 0001:00000966       ?PushReference@ILuaInterface@@QAEXH@Z 10001966 f   ILuaInterface.obj
 0001:00000988       ?Pop@ILuaInterface@@QAEXH@Z 10001988 f   ILuaInterface.obj
 0001:000009a7       ?Push@ILuaInterface@@QAEXPAVILuaObject@@@Z 100019a7 f   ILuaInterface.obj
 0001:000009ba       ?Push@ILuaInterface@@QAEXPBDI@Z 100019ba f   ILuaInterface.obj
 0001:000009dc       ?Push@ILuaInterface@@QAEX_N@Z 100019dc f   ILuaInterface.obj
 0001:000009fb       ?Push@ILuaInterface@@QAEXP6AHPAUlua_State@@@Z@Z 100019fb f   ILuaInterface.obj
 0001:00000a1d       ?Push@ILuaInterface@@QAEXM@Z 10001a1d f   ILuaInterface.obj
 0001:00000a45       ?CheckType@ILuaInterface@@QAEXHH@Z 10001a45 f   ILuaInterface.obj
 0001:00000a67       ?GetType@ILuaInterface@@QAEHH@Z 10001a67 f   ILuaInterface.obj
 0001:00000a89       ?GetReturn@ILuaInterface@@QAEPAVILuaObject@@H@Z 10001a89 f   ILuaInterface.obj
 0001:00000a9f       ?Call@ILuaInterface@@QAEXHH@Z 10001a9f f   ILuaInterface.obj
 0001:00000ac1       ?GetMetaTable@ILuaInterface@@QAEPAVILuaObject@@PBDH@Z 10001ac1 f   ILuaInterface.obj
 0001:00000b60       ??$vsprintf_s@$0EAA@@@YAHAAY0EAA@DPBDPAD@Z 10001b60 f i ILuaInterface.obj
 0001:00000b7b       ??0?$CUtlVector@ULuaKeyValue@@V?$CUtlMemory@ULuaKeyValue@@H@@@@QAE@HH@Z 10001b7b f i ILuaInterface.obj
 0001:00000bd8       ??1?$CUtlVector@ULuaKeyValue@@V?$CUtlMemory@ULuaKeyValue@@H@@@@QAE@XZ 10001bd8 f i ILuaInterface.obj
 0001:00000c23       ?Element@?$CUtlVector@ULuaKeyValue@@V?$CUtlMemory@ULuaKeyValue@@H@@@@QAEAAULuaKeyValue@@H@Z 10001c23 f i ILuaInterface.obj
 0001:00000c39       ?Count@?$CUtlVector@PAUBorder@@V?$CUtlMemory@PAUBorder@@H@@@@QBEHXZ 10001c39 f i nav.obj
 0001:00000c39       ?Head@?$CUtlLinkedList@UAirSeedSpot@@H$0A@HV?$CUtlMemory@U?$UtlLinkedListElem_t@UAirSeedSpot@@H@@H@@@@QBEHXZ 10001c39 f i nav.obj
 0001:00000c39       ?Head@?$CUtlLinkedList@UGroundSeedSpot@@H$0A@HV?$CUtlMemory@U?$UtlLinkedListElem_t@UGroundSeedSpot@@H@@H@@@@QBEHXZ 10001c39 f i nav.obj
 0001:00000c39       ?Count@?$CUtlVector@PAVNode@@V?$CUtlMemory@PAVNode@@H@@@@QBEHXZ 10001c39 f i main.obj
 0001:00000c39       ?Count@?$CUtlVector@ULuaKeyValue@@V?$CUtlMemory@ULuaKeyValue@@H@@@@QBEHXZ 10001c39 f i ILuaInterface.obj
 0001:00000c39       ?Size@?$CUtlVector@PAUJobInfo_t@@V?$CUtlMemory@PAUJobInfo_t@@H@@@@QBEHXZ 10001c39 f i main.obj
 0001:00000c39       ?Size@?$CUtlVector@PAVNode@@V?$CUtlMemory@PAVNode@@H@@@@QBEHXZ 10001c39 f i main.obj
 0001:00000c48       ?AddToTail@?$CUtlVector@ULuaKeyValue@@V?$CUtlMemory@ULuaKeyValue@@H@@@@QAEHABULuaKeyValue@@@Z 10001c48 f i ILuaInterface.obj
 0001:00000c64       ?ResetDbgInfo@?$CUtlVector@PAVNode@@V?$CUtlMemory@PAVNode@@H@@@@IAEXXZ 10001c64 f i main.obj
 0001:00000c64       ?ResetDbgInfo@?$CUtlVector@PAUBorder@@V?$CUtlMemory@PAUBorder@@H@@@@IAEXXZ 10001c64 f i nav.obj
 0001:00000c64       ?ResetDbgInfo@?$CUtlVector@ULuaKeyValue@@V?$CUtlMemory@ULuaKeyValue@@H@@@@IAEXXZ 10001c64 f i ILuaInterface.obj
 0001:00000c64       ?ResetDbgInfo@?$CUtlVector@PAUJobInfo_t@@V?$CUtlMemory@PAUJobInfo_t@@H@@@@IAEXXZ 10001c64 f i main.obj
 0001:00000c7b       ?Base@CUtlBuffer@@QAEPAXXZ 10001c7b f i nav.obj
 0001:00000c7b       ?Base@?$CUtlVector@ULuaKeyValue@@V?$CUtlMemory@ULuaKeyValue@@H@@@@QAEPAULuaKeyValue@@XZ 10001c7b f i ILuaInterface.obj
 0001:00000c7b       ?Base@?$CUtlVector@PAUJobInfo_t@@V?$CUtlMemory@PAUJobInfo_t@@H@@@@QAEPAPAUJobInfo_t@@XZ 10001c7b f i main.obj
 0001:00000c7b       ?Base@?$CUtlVector@PAVNode@@V?$CUtlMemory@PAVNode@@H@@@@QAEPAPAVNode@@XZ 10001c7b f i main.obj
 0001:00000c7b       ?Base@?$CUtlVector@PAUBorder@@V?$CUtlMemory@PAUBorder@@H@@@@QAEPAPAUBorder@@XZ 10001c7b f i nav.obj
 0001:00000c8c       ?InsertBefore@?$CUtlVector@ULuaKeyValue@@V?$CUtlMemory@ULuaKeyValue@@H@@@@QAEHHABULuaKeyValue@@@Z 10001c8c f i ILuaInterface.obj
 0001:00000cc7       ?Purge@?$CUtlVector@ULuaKeyValue@@V?$CUtlMemory@ULuaKeyValue@@H@@@@QAEXXZ 10001cc7 f i ILuaInterface.obj
 0001:00000ce8       ??0?$CUtlMemory@ULuaKeyValue@@H@@QAE@HH@Z 10001ce8 f i ILuaInterface.obj
 0001:00000d42       ??1?$CUtlMemory@PAUJobInfo_t@@H@@QAE@XZ 10001d42 f i main.obj
 0001:00000d42       ??1?$CUtlMemory@U?$UtlLinkedListElem_t@UGroundSeedSpot@@H@@H@@QAE@XZ 10001d42 f i nav.obj
 0001:00000d42       ??1?$CUtlMemory@U?$UtlLinkedListElem_t@UAirSeedSpot@@H@@H@@QAE@XZ 10001d42 f i nav.obj
 0001:00000d42       ??1?$CUtlMemory@EH@@QAE@XZ 10001d42 f i nav.obj
 0001:00000d42       ??1?$CUtlMemory@PAUBorder@@H@@QAE@XZ 10001d42 f i nav.obj
 0001:00000d42       ??1?$CUtlMemory@ULuaKeyValue@@H@@QAE@XZ 10001d42 f i ILuaInterface.obj
 0001:00000d42       ??1?$CUtlMemory@PAVNode@@H@@QAE@XZ 10001d42 f i main.obj
 0001:00000d53       ??A?$CUtlMemory@ULuaKeyValue@@H@@QAEAAULuaKeyValue@@H@Z 10001d53 f i ILuaInterface.obj
 0001:00000d69       ?Base@?$CUtlMemory@PAUJobInfo_t@@H@@QAEPAPAUJobInfo_t@@XZ 10001d69 f i main.obj
 0001:00000d69       ?get@?$refcount_ptr@Uerror_info_container@exception_detail@boost@@@exception_detail@boost@@QBEPAUerror_info_container@23@XZ 10001d69 f i main.obj
 0001:00000d69       ?Base@?$CUtlMemory@PAVNode@@H@@QAEPAPAVNode@@XZ 10001d69 f i main.obj
 0001:00000d69       ?_Mynode@?$_Tree_unchecked_const_iterator@V?$_Tree_val@U?$_Tree_simple_types@U?$pair@QAUlua_State@@PAVILuaInterface@@@std@@@std@@@std@@U_Iterator_base0@2@@std@@QBEPAU?$_Tree_node@U?$pair@QAUlua_State@@PAVILuaInterface@@@std@@PAX@2@XZ 10001d69 f i ILuaModuleManager.obj
 0001:00000d69       ?Base@?$CUtlMemory@PAUBorder@@H@@QAEPAPAUBorder@@XZ 10001d69 f i nav.obj
 0001:00000d69       ?as_number@?$int_adapter@I@date_time@boost@@QBEIXZ 10001d69 f i main.obj
 0001:00000d69       ?value@error_code@std@@QBEHXZ 10001d69 f i ILuaObject.obj
 0001:00000d69       ?Base@?$CUtlMemory@U?$UtlLinkedListElem_t@UGroundSeedSpot@@H@@H@@QAEPAU?$UtlLinkedListElem_t@UGroundSeedSpot@@H@@XZ 10001d69 f i nav.obj
 0001:00000d69       ?value@error_code@system@boost@@QBEHXZ 10001d69 f i nav.obj
 0001:00000d69       ?Base@?$CUtlMemory@ULuaKeyValue@@H@@QAEPAULuaKeyValue@@XZ 10001d69 f i ILuaInterface.obj
 0001:00000d69       ?Base@?$CUtlMemory@EH@@QAEPAEXZ 10001d69 f i nav.obj
 0001:00000d69       ?_Mynode@?$_Tree_unchecked_const_iterator@V?$_Tree_val@U?$_Tree_simple_types@U?$pair@QBXUtss_data_node@detail@boost@@@std@@@std@@@std@@U_Iterator_base0@2@@std@@QBEPAU?$_Tree_node@U?$pair@QBXUtss_data_node@detail@boost@@@std@@PAX@2@XZ 10001d69 f i nav.obj
 0001:00000d69       ?Base@?$CUtlMemory@U?$UtlLinkedListElem_t@UAirSeedSpot@@H@@H@@QAEPAU?$UtlLinkedListElem_t@UAirSeedSpot@@H@@XZ 10001d69 f i nav.obj
 0001:00000d69       ?day_number@date@gregorian@boost@@QBEIXZ 10001d69 f i main.obj
 0001:00000d69       ?value@error_condition@std@@QBEHXZ 10001d69 f i ILuaObject.obj
 0001:00000d77       ?ValidateGrowSize@?$CUtlMemory@PAUBorder@@H@@IAEXXZ 10001d77 f i nav.obj
 0001:00000d77       ?_Orphan_all@_Container_base0@std@@QAEXXZ 10001d77 f i nav.obj
 0001:00000d77       ?ValidateGrowSize@?$CUtlMemory@PAVNode@@H@@IAEXXZ 10001d77 f i main.obj
 0001:00000d77       ?ValidateGrowSize@?$CUtlMemory@ULuaKeyValue@@H@@IAEXXZ 10001d77 f i ILuaInterface.obj
 0001:00000d77       ?ValidateGrowSize@?$CUtlMemory@PAUJobInfo_t@@H@@IAEXXZ 10001d77 f i main.obj
 0001:00000d77       ??1ILuaObject@@QAE@XZ      10001d77 f i ILuaObject.obj
 0001:00000d77       ?ValidateGrowSize@?$CUtlMemory@U?$UtlLinkedListElem_t@UGroundSeedSpot@@H@@H@@IAEXXZ 10001d77 f i nav.obj
 0001:00000d77       ?ValidateGrowSize@?$CUtlMemory@U?$UtlLinkedListElem_t@UAirSeedSpot@@H@@H@@IAEXXZ 10001d77 f i nav.obj
 0001:00000d80       ?RemoveAll@?$CUtlVector@ULuaKeyValue@@V?$CUtlMemory@ULuaKeyValue@@H@@@@QAEXXZ 10001d80 f i ILuaInterface.obj
 0001:00000db7       ?GrowVector@?$CUtlVector@ULuaKeyValue@@V?$CUtlMemory@ULuaKeyValue@@H@@@@IAEXH@Z 10001db7 f i ILuaInterface.obj
 0001:00000e0c       ?ShiftElementsRight@?$CUtlVector@ULuaKeyValue@@V?$CUtlMemory@ULuaKeyValue@@H@@@@IAEXHH@Z 10001e0c f i ILuaInterface.obj
 0001:00000e5e       ??$CopyConstruct@ULuaKeyValue@@@@YAXPAULuaKeyValue@@ABU0@@Z 10001e5e f i ILuaInterface.obj
 0001:00000e96       ?Purge@?$CUtlMemory@U?$UtlLinkedListElem_t@UGroundSeedSpot@@H@@H@@QAEXXZ 10001e96 f i nav.obj
 0001:00000e96       ?Purge@?$CUtlMemory@EH@@QAEXXZ 10001e96 f i nav.obj
 0001:00000e96       ?Purge@?$CUtlMemory@PAUJobInfo_t@@H@@QAEXXZ 10001e96 f i main.obj
 0001:00000e96       ?Purge@?$CUtlMemory@U?$UtlLinkedListElem_t@UAirSeedSpot@@H@@H@@QAEXXZ 10001e96 f i nav.obj
 0001:00000e96       ?Purge@?$CUtlMemory@PAVNode@@H@@QAEXXZ 10001e96 f i main.obj
 0001:00000e96       ?Purge@?$CUtlMemory@ULuaKeyValue@@H@@QAEXXZ 10001e96 f i ILuaInterface.obj
 0001:00000e96       ?Purge@?$CUtlMemory@PAUBorder@@H@@QAEXXZ 10001e96 f i nav.obj
 0001:00000edc       ??$Destruct@UGroundSeedSpot@@@@YAXPAUGroundSeedSpot@@@Z 10001edc f i nav.obj
 0001:00000edc       ??$Destruct@PAUJobInfo_t@@@@YAXPAPAUJobInfo_t@@@Z 10001edc f i main.obj
 0001:00000edc       ??3@YAXPAX0@Z              10001edc f i ILuaModuleManager.obj
 0001:00000edc       ??$unused_var@W4dst_flags@date_time@boost@@@?$counted_time_system@U?$counted_time_rep@Vmillisec_posix_time_system_config@posix_time@boost@@@date_time@boost@@@date_time@boost@@SAXABW4dst_flags@12@@Z 10001edc f i main.obj
 0001:00000edc       ??$Destruct@PAUBorder@@@@YAXPAPAUBorder@@@Z 10001edc f i nav.obj
 0001:00000edc       ??$Destruct@UAirSeedSpot@@@@YAXPAUAirSeedSpot@@@Z 10001edc f i nav.obj
 0001:00000edc       ?throw_exception_assert_compatibility@boost@@YAXABVexception@std@@@Z 10001edc f i main.obj
 0001:00000edc       ??$Destruct@PAVNode@@@@YAXPAPAVNode@@@Z 10001edc f i main.obj
 0001:00000edc       ??$Destruct@ULuaKeyValue@@@@YAXPAULuaKeyValue@@@Z 10001edc f i ILuaInterface.obj
 0001:00000ee1       ?NumAllocated@?$CUtlMemory@PAUBorder@@H@@QBEHXZ 10001ee1 f i nav.obj
 0001:00000ee1       ?NumAllocated@?$CUtlMemory@PAVNode@@H@@QBEHXZ 10001ee1 f i nav.obj
 0001:00000ee1       ?NumAllocated@?$CUtlMemory@ULuaKeyValue@@H@@QBEHXZ 10001ee1 f i ILuaInterface.obj
 0001:00000ee1       ?NumAllocated@?$CUtlMemory@PAUJobInfo_t@@H@@QBEHXZ 10001ee1 f i main.obj
 0001:00000ee1       ?size@?$_Tree@V?$_Tmap_traits@PAUlua_State@@PAVILuaInterface@@U?$less@PAUlua_State@@@std@@V?$allocator@U?$pair@QAUlua_State@@PAVILuaInterface@@@std@@@4@$0A@@std@@@std@@QBEIXZ 10001ee1 f i ILuaModuleManager.obj
 0001:00000ee1       ?category@error_code@std@@QBEABVerror_category@2@XZ 10001ee1 f i ILuaObject.obj
 0001:00000ee1       ?category@error_condition@std@@QBEABVerror_category@2@XZ 10001ee1 f i ILuaObject.obj
 0001:00000ef0       ?Grow@?$CUtlMemory@ULuaKeyValue@@H@@QAEXH@Z 10001ef0 f i ILuaInterface.obj
 0001:00000fea       ?IsExternallyAllocated@?$CUtlMemory@ULuaKeyValue@@H@@QBE_NXZ 10001fea f i ILuaInterface.obj
 0001:00000fea       ?IsExternallyAllocated@?$CUtlMemory@PAUJobInfo_t@@H@@QBE_NXZ 10001fea f i main.obj
 0001:00000fea       ?IsExternallyAllocated@?$CUtlMemory@U?$UtlLinkedListElem_t@UAirSeedSpot@@H@@H@@QBE_NXZ 10001fea f i nav.obj
 0001:00000fea       ?IsExternallyAllocated@?$CUtlMemory@PAUBorder@@H@@QBE_NXZ 10001fea f i nav.obj
 0001:00000fea       ?IsExternallyAllocated@?$CUtlMemory@PAVNode@@H@@QBE_NXZ 10001fea f i main.obj
 0001:00000fea       ?IsExternallyAllocated@?$CUtlMemory@U?$UtlLinkedListElem_t@UGroundSeedSpot@@H@@H@@QBE_NXZ 10001fea f i nav.obj
 0001:00000fea       ?IsExternallyAllocated@?$CUtlMemory@EH@@QBE_NXZ 10001fea f i nav.obj
 0001:0000100d       ??$destroy@PAD@?$allocator@D@std@@QAEXPAPAD@Z 1000200d f i ILuaObject.obj
 0001:0000100d       ??$destroy@PAU?$_Tree_node@U?$pair@QAUlua_State@@PAVILuaInterface@@@std@@PAX@std@@@?$allocator@U?$_Tree_node@U?$pair@QAUlua_State@@PAVILuaInterface@@@std@@PAX@std@@@std@@QAEXPAPAU?$_Tree_node@U?$pair@QAUlua_State@@PAVILuaInterface@@@std@@PAX@1@@Z 1000200d f i ILuaModuleManager.obj
 0001:0000100d       ?_Adopt@_Iterator_base0@std@@QAEXPBX@Z 1000200d f i ILuaModuleManager.obj
 0001:0000100d       ??$destroy@U?$pair@PAVcondition_variable@boost@@PAVmutex@2@@std@@@?$allocator@U?$pair@PAVcondition_variable@boost@@PAVmutex@2@@std@@@std@@QAEXPAU?$pair@PAVcondition_variable@boost@@PAVmutex@2@@1@@Z 1000200d f i nav.obj
 0001:0000100d       ??$destroy@PAU?$_Tree_node@U?$pair@QBXUtss_data_node@detail@boost@@@std@@PAX@std@@@?$allocator@U?$_Tree_node@U?$pair@QBXUtss_data_node@detail@boost@@@std@@PAX@std@@@std@@QAEXPAPAU?$_Tree_node@U?$pair@QBXUtss_data_node@detail@boost@@@std@@PAX@1@@Z 1000200d f i nav.obj
 0001:0000100d       ??$destroy@U?$pair@QAUlua_State@@PAVILuaInterface@@@std@@@?$allocator@U?$_Tree_node@U?$pair@QAUlua_State@@PAVILuaInterface@@@std@@PAX@std@@@std@@QAEXPAU?$pair@QAUlua_State@@PAVILuaInterface@@@1@@Z 1000200d f i ILuaModuleManager.obj
 0001:00001018       ?CreateInterface@ILuaModuleManager@@QAEXPAUlua_State@@@Z 10002018 f   ILuaModuleManager.obj
 0001:00001093       ?DestroyInterface@ILuaModuleManager@@QAEXPAUlua_State@@@Z 10002093 f   ILuaModuleManager.obj
 0001:000010df       ??_GILuaInterface@@QAEPAXI@Z 100020df f i ILuaModuleManager.obj
 0001:00001106       ?GetLuaInterface@ILuaModuleManager@@QAEPAVILuaInterface@@PAUlua_State@@@Z 10002106 f   ILuaModuleManager.obj
 0001:0000111f       ??0ILuaModuleManager@@QAE@XZ 1000211f f i ILuaModuleManager.obj
 0001:00001133       ??0?$map@PAUlua_State@@PAVILuaInterface@@U?$less@PAUlua_State@@@std@@V?$allocator@U?$pair@QAUlua_State@@PAVILuaInterface@@@std@@@4@@std@@QAE@XZ 10002133 f i ILuaModuleManager.obj
 0001:00001155       ??A?$map@PAUlua_State@@PAVILuaInterface@@U?$less@PAUlua_State@@@std@@V?$allocator@U?$pair@QAUlua_State@@PAVILuaInterface@@@std@@@4@@std@@QAEAAPAVILuaInterface@@ABQAUlua_State@@@Z 10002155 f i ILuaModuleManager.obj
 0001:000011f7       ?erase@?$_Tree@V?$_Tmap_traits@PAUlua_State@@PAVILuaInterface@@U?$less@PAUlua_State@@@std@@V?$allocator@U?$pair@QAUlua_State@@PAVILuaInterface@@@std@@@4@$0A@@std@@@std@@QAEIABQAUlua_State@@@Z 100021f7 f i ILuaModuleManager.obj
 0001:00001255       ??0?$_Tree@V?$_Tmap_traits@PAUlua_State@@PAVILuaInterface@@U?$less@PAUlua_State@@@std@@V?$allocator@U?$pair@QAUlua_State@@PAVILuaInterface@@@std@@@4@$0A@@std@@@std@@QAE@ABU?$less@PAUlua_State@@@1@ABV?$allocator@U?$pair@QAUlua_State@@PAVILuaInterface@@@std@@@1@@Z 10002255 f i ILuaModuleManager.obj
 0001:00001271       ?end@?$_Tree@V?$_Tmap_traits@PBXUtss_data_node@detail@boost@@U?$less@PBX@std@@V?$allocator@U?$pair@QBXUtss_data_node@detail@boost@@@std@@@5@$0A@@std@@@std@@QAE?AV?$_Tree_iterator@V?$_Tree_val@U?$_Tree_simple_types@U?$pair@QBXUtss_data_node@detail@boost@@@std@@@std@@@std@@@2@XZ 10002271 f i nav.obj
 0001:00001271       ?end@?$_Tree@V?$_Tmap_traits@PAUlua_State@@PAVILuaInterface@@U?$less@PAUlua_State@@@std@@V?$allocator@U?$pair@QAUlua_State@@PAVILuaInterface@@@std@@@4@$0A@@std@@@std@@QAE?AV?$_Tree_iterator@V?$_Tree_val@U?$_Tree_simple_types@U?$pair@QAUlua_State@@PAVILuaInterface@@@std@@@std@@@std@@@2@XZ 10002271 f i ILuaModuleManager.obj
 0001:0000128f       ?erase@?$_Tree@V?$_Tmap_traits@PAUlua_State@@PAVILuaInterface@@U?$less@PAUlua_State@@@std@@V?$allocator@U?$pair@QAUlua_State@@PAVILuaInterface@@@std@@@4@$0A@@std@@@std@@QAE?AV?$_Tree_iterator@V?$_Tree_val@U?$_Tree_simple_types@U?$pair@QAUlua_State@@PAVILuaInterface@@@std@@@std@@@std@@@2@V?$_Tree_const_iterator@V?$_Tree_val@U?$_Tree_simple_types@U?$pair@QAUlua_State@@PAVILuaInterface@@@std@@@std@@@std@@@2@0@Z 1000228f f i ILuaModuleManager.obj
 0001:00001330       ?lower_bound@?$_Tree@V?$_Tmap_traits@PAUlua_State@@PAVILuaInterface@@U?$less@PAUlua_State@@@std@@V?$allocator@U?$pair@QAUlua_State@@PAVILuaInterface@@@std@@@4@$0A@@std@@@std@@QAE?AV?$_Tree_iterator@V?$_Tree_val@U?$_Tree_simple_types@U?$pair@QAUlua_State@@PAVILuaInterface@@@std@@@std@@@std@@@2@ABQAUlua_State@@@Z 10002330 f i ILuaModuleManager.obj
 0001:00001355       ?equal_range@?$_Tree@V?$_Tmap_traits@PAUlua_State@@PAVILuaInterface@@U?$less@PAUlua_State@@@std@@V?$allocator@U?$pair@QAUlua_State@@PAVILuaInterface@@@std@@@4@$0A@@std@@@std@@QAE?AU?$pair@V?$_Tree_iterator@V?$_Tree_val@U?$_Tree_simple_types@U?$pair@QAUlua_State@@PAVILuaInterface@@@std@@@std@@@std@@@std@@V12@@2@ABQAUlua_State@@@Z 10002355 f i ILuaModuleManager.obj
 0001:0000137f       ?_Key@?$_Tree@V?$_Tmap_traits@PAUlua_State@@PAVILuaInterface@@U?$less@PAUlua_State@@@std@@V?$allocator@U?$pair@QAUlua_State@@PAVILuaInterface@@@std@@@4@$0A@@std@@@std@@IBEABQAUlua_State@@PAU?$_Tree_node@U?$pair@QAUlua_State@@PAVILuaInterface@@@std@@PAX@2@@Z 1000237f f i ILuaModuleManager.obj
 0001:0000139c       ??R?$less@PAUlua_State@@@std@@QBE_NABQAUlua_State@@0@Z 1000239c f i ILuaModuleManager.obj
 0001:000013c4       ?_Getcomp@?$_Tree_comp@$0A@V?$_Tmap_traits@PAUlua_State@@PAVILuaInterface@@U?$less@PAUlua_State@@@std@@V?$allocator@U?$pair@QAUlua_State@@PAVILuaInterface@@@std@@@4@$0A@@std@@@std@@QBE?AU?$less@PAUlua_State@@@2@XZ 100023c4 f i ILuaModuleManager.obj
 0001:000013d2       ??0?$allocator@U?$_Tree_node@U?$pair@QBXUtss_data_node@detail@boost@@@std@@PAX@std@@@std@@QAE@XZ 100023d2 f i nav.obj
 0001:000013d2       ??0?$arg@$07@boost@@QAE@XZ 100023d2 f i main.obj
 0001:000013d2       ??0?$arg@$02@boost@@QAE@XZ 100023d2 f i main.obj
 0001:000013d2       ??0?$allocator@U?$pair@QBXUtss_data_node@detail@boost@@@std@@@std@@QAE@XZ 100023d2 f i nav.obj
 0001:000013d2       ??0?$allocator@U?$pair@QAUlua_State@@PAVILuaInterface@@@std@@@std@@QAE@XZ 100023d2 f i ILuaModuleManager.obj
 0001:000013d2       ??0?$arg@$01@boost@@QAE@XZ 100023d2 f i main.obj
 0001:000013d2       ??0?$arg@$08@boost@@QAE@XZ 100023d2 f i main.obj
 0001:000013d2       ??0?$arg@$00@boost@@QAE@XZ 100023d2 f i main.obj
 0001:000013d2       ?get@?$value@PAVNav@@@_bi@boost@@QAEAAPAVNav@@XZ 100023d2 f i nav.obj
 0001:000013d2       ??0?$allocator@D@std@@QAE@XZ 100023d2 f i ILuaObject.obj
 0001:000013d2       ??0?$allocator@U?$_Tree_node@U?$pair@QAUlua_State@@PAVILuaInterface@@@std@@PAX@std@@@std@@QAE@XZ 100023d2 f i ILuaModuleManager.obj
 0001:000013d2       ?GetPosition@Node@@QAEPBVVector@@XZ 100023d2 f i node.obj
 0001:000013d2       ??0?$arg@$06@boost@@QAE@XZ 100023d2 f i main.obj
 0001:000013d2       ??0list0@_bi@boost@@QAE@XZ 100023d2 f i nav.obj
 0001:000013d2       ??0?$arg@$03@boost@@QAE@XZ 100023d2 f i main.obj
 0001:000013d2       ??0Vector@@QAE@XZ          100023d2 f i main.obj
 0001:000013d2       ?get@?$value@PAVNode@@@_bi@boost@@QAEAAPAVNode@@XZ 100023d2 f i nav.obj
 0001:000013d2       ??0?$arg@$04@boost@@QAE@XZ 100023d2 f i main.obj
 0001:000013d2       ?get@?$value@PAUJobInfo_t@@@_bi@boost@@QAEAAPAUJobInfo_t@@XZ 100023d2 f i nav.obj
 0001:000013d2       ?get@?$value@PA_N@_bi@boost@@QAEAAPA_NXZ 100023d2 f i nav.obj
 0001:000013d2       ??0_Ignore@std@@QAE@XZ     100023d2 f i main.obj
 0001:000013d2       ??0?$arg@$05@boost@@QAE@XZ 100023d2 f i main.obj
 0001:000013d2       ??0?$allocator@U?$pair@PAVcondition_variable@boost@@PAVmutex@2@@std@@@std@@QAE@XZ 100023d2 f i nav.obj
 0001:000013de       ??8?$_Tree_const_iterator@V?$_Tree_val@U?$_Tree_simple_types@U?$pair@QAUlua_State@@PAVILuaInterface@@@std@@@std@@@std@@@std@@QBE_NABV01@@Z 100023de f i ILuaModuleManager.obj
 0001:000013de       ??8?$_Tree_const_iterator@V?$_Tree_val@U?$_Tree_simple_types@U?$pair@QBXUtss_data_node@detail@boost@@@std@@@std@@@std@@@std@@QBE_NABV01@@Z 100023de f i nav.obj
 0001:00001406       ??C?$_Tree_iterator@V?$_Tree_val@U?$_Tree_simple_types@U?$pair@QAUlua_State@@PAVILuaInterface@@@std@@@std@@@std@@@std@@QBEPAU?$pair@QAUlua_State@@PAVILuaInterface@@@1@XZ 10002406 f i ILuaModuleManager.obj
 0001:0000141e       ?begin@?$_Tree@V?$_Tmap_traits@PAUlua_State@@PAVILuaInterface@@U?$less@PAUlua_State@@@std@@V?$allocator@U?$pair@QAUlua_State@@PAVILuaInterface@@@std@@@4@$0A@@std@@@std@@QAE?AV?$_Tree_iterator@V?$_Tree_val@U?$_Tree_simple_types@U?$pair@QAUlua_State@@PAVILuaInterface@@@std@@@std@@@std@@@2@XZ 1000241e f i ILuaModuleManager.obj
 0001:0000141e       ?begin@?$_Tree@V?$_Tmap_traits@PBXUtss_data_node@detail@boost@@U?$less@PBX@std@@V?$allocator@U?$pair@QBXUtss_data_node@detail@boost@@@std@@@5@$0A@@std@@@std@@QAE?AV?$_Tree_iterator@V?$_Tree_val@U?$_Tree_simple_types@U?$pair@QBXUtss_data_node@detail@boost@@@std@@@std@@@std@@@2@XZ 1000241e f i nav.obj
 0001:00001441       ?erase@?$_Tree@V?$_Tmap_traits@PAUlua_State@@PAVILuaInterface@@U?$less@PAUlua_State@@@std@@V?$allocator@U?$pair@QAUlua_State@@PAVILuaInterface@@@std@@@4@$0A@@std@@@std@@QAE?AV?$_Tree_iterator@V?$_Tree_val@U?$_Tree_simple_types@U?$pair@QAUlua_State@@PAVILuaInterface@@@std@@@std@@@std@@@2@V?$_Tree_const_iterator@V?$_Tree_val@U?$_Tree_simple_types@U?$pair@QAUlua_State@@PAVILuaInterface@@@std@@@std@@@std@@@2@@Z 10002441 f i ILuaModuleManager.obj
 0001:00001ab1       ?clear@?$_Tree@V?$_Tmap_traits@PAUlua_State@@PAVILuaInterface@@U?$less@PAUlua_State@@@std@@V?$allocator@U?$pair@QAUlua_State@@PAVILuaInterface@@@std@@@4@$0A@@std@@@std@@QAEXXZ 10002ab1 f i ILuaModuleManager.obj
 0001:00001b00       ?_Eqrange@?$_Tree@V?$_Tmap_traits@PAUlua_State@@PAVILuaInterface@@U?$less@PAUlua_State@@@std@@V?$allocator@U?$pair@QAUlua_State@@PAVILuaInterface@@@std@@@4@$0A@@std@@@std@@IAE?AU?$pair@V?$_Tree_iterator@V?$_Tree_val@U?$_Tree_simple_types@U?$pair@QAUlua_State@@PAVILuaInterface@@@std@@@std@@@std@@@std@@V12@@2@ABQAUlua_State@@@Z 10002b00 f i ILuaModuleManager.obj
 0001:00001c9d       ?_Lbound@?$_Tree@V?$_Tmap_traits@PAUlua_State@@PAVILuaInterface@@U?$less@PAUlua_State@@@std@@V?$allocator@U?$pair@QAUlua_State@@PAVILuaInterface@@@std@@@4@$0A@@std@@@std@@IAEPAU?$_Tree_node@U?$pair@QAUlua_State@@PAVILuaInterface@@@std@@PAX@2@ABQAUlua_State@@@Z 10002c9d f i ILuaModuleManager.obj
 0001:00001d21       ?_Kfn@?$_Tree@V?$_Tmap_traits@PAUlua_State@@PAVILuaInterface@@U?$less@PAUlua_State@@@std@@V?$allocator@U?$pair@QAUlua_State@@PAVILuaInterface@@@std@@@4@$0A@@std@@@std@@IBEABQAUlua_State@@ABU?$pair@QAUlua_State@@PAVILuaInterface@@@2@@Z 10002d21 f i ILuaModuleManager.obj
 0001:00001d35       ??0?$_Tree_comp@$0A@V?$_Tmap_traits@PAUlua_State@@PAVILuaInterface@@U?$less@PAUlua_State@@@std@@V?$allocator@U?$pair@QAUlua_State@@PAVILuaInterface@@@std@@@4@$0A@@std@@@std@@QAE@ABU?$less@PAUlua_State@@@1@ABV?$allocator@U?$pair@QAUlua_State@@PAVILuaInterface@@@std@@@1@@Z 10002d35 f i ILuaModuleManager.obj
 0001:00001d4e       ?_Myval@?$_Tree_val@U?$_Tree_simple_types@U?$pair@QAUlua_State@@PAVILuaInterface@@@std@@@std@@@std@@SAAAU?$pair@QAUlua_State@@PAVILuaInterface@@@2@PAU?$_Tree_node@U?$pair@QAUlua_State@@PAVILuaInterface@@@std@@PAX@2@@Z 10002d4e f i ILuaModuleManager.obj
 0001:00001d4e       ?_Myval@?$_Tree_val@U?$_Tree_simple_types@U?$pair@QBXUtss_data_node@detail@boost@@@std@@@std@@@std@@SAAAU?$pair@QBXUtss_data_node@detail@boost@@@2@PAU?$_Tree_node@U?$pair@QBXUtss_data_node@detail@boost@@@std@@PAX@2@@Z 10002d4e f i nav.obj
 0001:00001d59       ??E?$_Tree_const_iterator@V?$_Tree_val@U?$_Tree_simple_types@U?$pair@QAUlua_State@@PAVILuaInterface@@@std@@@std@@@std@@@std@@QAE?AV01@H@Z 10002d59 f i ILuaModuleManager.obj
 0001:00001d59       ??E?$_Tree_const_iterator@V?$_Tree_val@U?$_Tree_simple_types@U?$pair@QBXUtss_data_node@detail@boost@@@std@@@std@@@std@@@std@@QAE?AV01@H@Z 10002d59 f i nav.obj
 0001:00001d80       ??9?$_Tree_const_iterator@V?$_Tree_val@U?$_Tree_simple_types@U?$pair@QAUlua_State@@PAVILuaInterface@@@std@@@std@@@std@@@std@@QBE_NABV01@@Z 10002d80 f i ILuaModuleManager.obj
 0001:00001d80       ??9?$_Tree_const_iterator@V?$_Tree_val@U?$_Tree_simple_types@U?$pair@QBXUtss_data_node@detail@boost@@@std@@@std@@@std@@@std@@QBE_NABV01@@Z 10002d80 f i nav.obj
 0001:00001dae       ??0?$_Tree_iterator@V?$_Tree_val@U?$_Tree_simple_types@U?$pair@QBXUtss_data_node@detail@boost@@@std@@@std@@@std@@@std@@QAE@PAU?$_Tree_node@U?$pair@QBXUtss_data_node@detail@boost@@@std@@PAX@1@PBV?$_Tree_val@U?$_Tree_simple_types@U?$pair@QBXUtss_data_node@detail@boost@@@std@@@std@@@1@@Z 10002dae f i nav.obj
 0001:00001dae       ??0?$_Tree_iterator@V?$_Tree_val@U?$_Tree_simple_types@U?$pair@QAUlua_State@@PAVILuaInterface@@@std@@@std@@@std@@@std@@QAE@PAU?$_Tree_node@U?$pair@QAUlua_State@@PAVILuaInterface@@@std@@PAX@1@PBV?$_Tree_val@U?$_Tree_simple_types@U?$pair@QAUlua_State@@PAVILuaInterface@@@std@@@std@@@1@@Z 10002dae f i ILuaModuleManager.obj
 0001:00001dca       ??D?$_Tree_iterator@V?$_Tree_val@U?$_Tree_simple_types@U?$pair@QAUlua_State@@PAVILuaInterface@@@std@@@std@@@std@@@std@@QBEAAU?$pair@QAUlua_State@@PAVILuaInterface@@@1@XZ 10002dca f i ILuaModuleManager.obj
 0001:00001ddb       ?pointer_to@?$pointer_traits@PAU?$pair@QAUlua_State@@PAVILuaInterface@@@std@@@std@@SAPAU?$pair@QAUlua_State@@PAVILuaInterface@@@2@AAU32@@Z 10002ddb f i ILuaModuleManager.obj
 0001:00001de9       ?_Erase@?$_Tree@V?$_Tmap_traits@PAUlua_State@@PAVILuaInterface@@U?$less@PAUlua_State@@@std@@V?$allocator@U?$pair@QAUlua_State@@PAVILuaInterface@@@std@@@4@$0A@@std@@@std@@IAEXPAU?$_Tree_node@U?$pair@QAUlua_State@@PAVILuaInterface@@@std@@PAX@2@@Z 10002de9 f i ILuaModuleManager.obj
 0001:00001e73       ?_Lmost@?$_Tree@V?$_Tmap_traits@PAUlua_State@@PAVILuaInterface@@U?$less@PAUlua_State@@@std@@V?$allocator@U?$pair@QAUlua_State@@PAVILuaInterface@@@std@@@4@$0A@@std@@@std@@IBEAAPAU?$_Tree_node@U?$pair@QAUlua_State@@PAVILuaInterface@@@std@@PAX@2@XZ 10002e73 f i ILuaModuleManager.obj
 0001:00001e73       ?_Lmost@?$_Tree@V?$_Tmap_traits@PBXUtss_data_node@detail@boost@@U?$less@PBX@std@@V?$allocator@U?$pair@QBXUtss_data_node@detail@boost@@@std@@@5@$0A@@std@@@std@@IBEAAPAU?$_Tree_node@U?$pair@QBXUtss_data_node@detail@boost@@@std@@PAX@2@XZ 10002e73 f i nav.obj
 0001:00001e87       ?_Lrotate@?$_Tree@V?$_Tmap_traits@PBXUtss_data_node@detail@boost@@U?$less@PBX@std@@V?$allocator@U?$pair@QBXUtss_data_node@detail@boost@@@std@@@5@$0A@@std@@@std@@IAEXPAU?$_Tree_node@U?$pair@QBXUtss_data_node@detail@boost@@@std@@PAX@2@@Z 10002e87 f i nav.obj
 0001:00001e87       ?_Lrotate@?$_Tree@V?$_Tmap_traits@PAUlua_State@@PAVILuaInterface@@U?$less@PAUlua_State@@@std@@V?$allocator@U?$pair@QAUlua_State@@PAVILuaInterface@@@std@@@4@$0A@@std@@@std@@IAEXPAU?$_Tree_node@U?$pair@QAUlua_State@@PAVILuaInterface@@@std@@PAX@2@@Z 10002e87 f i ILuaModuleManager.obj
 0001:00001f81       ?_Rmost@?$_Tree@V?$_Tmap_traits@PBXUtss_data_node@detail@boost@@U?$less@PBX@std@@V?$allocator@U?$pair@QBXUtss_data_node@detail@boost@@@std@@@5@$0A@@std@@@std@@IBEAAPAU?$_Tree_node@U?$pair@QBXUtss_data_node@detail@boost@@@std@@PAX@2@XZ 10002f81 f i nav.obj
 0001:00001f81       ?_Rmost@?$_Tree@V?$_Tmap_traits@PAUlua_State@@PAVILuaInterface@@U?$less@PAUlua_State@@@std@@V?$allocator@U?$pair@QAUlua_State@@PAVILuaInterface@@@std@@@4@$0A@@std@@@std@@IBEAAPAU?$_Tree_node@U?$pair@QAUlua_State@@PAVILuaInterface@@@std@@PAX@2@XZ 10002f81 f i ILuaModuleManager.obj
 0001:00001f95       ?_Root@?$_Tree@V?$_Tmap_traits@PAUlua_State@@PAVILuaInterface@@U?$less@PAUlua_State@@@std@@V?$allocator@U?$pair@QAUlua_State@@PAVILuaInterface@@@std@@@4@$0A@@std@@@std@@IBEAAPAU?$_Tree_node@U?$pair@QAUlua_State@@PAVILuaInterface@@@std@@PAX@2@XZ 10002f95 f i ILuaModuleManager.obj
 0001:00001f95       ?_Root@?$_Tree@V?$_Tmap_traits@PBXUtss_data_node@detail@boost@@U?$less@PBX@std@@V?$allocator@U?$pair@QBXUtss_data_node@detail@boost@@@std@@@5@$0A@@std@@@std@@IBEAAPAU?$_Tree_node@U?$pair@QBXUtss_data_node@detail@boost@@@std@@PAX@2@XZ 10002f95 f i nav.obj
 0001:00001fa9       ?_Rrotate@?$_Tree@V?$_Tmap_traits@PAUlua_State@@PAVILuaInterface@@U?$less@PAUlua_State@@@std@@V?$allocator@U?$pair@QAUlua_State@@PAVILuaInterface@@@std@@@4@$0A@@std@@@std@@IAEXPAU?$_Tree_node@U?$pair@QAUlua_State@@PAVILuaInterface@@@std@@PAX@2@@Z 10002fa9 f i ILuaModuleManager.obj
 0001:00001fa9       ?_Rrotate@?$_Tree@V?$_Tmap_traits@PBXUtss_data_node@detail@boost@@U?$less@PBX@std@@V?$allocator@U?$pair@QBXUtss_data_node@detail@boost@@@std@@@5@$0A@@std@@@std@@IAEXPAU?$_Tree_node@U?$pair@QBXUtss_data_node@detail@boost@@@std@@PAX@2@@Z 10002fa9 f i nav.obj
 0001:000020a3       ??0?$_Tree_buy@U?$pair@QAUlua_State@@PAVILuaInterface@@@std@@V?$allocator@U?$pair@QAUlua_State@@PAVILuaInterface@@@std@@@2@@std@@QAE@ABV?$allocator@U?$pair@QAUlua_State@@PAVILuaInterface@@@std@@@1@@Z 100030a3 f i ILuaModuleManager.obj
 0001:000020bc       ?_Getal@?$_Vector_alloc@$0A@U?$_Vec_base_types@U?$pair@PAVcondition_variable@boost@@PAVmutex@2@@std@@V?$allocator@U?$pair@PAVcondition_variable@boost@@PAVmutex@2@@std@@@2@@std@@@std@@QBE?AU?$_Wrap_alloc@V?$allocator@U?$pair@PAVcondition_variable@boost@@PAVmutex@2@@std@@@std@@@2@XZ 100030bc f i nav.obj
 0001:000020bc       ?_Getal@?$_Tree_alloc@$0A@U?$_Tree_base_types@U?$pair@QAUlua_State@@PAVILuaInterface@@@std@@V?$allocator@U?$pair@QAUlua_State@@PAVILuaInterface@@@std@@@2@@std@@@std@@QBE?AU?$_Wrap_alloc@V?$allocator@U?$_Tree_node@U?$pair@QAUlua_State@@PAVILuaInterface@@@std@@PAX@std@@@std@@@2@XZ 100030bc f i ILuaModuleManager.obj
 0001:000020bc       ?_Getal@?$_Tree_alloc@$0A@U?$_Tree_base_types@U?$pair@QBXUtss_data_node@detail@boost@@@std@@V?$allocator@U?$pair@QBXUtss_data_node@detail@boost@@@std@@@2@@std@@@std@@QBE?AU?$_Wrap_alloc@V?$allocator@U?$_Tree_node@U?$pair@QBXUtss_data_node@detail@boost@@@std@@PAX@std@@@std@@@2@XZ 100030bc f i nav.obj
 0001:000020bc       ?_Getal@?$_String_alloc@$0A@U?$_String_base_types@DV?$allocator@D@std@@@std@@@std@@QBE?AU?$_Wrap_alloc@V?$allocator@D@std@@@2@XZ 100030bc f i ILuaObject.obj
 0001:000020d2       ?deallocate@?$_Wrap_alloc@V?$allocator@U?$_Tree_node@U?$pair@QBXUtss_data_node@detail@boost@@@std@@PAX@std@@@std@@@std@@QAEXPAU?$_Tree_node@U?$pair@QBXUtss_data_node@detail@boost@@@std@@PAX@2@I@Z 100030d2 f i nav.obj
 0001:000020d2       ?deallocate@?$_Wrap_alloc@V?$allocator@U?$pair@PAVcondition_variable@boost@@PAVmutex@2@@std@@@std@@@std@@QAEXPAU?$pair@PAVcondition_variable@boost@@PAVmutex@2@@2@I@Z 100030d2 f i nav.obj
 0001:000020d2       ?deallocate@?$_Wrap_alloc@V?$allocator@U?$_Tree_node@U?$pair@QAUlua_State@@PAVILuaInterface@@@std@@PAX@std@@@std@@@std@@QAEXPAU?$_Tree_node@U?$pair@QAUlua_State@@PAVILuaInterface@@@std@@PAX@2@I@Z 100030d2 f i ILuaModuleManager.obj
 0001:000020d2       ?deallocate@?$_Wrap_alloc@V?$allocator@D@std@@@std@@QAEXPADI@Z 100030d2 f i ILuaObject.obj
 0001:000020eb       ?_Color@?$_Tree_val@U?$_Tree_simple_types@U?$pair@QBXUtss_data_node@detail@boost@@@std@@@std@@@std@@SAAADPAU?$_Tree_node@U?$pair@QBXUtss_data_node@detail@boost@@@std@@PAX@2@@Z 100030eb f i nav.obj
 0001:000020eb       ?_Color@?$_Tree_val@U?$_Tree_simple_types@U?$pair@QAUlua_State@@PAVILuaInterface@@@std@@@std@@@std@@SAAADPAU?$_Tree_node@U?$pair@QAUlua_State@@PAVILuaInterface@@@std@@PAX@2@@Z 100030eb f i ILuaModuleManager.obj
 0001:000020f6       ?_Isnil@?$_Tree_val@U?$_Tree_simple_types@U?$pair@QBXUtss_data_node@detail@boost@@@std@@@std@@@std@@SAAADPAU?$_Tree_node@U?$pair@QBXUtss_data_node@detail@boost@@@std@@PAX@2@@Z 100030f6 f i nav.obj
 0001:000020f6       ?_Isnil@?$_Tree_val@U?$_Tree_simple_types@U?$pair@QAUlua_State@@PAVILuaInterface@@@std@@@std@@@std@@SAAADPAU?$_Tree_node@U?$pair@QAUlua_State@@PAVILuaInterface@@@std@@PAX@2@@Z 100030f6 f i ILuaModuleManager.obj
 0001:00002101       ?unwrap@?$unwrapper@V?$mf3@XVNav@@PAUJobInfo_t@@PAVNode@@PAV3@@_mfi@boost@@@_bi@boost@@SAAAV?$mf3@XVNav@@PAUJobInfo_t@@PAVNode@@PAV3@@_mfi@3@AAV453@J@Z 10003101 f i nav.obj
 0001:00002101       ??$forward@U?$pair@PAUlua_State@@PAVILuaInterface@@@std@@@std@@YA$$QAU?$pair@PAUlua_State@@PAVILuaInterface@@@0@AAU10@@Z 10003101 f i ILuaModuleManager.obj
 0001:00002101       ??$forward@ABQAUlua_State@@@std@@YAABQAUlua_State@@ABQAU1@@Z 10003101 f i ILuaModuleManager.obj
 0001:00002101       ??$addressof@U?$pair@QBXUtss_data_node@detail@boost@@@std@@@std@@YAPAU?$pair@QBXUtss_data_node@detail@boost@@@0@AAU10@@Z 10003101 f i nav.obj
 0001:00002101       ??$forward@V?$bind_t@XV?$mf3@XVNav@@PAUJobInfo_t@@PAVNode@@PAV3@@_mfi@boost@@V?$list4@V?$value@PAVNav@@@_bi@boost@@V?$value@PAUJobInfo_t@@@23@V?$value@PAVNode@@@23@V523@@_bi@3@@_bi@boost@@AAV123@@boost@@YA$$QAV?$bind_t@XV?$mf3@XVNav@@PAUJobInfo_t@@PAVNode@@PAV3@@_mfi@boost@@V?$list4@V?$value@PAVNav@@@_bi@boost@@V?$value@PAUJobInfo_t@@@23@V?$value@PAVNode@@@23@V523@@_bi@3@@_bi@0@AAV120@PAX@Z 10003101 f i nav.obj
 0001:00002101       ??$_Move@AAD@std@@YA$$QADAAD@Z 10003101 f i ILuaModuleManager.obj
 0001:00002101       ??$addressof@U?$pair@QAUlua_State@@PAVILuaInterface@@@std@@@std@@YAPAU?$pair@QAUlua_State@@PAVILuaInterface@@@0@AAU10@@Z 10003101 f i ILuaModuleManager.obj
 0001:00002101       ??$forward@V?$_Tree_iterator@V?$_Tree_val@U?$_Tree_simple_types@U?$pair@QAUlua_State@@PAVILuaInterface@@@std@@@std@@@std@@@std@@@std@@YA$$QAV?$_Tree_iterator@V?$_Tree_val@U?$_Tree_simple_types@U?$pair@QAUlua_State@@PAVILuaInterface@@@std@@@std@@@std@@@0@AAV10@@Z 10003101 f i ILuaModuleManager.obj
 0001:00002101       ??$_Kfn@QAUlua_State@@PAVILuaInterface@@@?$_Tmap_traits@PAUlua_State@@PAVILuaInterface@@U?$less@PAUlua_State@@@std@@V?$allocator@U?$pair@QAUlua_State@@PAVILuaInterface@@@std@@@4@$0A@@std@@SAABQAUlua_State@@ABU?$pair@QAUlua_State@@PAVILuaInterface@@@1@@Z 10003101 f i ILuaModuleManager.obj
 0001:00002101       ??$addressof@PAU?$_Tree_node@U?$pair@QBXUtss_data_node@detail@boost@@@std@@PAX@std@@@std@@YAPAPAU?$_Tree_node@U?$pair@QBXUtss_data_node@detail@boost@@@std@@PAX@0@AAPAU10@@Z 10003101 f i nav.obj
 0001:00002101       ??$forward@AAPAU?$_Tree_node@U?$pair@QBXUtss_data_node@detail@boost@@@std@@PAX@std@@@std@@YAAAPAU?$_Tree_node@U?$pair@QBXUtss_data_node@detail@boost@@@std@@PAX@0@AAPAU10@@Z 10003101 f i nav.obj
 0001:00002101       ?_Left@?$_Tree_val@U?$_Tree_simple_types@U?$pair@QAUlua_State@@PAVILuaInterface@@@std@@@std@@@std@@SAAAPAU?$_Tree_node@U?$pair@QAUlua_State@@PAVILuaInterface@@@std@@PAX@2@PAU32@@Z 10003101 f i ILuaModuleManager.obj
 0001:00002101       ??$forward@_N@std@@YA$$QA_NAA_N@Z 10003101 f i ILuaModuleManager.obj
 0001:00002101       ?_Left@?$_Tree_val@U?$_Tree_simple_types@U?$pair@QBXUtss_data_node@detail@boost@@@std@@@std@@@std@@SAAAPAU?$_Tree_node@U?$pair@QBXUtss_data_node@detail@boost@@@std@@PAX@2@PAU32@@Z 10003101 f i nav.obj
 0001:00002101       ??$forward@AAPAU?$_Tree_node@U?$pair@QAUlua_State@@PAVILuaInterface@@@std@@PAX@std@@@std@@YAAAPAU?$_Tree_node@U?$pair@QAUlua_State@@PAVILuaInterface@@@std@@PAX@0@AAPAU10@@Z 10003101 f i ILuaModuleManager.obj
 0001:00002101       ??$forward@AAPAD@std@@YAAAPADAAPAD@Z 10003101 f i ILuaObject.obj
 0001:00002101       ?unwrap@?$unwrapper@V?$mf1@XVNav@@PA_N@_mfi@boost@@@_bi@boost@@SAAAV?$mf1@XVNav@@PA_N@_mfi@3@AAV453@J@Z 10003101 f i nav.obj
 0001:00002101       ??$addressof@D@std@@YAPADAAD@Z 10003101 f i ILuaObject.obj
 0001:00002101       ??$forward@AAU?$pair@QAUlua_State@@PAVILuaInterface@@@std@@@std@@YAAAU?$pair@QAUlua_State@@PAVILuaInterface@@@0@AAU10@@Z 10003101 f i ILuaModuleManager.obj
 0001:00002101       ??$forward@V?$bind_t@XV?$mf1@XVNav@@PA_N@_mfi@boost@@V?$list2@V?$value@PAVNav@@@_bi@boost@@V?$value@PA_N@23@@_bi@3@@_bi@boost@@AAV123@@boost@@YA$$QAV?$bind_t@XV?$mf1@XVNav@@PA_N@_mfi@boost@@V?$list2@V?$value@PAVNav@@@_bi@boost@@V?$value@PA_N@23@@_bi@3@@_bi@0@AAV120@PAX@Z 10003101 f i nav.obj
 0001:00002101       ??$forward@AAV?$_Tree_iterator@V?$_Tree_val@U?$_Tree_simple_types@U?$pair@QAUlua_State@@PAVILuaInterface@@@std@@@std@@@std@@@std@@@std@@YAAAV?$_Tree_iterator@V?$_Tree_val@U?$_Tree_simple_types@U?$pair@QAUlua_State@@PAVILuaInterface@@@std@@@std@@@std@@@0@AAV10@@Z 10003101 f i ILuaModuleManager.obj
 0001:00002101       ??$forward@PAUlua_State@@@std@@YA$$QAPAUlua_State@@AAPAU1@@Z 10003101 f i ILuaModuleManager.obj
 0001:00002101       ??$forward@PAVILuaInterface@@@std@@YA$$QAPAVILuaInterface@@AAPAV1@@Z 10003101 f i ILuaModuleManager.obj
 0001:00002101       ??$addressof@PAU?$_Tree_node@U?$pair@QAUlua_State@@PAVILuaInterface@@@std@@PAX@std@@@std@@YAPAPAU?$_Tree_node@U?$pair@QAUlua_State@@PAVILuaInterface@@@std@@PAX@0@AAPAU10@@Z 10003101 f i ILuaModuleManager.obj
 0001:00002109       ?_Parent@?$_Tree_val@U?$_Tree_simple_types@U?$pair@QAUlua_State@@PAVILuaInterface@@@std@@@std@@@std@@SAAAPAU?$_Tree_node@U?$pair@QAUlua_State@@PAVILuaInterface@@@std@@PAX@2@PAU32@@Z 10003109 f i ILuaModuleManager.obj
 0001:00002109       ?_Parent@?$_Tree_val@U?$_Tree_simple_types@U?$pair@QBXUtss_data_node@detail@boost@@@std@@@std@@@std@@SAAAPAU?$_Tree_node@U?$pair@QBXUtss_data_node@detail@boost@@@std@@PAX@2@PAU32@@Z 10003109 f i nav.obj
 0001:00002114       ?_Right@?$_Tree_val@U?$_Tree_simple_types@U?$pair@QAUlua_State@@PAVILuaInterface@@@std@@@std@@@std@@SAAAPAU?$_Tree_node@U?$pair@QAUlua_State@@PAVILuaInterface@@@std@@PAX@2@PAU32@@Z 10003114 f i ILuaModuleManager.obj
 0001:00002114       ?_Right@?$_Tree_val@U?$_Tree_simple_types@U?$pair@QBXUtss_data_node@detail@boost@@@std@@@std@@@std@@SAAAPAU?$_Tree_node@U?$pair@QBXUtss_data_node@detail@boost@@@std@@PAX@2@PAU32@@Z 10003114 f i nav.obj
 0001:0000211f       ?_Max@?$_Tree_val@U?$_Tree_simple_types@U?$pair@QAUlua_State@@PAVILuaInterface@@@std@@@std@@@std@@SAPAU?$_Tree_node@U?$pair@QAUlua_State@@PAVILuaInterface@@@std@@PAX@2@PAU32@@Z 1000311f f i ILuaModuleManager.obj
 0001:0000211f       ?_Max@?$_Tree_val@U?$_Tree_simple_types@U?$pair@QBXUtss_data_node@detail@boost@@@std@@@std@@@std@@SAPAU?$_Tree_node@U?$pair@QBXUtss_data_node@detail@boost@@@std@@PAX@2@PAU32@@Z 1000311f f i nav.obj
 0001:0000214f       ?_Min@?$_Tree_val@U?$_Tree_simple_types@U?$pair@QBXUtss_data_node@detail@boost@@@std@@@std@@@std@@SAPAU?$_Tree_node@U?$pair@QBXUtss_data_node@detail@boost@@@std@@PAX@2@PAU32@@Z 1000314f f i nav.obj
 0001:0000214f       ?_Min@?$_Tree_val@U?$_Tree_simple_types@U?$pair@QAUlua_State@@PAVILuaInterface@@@std@@@std@@@std@@SAPAU?$_Tree_node@U?$pair@QAUlua_State@@PAVILuaInterface@@@std@@PAX@2@PAU32@@Z 1000314f f i ILuaModuleManager.obj
 0001:0000217f       ??0?$_Tree_const_iterator@V?$_Tree_val@U?$_Tree_simple_types@U?$pair@QBXUtss_data_node@detail@boost@@@std@@@std@@@std@@@std@@QAE@PAU?$_Tree_node@U?$pair@QBXUtss_data_node@detail@boost@@@std@@PAX@1@PBV?$_Tree_val@U?$_Tree_simple_types@U?$pair@QBXUtss_data_node@detail@boost@@@std@@@std@@@1@@Z 1000317f f i nav.obj
 0001:0000217f       ??0?$_Tree_const_iterator@V?$_Tree_val@U?$_Tree_simple_types@U?$pair@QAUlua_State@@PAVILuaInterface@@@std@@@std@@@std@@@std@@QAE@PAU?$_Tree_node@U?$pair@QAUlua_State@@PAVILuaInterface@@@std@@PAX@1@PBV?$_Tree_val@U?$_Tree_simple_types@U?$pair@QAUlua_State@@PAVILuaInterface@@@std@@@std@@@1@@Z 1000317f f i ILuaModuleManager.obj
 0001:0000219b       ??D?$_Tree_const_iterator@V?$_Tree_val@U?$_Tree_simple_types@U?$pair@QAUlua_State@@PAVILuaInterface@@@std@@@std@@@std@@@std@@QBEABU?$pair@QAUlua_State@@PAVILuaInterface@@@1@XZ 1000319b f i ILuaModuleManager.obj
 0001:000021af       ??E?$_Tree_const_iterator@V?$_Tree_val@U?$_Tree_simple_types@U?$pair@QAUlua_State@@PAVILuaInterface@@@std@@@std@@@std@@@std@@QAEAAV01@XZ 100031af f i ILuaModuleManager.obj
 0001:000021af       ??E?$_Tree_const_iterator@V?$_Tree_val@U?$_Tree_simple_types@U?$pair@QBXUtss_data_node@detail@boost@@@std@@@std@@@std@@@std@@QAEAAV01@XZ 100031af f i nav.obj
 0001:000021c3       ??0?$_Tree_alloc@$0A@U?$_Tree_base_types@U?$pair@QAUlua_State@@PAVILuaInterface@@@std@@V?$allocator@U?$pair@QAUlua_State@@PAVILuaInterface@@@std@@@2@@std@@@std@@QAE@ABV?$allocator@U?$pair@QAUlua_State@@PAVILuaInterface@@@std@@@1@@Z 100031c3 f i ILuaModuleManager.obj
 0001:000021e6       ??0?$_Wrap_alloc@V?$allocator@U?$_Tree_node@U?$pair@QAUlua_State@@PAVILuaInterface@@@std@@PAX@std@@@std@@@std@@QAE@XZ 100031e6 f i ILuaModuleManager.obj
 0001:000021e6       ??0?$_Wrap_alloc@V?$allocator@U?$_Tree_node@U?$pair@QBXUtss_data_node@detail@boost@@@std@@PAX@std@@@std@@@std@@QAE@XZ 100031e6 f i nav.obj
 0001:000021e6       ??0?$_Wrap_alloc@V?$allocator@D@std@@@std@@QAE@XZ 100031e6 f i ILuaObject.obj
 0001:000021e6       ??0cplane_t@@QAE@XZ        100031e6 f i nav.obj
 0001:000021e6       ??0VectorAligned@@QAE@XZ   100031e6 f i nav.obj
 0001:000021e6       ??0?$_Wrap_alloc@V?$allocator@U?$pair@PAVcondition_variable@boost@@PAVmutex@2@@std@@@std@@@std@@QAE@XZ 100031e6 f i nav.obj
 0001:000021fa       ?deallocate@?$allocator@U?$pair@PAVcondition_variable@boost@@PAVmutex@2@@std@@@std@@QAEXPAU?$pair@PAVcondition_variable@boost@@PAVmutex@2@@2@I@Z 100031fa f i nav.obj
 0001:000021fa       ?deallocate@?$allocator@U?$_Tree_node@U?$pair@QBXUtss_data_node@detail@boost@@@std@@PAX@std@@@std@@QAEXPAU?$_Tree_node@U?$pair@QBXUtss_data_node@detail@boost@@@std@@PAX@2@I@Z 100031fa f i nav.obj
 0001:000021fa       ?deallocate@?$allocator@D@std@@QAEXPADI@Z 100031fa f i ILuaObject.obj
 0001:000021fa       ?deallocate@?$allocator@U?$_Tree_node@U?$pair@QAUlua_State@@PAVILuaInterface@@@std@@PAX@std@@@std@@QAEXPAU?$_Tree_node@U?$pair@QAUlua_State@@PAVILuaInterface@@@std@@PAX@2@I@Z 100031fa f i ILuaModuleManager.obj
 0001:0000220e       ??0?$_Tree_unchecked_const_iterator@V?$_Tree_val@U?$_Tree_simple_types@U?$pair@QAUlua_State@@PAVILuaInterface@@@std@@@std@@@std@@U_Iterator_base0@2@@std@@QAE@PAU?$_Tree_node@U?$pair@QAUlua_State@@PAVILuaInterface@@@std@@PAX@1@PBV?$_Tree_val@U?$_Tree_simple_types@U?$pair@QAUlua_State@@PAVILuaInterface@@@std@@@std@@@1@@Z 1000320e f i ILuaModuleManager.obj
 0001:0000220e       ??0?$_Tree_unchecked_const_iterator@V?$_Tree_val@U?$_Tree_simple_types@U?$pair@QBXUtss_data_node@detail@boost@@@std@@@std@@@std@@U_Iterator_base0@2@@std@@QAE@PAU?$_Tree_node@U?$pair@QBXUtss_data_node@detail@boost@@@std@@PAX@1@PBV?$_Tree_val@U?$_Tree_simple_types@U?$pair@QBXUtss_data_node@detail@boost@@@std@@@std@@@1@@Z 1000320e f i nav.obj
 0001:0000222f       ??E?$_Tree_unchecked_const_iterator@V?$_Tree_val@U?$_Tree_simple_types@U?$pair@QAUlua_State@@PAVILuaInterface@@@std@@@std@@@std@@U_Iterator_base0@2@@std@@QAEAAV01@XZ 1000322f f i ILuaModuleManager.obj
 0001:0000222f       ??E?$_Tree_unchecked_const_iterator@V?$_Tree_val@U?$_Tree_simple_types@U?$pair@QBXUtss_data_node@detail@boost@@@std@@@std@@@std@@U_Iterator_base0@2@@std@@QAEAAV01@XZ 1000322f f i nav.obj
 0001:000022c8       ?_Buyheadnode@?$_Tree_alloc@$0A@U?$_Tree_base_types@U?$pair@QAUlua_State@@PAVILuaInterface@@@std@@V?$allocator@U?$pair@QAUlua_State@@PAVILuaInterface@@@std@@@2@@std@@@std@@QAEPAU?$_Tree_node@U?$pair@QAUlua_State@@PAVILuaInterface@@@std@@PAX@2@XZ 100032c8 f i ILuaModuleManager.obj
 0001:00002404       ??0?$_Tree_val@U?$_Tree_simple_types@U?$pair@QBXUtss_data_node@detail@boost@@@std@@@std@@@std@@QAE@XZ 10003404 f i nav.obj
 0001:00002404       ??0?$_Tree_val@U?$_Tree_simple_types@U?$pair@QAUlua_State@@PAVILuaInterface@@@std@@@std@@@std@@QAE@XZ 10003404 f i ILuaModuleManager.obj
 0001:0000241d       ?allocate@?$_Wrap_alloc@V?$allocator@U?$_Tree_node@U?$pair@QAUlua_State@@PAVILuaInterface@@@std@@PAX@std@@@std@@@std@@QAEPAU?$_Tree_node@U?$pair@QAUlua_State@@PAVILuaInterface@@@std@@PAX@2@I@Z 1000341d f i ILuaModuleManager.obj
 0001:00002433       ?allocate@?$allocator@U?$_Tree_node@U?$pair@QAUlua_State@@PAVILuaInterface@@@std@@PAX@std@@@std@@QAEPAU?$_Tree_node@U?$pair@QAUlua_State@@PAVILuaInterface@@@std@@PAX@2@I@Z 10003433 f i ILuaModuleManager.obj
 0001:0000244a       ??$?0ABQAUlua_State@@PAVILuaInterface@@@?$pair@PAUlua_State@@PAVILuaInterface@@@std@@QAE@ABQAUlua_State@@$$QAPAVILuaInterface@@PAPAX@Z 1000344a f i ILuaModuleManager.obj
 0001:00002479       ??$insert@U?$pair@PAUlua_State@@PAVILuaInterface@@@std@@@?$_Tree@V?$_Tmap_traits@PAUlua_State@@PAVILuaInterface@@U?$less@PAUlua_State@@@std@@V?$allocator@U?$pair@QAUlua_State@@PAVILuaInterface@@@std@@@4@$0A@@std@@@std@@QAE?AV?$_Tree_iterator@V?$_Tree_val@U?$_Tree_simple_types@U?$pair@QAUlua_State@@PAVILuaInterface@@@std@@@std@@@std@@@1@V?$_Tree_const_iterator@V?$_Tree_val@U?$_Tree_simple_types@U?$pair@QAUlua_State@@PAVILuaInterface@@@std@@@std@@@std@@@1@$$QAU?$pair@PAUlua_State@@PAVILuaInterface@@@1@@Z 10003479 f i ILuaModuleManager.obj
 0001:000024b8       ??$?0V?$_Tree_iterator@V?$_Tree_val@U?$_Tree_simple_types@U?$pair@QAUlua_State@@PAVILuaInterface@@@std@@@std@@@std@@@std@@V01@@?$pair@V?$_Tree_iterator@V?$_Tree_val@U?$_Tree_simple_types@U?$pair@QAUlua_State@@PAVILuaInterface@@@std@@@std@@@std@@@std@@V12@@std@@QAE@$$QAU01@PAPAX@Z 100034b8 f i ILuaModuleManager.obj
 0001:000024eb       ??$_Distance@V?$_Tree_iterator@V?$_Tree_val@U?$_Tree_simple_types@U?$pair@QAUlua_State@@PAVILuaInterface@@@std@@@std@@@std@@@std@@I@std@@YAXV?$_Tree_iterator@V?$_Tree_val@U?$_Tree_simple_types@U?$pair@QAUlua_State@@PAVILuaInterface@@@std@@@std@@@std@@@0@0AAI@Z 100034eb f i ILuaModuleManager.obj
 0001:00002517       ??$swap@D@std@@YAXAAD0@Z   10003517 f i ILuaModuleManager.obj
 0001:0000254c       ??$destroy@U?$pair@PAVcondition_variable@boost@@PAVmutex@2@@std@@@?$_Wrap_alloc@V?$allocator@U?$pair@PAVcondition_variable@boost@@PAVmutex@2@@std@@@std@@@std@@QAEXPAU?$pair@PAVcondition_variable@boost@@PAVmutex@2@@1@@Z 1000354c f i nav.obj
 0001:0000254c       ??$destroy@PAU?$_Tree_node@U?$pair@QAUlua_State@@PAVILuaInterface@@@std@@PAX@std@@@?$_Wrap_alloc@V?$allocator@U?$_Tree_node@U?$pair@QAUlua_State@@PAVILuaInterface@@@std@@PAX@std@@@std@@@std@@QAEXPAPAU?$_Tree_node@U?$pair@QAUlua_State@@PAVILuaInterface@@@std@@PAX@1@@Z 1000354c f i ILuaModuleManager.obj
 0001:0000254c       ??$destroy@PAD@?$_Wrap_alloc@V?$allocator@D@std@@@std@@QAEXPAPAD@Z 1000354c f i ILuaObject.obj
 0001:0000254c       ??$destroy@PAU?$_Tree_node@U?$pair@QBXUtss_data_node@detail@boost@@@std@@PAX@std@@@?$_Wrap_alloc@V?$allocator@U?$_Tree_node@U?$pair@QBXUtss_data_node@detail@boost@@@std@@PAX@std@@@std@@@std@@QAEXPAPAU?$_Tree_node@U?$pair@QBXUtss_data_node@detail@boost@@@std@@PAX@1@@Z 1000354c f i nav.obj
 0001:0000254c       ??$destroy@U?$pair@QAUlua_State@@PAVILuaInterface@@@std@@@?$_Wrap_alloc@V?$allocator@U?$_Tree_node@U?$pair@QAUlua_State@@PAVILuaInterface@@@std@@PAX@std@@@std@@@std@@QAEXPAU?$pair@QAUlua_State@@PAVILuaInterface@@@1@@Z 1000354c f i ILuaModuleManager.obj
 0001:00002564       ??$?0AAV?$_Tree_iterator@V?$_Tree_val@U?$_Tree_simple_types@U?$pair@QAUlua_State@@PAVILuaInterface@@@std@@@std@@@std@@@std@@AAV01@@?$pair@V?$_Tree_iterator@V?$_Tree_val@U?$_Tree_simple_types@U?$pair@QAUlua_State@@PAVILuaInterface@@@std@@@std@@@std@@@std@@V12@@std@@QAE@AAV?$_Tree_iterator@V?$_Tree_val@U?$_Tree_simple_types@U?$pair@QAUlua_State@@PAVILuaInterface@@@std@@@std@@@std@@@1@0PAPAX@Z 10003564 f i ILuaModuleManager.obj
 0001:00002593       ??$construct@PADAAPAD@?$_Wrap_alloc@V?$allocator@D@std@@@std@@QAEXPAPADAAPAD@Z 10003593 f i ILuaObject.obj
 0001:00002593       ??$construct@PAU?$_Tree_node@U?$pair@QBXUtss_data_node@detail@boost@@@std@@PAX@std@@AAPAU12@@?$_Wrap_alloc@V?$allocator@U?$_Tree_node@U?$pair@QBXUtss_data_node@detail@boost@@@std@@PAX@std@@@std@@@std@@QAEXPAPAU?$_Tree_node@U?$pair@QBXUtss_data_node@detail@boost@@@std@@PAX@1@AAPAU21@@Z 10003593 f i nav.obj
 0001:00002593       ??$construct@PAU?$_Tree_node@U?$pair@QAUlua_State@@PAVILuaInterface@@@std@@PAX@std@@AAPAU12@@?$_Wrap_alloc@V?$allocator@U?$_Tree_node@U?$pair@QAUlua_State@@PAVILuaInterface@@@std@@PAX@std@@@std@@@std@@QAEXPAPAU?$_Tree_node@U?$pair@QAUlua_State@@PAVILuaInterface@@@std@@PAX@1@AAPAU21@@Z 10003593 f i ILuaModuleManager.obj
 0001:000025b6       ??$_Allocate@U?$_Tree_node@U?$pair@QAUlua_State@@PAVILuaInterface@@@std@@PAX@std@@@std@@YAPAU?$_Tree_node@U?$pair@QAUlua_State@@PAVILuaInterface@@@std@@PAX@0@IPAU10@@Z 100035b6 f i ILuaModuleManager.obj
 0001:000025ef       ??$_Buynode@U?$pair@PAUlua_State@@PAVILuaInterface@@@std@@@?$_Tree_buy@U?$pair@QAUlua_State@@PAVILuaInterface@@@std@@V?$allocator@U?$pair@QAUlua_State@@PAVILuaInterface@@@std@@@2@@std@@QAEPAU?$_Tree_node@U?$pair@QAUlua_State@@PAVILuaInterface@@@std@@PAX@1@$$QAU?$pair@PAUlua_State@@PAVILuaInterface@@@1@@Z 100035ef f i ILuaModuleManager.obj
 0001:000026bc       ??$_Insert_hint@AAU?$pair@QAUlua_State@@PAVILuaInterface@@@std@@PAU?$_Tree_node@U?$pair@QAUlua_State@@PAVILuaInterface@@@std@@PAX@2@@?$_Tree@V?$_Tmap_traits@PAUlua_State@@PAVILuaInterface@@U?$less@PAUlua_State@@@std@@V?$allocator@U?$pair@QAUlua_State@@PAVILuaInterface@@@std@@@4@$0A@@std@@@std@@IAE?AV?$_Tree_iterator@V?$_Tree_val@U?$_Tree_simple_types@U?$pair@QAUlua_State@@PAVILuaInterface@@@std@@@std@@@std@@@1@V?$_Tree_const_iterator@V?$_Tree_val@U?$_Tree_simple_types@U?$pair@QAUlua_State@@PAVILuaInterface@@@std@@@std@@@std@@@1@AAU?$pair@QAUlua_State@@PAVILuaInterface@@@1@PAU?$_Tree_node@U?$pair@QAUlua_State@@PAVILuaInterface@@@std@@PAX@1@@Z 100036bc f i ILuaModuleManager.obj
 0001:000031c0       ??$_Iter_cat@V?$_Tree_iterator@V?$_Tree_val@U?$_Tree_simple_types@U?$pair@QAUlua_State@@PAVILuaInterface@@@std@@@std@@@std@@@std@@@std@@YA?AUbidirectional_iterator_tag@0@ABV?$_Tree_iterator@V?$_Tree_val@U?$_Tree_simple_types@U?$pair@QAUlua_State@@PAVILuaInterface@@@std@@@std@@@std@@@0@@Z 100041c0 f i ILuaModuleManager.obj
 0001:000031d1       ??$_Distance2@V?$_Tree_iterator@V?$_Tree_val@U?$_Tree_simple_types@U?$pair@QAUlua_State@@PAVILuaInterface@@@std@@@std@@@std@@@std@@I@std@@YAXV?$_Tree_iterator@V?$_Tree_val@U?$_Tree_simple_types@U?$pair@QAUlua_State@@PAVILuaInterface@@@std@@@std@@@std@@@0@0AAIUbidirectional_iterator_tag@0@@Z 100041d1 f i ILuaModuleManager.obj
 0001:00003200       ??$destroy@U?$pair@QAUlua_State@@PAVILuaInterface@@@std@@@?$allocator_traits@V?$allocator@U?$_Tree_node@U?$pair@QAUlua_State@@PAVILuaInterface@@@std@@PAX@std@@@std@@@std@@SAXAAV?$allocator@U?$_Tree_node@U?$pair@QAUlua_State@@PAVILuaInterface@@@std@@PAX@std@@@1@PAU?$pair@QAUlua_State@@PAVILuaInterface@@@1@@Z 10004200 f i ILuaModuleManager.obj
 0001:00003200       ??$destroy@PAU?$_Tree_node@U?$pair@QAUlua_State@@PAVILuaInterface@@@std@@PAX@std@@@?$allocator_traits@V?$allocator@U?$_Tree_node@U?$pair@QAUlua_State@@PAVILuaInterface@@@std@@PAX@std@@@std@@@std@@SAXAAV?$allocator@U?$_Tree_node@U?$pair@QAUlua_State@@PAVILuaInterface@@@std@@PAX@std@@@1@PAPAU?$_Tree_node@U?$pair@QAUlua_State@@PAVILuaInterface@@@std@@PAX@1@@Z 10004200 f i ILuaModuleManager.obj
 0001:00003200       ??$destroy@PAD@?$allocator_traits@V?$allocator@D@std@@@std@@SAXAAV?$allocator@D@1@PAPAD@Z 10004200 f i ILuaObject.obj
 0001:00003200       ??$destroy@PAU?$_Tree_node@U?$pair@QBXUtss_data_node@detail@boost@@@std@@PAX@std@@@?$allocator_traits@V?$allocator@U?$_Tree_node@U?$pair@QBXUtss_data_node@detail@boost@@@std@@PAX@std@@@std@@@std@@SAXAAV?$allocator@U?$_Tree_node@U?$pair@QBXUtss_data_node@detail@boost@@@std@@PAX@std@@@1@PAPAU?$_Tree_node@U?$pair@QBXUtss_data_node@detail@boost@@@std@@PAX@1@@Z 10004200 f i nav.obj
 0001:00003200       ??$destroy@U?$pair@PAVcondition_variable@boost@@PAVmutex@2@@std@@@?$allocator_traits@V?$allocator@U?$pair@PAVcondition_variable@boost@@PAVmutex@2@@std@@@std@@@std@@SAXAAV?$allocator@U?$pair@PAVcondition_variable@boost@@PAVmutex@2@@std@@@1@PAU?$pair@PAVcondition_variable@boost@@PAVmutex@2@@1@@Z 10004200 f i nav.obj
 0001:00003210       ??$construct@PADAAPAD@?$allocator_traits@V?$allocator@D@std@@@std@@SAXAAV?$allocator@D@1@PAPADAAPAD@Z 10004210 f i ILuaObject.obj
 0001:00003210       ??$construct@PAU?$_Tree_node@U?$pair@QAUlua_State@@PAVILuaInterface@@@std@@PAX@std@@AAPAU12@@?$allocator_traits@V?$allocator@U?$_Tree_node@U?$pair@QAUlua_State@@PAVILuaInterface@@@std@@PAX@std@@@std@@@std@@SAXAAV?$allocator@U?$_Tree_node@U?$pair@QAUlua_State@@PAVILuaInterface@@@std@@PAX@std@@@1@PAPAU?$_Tree_node@U?$pair@QAUlua_State@@PAVILuaInterface@@@std@@PAX@1@AAPAU31@@Z 10004210 f i ILuaModuleManager.obj
 0001:00003210       ??$construct@PAU?$_Tree_node@U?$pair@QBXUtss_data_node@detail@boost@@@std@@PAX@std@@AAPAU12@@?$allocator_traits@V?$allocator@U?$_Tree_node@U?$pair@QBXUtss_data_node@detail@boost@@@std@@PAX@std@@@std@@@std@@SAXAAV?$allocator@U?$_Tree_node@U?$pair@QBXUtss_data_node@detail@boost@@@std@@PAX@std@@@1@PAPAU?$_Tree_node@U?$pair@QBXUtss_data_node@detail@boost@@@std@@PAX@1@AAPAU31@@Z 10004210 f i nav.obj
 0001:0000322a       ?_Destroy_if_not_nil@?$_Tree@V?$_Tmap_traits@PAUlua_State@@PAVILuaInterface@@U?$less@PAUlua_State@@@std@@V?$allocator@U?$pair@QAUlua_State@@PAVILuaInterface@@@std@@@4@$0A@@std@@@std@@IAEXPAU?$_Tree_node@U?$pair@QAUlua_State@@PAVILuaInterface@@@std@@PAX@2@@Z 1000422a f i ILuaModuleManager.obj
 0001:00003272       ?_Buynode0@?$_Tree_buy@U?$pair@QAUlua_State@@PAVILuaInterface@@@std@@V?$allocator@U?$pair@QAUlua_State@@PAVILuaInterface@@@std@@@2@@std@@QAEPAU?$_Tree_node@U?$pair@QAUlua_State@@PAVILuaInterface@@@std@@PAX@2@XZ 10004272 f i ILuaModuleManager.obj
 0001:00003393       ?_Freenode0@?$_Tree_buy@U?$pair@QAUlua_State@@PAVILuaInterface@@@std@@V?$allocator@U?$pair@QAUlua_State@@PAVILuaInterface@@@std@@@2@@std@@QAEXPAU?$_Tree_node@U?$pair@QAUlua_State@@PAVILuaInterface@@@std@@PAX@2@@Z 10004393 f i ILuaModuleManager.obj
 0001:00003393       ?_Freeheadnode@?$_Tree_alloc@$0A@U?$_Tree_base_types@U?$pair@QBXUtss_data_node@detail@boost@@@std@@V?$allocator@U?$pair@QBXUtss_data_node@detail@boost@@@std@@@2@@std@@@std@@QAEXPAU?$_Tree_node@U?$pair@QBXUtss_data_node@detail@boost@@@std@@PAX@2@@Z 10004393 f i nav.obj
 0001:00003423       ??0?$_Tree_const_iterator@V?$_Tree_val@U?$_Tree_simple_types@U?$pair@QAUlua_State@@PAVILuaInterface@@@std@@@std@@@std@@@std@@QAE@XZ 10004423 f i ILuaModuleManager.obj
 0001:00003437       ??F?$_Tree_const_iterator@V?$_Tree_val@U?$_Tree_simple_types@U?$pair@QAUlua_State@@PAVILuaInterface@@@std@@@std@@@std@@@std@@QAEAAV01@XZ 10004437 f i ILuaModuleManager.obj
 0001:0000344b       ??E?$_Tree_iterator@V?$_Tree_val@U?$_Tree_simple_types@U?$pair@QAUlua_State@@PAVILuaInterface@@@std@@@std@@@std@@@std@@QAEAAV01@XZ 1000444b f i ILuaModuleManager.obj
 0001:0000345f       ??0?$refcount_ptr@Uerror_info_container@exception_detail@boost@@@exception_detail@boost@@QAE@XZ 1000445f f i main.obj
 0001:0000345f       ??0?$_Tree_unchecked_const_iterator@V?$_Tree_val@U?$_Tree_simple_types@U?$pair@QAUlua_State@@PAVILuaInterface@@@std@@@std@@@std@@U_Iterator_base0@2@@std@@QAE@XZ 1000445f f i ILuaModuleManager.obj
 0001:0000345f       ??0?$intrusive_ptr@Uthread_data_base@detail@boost@@@boost@@QAE@XZ 1000445f f i nav.obj
 0001:00003471       ??F?$_Tree_unchecked_const_iterator@V?$_Tree_val@U?$_Tree_simple_types@U?$pair@QAUlua_State@@PAVILuaInterface@@@std@@@std@@@std@@U_Iterator_base0@2@@std@@QAEAAV01@XZ 10004471 f i ILuaModuleManager.obj
 0001:00003533       ??$construct@U?$pair@QAUlua_State@@PAVILuaInterface@@@std@@U?$pair@PAUlua_State@@PAVILuaInterface@@@2@@?$_Wrap_alloc@V?$allocator@U?$_Tree_node@U?$pair@QAUlua_State@@PAVILuaInterface@@@std@@PAX@std@@@std@@@std@@QAEXPAU?$pair@QAUlua_State@@PAVILuaInterface@@@1@$$QAU?$pair@PAUlua_State@@PAVILuaInterface@@@1@@Z 10004533 f i ILuaModuleManager.obj
 0001:00003556       ??$_Insert_at@AAU?$pair@QAUlua_State@@PAVILuaInterface@@@std@@PAU?$_Tree_node@U?$pair@QAUlua_State@@PAVILuaInterface@@@std@@PAX@2@@?$_Tree@V?$_Tmap_traits@PAUlua_State@@PAVILuaInterface@@U?$less@PAUlua_State@@@std@@V?$allocator@U?$pair@QAUlua_State@@PAVILuaInterface@@@std@@@4@$0A@@std@@@std@@IAE?AV?$_Tree_iterator@V?$_Tree_val@U?$_Tree_simple_types@U?$pair@QAUlua_State@@PAVILuaInterface@@@std@@@std@@@std@@@1@_NPAU?$_Tree_node@U?$pair@QAUlua_State@@PAVILuaInterface@@@std@@PAX@1@AAU?$pair@QAUlua_State@@PAVILuaInterface@@@1@1@Z 10004556 f i ILuaModuleManager.obj
 0001:000038c4       ??$_Insert_nohint@AAU?$pair@QAUlua_State@@PAVILuaInterface@@@std@@PAU?$_Tree_node@U?$pair@QAUlua_State@@PAVILuaInterface@@@std@@PAX@2@@?$_Tree@V?$_Tmap_traits@PAUlua_State@@PAVILuaInterface@@U?$less@PAUlua_State@@@std@@V?$allocator@U?$pair@QAUlua_State@@PAVILuaInterface@@@std@@@4@$0A@@std@@@std@@IAE?AU?$pair@V?$_Tree_iterator@V?$_Tree_val@U?$_Tree_simple_types@U?$pair@QAUlua_State@@PAVILuaInterface@@@std@@@std@@@std@@@std@@_N@1@_NAAU?$pair@QAUlua_State@@PAVILuaInterface@@@1@PAU?$_Tree_node@U?$pair@QAUlua_State@@PAVILuaInterface@@@std@@PAX@1@@Z 100048c4 f i ILuaModuleManager.obj
 0001:00003c5a       ??$construct@PADAAPAD@?$allocator@D@std@@QAEXPAPADAAPAD@Z 10004c5a f i ILuaObject.obj
 0001:00003c5a       ??$construct@PAU?$_Tree_node@U?$pair@QBXUtss_data_node@detail@boost@@@std@@PAX@std@@AAPAU12@@?$allocator@U?$_Tree_node@U?$pair@QBXUtss_data_node@detail@boost@@@std@@PAX@std@@@std@@QAEXPAPAU?$_Tree_node@U?$pair@QBXUtss_data_node@detail@boost@@@std@@PAX@1@AAPAU21@@Z 10004c5a f i nav.obj
 0001:00003c5a       ??$construct@PAU?$_Tree_node@U?$pair@QAUlua_State@@PAVILuaInterface@@@std@@PAX@std@@AAPAU12@@?$allocator@U?$_Tree_node@U?$pair@QAUlua_State@@PAVILuaInterface@@@std@@PAX@std@@@std@@QAEXPAPAU?$_Tree_node@U?$pair@QAUlua_State@@PAVILuaInterface@@@std@@PAX@1@AAPAU21@@Z 10004c5a f i ILuaModuleManager.obj
 0001:00003cd0       ?max_size@?$_Tree@V?$_Tmap_traits@PAUlua_State@@PAVILuaInterface@@U?$less@PAUlua_State@@@std@@V?$allocator@U?$pair@QAUlua_State@@PAVILuaInterface@@@std@@@4@$0A@@std@@@std@@QBEIXZ 10004cd0 f i ILuaModuleManager.obj
 0001:00003ced       ??F?$_Tree_iterator@V?$_Tree_val@U?$_Tree_simple_types@U?$pair@QAUlua_State@@PAVILuaInterface@@@std@@@std@@@std@@@std@@QAEAAV01@XZ 10004ced f i ILuaModuleManager.obj
 0001:00003d01       ?max_size@?$_Wrap_alloc@V?$allocator@U?$_Tree_node@U?$pair@QAUlua_State@@PAVILuaInterface@@@std@@PAX@std@@@std@@@std@@QBEIXZ 10004d01 f i ILuaModuleManager.obj
 0001:00003d13       ?max_size@?$allocator_traits@V?$allocator@U?$_Tree_node@U?$pair@QAUlua_State@@PAVILuaInterface@@@std@@PAX@std@@@std@@@std@@SAIABV?$allocator@U?$_Tree_node@U?$pair@QAUlua_State@@PAVILuaInterface@@@std@@PAX@std@@@2@@Z 10004d13 f i ILuaModuleManager.obj
 0001:00003d20       ?max_size@?$allocator@U?$_Tree_node@U?$pair@QAUlua_State@@PAVILuaInterface@@@std@@PAX@std@@@std@@QBEIXZ 10004d20 f i ILuaModuleManager.obj
 0001:00003d2e       ??$construct@U?$pair@QAUlua_State@@PAVILuaInterface@@@std@@U?$pair@PAUlua_State@@PAVILuaInterface@@@2@@?$allocator_traits@V?$allocator@U?$_Tree_node@U?$pair@QAUlua_State@@PAVILuaInterface@@@std@@PAX@std@@@std@@@std@@SAXAAV?$allocator@U?$_Tree_node@U?$pair@QAUlua_State@@PAVILuaInterface@@@std@@PAX@std@@@1@PAU?$pair@QAUlua_State@@PAVILuaInterface@@@1@$$QAU?$pair@PAUlua_State@@PAVILuaInterface@@@1@@Z 10004d2e f i ILuaModuleManager.obj
 0001:00003d48       ??$_Buynode_if_nil@AAU?$pair@QAUlua_State@@PAVILuaInterface@@@std@@@?$_Tree@V?$_Tmap_traits@PAUlua_State@@PAVILuaInterface@@U?$less@PAUlua_State@@@std@@V?$allocator@U?$pair@QAUlua_State@@PAVILuaInterface@@@std@@@4@$0A@@std@@@std@@IAEPAU?$_Tree_node@U?$pair@QAUlua_State@@PAVILuaInterface@@@std@@PAX@1@PAU21@AAU?$pair@QAUlua_State@@PAVILuaInterface@@@1@@Z 10004d48 f i ILuaModuleManager.obj
 0001:00003d56       ??$?0V?$_Tree_iterator@V?$_Tree_val@U?$_Tree_simple_types@U?$pair@QAUlua_State@@PAVILuaInterface@@@std@@@std@@@std@@@std@@_N@?$pair@V?$_Tree_iterator@V?$_Tree_val@U?$_Tree_simple_types@U?$pair@QAUlua_State@@PAVILuaInterface@@@std@@@std@@@std@@@std@@_N@std@@QAE@$$QAV?$_Tree_iterator@V?$_Tree_val@U?$_Tree_simple_types@U?$pair@QAUlua_State@@PAVILuaInterface@@@std@@@std@@@std@@@1@$$QA_NPAPAX@Z 10004d56 f i ILuaModuleManager.obj
 0001:00003d56       ??$?0AAV?$_Tree_iterator@V?$_Tree_val@U?$_Tree_simple_types@U?$pair@QAUlua_State@@PAVILuaInterface@@@std@@@std@@@std@@@std@@_N@?$pair@V?$_Tree_iterator@V?$_Tree_val@U?$_Tree_simple_types@U?$pair@QAUlua_State@@PAVILuaInterface@@@std@@@std@@@std@@@std@@_N@std@@QAE@AAV?$_Tree_iterator@V?$_Tree_val@U?$_Tree_simple_types@U?$pair@QAUlua_State@@PAVILuaInterface@@@std@@@std@@@std@@@1@$$QA_NPAPAX@Z 10004d56 f i ILuaModuleManager.obj
 0001:00003d85       ??$?0V?$_Tree_iterator@V?$_Tree_val@U?$_Tree_simple_types@U?$pair@QAUlua_State@@PAVILuaInterface@@@std@@@std@@@std@@@std@@_N@?$pair@V?$_Tree_iterator@V?$_Tree_val@U?$_Tree_simple_types@U?$pair@QAUlua_State@@PAVILuaInterface@@@std@@@std@@@std@@@std@@_N@std@@QAE@$$QAU01@PAPAX@Z 10004d85 f i ILuaModuleManager.obj
 0001:00003db8       ??$construct@U?$pair@QAUlua_State@@PAVILuaInterface@@@std@@U?$pair@PAUlua_State@@PAVILuaInterface@@@2@@?$allocator@U?$_Tree_node@U?$pair@QAUlua_State@@PAVILuaInterface@@@std@@PAX@std@@@std@@QAEXPAU?$pair@QAUlua_State@@PAVILuaInterface@@@1@$$QAU?$pair@PAUlua_State@@PAVILuaInterface@@@1@@Z 10004db8 f i ILuaModuleManager.obj
 0001:00003e2f       ??$?0PAUlua_State@@PAVILuaInterface@@@?$pair@QAUlua_State@@PAVILuaInterface@@@std@@QAE@$$QAU?$pair@PAUlua_State@@PAVILuaInterface@@@1@PAPAX@Z 10004e2f f i ILuaModuleManager.obj
 0001:00003e62       ?length@?$char_traits@D@std@@SAIPBD@Z 10004e62 f i ILuaObject.obj
 0001:00003eaa       ?copy@?$char_traits@D@std@@SAPADPADPBDI@Z 10004eaa f i ILuaObject.obj
 0001:00003ed5       ?move@?$char_traits@D@std@@SAPADPADPBDI@Z 10004ed5 f i ILuaObject.obj
 0001:00003f00       ?assign@?$char_traits@D@std@@SAXAADABD@Z 10004f00 f i ILuaObject.obj
 0001:00003f0f       ??0?$int_adapter@I@date_time@boost@@QAE@I@Z 10004f0f f i main.obj
 0001:00003f0f       ??0?$mf3@XVNav@@PAUJobInfo_t@@PAVNode@@PAV3@@_mfi@boost@@QAE@P8Nav@@AEXPAUJobInfo_t@@PAVNode@@1@Z@Z 10004f0f f i nav.obj
 0001:00003f0f       ??0id@locale@std@@QAE@I@Z  10004f0f f i ILuaObject.obj
 0001:00003f0f       ??0Iterator_t@?$CUtlMemory@U?$UtlLinkedListElem_t@UAirSeedSpot@@H@@H@@QAE@H@Z 10004f0f f i nav.obj
 0001:00003f0f       ??0?$storage1@V?$value@PAVNav@@@_bi@boost@@@_bi@boost@@QAE@V?$value@PAVNav@@@12@@Z 10004f0f f i nav.obj
 0001:00003f0f       ??0?$mf1@XVNav@@PA_N@_mfi@boost@@QAE@P8Nav@@AEXPA_N@Z@Z 10004f0f f i nav.obj
 0001:00003f0f       ??0Iterator_t@?$CUtlMemory@U?$UtlLinkedListElem_t@UGroundSeedSpot@@H@@H@@QAE@H@Z 10004f0f f i nav.obj
 0001:00003f0f       ??0handle_manager@win32@detail@boost@@QAE@PAX@Z 10004f0f f i nav.obj
 0001:00003f25       ??0error_category@std@@QAE@XZ 10004f25 f i ILuaObject.obj
 0001:00003f3a       ??1error_category@std@@UAE@XZ 10004f3a f i ILuaObject.obj
 0001:00003f4c       ??8error_category@std@@QBE_NABV01@@Z 10004f4c f i ILuaObject.obj
 0001:00003f70       ??_Gerror_category@std@@UAEPAXI@Z 10004f70 f i ILuaObject.obj
 0001:00003f70       ??_Eerror_category@std@@UAEPAXI@Z 10004f70 f i * CIL library *:* CIL module *
 0001:00003f97       ??0error_code@system@boost@@QAE@HABVerror_category@12@@Z 10004f97 f i nav.obj
 0001:00003f97       ??0ILuaObject@@QAE@PAVILuaBase@Lua@GarrysMod@@H@Z 10004f97 f i ILuaObject.obj
 0001:00003f97       ??0error_condition@std@@QAE@HABVerror_category@1@@Z 10004f97 f i ILuaObject.obj
 0001:00003fb6       ??8error_condition@std@@QBE_NABV01@@Z 10004fb6 f i ILuaObject.obj
 0001:00004009       ?default_error_condition@error_category@std@@UBE?AVerror_condition@2@H@Z 10005009 f i ILuaObject.obj
 0001:00004025       ?equivalent@error_category@std@@UBE_NHABVerror_condition@2@@Z 10005025 f i ILuaObject.obj
 0001:0000404e       ?equivalent@error_category@std@@UBE_NABVerror_code@2@H@Z 1000504e f i ILuaObject.obj
 0001:0000408f       ??0_Generic_error_category@std@@QAE@XZ 1000508f f i ILuaObject.obj
 0001:000040ac       ?name@_Generic_error_category@std@@UBEPBDXZ 100050ac f i ILuaObject.obj
 0001:000040ba       ?message@_Generic_error_category@std@@UBE?AV?$basic_string@DU?$char_traits@D@std@@V?$allocator@D@2@@2@H@Z 100050ba f i ILuaObject.obj
 0001:00004103       ??_G_Generic_error_category@std@@UAEPAXI@Z 10005103 f i ILuaObject.obj
 0001:00004103       ??_E_Generic_error_category@std@@UAEPAXI@Z 10005103 f i * CIL library *:* CIL module *
 0001:0000412a       ??1_Generic_error_category@std@@UAE@XZ 1000512a f i ILuaObject.obj
 0001:0000413b       ??0_Iostream_error_category@std@@QAE@XZ 1000513b f i ILuaObject.obj
 0001:00004158       ?name@_Iostream_error_category@std@@UBEPBDXZ 10005158 f i ILuaObject.obj
 0001:00004166       ?message@_Iostream_error_category@std@@UBE?AV?$basic_string@DU?$char_traits@D@std@@V?$allocator@D@2@@2@H@Z 10005166 f i ILuaObject.obj
 0001:000041b3       ??_G_Iostream_error_category@std@@UAEPAXI@Z 100051b3 f i ILuaObject.obj
 0001:000041b3       ??_E_Iostream_error_category@std@@UAEPAXI@Z 100051b3 f i * CIL library *:* CIL module *
 0001:000041b3       ??_G_System_error_category@std@@UAEPAXI@Z 100051b3 f i ILuaObject.obj
 0001:000041b3       ??_E_System_error_category@std@@UAEPAXI@Z 100051b3 f i * CIL library *:* CIL module *
 0001:000041da       ??1_System_error_category@std@@UAE@XZ 100051da f i ILuaObject.obj
 0001:000041da       ??1_Iostream_error_category@std@@UAE@XZ 100051da f i ILuaObject.obj
 0001:000041eb       ??0_System_error_category@std@@QAE@XZ 100051eb f i ILuaObject.obj
 0001:00004208       ?name@_System_error_category@std@@UBEPBDXZ 10005208 f i ILuaObject.obj
 0001:00004216       ?message@_System_error_category@std@@UBE?AV?$basic_string@DU?$char_traits@D@std@@V?$allocator@D@2@@2@H@Z 10005216 f i ILuaObject.obj
 0001:0000425f       ?default_error_condition@_System_error_category@std@@UBE?AVerror_condition@2@H@Z 1000525f f i ILuaObject.obj
 0001:000042a3       ?generic_category@std@@YAABVerror_category@1@XZ 100052a3 f i ILuaObject.obj
 0001:000042ad       ?system_category@std@@YAABVerror_category@1@XZ 100052ad f i ILuaObject.obj
 0001:000042b7       ?UnReference@ILuaObject@@QAEXXZ 100052b7 f   ILuaObject.obj
 0001:000042ff       ??_GILuaObject@@QAEPAXI@Z  100052ff f i ILuaObject.obj
 0001:00004326       ?GetType@ILuaObject@@QAEHXZ 10005326 f   ILuaObject.obj
 0001:00004363       ?GetFloat@ILuaObject@@QAEMXZ 10005363 f   ILuaObject.obj
 0001:0000439d       ?GetUserData@ILuaObject@@QAEPAXXZ 1000539d f   ILuaObject.obj
 0001:000043d9       ?SetMember@ILuaObject@@QAEXPBDPAV1@@Z 100053d9 f   ILuaObject.obj
 0001:0000442a       ?SetMember@ILuaObject@@QAEXPBDN@Z 1000542a f   ILuaObject.obj
 0001:0000448e       ?SetMember@ILuaObject@@QAEXPBDP6AHPAUlua_State@@@Z@Z 1000548e f   ILuaObject.obj
 0001:000044ec       ?SetMember@ILuaObject@@QAEXNPAV1@@Z 100054ec f   ILuaObject.obj
 0001:00004544       ?SetMember@ILuaObject@@QAEXMPAV1@@Z 10005544 f   ILuaObject.obj
 0001:00004566       ?SetMember@ILuaObject@@QAEXHPAV1@@Z 10005566 f   ILuaObject.obj
 0001:00004588       ?GetMember@ILuaObject@@QAEPAV1@PBD@Z 10005588 f   ILuaObject.obj
 0001:0000463d       ?GetMember@ILuaObject@@QAEPAV1@N@Z 1000563d f   ILuaObject.obj
 0001:0000470a       ?GetMember@ILuaObject@@QAEPAV1@H@Z 1000570a f   ILuaObject.obj
 0001:00004729       ?Push@ILuaObject@@QAEXXZ   10005729 f   ILuaObject.obj
 0001:0000474a       ??0?$basic_string@DU?$char_traits@D@std@@V?$allocator@D@2@@std@@QAE@PBD@Z 1000574a f i ILuaObject.obj
 0001:00004781       ??1?$basic_string@DU?$char_traits@D@std@@V?$allocator@D@2@@std@@QAE@XZ 10005781 f i ILuaObject.obj
 0001:00004796       ?assign@?$basic_string@DU?$char_traits@D@std@@V?$allocator@D@2@@std@@QAEAAV12@PBD@Z 10005796 f i ILuaObject.obj
 0001:000047b6       ?TellPut@CUtlBuffer@@QBEHXZ 100057b6 f i nav.obj
 0001:000047b6       ?size@?$basic_string@DU?$char_traits@D@std@@V?$allocator@D@2@@std@@QBEIXZ 100057b6 f i ILuaObject.obj
 0001:000047c5       ?_Tidy@?$basic_string@DU?$char_traits@D@std@@V?$allocator@D@2@@std@@QAEX_NI@Z 100057c5 f i ILuaObject.obj
 0001:00004854       ??0?$_String_alloc@$0A@U?$_String_base_types@DV?$allocator@D@std@@@std@@@std@@QAE@ABV?$allocator@D@1@@Z 10005854 f i ILuaObject.obj
 0001:0000486a       ?_Myptr@?$_String_val@U?$_Simple_types@D@std@@@std@@QBEPBDXZ 1000586a f i ILuaObject.obj
 0001:0000486a       ?_Myptr@?$_String_val@U?$_Simple_types@D@std@@@std@@QAEPADXZ 1000586a f i ILuaObject.obj
 0001:00004896       ?assign@?$basic_string@DU?$char_traits@D@std@@V?$allocator@D@2@@std@@QAEAAV12@PBDI@Z 10005896 f i ILuaObject.obj
 0001:0000490a       ?_Eos@?$basic_string@DU?$char_traits@D@std@@V?$allocator@D@2@@std@@QAEXI@Z 1000590a f i ILuaObject.obj
 0001:0000493a       ?_Xran@?$basic_string@DU?$char_traits@D@std@@V?$allocator@D@2@@std@@QBEXXZ 1000593a f i ILuaObject.obj
 0001:0000494d       ??0?$_String_val@U?$_Simple_types@D@std@@@std@@QAE@XZ 1000594d f i ILuaObject.obj
 0001:00004967       ?assign@?$basic_string@DU?$char_traits@D@std@@V?$allocator@D@2@@std@@QAEAAV12@ABV12@II@Z 10005967 f i ILuaObject.obj
 0001:00004a0c       ?_Grow@?$basic_string@DU?$char_traits@D@std@@V?$allocator@D@2@@std@@QAE_NI_N@Z 10005a0c f i ILuaObject.obj
 0001:00004aab       ?_Inside@?$basic_string@DU?$char_traits@D@std@@V?$allocator@D@2@@std@@QAE_NPBD@Z 10005aab f i ILuaObject.obj
 0001:00004ae4       ?_Xlen@?$basic_string@DU?$char_traits@D@std@@V?$allocator@D@2@@std@@QBEXXZ 10005ae4 f i ILuaObject.obj
 0001:00004af7       ?erase@?$basic_string@DU?$char_traits@D@std@@V?$allocator@D@2@@std@@QAEAAV12@I@Z 10005af7 f i ILuaObject.obj
 0001:00004b23       ?erase@?$basic_string@DU?$char_traits@D@std@@V?$allocator@D@2@@std@@QAEAAV12@II@Z 10005b23 f i ILuaObject.obj
 0001:00004ba5       ?max_size@?$basic_string@DU?$char_traits@D@std@@V?$allocator@D@2@@std@@QBEIXZ 10005ba5 f i ILuaObject.obj
 0001:00004bdf       ?_Copy@?$basic_string@DU?$char_traits@D@std@@V?$allocator@D@2@@std@@QAEXII@Z 10005bdf f i ILuaObject.obj
 0001:00004d7f       ?allocate@?$_Wrap_alloc@V?$allocator@D@std@@@std@@QAEPADI@Z 10005d7f f i ILuaObject.obj
 0001:00004d95       ?max_size@?$_Wrap_alloc@V?$allocator@D@std@@@std@@QBEIXZ 10005d95 f i ILuaObject.obj
 0001:00004da7       ?allocate@?$allocator@D@std@@QAEPADI@Z 10005da7 f i ILuaObject.obj
 0001:00004dbe       ?max_size@?$allocator_traits@V?$allocator@D@std@@@std@@SAIABV?$allocator@D@2@@Z 10005dbe f i ILuaObject.obj
 0001:00004dcb       ?max_size@?$allocator@D@std@@QBEIXZ 10005dcb f i ILuaObject.obj
 0001:00004dd7       ??$_Allocate@D@std@@YAPADIPAD@Z 10005dd7 f i ILuaObject.obj
 0001:00004e09       ??0Vector@@QAE@MMM@Z       10005e09 f i main.obj
 0001:00004e3d       ??4Vector@@QAEAAV0@ABV0@@Z 10005e3d f i main.obj
 0001:00004e6d       ?VectorSubtract@@YAXABVVector@@0AAV1@@Z 10005e6d f i main.obj
 0001:00004eb7       ?VectorLength@@YAMABVVector@@@Z 10005eb7 f i main.obj
 0001:00004eff       ?Length@Vector@@QBEMXZ     10005eff f i main.obj
 0001:00004f11       ?DistTo@Vector@@QBEMABV1@@Z 10005f11 f i main.obj
 0001:00004f40       ??0Vector4D@@QAE@MMMM@Z    10005f40 f i main.obj
 0001:00004fb6       ?min@?$numeric_limits@I@std@@SAIXZ 10005fb6 f i main.obj
 0001:00004fbd       ?InvalidIndex@?$CUtlMemory@U?$UtlLinkedListElem_t@UGroundSeedSpot@@H@@H@@SAHXZ 10005fbd f i nav.obj
 0001:00004fbd       ?InvalidIndex@?$CUtlMemory@U?$UtlLinkedListElem_t@UAirSeedSpot@@H@@H@@SAHXZ 10005fbd f i nav.obj
 0001:00004fbd       ?max@?$numeric_limits@I@std@@SAIXZ 10005fbd f i main.obj
 0001:00004fc5       ?min@?$numeric_limits@_J@std@@SA_JXZ 10005fc5 f i main.obj
 0001:00004fd1       ?max@?$numeric_limits@_J@std@@SA_JXZ 10005fd1 f i main.obj
 0001:00004fde       ??0logic_error@std@@QAE@PBD@Z 10005fde f i main.obj
 0001:00005001       ??_Glogic_error@std@@UAEPAXI@Z 10006001 f i main.obj
 0001:00005001       ??_Gruntime_error@std@@UAEPAXI@Z 10006001 f i main.obj
 0001:00005001       ??_Elogic_error@std@@UAEPAXI@Z 10006001 f i * CIL library *:* CIL module *
 0001:00005001       ??_Eruntime_error@std@@UAEPAXI@Z 10006001 f i * CIL library *:* CIL module *
 0001:00005028       ??1logic_error@std@@UAE@XZ 10006028 f i main.obj
 0001:00005028       ??1runtime_error@std@@UAE@XZ 10006028 f i main.obj
 0001:00005039       ??0out_of_range@std@@QAE@ABV?$basic_string@DU?$char_traits@D@std@@V?$allocator@D@2@@1@@Z 10006039 f i main.obj
 0001:00005061       ??_Eout_of_range@std@@UAEPAXI@Z 10006061 f i * CIL library *:* CIL module *
 0001:00005061       ??_Gout_of_range@std@@UAEPAXI@Z 10006061 f i main.obj
 0001:00005088       ??1out_of_range@std@@UAE@XZ 10006088 f i main.obj
 0001:00005099       ??0runtime_error@std@@QAE@PBD@Z 10006099 f i main.obj
 0001:000050bc       ??0runtime_error@std@@QAE@ABV01@@Z 100060bc f i main.obj
 0001:000050de       ??0exception@boost@@IAE@XZ 100060de f i main.obj
 0001:00005113       ??1exception@boost@@MAE@XZ 10006113 f i main.obj
 0001:00005130       ??1clone_base@exception_detail@boost@@UAE@XZ 10006130 f i main.obj
 0001:00005142       ??_Gclone_base@exception_detail@boost@@UAEPAXI@Z 10006142 f i main.obj
 0001:00005142       ??_Eclone_base@exception_detail@boost@@UAEPAXI@Z 10006142 f i * CIL library *:* CIL module *
 0001:00005169       ?copy_boost_exception@exception_detail@boost@@YAXPAVexception@2@PBV32@@Z 10006169 f i main.obj
 0001:0000522d       ?gmtime@c_time@date_time@boost@@SAPAUtm@@PB_JPAU4@@Z 1000622d f i main.obj
 0001:000052a2       ?get_system_time_as_file_time@winapi@date_time@boost@@YAXAAUFILETIME@123@@Z 100062a2 f i main.obj
 0001:000052b0       ?as_number@time_resolution_traits_adapted64_impl@date_time@boost@@SA_JV?$int_adapter@_J@23@@Z 100062b0 f i main.obj
 0001:000052bd       ?is_adapted@time_resolution_traits_adapted64_impl@date_time@boost@@SA_NXZ 100062bd f i main.obj
 0001:000052c4       ??0bad_day_of_month@gregorian@boost@@QAE@XZ 100062c4 f i main.obj
 0001:00005343       ??0bad_day_of_month@gregorian@boost@@QAE@ABV?$basic_string@DU?$char_traits@D@std@@V?$allocator@D@2@@std@@@Z 10006343 f i main.obj
 0001:00005365       ??_Gbad_year@gregorian@boost@@UAEPAXI@Z 10006365 f i main.obj
 0001:00005365       ??_Gbad_day_of_month@gregorian@boost@@UAEPAXI@Z 10006365 f i main.obj
 0001:00005365       ??_Ebad_month@gregorian@boost@@UAEPAXI@Z 10006365 f i * CIL library *:* CIL module *
 0001:00005365       ??_Ebad_year@gregorian@boost@@UAEPAXI@Z 10006365 f i * CIL library *:* CIL module *
 0001:00005365       ??_Gbad_month@gregorian@boost@@UAEPAXI@Z 10006365 f i main.obj
 0001:00005365       ??_Ebad_day_of_month@gregorian@boost@@UAEPAXI@Z 10006365 f i * CIL library *:* CIL module *
 0001:0000538c       ??1bad_month@gregorian@boost@@UAE@XZ 1000638c f i main.obj
 0001:0000538c       ??1bad_day_of_month@gregorian@boost@@UAE@XZ 1000638c f i main.obj
 0001:0000538c       ??1bad_year@gregorian@boost@@UAE@XZ 1000638c f i main.obj
 0001:0000539d       ??0greg_day@gregorian@boost@@QAE@G@Z 1000639d f i main.obj
 0001:000053b6       ??Bgreg_day@gregorian@boost@@QBEGXZ 100063b6 f i main.obj
 0001:000053b6       ??Bgreg_year@gregorian@boost@@QBEGXZ 100063b6 f i main.obj
 0001:000053b6       ??Bgreg_month@gregorian@boost@@QBEGXZ 100063b6 f i main.obj
 0001:000053c5       ??0bad_year@gregorian@boost@@QAE@XZ 100063c5 f i main.obj
 0001:00005444       ??0greg_year@gregorian@boost@@QAE@G@Z 10006444 f i main.obj
 0001:0000545d       ??0bad_month@gregorian@boost@@QAE@XZ 1000645d f i main.obj
 0001:000054dc       ??0greg_month@gregorian@boost@@QAE@G@Z 100064dc f i main.obj
 0001:000054f5       ??0date@gregorian@boost@@QAE@Vgreg_year@12@Vgreg_month@12@Vgreg_day@12@@Z 100064f5 f i main.obj
 0001:000055c0       ??0time_duration@posix_time@boost@@QAE@HHH_J@Z 100065c0 f i main.obj
 0001:000055e5       ??0time_duration@posix_time@boost@@IAE@V?$int_adapter@_J@date_time@2@@Z 100065e5 f i main.obj
 0001:000055e5       ??0?$counted_time_rep@Vmillisec_posix_time_system_config@posix_time@boost@@@date_time@boost@@QAE@_J@Z 100065e5 f i main.obj
 0001:00005601       ??0ptime@posix_time@boost@@QAE@Vdate@gregorian@2@Vtime_duration@12@@Z 10006601 f i main.obj
 0001:00005621       ??0time_duration@posix_time@boost@@QAE@ABV012@@Z 10006621 f i main.obj
 0001:00005621       ??0ptime@posix_time@boost@@QAE@ABU?$counted_time_rep@Vmillisec_posix_time_system_config@posix_time@boost@@@date_time@2@@Z 10006621 f i main.obj
 0001:0000563a       ?get_system_time@boost@@YA?AVptime@posix_time@1@XZ 1000663a f i main.obj
 0001:0000564b       ?free_raw_heap_memory@detail@boost@@YAXPAX@Z 1000664b f i main.obj
 0001:00005662       ?intrusive_ptr_release@detail@boost@@YAXPAUthread_data_base@12@@Z 10006662 f i main.obj
 0001:00005680       ??0timeout@detail@boost@@QAE@_K@Z 10006680 f i main.obj
 0001:000056bc       ?pin_to_zero@detail@boost@@YA_K_J@Z 100066bc f i main.obj
 0001:000056ee       ?interruptible_wait@this_thread@boost@@YAX_K@Z 100066ee f i main.obj
 0001:0000570d       ??1thread@boost@@QAE@XZ    1000670d f i main.obj
 0001:00005758       _gmod13_open               10006758 f   main.obj
 0001:00005774       _gmod13_close              10006774 f   main.obj
 0001:00005797       ?NewVectorObject@@YAPAVILuaObject@@PAUlua_State@@AAVVector@@@Z 10006797 f   main.obj
 0001:000058ee       ?GMOD_PushVector@@YAXPAUlua_State@@AAVVector@@@Z 100068ee f   main.obj
 0001:00005924       ?GMOD_GetVector@@YAAAVVector@@PAUlua_State@@H@Z 10006924 f   main.obj
 0001:00005924       ?GetNode@@YAPAVNode@@PAUlua_State@@H@Z 10006924 f   main.obj
 0001:00005941       ?GetNav@@YAPAVNav@@PAUlua_State@@H@Z 10006941 f   main.obj
 0001:00005986       ?PushNav@@YAXPAUlua_State@@PAVNav@@@Z 10006986 f   main.obj
 0001:000059f5       ?PushNode@@YAXPAUlua_State@@PAVNode@@@Z 100069f5 f   main.obj
 0001:00005a64       ?nav_Create@@YAHPAUlua_State@@@Z 10006a64 f   main.obj
 0001:00005b0f       ?nav_Poll@@YAHPAUlua_State@@@Z 10006b0f f   main.obj
 0001:00005e79       ??_GJobInfo_t@@QAEPAXI@Z   10006e79 f i main.obj
 0001:00005ea0       ??1JobInfo_t@@QAE@XZ       10006ea0 f i main.obj
 0001:00005eee       ?Nav_GetNodeByID@@YAHPAUlua_State@@@Z 10006eee f   main.obj
 0001:00005f70       ?Nav_GetNodeTotal@@YAHPAUlua_State@@@Z 10006f70 f   main.obj
 0001:00005fcd       ?Nav_GetNodes@@YAHPAUlua_State@@@Z 10006fcd f   main.obj
 0001:000060e5       ?Nav_SetupMaxDistance@@YAHPAUlua_State@@@Z 100070e5 f   main.obj
 0001:00006177       ?Nav_AddGroundSeed@@YAHPAUlua_State@@@Z 10007177 f   main.obj
 0001:000061f9       ?Nav_AddAirSeed@@YAHPAUlua_State@@@Z 100071f9 f   main.obj
 0001:00006255       ?Nav_ClearGroundSeeds@@YAHPAUlua_State@@@Z 10007255 f   main.obj
 0001:0000628b       ?Nav_ClearAirSeeds@@YAHPAUlua_State@@@Z 1000728b f   main.obj
 0001:000062c1       ?Nav_Generate@@YAHPAUlua_State@@@Z 100072c1 f   main.obj
 0001:00006432       ??0JobInfo_t@@QAE@XZ       10007432 f i main.obj
 0001:0000649d       ?Nav_FullGeneration@@YAHPAUlua_State@@@Z 1000749d f   main.obj
 0001:00006536       ?Nav_IsGenerated@@YAHPAUlua_State@@@Z 10007536 f   main.obj
 0001:00006586       ?Nav_FindPath@@YAHPAUlua_State@@@Z 10007586 f   main.obj
 0001:000066a0       ?Nav_FindPathImmediate@@YAHPAUlua_State@@@Z 100076a0 f   main.obj
 0001:0000689f       ?Nav_FindPathHull@@YAHPAUlua_State@@@Z 1000789f f   main.obj
 0001:00006a1b       ?Nav_GetHeuristic@@YAHPAUlua_State@@@Z 10007a1b f   main.obj
 0001:00006a71       ?Nav_GetStart@@YAHPAUlua_State@@@Z 10007a71 f   main.obj
 0001:00006ab3       ?Nav_GetEnd@@YAHPAUlua_State@@@Z 10007ab3 f   main.obj
 0001:00006af5       ?Nav_SetHeuristic@@YAHPAUlua_State@@@Z 10007af5 f   main.obj
 0001:00006b61       ?Nav_SetStart@@YAHPAUlua_State@@@Z 10007b61 f   main.obj
 0001:00006bc0       ?Nav_SetEnd@@YAHPAUlua_State@@@Z 10007bc0 f   main.obj
 0001:00006c1f       ?Nav_GetNode@@YAHPAUlua_State@@@Z 10007c1f f   main.obj
 0001:00006c87       ?Nav_GetClosestNode@@YAHPAUlua_State@@@Z 10007c87 f   main.obj
 0001:00006cef       ?Nav_GetNodesInSphere@@YAHPAUlua_State@@@Z 10007cef f   main.obj
 0001:00006e9b       ?Nav_Save@@YAHPAUlua_State@@@Z 10007e9b f   main.obj
 0001:00006f1e       ?Nav_Load@@YAHPAUlua_State@@@Z 10007f1e f   main.obj
 0001:00006fa1       ?Nav_GetDiagonal@@YAHPAUlua_State@@@Z 10007fa1 f   main.obj
 0001:00006ff1       ?Nav_SetDiagonal@@YAHPAUlua_State@@@Z 10007ff1 f   main.obj
 0001:00007042       ?Nav_GetGridSize@@YAHPAUlua_State@@@Z 10008042 f   main.obj
 0001:00007098       ?Nav_SetGridSize@@YAHPAUlua_State@@@Z 10008098 f   main.obj
 0001:000070ff       ?Nav_GetMask@@YAHPAUlua_State@@@Z 100080ff f   main.obj
 0001:00007155       ?Nav_SetMask@@YAHPAUlua_State@@@Z 10008155 f   main.obj
 0001:000071bc       ?Nav_CreateNode@@YAHPAUlua_State@@@Z 100081bc f   main.obj
 0001:0000724e       ?Nav_RemoveNode@@YAHPAUlua_State@@@Z 1000824e f   main.obj
 0001:000072ad       ?Nav_Flood@@YAHPAUlua_State@@@Z 100082ad f   main.obj
 0001:00007318       ?Nav_GetTerritory@@YAHPAUlua_State@@@Z 10008318 f   main.obj
 0001:00007394       ?Node__eq@@YAHPAUlua_State@@@Z 10008394 f   main.obj
 0001:00007425       ?Node_GetID@@YAHPAUlua_State@@@Z 10008425 f   main.obj
 0001:00007483       ?Node_GetPosition@@YAHPAUlua_State@@@Z 10008483 f   main.obj
 0001:000074be       ?Node_GetNormal@@YAHPAUlua_State@@@Z 100084be f   main.obj
 0001:000074fc       ?Node_IsDisabled@@YAHPAUlua_State@@@Z 100084fc f   main.obj
 0001:0000754c       ?Node_SetDisabled@@YAHPAUlua_State@@@Z 1000854c f   main.obj
 0001:000075b6       ?Node_GetConnections@@YAHPAUlua_State@@@Z 100085b6 f   main.obj
 0001:000076c2       ?Node_GetScoreG@@YAHPAUlua_State@@@Z 100086c2 f   main.obj
 0001:00007712       ?Node_GetScoreF@@YAHPAUlua_State@@@Z 10008712 f   main.obj
 0001:00007762       ?Node_IsConnected@@YAHPAUlua_State@@@Z 10008762 f   main.obj
 0001:00007827       ?Node_SetNormal@@YAHPAUlua_State@@@Z 10008827 f   main.obj
 0001:00007883       ?Node_SetPosition@@YAHPAUlua_State@@@Z 10008883 f   main.obj
 0001:000078df       ?Node_ConnectTo@@YAHPAUlua_State@@@Z 100088df f   main.obj
 0001:000079bd       ?Node_RemoveConnection@@YAHPAUlua_State@@@Z 100089bd f   main.obj
 0001:00007a5a       ?Init@@YAHPAUlua_State@@@Z 10008a5a f   main.obj
 0001:000082eb       ?Shutdown@@YAHPAUlua_State@@@Z 100092eb f   main.obj
 0001:000083a0       ?c_str@?$basic_string@DU?$char_traits@D@std@@V?$allocator@D@2@@std@@QBEPBDXZ 100093a0 f i main.obj
 0001:000083b1       ??1?$refcount_ptr@Uerror_info_container@exception_detail@boost@@@exception_detail@boost@@QAE@XZ 100093b1 f i main.obj
 0001:000083c2       ??4?$refcount_ptr@Uerror_info_container@exception_detail@boost@@@exception_detail@boost@@QAEAAV012@ABV012@@Z 100093c2 f i main.obj
 0001:000083dd       ?as_number@?$int_adapter@_J@date_time@boost@@QBE_JXZ 100093dd f i main.obj
 0001:000083ee       ??0?$constrained_value@V?$simple_exception_policy@G$00$0BP@Ubad_day_of_month@gregorian@boost@@@CV@boost@@@CV@boost@@QAE@G@Z 100093ee f i main.obj
 0001:00008412       ??0?$constrained_value@V?$simple_exception_policy@G$0FHI@$0CHBA@Ubad_year@gregorian@boost@@@CV@boost@@@CV@boost@@QAE@G@Z 10009412 f i main.obj
 0001:00008436       ??0?$constrained_value@V?$simple_exception_policy@G$00$0M@Ubad_month@gregorian@boost@@@CV@boost@@@CV@boost@@QAE@G@Z 10009436 f i main.obj
 0001:0000845a       ??0?$date@V0gregorian@boost@@Vgregorian_calendar@12@Vdate_duration@12@@date_time@boost@@QAE@Vgreg_year@gregorian@2@Vgreg_month@42@Vgreg_day@42@@Z 1000945a f i main.obj
 0001:00008487       ??0?$time_duration@V0posix_time@boost@@V?$time_resolution_traits@Utime_resolution_traits_adapted64_impl@date_time@boost@@$04$0PECEA@$05H@date_time@2@@date_time@boost@@QAE@HHH_J@Z 10009487 f i main.obj
 0001:000084b6       ??0?$time_duration@V0posix_time@boost@@V?$time_resolution_traits@Utime_resolution_traits_adapted64_impl@date_time@boost@@$04$0PECEA@$05H@date_time@2@@date_time@boost@@QAE@ABV012@@Z 100094b6 f i main.obj
 0001:000084b6       ??0?$base_time@Vptime@posix_time@boost@@V?$counted_time_system@U?$counted_time_rep@Vmillisec_posix_time_system_config@posix_time@boost@@@date_time@boost@@@date_time@3@@date_time@boost@@QAE@ABU?$counted_time_rep@Vmillisec_posix_time_system_config@posix_time@boost@@@12@@Z 100094b6 f i main.obj
 0001:000084d4       ?ticks_per_second@?$time_duration@V0posix_time@boost@@V?$time_resolution_traits@Utime_resolution_traits_adapted64_impl@date_time@boost@@$04$0PECEA@$05H@date_time@2@@date_time@boost@@SA_JXZ 100094d4 f i main.obj
 0001:000084de       ?total_milliseconds@?$time_duration@V0posix_time@boost@@V?$time_resolution_traits@Utime_resolution_traits_adapted64_impl@date_time@boost@@$04$0PECEA@$05H@date_time@2@@date_time@boost@@QBE_JXZ 100094de f i main.obj
 0001:0000855b       ??0?$counted_time_rep@Vmillisec_posix_time_system_config@posix_time@boost@@@date_time@boost@@QAE@V?$int_adapter@_J@12@@Z 1000955b f i main.obj
 0001:0000855b       ??0?$int_adapter@_J@date_time@boost@@QAE@_J@Z 1000955b f i main.obj
 0001:0000855b       ??0?$time_duration@V0posix_time@boost@@V?$time_resolution_traits@Utime_resolution_traits_adapted64_impl@date_time@boost@@$04$0PECEA@$05H@date_time@2@@date_time@boost@@IAE@V?$int_adapter@_J@12@@Z 1000955b f i main.obj
 0001:00008577       ??0?$base_time@Vptime@posix_time@boost@@V?$counted_time_system@U?$counted_time_rep@Vmillisec_posix_time_system_config@posix_time@boost@@@date_time@boost@@@date_time@3@@date_time@boost@@QAE@ABVdate@gregorian@2@ABVtime_duration@posix_time@2@W4dst_flags@12@@Z 10009577 f i main.obj
 0001:00008599       ??H?$base_time@Vptime@posix_time@boost@@V?$counted_time_system@U?$counted_time_rep@Vmillisec_posix_time_system_config@posix_time@boost@@@date_time@boost@@@date_time@3@@date_time@boost@@QBE?AVptime@posix_time@2@ABVtime_duration@42@@Z 10009599 f i main.obj
 0001:000085cd       ?universal_time@?$microsec_clock@Vptime@posix_time@boost@@@date_time@boost@@SA?AVptime@posix_time@3@XZ 100095cd f i main.obj
 0001:000085e4       ??1?$intrusive_ptr@Uthread_data_base@detail@boost@@@boost@@QAE@XZ 100095e4 f i main.obj
 0001:00008600       ??0?$subsecond_duration@Vtime_duration@posix_time@boost@@$0DOI@@date_time@boost@@QAE@_J@Z 10009600 f i main.obj
 0001:00008662       ?adopt@?$refcount_ptr@Uerror_info_container@exception_detail@boost@@@exception_detail@boost@@QAEXPAUerror_info_container@23@@Z 10009662 f i main.obj
 0001:00008685       ?release@?$refcount_ptr@Uerror_info_container@exception_detail@boost@@@exception_detail@boost@@AAEXXZ 10009685 f i main.obj
 0001:000086b2       ?min@?$constrained_value@V?$simple_exception_policy@G$00$0M@Ubad_month@gregorian@boost@@@CV@boost@@@CV@boost@@SAGXZ 100096b2 f i main.obj
 0001:000086b2       ?min@?$constrained_value@V?$simple_exception_policy@G$00$0BP@Ubad_day_of_month@gregorian@boost@@@CV@boost@@@CV@boost@@SAGXZ 100096b2 f i main.obj
 0001:000086bc       ?assign@?$constrained_value@V?$simple_exception_policy@G$00$0BP@Ubad_day_of_month@gregorian@boost@@@CV@boost@@@CV@boost@@AAEXG@Z 100096bc f i main.obj
 0001:00008721       ?min@?$constrained_value@V?$simple_exception_policy@G$0FHI@$0CHBA@Ubad_year@gregorian@boost@@@CV@boost@@@CV@boost@@SAGXZ 10009721 f i main.obj
 0001:0000872b       ?assign@?$constrained_value@V?$simple_exception_policy@G$0FHI@$0CHBA@Ubad_year@gregorian@boost@@@CV@boost@@@CV@boost@@AAEXG@Z 1000972b f i main.obj
 0001:00008790       ?assign@?$constrained_value@V?$simple_exception_policy@G$00$0M@Ubad_month@gregorian@boost@@@CV@boost@@@CV@boost@@AAEXG@Z 10009790 f i main.obj
 0001:000087f5       ?pos_infinity@?$int_adapter@I@date_time@boost@@SA?BV123@XZ 100097f5 f i main.obj
 0001:0000880b       ?neg_infinity@?$int_adapter@I@date_time@boost@@SA?BV123@XZ 1000980b f i main.obj
 0001:00008821       ?not_a_number@?$int_adapter@I@date_time@boost@@SA?BV123@XZ 10009821 f i main.obj
 0001:00008838       ?is_not_a_date@?$date@V0gregorian@boost@@Vgregorian_calendar@12@Vdate_duration@12@@date_time@boost@@QBE_NXZ 10009838 f i main.obj
 0001:0000884c       ?is_infinity@?$date@V0gregorian@boost@@Vgregorian_calendar@12@Vdate_duration@12@@date_time@boost@@QBE_NXZ 1000984c f i main.obj
 0001:00008860       ?time_count@?$counted_time_rep@Vmillisec_posix_time_system_config@posix_time@boost@@@date_time@boost@@QBE_JXZ 10009860 f i main.obj
 0001:00008860       ?ticks@?$time_duration@V0posix_time@boost@@V?$time_resolution_traits@Utime_resolution_traits_adapted64_impl@date_time@boost@@$04$0PECEA@$05H@date_time@2@@date_time@boost@@QBE_JXZ 10009860 f i main.obj
 0001:00008878       ?res_adjust@?$time_resolution_traits@Utime_resolution_traits_adapted64_impl@date_time@boost@@$04$0PECEA@$05H@date_time@boost@@SA_JXZ 10009878 f i main.obj
 0001:00008884       ?to_tick_count@?$time_resolution_traits@Utime_resolution_traits_adapted64_impl@date_time@boost@@$04$0PECEA@$05H@date_time@boost@@SA_JHHH_J@Z 10009884 f i main.obj
 0001:00008983       ?get_time_rep@?$counted_time_system@U?$counted_time_rep@Vmillisec_posix_time_system_config@posix_time@boost@@@date_time@boost@@@date_time@boost@@SA?AU?$counted_time_rep@Vmillisec_posix_time_system_config@posix_time@boost@@@23@ABVdate@gregorian@3@ABVtime_duration@posix_time@3@W4dst_flags@23@@Z 10009983 f i main.obj
 0001:000089a3       ?add_time_duration@?$counted_time_system@U?$counted_time_rep@Vmillisec_posix_time_system_config@posix_time@boost@@@date_time@boost@@@date_time@boost@@SA?AU?$counted_time_rep@Vmillisec_posix_time_system_config@posix_time@boost@@@23@ABU423@Vtime_duration@posix_time@3@@Z 100099a3 f i main.obj
 0001:00008a2a       ?create_time@?$microsec_clock@Vptime@posix_time@boost@@@date_time@boost@@CA?AVptime@posix_time@3@P6APAUtm@@PB_JPAU6@@Z@Z 10009a2a f i main.obj
 0001:00008b2e       ?add_ref@?$refcount_ptr@Uerror_info_container@exception_detail@boost@@@exception_detail@boost@@AAEXXZ 10009b2e f i main.obj
 0001:00008b4e       ?pos_infinity@?$int_adapter@_J@date_time@boost@@SA?BV123@XZ 10009b4e f i main.obj
 0001:00008b65       ?neg_infinity@?$int_adapter@_J@date_time@boost@@SA?BV123@XZ 10009b65 f i main.obj
 0001:00008b7c       ?not_a_number@?$int_adapter@_J@date_time@boost@@SA?BV123@XZ 10009b7c f i main.obj
 0001:00008b99       ?is_pos_inf@?$int_adapter@_J@date_time@boost@@SA_N_J@Z 10009b99 f i main.obj
 0001:00008bd8       ?max@?$constrained_value@V?$simple_exception_policy@G$00$0BP@Ubad_day_of_month@gregorian@boost@@@CV@boost@@@CV@boost@@SAGXZ 10009bd8 f i main.obj
 0001:00008be2       ?min@?$simple_exception_policy@G$00$0M@Ubad_month@gregorian@boost@@@CV@boost@@SAGXZ 10009be2 f i main.obj
 0001:00008be2       ?min@?$simple_exception_policy@G$00$0BP@Ubad_day_of_month@gregorian@boost@@@CV@boost@@SAGXZ 10009be2 f i main.obj
 0001:00008bea       ?on_error@?$simple_exception_policy@G$00$0BP@Ubad_day_of_month@gregorian@boost@@@CV@boost@@SAXGGW4violation_enum@23@@Z 10009bea f i main.obj
 0001:00008c45       ?max@?$constrained_value@V?$simple_exception_policy@G$0FHI@$0CHBA@Ubad_year@gregorian@boost@@@CV@boost@@@CV@boost@@SAGXZ 10009c45 f i main.obj
 0001:00008c4f       ?min@?$simple_exception_policy@G$0FHI@$0CHBA@Ubad_year@gregorian@boost@@@CV@boost@@SAGXZ 10009c4f f i main.obj
 0001:00008c59       ?on_error@?$simple_exception_policy@G$0FHI@$0CHBA@Ubad_year@gregorian@boost@@@CV@boost@@SAXGGW4violation_enum@23@@Z 10009c59 f i main.obj
 0001:00008cb4       ?max@?$constrained_value@V?$simple_exception_policy@G$00$0M@Ubad_month@gregorian@boost@@@CV@boost@@@CV@boost@@SAGXZ 10009cb4 f i main.obj
 0001:00008cbe       ?on_error@?$simple_exception_policy@G$00$0M@Ubad_month@gregorian@boost@@@CV@boost@@SAXGGW4violation_enum@23@@Z 10009cbe f i main.obj
 0001:00008d19       ?is_inf@?$int_adapter@I@date_time@boost@@SA_NI@Z 10009d19 f i main.obj
 0001:00008d5d       ?is_neg_inf@?$int_adapter@I@date_time@boost@@SA_NI@Z 10009d5d f i main.obj
 0001:00008d8a       ?is_pos_inf@?$int_adapter@I@date_time@boost@@SA_NI@Z 10009d8a f i main.obj
 0001:00008db7       ?is_not_a_number@?$int_adapter@I@date_time@boost@@SA_NI@Z 10009db7 f i main.obj
 0001:00008de4       ?is_special@?$time_duration@V0posix_time@boost@@V?$time_resolution_traits@Utime_resolution_traits_adapted64_impl@date_time@boost@@$04$0PECEA@$05H@date_time@2@@date_time@boost@@QBE_NXZ 10009de4 f i main.obj
 0001:00008e07       ?get_rep@?$counted_time_rep@Vmillisec_posix_time_system_config@posix_time@boost@@@date_time@boost@@QBE?AV?$int_adapter@_J@23@XZ 10009e07 f i main.obj
 0001:00008e07       ?get_rep@?$time_duration@V0posix_time@boost@@V?$time_resolution_traits@Utime_resolution_traits_adapted64_impl@date_time@boost@@$04$0PECEA@$05H@date_time@2@@date_time@boost@@QBE?AV?$int_adapter@_J@23@XZ 10009e07 f i main.obj
 0001:00008e25       ?as_number@?$time_resolution_traits@Utime_resolution_traits_adapted64_impl@date_time@boost@@$04$0PECEA@$05H@date_time@boost@@SA_JV?$int_adapter@_J@23@@Z 10009e25 f i main.obj
 0001:00008e37       ??0?$counted_time_rep@Vmillisec_posix_time_system_config@posix_time@boost@@@date_time@boost@@QAE@ABVdate@gregorian@2@ABVtime_duration@posix_time@2@@Z 10009e37 f i main.obj
 0001:00008ef9       ?frac_sec_per_day@?$counted_time_rep@Vmillisec_posix_time_system_config@posix_time@boost@@@date_time@boost@@SA_JXZ 10009ef9 f i main.obj
 0001:00008f28       ?is_special@?$counted_time_rep@Vmillisec_posix_time_system_config@posix_time@boost@@@date_time@boost@@QBE_NXZ 10009f28 f i main.obj
 0001:00008f39       ?is_neg_inf@?$int_adapter@_J@date_time@boost@@SA_N_J@Z 10009f39 f i main.obj
 0001:00008f78       ?is_special@?$int_adapter@_J@date_time@boost@@QBE_NXZ 10009f78 f i main.obj
 0001:00008fb0       ?max@?$simple_exception_policy@G$00$0BP@Ubad_day_of_month@gregorian@boost@@@CV@boost@@SAGXZ 10009fb0 f i main.obj
 0001:00008fb8       ?max@?$simple_exception_policy@G$0FHI@$0CHBA@Ubad_year@gregorian@boost@@@CV@boost@@SAGXZ 10009fb8 f i main.obj
 0001:00008fc2       ?max@?$simple_exception_policy@G$00$0M@Ubad_month@gregorian@boost@@@CV@boost@@SAGXZ 10009fc2 f i main.obj
 0001:00008fca       ?is_infinity@?$int_adapter@I@date_time@boost@@QBE_NXZ 10009fca f i main.obj
 0001:00009015       ?is_nan@?$int_adapter@I@date_time@boost@@QBE_NXZ 1000a015 f i main.obj
 0001:00009048       ?is_special@?$int_adapter@I@date_time@boost@@QBE_NXZ 1000a048 f i main.obj
 0001:00009080       ?day_count@?$date@V0gregorian@boost@@Vgregorian_calendar@12@Vdate_duration@12@@date_time@boost@@QBE?AV?$int_adapter@I@23@XZ 1000a080 f i main.obj
 0001:0000909b       ?is_adapted@?$time_resolution_traits@Utime_resolution_traits_adapted64_impl@date_time@boost@@$04$0PECEA@$05H@date_time@boost@@SA_NXZ 1000a09b f i main.obj
 0001:000090a5       ?is_infinity@?$int_adapter@_J@date_time@boost@@QBE_NXZ 1000a0a5 f i main.obj
 0001:00009124       ?is_nan@?$int_adapter@_J@date_time@boost@@QBE_NXZ 1000a124 f i main.obj
 0001:00009171       ??$throw_exception@Vruntime_error@std@@@boost@@YAXABVruntime_error@std@@@Z 1000a171 f i main.obj
 0001:000091ef       ??0?$year_month_day_base@Vgreg_year@gregorian@boost@@Vgreg_month@23@Vgreg_day@23@@date_time@boost@@QAE@Vgreg_year@gregorian@2@Vgreg_month@42@Vgreg_day@42@@Z 1000a1ef f i main.obj
 0001:0000921d       ?day_number@?$gregorian_calendar_base@U?$year_month_day_base@Vgreg_year@gregorian@boost@@Vgreg_month@23@Vgreg_day@23@@date_time@boost@@I@date_time@boost@@SAIABU?$year_month_day_base@Vgreg_year@gregorian@boost@@Vgreg_month@23@Vgreg_day@23@@23@@Z 1000a21d f i main.obj
 0001:000092dd       ?end_of_month_day@?$gregorian_calendar_base@U?$year_month_day_base@Vgreg_year@gregorian@boost@@Vgreg_month@23@Vgreg_day@23@@date_time@boost@@I@date_time@boost@@SAGVgreg_year@gregorian@3@Vgreg_month@53@@Z 1000a2dd f i main.obj
 0001:00009335       ??$throw_exception@Ubad_day_of_month@gregorian@boost@@@boost@@YAXABUbad_day_of_month@gregorian@0@@Z 1000a335 f i main.obj
 0001:000093b3       ??$heap_delete@Uthread_data_base@detail@boost@@@detail@boost@@YAXPAUthread_data_base@01@@Z 1000a3b3 f i main.obj
 0001:000093cd       ??$absolute_value@H@date_time@boost@@YAHH@Z 1000a3cd f i main.obj
 0001:000093ec       ??0?$CUtlVector@PAUBorder@@V?$CUtlMemory@PAUBorder@@H@@@@QAE@HH@Z 1000a3ec f i nav.obj
 0001:000093ec       ??0?$CUtlVector@PAVNode@@V?$CUtlMemory@PAVNode@@H@@@@QAE@HH@Z 1000a3ec f i main.obj
 0001:000093ec       ??0?$CUtlVector@PAUJobInfo_t@@V?$CUtlMemory@PAUJobInfo_t@@H@@@@QAE@HH@Z 1000a3ec f i main.obj
 0001:00009449       ??1?$CUtlVector@PAUJobInfo_t@@V?$CUtlMemory@PAUJobInfo_t@@H@@@@QAE@XZ 1000a449 f i main.obj
 0001:00009449       ??1?$CUtlVector@PAVNode@@V?$CUtlMemory@PAVNode@@H@@@@QAE@XZ 1000a449 f i main.obj
 0001:00009449       ??1?$CUtlVector@PAUBorder@@V?$CUtlMemory@PAUBorder@@H@@@@QAE@XZ 1000a449 f i nav.obj
 0001:00009494       ?Element@?$CUtlVector@PAVNode@@V?$CUtlMemory@PAVNode@@H@@@@QAEAAPAVNode@@H@Z 1000a494 f i main.obj
 0001:00009494       ?Element@?$CUtlVector@PAUJobInfo_t@@V?$CUtlMemory@PAUJobInfo_t@@H@@@@QAEAAPAUJobInfo_t@@H@Z 1000a494 f i main.obj
 0001:00009494       ?Element@?$CUtlVector@PAUBorder@@V?$CUtlMemory@PAUBorder@@H@@@@QAEAAPAUBorder@@H@Z 1000a494 f i nav.obj
 0001:00009494       ??A?$CUtlVector@PAVNode@@V?$CUtlMemory@PAVNode@@H@@@@QAEAAPAVNode@@H@Z 1000a494 f i main.obj
 0001:00009494       ?Element@?$CUtlVector@PAVNode@@V?$CUtlMemory@PAVNode@@H@@@@QBEABQAVNode@@H@Z 1000a494 f i nav.obj
 0001:00009494       ?Element@?$CUtlVector@PAUBorder@@V?$CUtlMemory@PAUBorder@@H@@@@QBEABQAUBorder@@H@Z 1000a494 f i nav.obj
 0001:00009494       ??A?$CUtlVector@PAUJobInfo_t@@V?$CUtlMemory@PAUJobInfo_t@@H@@@@QAEAAPAUJobInfo_t@@H@Z 1000a494 f i main.obj
 0001:000094aa       ?AddToTail@?$CUtlVector@PAUBorder@@V?$CUtlMemory@PAUBorder@@H@@@@QAEHABQAUBorder@@@Z 1000a4aa f i nav.obj
 0001:000094aa       ?AddToTail@?$CUtlVector@PAVNode@@V?$CUtlMemory@PAVNode@@H@@@@QAEHABQAVNode@@@Z 1000a4aa f i nav.obj
 0001:000094aa       ?AddToTail@?$CUtlVector@PAUJobInfo_t@@V?$CUtlMemory@PAUJobInfo_t@@H@@@@QAEHABQAUJobInfo_t@@@Z 1000a4aa f i main.obj
 0001:000094c6       ?Remove@?$CUtlVector@PAVNode@@V?$CUtlMemory@PAVNode@@H@@@@QAEXH@Z 1000a4c6 f i nav.obj
 0001:000094c6       ?Remove@?$CUtlVector@PAUBorder@@V?$CUtlMemory@PAUBorder@@H@@@@QAEXH@Z 1000a4c6 f i nav.obj
 0001:000094c6       ?Remove@?$CUtlVector@PAUJobInfo_t@@V?$CUtlMemory@PAUJobInfo_t@@H@@@@QAEXH@Z 1000a4c6 f i main.obj
 0001:000094fd       ??$timed_join@Vtime_duration@posix_time@boost@@@thread@boost@@QAE_NABVtime_duration@posix_time@1@@Z 1000a4fd f i main.obj
 0001:0000952b       ??$sleep@Vtime_duration@posix_time@boost@@@this_thread@boost@@YAXABVtime_duration@posix_time@1@@Z 1000a52b f i main.obj
 0001:0000954a       ??$absolute_value@_J@date_time@boost@@YA_J_J@Z 1000a54a f i main.obj
 0001:00009586       ??$?H_J@?$int_adapter@_J@date_time@boost@@QBE?AV012@ABV012@@Z 1000a586 f i main.obj
 0001:000096dc       ??$file_time_to_microseconds@UFILETIME@winapi@date_time@boost@@@winapi@date_time@boost@@YA_KABUFILETIME@012@@Z 1000a6dc f i main.obj
 0001:00009726       ??$throw_exception@Ubad_year@gregorian@boost@@@boost@@YAXABUbad_year@gregorian@0@@Z 1000a726 f i main.obj
 0001:000097a4       ??$throw_exception@Ubad_month@gregorian@boost@@@boost@@YAXABUbad_month@gregorian@0@@Z 1000a7a4 f i main.obj
 0001:00009822       ??$?HI@?$int_adapter@_J@date_time@boost@@QBE?AV012@ABV?$int_adapter@I@12@@Z 1000a822 f i main.obj
 0001:00009972       ??_D?$clone_impl@U?$error_info_injector@Vruntime_error@std@@@exception_detail@boost@@@exception_detail@boost@@QAEXXZ 1000a972 f i main.obj
 0001:0000998e       ??0?$clone_impl@U?$error_info_injector@Vruntime_error@std@@@exception_detail@boost@@@exception_detail@boost@@QAE@ABV012@@Z 1000a98e f i main.obj
 0001:00009a5d       ??0?$error_info_injector@Vruntime_error@std@@@exception_detail@boost@@QAE@ABU012@@Z 1000aa5d f i main.obj
 0001:00009adf       ??0exception@boost@@QAE@ABV01@@Z 1000aadf f i main.obj
 0001:00009b2c       ??0clone_base@exception_detail@boost@@QAE@ABV012@@Z 1000ab2c f i main.obj
 0001:00009b43       ??_D?$clone_impl@U?$error_info_injector@Ubad_day_of_month@gregorian@boost@@@exception_detail@boost@@@exception_detail@boost@@QAEXXZ 1000ab43 f i main.obj
 0001:00009b5f       ??0?$clone_impl@U?$error_info_injector@Ubad_day_of_month@gregorian@boost@@@exception_detail@boost@@@exception_detail@boost@@QAE@ABV012@@Z 1000ab5f f i main.obj
 0001:00009c2e       ??0?$error_info_injector@Ubad_day_of_month@gregorian@boost@@@exception_detail@boost@@QAE@ABU012@@Z 1000ac2e f i main.obj
 0001:00009cb0       ??0bad_day_of_month@gregorian@boost@@QAE@ABU012@@Z 1000acb0 f i main.obj
 0001:00009cd2       ??0out_of_range@std@@QAE@ABV01@@Z 1000acd2 f i main.obj
 0001:00009cf4       ??0logic_error@std@@QAE@ABV01@@Z 1000acf4 f i main.obj
 0001:00009d16       ??_D?$clone_impl@U?$error_info_injector@Ubad_year@gregorian@boost@@@exception_detail@boost@@@exception_detail@boost@@QAEXXZ 1000ad16 f i main.obj
 0001:00009d32       ??0?$clone_impl@U?$error_info_injector@Ubad_year@gregorian@boost@@@exception_detail@boost@@@exception_detail@boost@@QAE@ABV012@@Z 1000ad32 f i main.obj
 0001:00009e01       ??0?$error_info_injector@Ubad_year@gregorian@boost@@@exception_detail@boost@@QAE@ABU012@@Z 1000ae01 f i main.obj
 0001:00009e83       ??0bad_year@gregorian@boost@@QAE@ABU012@@Z 1000ae83 f i main.obj
 0001:00009ea5       ??_D?$clone_impl@U?$error_info_injector@Ubad_month@gregorian@boost@@@exception_detail@boost@@@exception_detail@boost@@QAEXXZ 1000aea5 f i main.obj
 0001:00009ec1       ??0?$clone_impl@U?$error_info_injector@Ubad_month@gregorian@boost@@@exception_detail@boost@@@exception_detail@boost@@QAE@ABV012@@Z 1000aec1 f i main.obj
 0001:00009f90       ??0?$error_info_injector@Ubad_month@gregorian@boost@@@exception_detail@boost@@QAE@ABU012@@Z 1000af90 f i main.obj
 0001:0000a012       ??0bad_month@gregorian@boost@@QAE@ABU012@@Z 1000b012 f i main.obj
 0001:0000a034       ??_G?$clone_impl@U?$error_info_injector@Vruntime_error@std@@@exception_detail@boost@@@exception_detail@boost@@UAEPAXI@Z 1000b034 f i main.obj
 0001:0000a034       ??_E?$clone_impl@U?$error_info_injector@Vruntime_error@std@@@exception_detail@boost@@@exception_detail@boost@@UAEPAXI@Z 1000b034 f i * CIL library *:* CIL module *
 0001:0000a05b       ??_E?$error_info_injector@Vruntime_error@std@@@exception_detail@boost@@UAEPAXI@Z 1000b05b f i * CIL library *:* CIL module *
 0001:0000a05b       ??_G?$error_info_injector@Vruntime_error@std@@@exception_detail@boost@@UAEPAXI@Z 1000b05b f i main.obj
 0001:0000a082       ??_E?$clone_impl@U?$error_info_injector@Ubad_day_of_month@gregorian@boost@@@exception_detail@boost@@@exception_detail@boost@@UAEPAXI@Z 1000b082 f i * CIL library *:* CIL module *
 0001:0000a082       ??_G?$clone_impl@U?$error_info_injector@Ubad_day_of_month@gregorian@boost@@@exception_detail@boost@@@exception_detail@boost@@UAEPAXI@Z 1000b082 f i main.obj
 0001:0000a0a9       ??_G?$error_info_injector@Ubad_day_of_month@gregorian@boost@@@exception_detail@boost@@UAEPAXI@Z 1000b0a9 f i main.obj
 0001:0000a0a9       ??_E?$error_info_injector@Ubad_day_of_month@gregorian@boost@@@exception_detail@boost@@UAEPAXI@Z 1000b0a9 f i * CIL library *:* CIL module *
 0001:0000a0d0       ??_G?$clone_impl@U?$error_info_injector@Ubad_year@gregorian@boost@@@exception_detail@boost@@@exception_detail@boost@@UAEPAXI@Z 1000b0d0 f i main.obj
 0001:0000a0d0       ??_E?$clone_impl@U?$error_info_injector@Ubad_year@gregorian@boost@@@exception_detail@boost@@@exception_detail@boost@@UAEPAXI@Z 1000b0d0 f i * CIL library *:* CIL module *
 0001:0000a0f7       ??_E?$error_info_injector@Ubad_year@gregorian@boost@@@exception_detail@boost@@UAEPAXI@Z 1000b0f7 f i * CIL library *:* CIL module *
 0001:0000a0f7       ??_G?$error_info_injector@Ubad_year@gregorian@boost@@@exception_detail@boost@@UAEPAXI@Z 1000b0f7 f i main.obj
 0001:0000a11e       ??_G?$clone_impl@U?$error_info_injector@Ubad_month@gregorian@boost@@@exception_detail@boost@@@exception_detail@boost@@UAEPAXI@Z 1000b11e f i main.obj
 0001:0000a11e       ??_E?$clone_impl@U?$error_info_injector@Ubad_month@gregorian@boost@@@exception_detail@boost@@@exception_detail@boost@@UAEPAXI@Z 1000b11e f i * CIL library *:* CIL module *
 0001:0000a145       ??_G?$error_info_injector@Ubad_month@gregorian@boost@@@exception_detail@boost@@UAEPAXI@Z 1000b145 f i main.obj
 0001:0000a145       ??_E?$error_info_injector@Ubad_month@gregorian@boost@@@exception_detail@boost@@UAEPAXI@Z 1000b145 f i * CIL library *:* CIL module *
 0001:0000a16c       ??0?$refcount_ptr@Uerror_info_container@exception_detail@boost@@@exception_detail@boost@@QAE@ABV012@@Z 1000b16c f i main.obj
 0001:0000a18c       ??1?$error_info_injector@Vruntime_error@std@@@exception_detail@boost@@UAE@XZ 1000b18c f i main.obj
 0001:0000a1bb       ??1?$clone_impl@U?$error_info_injector@Vruntime_error@std@@@exception_detail@boost@@@exception_detail@boost@@UAE@XZ 1000b1bb f i main.obj
 0001:0000a20f       ?clone@?$clone_impl@U?$error_info_injector@Vruntime_error@std@@@exception_detail@boost@@@exception_detail@boost@@EBEPBVclone_base@23@XZ 1000b20f f i main.obj
 0001:0000a2ad       ?rethrow@?$clone_impl@U?$error_info_injector@Vruntime_error@std@@@exception_detail@boost@@@exception_detail@boost@@EBEXXZ 1000b2ad f i main.obj
 0001:0000a2d7       ??1?$error_info_injector@Ubad_day_of_month@gregorian@boost@@@exception_detail@boost@@UAE@XZ 1000b2d7 f i main.obj
 0001:0000a306       ??1?$clone_impl@U?$error_info_injector@Ubad_day_of_month@gregorian@boost@@@exception_detail@boost@@@exception_detail@boost@@UAE@XZ 1000b306 f i main.obj
 0001:0000a35a       ?clone@?$clone_impl@U?$error_info_injector@Ubad_day_of_month@gregorian@boost@@@exception_detail@boost@@@exception_detail@boost@@EBEPBVclone_base@23@XZ 1000b35a f i main.obj
 0001:0000a3f8       ?rethrow@?$clone_impl@U?$error_info_injector@Ubad_day_of_month@gregorian@boost@@@exception_detail@boost@@@exception_detail@boost@@EBEXXZ 1000b3f8 f i main.obj
 0001:0000a422       ??1?$error_info_injector@Ubad_year@gregorian@boost@@@exception_detail@boost@@UAE@XZ 1000b422 f i main.obj
 0001:0000a451       ??1?$clone_impl@U?$error_info_injector@Ubad_year@gregorian@boost@@@exception_detail@boost@@@exception_detail@boost@@UAE@XZ 1000b451 f i main.obj
 0001:0000a4a5       ?clone@?$clone_impl@U?$error_info_injector@Ubad_year@gregorian@boost@@@exception_detail@boost@@@exception_detail@boost@@EBEPBVclone_base@23@XZ 1000b4a5 f i main.obj
 0001:0000a543       ?rethrow@?$clone_impl@U?$error_info_injector@Ubad_year@gregorian@boost@@@exception_detail@boost@@@exception_detail@boost@@EBEXXZ 1000b543 f i main.obj
 0001:0000a56d       ??1?$error_info_injector@Ubad_month@gregorian@boost@@@exception_detail@boost@@UAE@XZ 1000b56d f i main.obj
 0001:0000a59c       ??1?$clone_impl@U?$error_info_injector@Ubad_month@gregorian@boost@@@exception_detail@boost@@@exception_detail@boost@@UAE@XZ 1000b59c f i main.obj
 0001:0000a5f0       ?clone@?$clone_impl@U?$error_info_injector@Ubad_month@gregorian@boost@@@exception_detail@boost@@@exception_detail@boost@@EBEPBVclone_base@23@XZ 1000b5f0 f i main.obj
 0001:0000a68e       ?rethrow@?$clone_impl@U?$error_info_injector@Ubad_month@gregorian@boost@@@exception_detail@boost@@@exception_detail@boost@@EBEXXZ 1000b68e f i main.obj
 0001:0000a6b8       ??0?$clone_impl@U?$error_info_injector@Vruntime_error@std@@@exception_detail@boost@@@exception_detail@boost@@AAE@ABV012@Uclone_tag@012@@Z 1000b6b8 f i main.obj
 0001:0000a7ae       ??0?$clone_impl@U?$error_info_injector@Ubad_day_of_month@gregorian@boost@@@exception_detail@boost@@@exception_detail@boost@@AAE@ABV012@Uclone_tag@012@@Z 1000b7ae f i main.obj
 0001:0000a8a4       ??0?$clone_impl@U?$error_info_injector@Ubad_year@gregorian@boost@@@exception_detail@boost@@@exception_detail@boost@@AAE@ABV012@Uclone_tag@012@@Z 1000b8a4 f i main.obj
 0001:0000a99a       ??0?$clone_impl@U?$error_info_injector@Ubad_month@gregorian@boost@@@exception_detail@boost@@@exception_detail@boost@@AAE@ABV012@Uclone_tag@012@@Z 1000b99a f i main.obj
 0001:0000aa90       ??0clone_base@exception_detail@boost@@QAE@XZ 1000ba90 f i main.obj
 0001:0000aaa5       ??$enable_error_info@Vruntime_error@std@@@boost@@YA?AU?$error_info_injector@Vruntime_error@std@@@exception_detail@0@ABVruntime_error@std@@@Z 1000baa5 f i main.obj
 0001:0000aac6       ??$enable_current_exception@U?$error_info_injector@Vruntime_error@std@@@exception_detail@boost@@@boost@@YA?AV?$clone_impl@U?$error_info_injector@Vruntime_error@std@@@exception_detail@boost@@@exception_detail@0@ABU?$error_info_injector@Vruntime_error@std@@@20@@Z 1000bac6 f i main.obj
 0001:0000aae9       ?is_leap_year@?$gregorian_calendar_base@U?$year_month_day_base@Vgreg_year@gregorian@boost@@Vgreg_month@23@Vgreg_day@23@@date_time@boost@@I@date_time@boost@@SA_NVgreg_year@gregorian@3@@Z 1000bae9 f i main.obj
 0001:0000ab46       ??$enable_error_info@Ubad_day_of_month@gregorian@boost@@@boost@@YA?AU?$error_info_injector@Ubad_day_of_month@gregorian@boost@@@exception_detail@0@ABUbad_day_of_month@gregorian@0@@Z 1000bb46 f i main.obj
 0001:0000ab67       ??$enable_current_exception@U?$error_info_injector@Ubad_day_of_month@gregorian@boost@@@exception_detail@boost@@@boost@@YA?AV?$clone_impl@U?$error_info_injector@Ubad_day_of_month@gregorian@boost@@@exception_detail@boost@@@exception_detail@0@ABU?$error_info_injector@Ubad_day_of_month@gregorian@boost@@@20@@Z 1000bb67 f i main.obj
 0001:0000ab8a       ?Purge@?$CUtlVector@PAUJobInfo_t@@V?$CUtlMemory@PAUJobInfo_t@@H@@@@QAEXXZ 1000bb8a f i main.obj
 0001:0000ab8a       ?Purge@?$CUtlVector@PAVNode@@V?$CUtlMemory@PAVNode@@H@@@@QAEXXZ 1000bb8a f i main.obj
 0001:0000ab8a       ?Purge@?$CUtlVector@PAUBorder@@V?$CUtlMemory@PAUBorder@@H@@@@QAEXXZ 1000bb8a f i nav.obj
 0001:0000abab       ??0?$CUtlMemory@PAUBorder@@H@@QAE@HH@Z 1000bbab f i nav.obj
 0001:0000abab       ??0?$CUtlMemory@PAVNode@@H@@QAE@HH@Z 1000bbab f i main.obj
 0001:0000abab       ??0?$CUtlMemory@PAUJobInfo_t@@H@@QAE@HH@Z 1000bbab f i main.obj
 0001:0000ac05       ??A?$CUtlMemory@PAVNode@@H@@QBEABQAVNode@@H@Z 1000bc05 f i nav.obj
 0001:0000ac05       ??A?$CUtlMemory@PAUBorder@@H@@QAEAAPAUBorder@@H@Z 1000bc05 f i nav.obj
 0001:0000ac05       ??A?$CUtlMemory@PAVNode@@H@@QAEAAPAVNode@@H@Z 1000bc05 f i main.obj
 0001:0000ac05       ??A?$CUtlMemory@PAUJobInfo_t@@H@@QAEAAPAUJobInfo_t@@H@Z 1000bc05 f i main.obj
 0001:0000ac05       ??A?$CUtlMemory@PAUBorder@@H@@QBEABQAUBorder@@H@Z 1000bc05 f i nav.obj
 0001:0000ac1b       ?InsertBefore@?$CUtlVector@PAUJobInfo_t@@V?$CUtlMemory@PAUJobInfo_t@@H@@@@QAEHHABQAUJobInfo_t@@@Z 1000bc1b f i main.obj
 0001:0000ac1b       ?InsertBefore@?$CUtlVector@PAUBorder@@V?$CUtlMemory@PAUBorder@@H@@@@QAEHHABQAUBorder@@@Z 1000bc1b f i nav.obj
 0001:0000ac1b       ?InsertBefore@?$CUtlVector@PAVNode@@V?$CUtlMemory@PAVNode@@H@@@@QAEHHABQAVNode@@@Z 1000bc1b f i nav.obj
 0001:0000ac56       ?ShiftElementsLeft@?$CUtlVector@PAUBorder@@V?$CUtlMemory@PAUBorder@@H@@@@IAEXHH@Z 1000bc56 f i nav.obj
 0001:0000ac56       ?ShiftElementsLeft@?$CUtlVector@PAUJobInfo_t@@V?$CUtlMemory@PAUJobInfo_t@@H@@@@IAEXHH@Z 1000bc56 f i main.obj
 0001:0000ac56       ?ShiftElementsLeft@?$CUtlVector@PAVNode@@V?$CUtlMemory@PAVNode@@H@@@@IAEXHH@Z 1000bc56 f i nav.obj
 0001:0000aca8       ??$enable_error_info@Ubad_year@gregorian@boost@@@boost@@YA?AU?$error_info_injector@Ubad_year@gregorian@boost@@@exception_detail@0@ABUbad_year@gregorian@0@@Z 1000bca8 f i main.obj
 0001:0000acc9       ??$enable_current_exception@U?$error_info_injector@Ubad_year@gregorian@boost@@@exception_detail@boost@@@boost@@YA?AV?$clone_impl@U?$error_info_injector@Ubad_year@gregorian@boost@@@exception_detail@boost@@@exception_detail@0@ABU?$error_info_injector@Ubad_year@gregorian@boost@@@20@@Z 1000bcc9 f i main.obj
 0001:0000acec       ??$enable_error_info@Ubad_month@gregorian@boost@@@boost@@YA?AU?$error_info_injector@Ubad_month@gregorian@boost@@@exception_detail@0@ABUbad_month@gregorian@0@@Z 1000bcec f i main.obj
 0001:0000ad0d       ??$enable_current_exception@U?$error_info_injector@Ubad_month@gregorian@boost@@@exception_detail@boost@@@boost@@YA?AV?$clone_impl@U?$error_info_injector@Ubad_month@gregorian@boost@@@exception_detail@boost@@@exception_detail@0@ABU?$error_info_injector@Ubad_month@gregorian@boost@@@20@@Z 1000bd0d f i main.obj
 0001:0000ad30       ??0?$error_info_injector@Vruntime_error@std@@@exception_detail@boost@@QAE@ABVruntime_error@std@@@Z 1000bd30 f i main.obj
 0001:0000ad99       ??0?$clone_impl@U?$error_info_injector@Vruntime_error@std@@@exception_detail@boost@@@exception_detail@boost@@QAE@ABU?$error_info_injector@Vruntime_error@std@@@12@@Z 1000bd99 f i main.obj
 0001:0000ae8f       ??0?$error_info_injector@Ubad_day_of_month@gregorian@boost@@@exception_detail@boost@@QAE@ABUbad_day_of_month@gregorian@2@@Z 1000be8f f i main.obj
 0001:0000aef8       ??0?$clone_impl@U?$error_info_injector@Ubad_day_of_month@gregorian@boost@@@exception_detail@boost@@@exception_detail@boost@@QAE@ABU?$error_info_injector@Ubad_day_of_month@gregorian@boost@@@12@@Z 1000bef8 f i main.obj
 0001:0000afee       ??0?$error_info_injector@Ubad_year@gregorian@boost@@@exception_detail@boost@@QAE@ABUbad_year@gregorian@2@@Z 1000bfee f i main.obj
 0001:0000b057       ??0?$clone_impl@U?$error_info_injector@Ubad_year@gregorian@boost@@@exception_detail@boost@@@exception_detail@boost@@QAE@ABU?$error_info_injector@Ubad_year@gregorian@boost@@@12@@Z 1000c057 f i main.obj
 0001:0000b14d       ??0?$error_info_injector@Ubad_month@gregorian@boost@@@exception_detail@boost@@QAE@ABUbad_month@gregorian@2@@Z 1000c14d f i main.obj
 0001:0000b1b6       ??0?$clone_impl@U?$error_info_injector@Ubad_month@gregorian@boost@@@exception_detail@boost@@@exception_detail@boost@@QAE@ABU?$error_info_injector@Ubad_month@gregorian@boost@@@12@@Z 1000c1b6 f i main.obj
 0001:0000b2ac       ?RemoveAll@?$CUtlVector@PAUBorder@@V?$CUtlMemory@PAUBorder@@H@@@@QAEXXZ 1000c2ac f i nav.obj
 0001:0000b2ac       ?RemoveAll@?$CUtlVector@PAUJobInfo_t@@V?$CUtlMemory@PAUJobInfo_t@@H@@@@QAEXXZ 1000c2ac f i main.obj
 0001:0000b2ac       ?RemoveAll@?$CUtlVector@PAVNode@@V?$CUtlMemory@PAVNode@@H@@@@QAEXXZ 1000c2ac f i main.obj
 0001:0000b2e3       ?GrowVector@?$CUtlVector@PAUBorder@@V?$CUtlMemory@PAUBorder@@H@@@@IAEXH@Z 1000c2e3 f i nav.obj
 0001:0000b2e3       ?GrowVector@?$CUtlVector@PAVNode@@V?$CUtlMemory@PAVNode@@H@@@@IAEXH@Z 1000c2e3 f i nav.obj
 0001:0000b2e3       ?GrowVector@?$CUtlVector@PAUJobInfo_t@@V?$CUtlMemory@PAUJobInfo_t@@H@@@@IAEXH@Z 1000c2e3 f i main.obj
 0001:0000b338       ?ShiftElementsRight@?$CUtlVector@PAVNode@@V?$CUtlMemory@PAVNode@@H@@@@IAEXHH@Z 1000c338 f i nav.obj
 0001:0000b338       ?ShiftElementsRight@?$CUtlVector@PAUJobInfo_t@@V?$CUtlMemory@PAUJobInfo_t@@H@@@@IAEXHH@Z 1000c338 f i main.obj
 0001:0000b338       ?ShiftElementsRight@?$CUtlVector@PAUBorder@@V?$CUtlMemory@PAUBorder@@H@@@@IAEXHH@Z 1000c338 f i nav.obj
 0001:0000b38a       ??$CopyConstruct@PAUBorder@@@@YAXPAPAUBorder@@ABQAU0@@Z 1000c38a f i nav.obj
 0001:0000b38a       ??$CopyConstruct@PAVNode@@@@YAXPAPAVNode@@ABQAV0@@Z 1000c38a f i nav.obj
 0001:0000b38a       ??$CopyConstruct@PAUJobInfo_t@@@@YAXPAPAUJobInfo_t@@ABQAU0@@Z 1000c38a f i main.obj
 0001:0000b3bc       ?Grow@?$CUtlMemory@PAUJobInfo_t@@H@@QAEXH@Z 1000c3bc f i main.obj
 0001:0000b3bc       ?Grow@?$CUtlMemory@PAUBorder@@H@@QAEXH@Z 1000c3bc f i nav.obj
 0001:0000b3bc       ?Grow@?$CUtlMemory@PAVNode@@H@@QAEXH@Z 1000c3bc f i nav.obj
 0001:0000b4b6       ??_E?$clone_impl@U?$error_info_injector@Ubad_day_of_month@gregorian@boost@@@exception_detail@boost@@@exception_detail@boost@@WM@AEPAXI@Z 1000c4b6 f i main.obj
 0001:0000b4be       ?rethrow@?$clone_impl@U?$error_info_injector@Vruntime_error@std@@@exception_detail@boost@@@exception_detail@boost@@$0PPPPPPPM@A@BEXXZ 1000c4be f i main.obj
 0001:0000b4c6       ?rethrow@?$clone_impl@U?$error_info_injector@Ubad_day_of_month@gregorian@boost@@@exception_detail@boost@@@exception_detail@boost@@$0PPPPPPPM@A@BEXXZ 1000c4c6 f i main.obj
 0001:0000b4ce       ?clone@?$clone_impl@U?$error_info_injector@Ubad_month@gregorian@boost@@@exception_detail@boost@@@exception_detail@boost@@$0PPPPPPPM@A@BEPBVclone_base@23@XZ 1000c4ce f i main.obj
 0001:0000b4d6       ?clone@?$clone_impl@U?$error_info_injector@Ubad_year@gregorian@boost@@@exception_detail@boost@@@exception_detail@boost@@$0PPPPPPPM@A@BEPBVclone_base@23@XZ 1000c4d6 f i main.obj
 0001:0000b4de       ??_E?$error_info_injector@Vruntime_error@std@@@exception_detail@boost@@WM@AEPAXI@Z 1000c4de f i main.obj
 0001:0000b4e6       ?clone@?$clone_impl@U?$error_info_injector@Vruntime_error@std@@@exception_detail@boost@@@exception_detail@boost@@$0PPPPPPPM@A@BEPBVclone_base@23@XZ 1000c4e6 f i main.obj
 0001:0000b4ee       ??_E?$clone_impl@U?$error_info_injector@Ubad_month@gregorian@boost@@@exception_detail@boost@@@exception_detail@boost@@$4PPPPPPPM@CI@AEPAXI@Z 1000c4ee f i main.obj
 0001:0000b4f9       ?clone@?$clone_impl@U?$error_info_injector@Ubad_day_of_month@gregorian@boost@@@exception_detail@boost@@@exception_detail@boost@@$0PPPPPPPM@A@BEPBVclone_base@23@XZ 1000c4f9 f i main.obj
 0001:0000b501       ??_E?$clone_impl@U?$error_info_injector@Ubad_year@gregorian@boost@@@exception_detail@boost@@@exception_detail@boost@@$4PPPPPPPM@CI@AEPAXI@Z 1000c501 f i main.obj
 0001:0000b50c       ??_E?$error_info_injector@Ubad_day_of_month@gregorian@boost@@@exception_detail@boost@@WM@AEPAXI@Z 1000c50c f i main.obj
 0001:0000b514       ??_E?$clone_impl@U?$error_info_injector@Ubad_month@gregorian@boost@@@exception_detail@boost@@@exception_detail@boost@@WM@AEPAXI@Z 1000c514 f i main.obj
 0001:0000b51c       ??_E?$clone_impl@U?$error_info_injector@Ubad_year@gregorian@boost@@@exception_detail@boost@@@exception_detail@boost@@WM@AEPAXI@Z 1000c51c f i main.obj
 0001:0000b524       ??_E?$clone_impl@U?$error_info_injector@Vruntime_error@std@@@exception_detail@boost@@@exception_detail@boost@@$4PPPPPPPM@CI@AEPAXI@Z 1000c524 f i main.obj
 0001:0000b52f       ??_E?$error_info_injector@Ubad_month@gregorian@boost@@@exception_detail@boost@@WM@AEPAXI@Z 1000c52f f i main.obj
 0001:0000b537       ?rethrow@?$clone_impl@U?$error_info_injector@Ubad_year@gregorian@boost@@@exception_detail@boost@@@exception_detail@boost@@$0PPPPPPPM@A@BEXXZ 1000c537 f i main.obj
 0001:0000b53f       ??_E?$error_info_injector@Ubad_year@gregorian@boost@@@exception_detail@boost@@WM@AEPAXI@Z 1000c53f f i main.obj
 0001:0000b547       ??_E?$clone_impl@U?$error_info_injector@Ubad_day_of_month@gregorian@boost@@@exception_detail@boost@@@exception_detail@boost@@$4PPPPPPPM@CI@AEPAXI@Z 1000c547 f i main.obj
 0001:0000b552       ?rethrow@?$clone_impl@U?$error_info_injector@Ubad_month@gregorian@boost@@@exception_detail@boost@@@exception_detail@boost@@$0PPPPPPPM@A@BEXXZ 1000c552 f i main.obj
 0001:0000b55a       ??_E?$clone_impl@U?$error_info_injector@Vruntime_error@std@@@exception_detail@boost@@@exception_detail@boost@@WM@AEPAXI@Z 1000c55a f i main.obj
 0001:0000b562       _fabsf                     1000c562 f i nav.obj
 0001:0000b581       _sqrtf                     1000c581 f i nav.obj
 0001:0000b59d       ?fabs@@YAMM@Z              1000c59d f i nav.obj
 0001:0000b59d       ?abs@@YAMM@Z               1000c59d f i nav.obj
 0001:0000b5b3       ?pow@@YAMMH@Z              1000c5b3 f i nav.obj
 0001:0000b5cd       ?sqrt@@YAMM@Z              1000c5cd f i nav.obj
 0001:0000b5e3       ?V_memcpy@@YAXPAXPBXH@Z    1000c5e3 f i nav.obj
 0001:0000b5f9       ?LengthSqr@Vector@@QBEMXZ  1000c5f9 f i nav.obj
 0001:0000b641       ?IsZero@Vector@@QBE_NM@Z   1000c641 f i nav.obj
 0001:0000b6d0       ?VectorClear@@YAXAAVVector@@@Z 1000c6d0 f i nav.obj
 0001:0000b704       ?VectorCopy@@YAXABVVector@@AAV1@@Z 1000c704 f i nav.obj
 0001:0000b72b       ??XVector@@QAEAAV0@M@Z     1000c72b f i nav.obj
 0001:0000b776       ?VectorAdd@@YAXABVVector@@0AAV1@@Z 1000c776 f i nav.obj
 0001:0000b7c0       ?VectorMultiply@@YAXABVVector@@MAAV1@@Z 1000c7c0 f i nav.obj
 0001:0000b802       ??HVector@@QBE?AV0@ABV0@@Z 1000c802 f i nav.obj
 0001:0000b839       ??GVector@@QBE?AV0@ABV0@@Z 1000c839 f i nav.obj
 0001:0000b870       ??DVector@@QBE?AV0@M@Z     1000c870 f i nav.obj
 0001:0000b8af       ??0CBaseTrace@@QAE@XZ      1000c8af f i nav.obj
 0001:0000b8d9       ?Init@Ray_t@@QAEXABVVector@@0@Z 1000c8d9 f i nav.obj
 0001:0000b95f       ?Init@Ray_t@@QAEXABVVector@@000@Z 1000c95f f i nav.obj
 0001:0000ba79       ??0CGameTrace@@QAE@XZ      1000ca79 f i nav.obj
 0001:0000ba8d       ?DidHit@CGameTrace@@QBE_NXZ 1000ca8d f i nav.obj
 0001:0000bace       ??0bad_alloc@std@@QAE@XZ   1000cace f i nav.obj
 0001:0000baf9       ??1bad_alloc@std@@UAE@XZ   1000caf9 f i nav.obj
 0001:0000bb13       ??_Gbad_alloc@std@@UAEPAXI@Z 1000cb13 f i nav.obj
 0001:0000bb13       ??_Ebad_alloc@std@@UAEPAXI@Z 1000cb13 f i * CIL library *:* CIL module *
 0001:0000bb3a       ?release@sp_counted_base@detail@boost@@QAEXXZ 1000cb3a f i nav.obj
 0001:0000bb66       ?weak_release@sp_counted_base@detail@boost@@QAEXXZ 1000cb66 f i nav.obj
 0001:0000bb8a       ??1shared_count@detail@boost@@QAE@XZ 1000cb8a f i nav.obj
 0001:0000bba5       ?message@error_code@system@boost@@QBE?AV?$basic_string@DU?$char_traits@D@std@@V?$allocator@D@2@@std@@XZ 1000cba5 f i nav.obj
 0001:0000bbde       ??0system_error@system@boost@@QAE@Verror_code@12@PBD@Z 1000cbde f i nav.obj
 0001:0000bc4c       ??1system_error@system@boost@@UAE@XZ 1000cc4c f i nav.obj
 0001:0000bc71       ??_Gsystem_error@system@boost@@UAEPAXI@Z 1000cc71 f i nav.obj
 0001:0000bc71       ??_Esystem_error@system@boost@@UAEPAXI@Z 1000cc71 f i * CIL library *:* CIL module *
 0001:0000bc98       ?what@system_error@system@boost@@UBEPBDXZ 1000cc98 f i nav.obj
 0001:0000bda2       ??0thread_exception@boost@@QAE@HPBD@Z 1000cda2 f i nav.obj
 0001:0000bddc       ??1thread_exception@boost@@UAE@XZ 1000cddc f i nav.obj
 0001:0000bdf6       ??_Ethread_exception@boost@@UAEPAXI@Z 1000cdf6 f i * CIL library *:* CIL module *
 0001:0000bdf6       ??_Gthread_exception@boost@@UAEPAXI@Z 1000cdf6 f i nav.obj
 0001:0000be1d       ??0thread_resource_error@boost@@QAE@XZ 1000ce1d f i nav.obj
 0001:0000be41       ??1thread_resource_error@boost@@UAE@XZ 1000ce41 f i nav.obj
 0001:0000be5b       ??_Ethread_resource_error@boost@@UAEPAXI@Z 1000ce5b f i * CIL library *:* CIL module *
 0001:0000be5b       ??_Gthread_resource_error@boost@@UAEPAXI@Z 1000ce5b f i nav.obj
 0001:0000be82       ?create_anonymous_event@win32@detail@boost@@YAPAXW4event_type@123@W4initial_event_state@123@@Z 1000ce82 f i nav.obj
 0001:0000bf06       ?cleanup@handle_manager@win32@detail@boost@@AAEXXZ 1000cf06 f i nav.obj
 0001:0000bf2a       ??1handle_manager@win32@detail@boost@@QAE@XZ 1000cf2a f i nav.obj
 0001:0000bf3b       ?allocate_raw_heap_memory@detail@boost@@YAPAXI@Z 1000cf3b f i nav.obj
 0001:0000bfb4       ??1?$shared_ptr@Utss_cleanup_function@detail@boost@@@boost@@QAE@XZ 1000cfb4 f i nav.obj
 0001:0000bfc8       ??0thread_data_base@detail@boost@@QAE@XZ 1000cfc8 f i nav.obj
 0001:0000c06d       ?intrusive_ptr_add_ref@detail@boost@@YAXPAUthread_data_base@12@@Z 1000d06d f i nav.obj
 0001:0000c07f       ??_Ethread_data_base@detail@boost@@UAEPAXI@Z 1000d07f f i * CIL library *:* CIL module *
 0001:0000c07f       ??_Gthread_data_base@detail@boost@@UAEPAXI@Z 1000d07f f i nav.obj
 0001:0000c0a6       ??1?$map@PBXUtss_data_node@detail@boost@@U?$less@PBX@std@@V?$allocator@U?$pair@QBXUtss_data_node@detail@boost@@@std@@@5@@std@@QAE@XZ 1000d0a6 f i nav.obj
 0001:0000c0b7       ??4thread@boost@@QAEAAV01@$$QAV01@@Z 1000d0b7 f i nav.obj
 0001:0000c0d8       ?IsSwappingBytes@CByteswap@@QAE_NXZ 1000d0d8 f i nav.obj
 0001:0000c0e9       ?PeekGet@CUtlBuffer@@QBEPBXH@Z 1000d0e9 f i nav.obj
 0001:0000c10c       ??$GetTypeBin@M@CUtlBuffer@@IAEXAAM@Z 1000d10c f i nav.obj
 0001:0000c1ef       ?GetInt@CUtlBuffer@@QAEHXZ 1000d1ef f i nav.obj
 0001:0000c20d       ?GetFloat@CUtlBuffer@@QAEMXZ 1000d20d f i nav.obj
 0001:0000c22b       ?PeekPut@CUtlBuffer@@QAEPAXH@Z 1000d22b f i nav.obj
 0001:0000c24e       ?PutInt@CUtlBuffer@@QAEXH@Z 1000d24e f i nav.obj
 0001:0000c269       ?PutFloat@CUtlBuffer@@QAEXM@Z 1000d269 f i nav.obj
 0001:0000c28c       ?IsText@CUtlBuffer@@QBE_NXZ 1000d28c f i nav.obj
 0001:0000c2b2       ?GetTraceType@CTraceFilter@@UBE?AW4TraceType_t@@XZ 1000d2b2 f i nav.obj
 0001:0000c2bd       ??0GMOD_TraceFilter@@QAE@XZ 1000d2bd f i nav.obj
 0001:0000c2da       ?ShouldHitEntity@GMOD_TraceFilter@@UAE_NPAVIHandleEntity@@H@Z 1000d2da f i nav.obj
 0001:0000c317       ?CheckCollisionGroup@GMOD_TraceFilter@@QAE_NH@Z 1000d317 f i nav.obj
 0001:0000c32e       ??0CTraceFilter@@QAE@XZ    1000d32e f i nav.obj
 0001:0000c34b       ??0ITraceFilter@@QAE@XZ    1000d34b f i nav.obj
 0001:0000c360       ?UTIL_TraceLine_GMOD@@YAXABVVector@@0IPAVCGameTrace@@@Z 1000d360 f i nav.obj
 0001:0000c3c6       ??0Ray_t@@QAE@XZ           1000d3c6 f i nav.obj
 0001:0000c3fb       ?UTIL_TraceHull_GMOD@@YAXABVVector@@000IPAVCGameTrace@@@Z 1000d3fb f i nav.obj
 0001:0000c467       ??0Nav@@QAE@H@Z            1000d467 f   nav.obj
 0001:0000c5bd       ?OppositeDirection@Nav@@SA?AW4NavDirType@@W42@@Z 1000d5bd f   nav.obj
 0001:0000c659       ?SetGridSize@Nav@@QAEXH@Z  1000d659 f   nav.obj
 0001:0000c6b1       ?GetNode@Nav@@QAEPAVNode@@ABVVector@@@Z 1000d6b1 f   nav.obj
 0001:0000c78f       ?GetNodeByID@Nav@@QAEPAVNode@@H@Z 1000d78f f   nav.obj
 0001:0000c7c3       ?AddNode@Nav@@QAEPAVNode@@ABVVector@@0W4NavDirType@@PAV2@@Z 1000d7c3 f   nav.obj
 0001:0000c8ef       ?RemoveNode@Nav@@QAEXPAVNode@@@Z 1000d8ef f   nav.obj
 0001:0000c984       ?GetGridSize@Nav@@QAEHXZ   1000d984 f   nav.obj
 0001:0000c993       ?IsGenerated@Nav@@QAE_NXZ  1000d993 f   nav.obj
 0001:0000c9a1       ?SnapToGrid@Nav@@QAE?AVVector@@ABV2@_N1@Z 1000d9a1 f   nav.obj
 0001:0000ca29       ?Round@Nav@@QAEMMM@Z       1000da29 f   nav.obj
 0001:0000caa3       ?GetGroundHeight@Nav@@QAE_NABVVector@@PAMPAV2@@Z 1000daa3 f   nav.obj
 0001:0000cda9       ??0GroundLayerInfo@?1??GetGroundHeight@Nav@@QAE_NABVVector@@PAMPAV3@@Z@QAE@XZ 1000dda9 f i nav.obj
 0001:0000cdc0       ?GenerateQueue@Nav@@QAEXPAUJobInfo_t@@@Z 1000ddc0 f   nav.obj
 0001:0000ce47       ?FullGeneration@Nav@@QAEXPA_N@Z 1000de47 f   nav.obj
 0001:0000ce73       ?ResetGeneration@Nav@@QAEXXZ 1000de73 f   nav.obj
 0001:0000ceb6       ?SetupMaxDistance@Nav@@QAEXABVVector@@H@Z 1000deb6 f   nav.obj
 0001:0000ced8       ?AddGroundSeed@Nav@@QAEXABVVector@@0@Z 1000ded8 f   nav.obj
 0001:0000cf26       ??0GroundSeedSpot@@QAE@XZ  1000df26 f i nav.obj
 0001:0000cf26       ??0AirSeedSpot@@QAE@XZ     1000df26 f i nav.obj
 0001:0000cf45       ?AddAirSeed@Nav@@QAEXABVVector@@@Z 1000df45 f   nav.obj
 0001:0000cf88       ?ClearGroundSeeds@Nav@@QAEXXZ 1000df88 f   nav.obj
 0001:0000cf9f       ?ClearAirSeeds@Nav@@QAEXXZ 1000df9f f   nav.obj
 0001:0000cfb6       ?GetNextGroundSeedNode@Nav@@QAEPAVNode@@XZ 1000dfb6 f   nav.obj
 0001:0000d118       ?GetNextAirSeedNode@Nav@@QAEPAVNode@@XZ 1000e118 f   nav.obj
 0001:0000d27b       ?SampleStep@Nav@@QAE_NXZ   1000e27b f   nav.obj
 0001:0000db23       ?Save@Nav@@QAE_NPBD@Z      1000eb23 f   nav.obj
 0001:0000ddb7       ??1CUtlBuffer@@QAE@XZ      1000edb7 f i nav.obj
 0001:0000ddc8       ?Load@Nav@@QAE_NPBD@Z      1000edc8 f   nav.obj
 0001:0000e218       ?GetNodes@Nav@@QAEAAV?$CUtlVector@PAVNode@@V?$CUtlMemory@PAVNode@@H@@@@XZ 1000f218 f   nav.obj
 0001:0000e227       ?GetClosestNode@Nav@@QAEPAVNode@@ABVVector@@@Z 1000f227 f   nav.obj
 0001:0000e2b1       ?Reset@Nav@@QAEXXZ         1000f2b1 f   nav.obj
 0001:0000e31b       ?AddOpenedNode@Nav@@QAEXPAVNode@@@Z 1000f31b f   nav.obj
 0001:0000e33f       ?AddClosedNode@Nav@@QAEXPAVNode@@@Z 1000f33f f   nav.obj
 0001:0000e37b       ?HeuristicDistance@Nav@@QAEMPBVVector@@0@Z 1000f37b f   nav.obj
 0001:0000e3c2       ?ManhattanDistance@Nav@@QAEMPBVVector@@0@Z 1000f3c2 f   nav.obj
 0001:0000e455       ?EuclideanDistance@Nav@@QAEMPBVVector@@0@Z 1000f455 f   nav.obj
 0001:0000e4f5       ?FindLowestF@Nav@@QAEPAVNode@@XZ 1000f4f5 f   nav.obj
 0001:0000e57f       ?FindPathQueue@Nav@@QAEXPAUJobInfo_t@@@Z 1000f57f f   nav.obj
 0001:0000e5ff       ?ExecuteFindPath@Nav@@QAEXPAUJobInfo_t@@PAVNode@@1@Z 1000f5ff f   nav.obj
 0001:0000e885       ?GetMask@Nav@@QAEHXZ       1000f885 f   nav.obj
 0001:0000e894       ?SetMask@Nav@@QAEXH@Z      1000f894 f   nav.obj
 0001:0000e8a8       ?GetDiagonal@Nav@@QAE_NXZ  1000f8a8 f   nav.obj
 0001:0000e8b7       ?SetDiagonal@Nav@@QAEX_N@Z 1000f8b7 f   nav.obj
 0001:0000e8ec       ?GetHeuristic@Nav@@QAEHXZ  1000f8ec f   nav.obj
 0001:0000e8fe       ?GetStart@Nav@@QAEPAVNode@@XZ 1000f8fe f   nav.obj
 0001:0000e910       ?GetEnd@Nav@@QAEPAVNode@@XZ 1000f910 f   nav.obj
 0001:0000e922       ?SetHeuristic@Nav@@QAEXH@Z 1000f922 f   nav.obj
 0001:0000e939       ?SetStart@Nav@@QAEXPAVNode@@@Z 1000f939 f   nav.obj
 0001:0000e950       ?SetEnd@Nav@@QAEXPAVNode@@@Z 1000f950 f   nav.obj
 0001:0000e967       ?IsTerritory@@YA_NPAVNode@@W4NavDirType@@H@Z 1000f967 f   nav.obj
 0001:0000e9d0       ?AddConnection@Nav@@QAEXPAUlua_State@@AAV?$CUtlVector@PAUBorder@@V?$CUtlMemory@PAUBorder@@H@@@@PAVNode@@W4NavDirType@@3@Z 1000f9d0 f   nav.obj
 0001:0000ec99       ?Flood@Nav@@QAEXPAUlua_State@@PAV?$CUtlVector@ULuaKeyValue@@V?$CUtlMemory@ULuaKeyValue@@H@@@@@Z 1000fc99 f   nav.obj
 0001:00010194       ?GetTerritory@Nav@@QAEHABVVector@@@Z 10011194 f   nav.obj
 0001:000101cd       ??0?$basic_string@DU?$char_traits@D@std@@V?$allocator@D@2@@std@@QAE@XZ 100111cd f i nav.obj
 0001:000101f7       ??4?$basic_string@DU?$char_traits@D@std@@V?$allocator@D@2@@std@@QAEAAV01@PBD@Z 100111f7 f i nav.obj
 0001:0001020d       ??Y?$basic_string@DU?$char_traits@D@std@@V?$allocator@D@2@@std@@QAEAAV01@ABV01@@Z 1001120d f i nav.obj
 0001:00010223       ??Y?$basic_string@DU?$char_traits@D@std@@V?$allocator@D@2@@std@@QAEAAV01@PBD@Z 10011223 f i nav.obj
 0001:00010239       ?empty@?$basic_string@DU?$char_traits@D@std@@V?$allocator@D@2@@std@@QBE_NXZ 10011239 f i nav.obj
 0001:0001025c       ??0?$map@PBXUtss_data_node@detail@boost@@U?$less@PBX@std@@V?$allocator@U?$pair@QBXUtss_data_node@detail@boost@@@std@@@5@@std@@QAE@XZ 1001125c f i nav.obj
 0001:0001027e       ??1?$_Tree@V?$_Tmap_traits@PBXUtss_data_node@detail@boost@@U?$less@PBX@std@@V?$allocator@U?$pair@QBXUtss_data_node@detail@boost@@@std@@@5@$0A@@std@@@std@@QAE@XZ 1001127e f i nav.obj
 0001:00010297       ??0?$vector@U?$pair@PAVcondition_variable@boost@@PAVmutex@2@@std@@V?$allocator@U?$pair@PAVcondition_variable@boost@@PAVmutex@2@@std@@@2@@std@@QAE@XZ 10011297 f i nav.obj
 0001:000102b5       ??1?$vector@U?$pair@PAVcondition_variable@boost@@PAVmutex@2@@std@@V?$allocator@U?$pair@PAVcondition_variable@boost@@PAVmutex@2@@std@@@2@@std@@QAE@XZ 100112b5 f i nav.obj
 0001:000102c6       ??0?$intrusive_ptr@Uthread_data_base@detail@boost@@@boost@@QAE@PAUthread_data_base@detail@1@_N@Z 100112c6 f i nav.obj
 0001:000102f7       ??4?$intrusive_ptr@Uthread_data_base@detail@boost@@@boost@@QAEAAV01@ABV01@@Z 100112f7 f i nav.obj
 0001:00010360       ?reset@?$intrusive_ptr@Uthread_data_base@detail@boost@@@boost@@QAEXXZ 10011360 f i nav.obj
 0001:000103c1       ?swap@?$intrusive_ptr@Uthread_data_base@detail@boost@@@boost@@QAEXAAV12@@Z 100113c1 f i nav.obj
 0001:000103e7       ??1?$_Tree_comp@$0A@V?$_Tmap_traits@PBXUtss_data_node@detail@boost@@U?$less@PBX@std@@V?$allocator@U?$pair@QBXUtss_data_node@detail@boost@@@std@@@5@$0A@@std@@@std@@QAE@XZ 100113e7 f i nav.obj
 0001:000103f8       ??1?$_Tree_buy@U?$pair@QBXUtss_data_node@detail@boost@@@std@@V?$allocator@U?$pair@QBXUtss_data_node@detail@boost@@@std@@@2@@std@@QAE@XZ 100113f8 f i nav.obj
 0001:00010409       ?append@?$basic_string@DU?$char_traits@D@std@@V?$allocator@D@2@@std@@QAEAAV12@ABV12@@Z 10011409 f i nav.obj
 0001:00010427       ?append@?$basic_string@DU?$char_traits@D@std@@V?$allocator@D@2@@std@@QAEAAV12@PBD@Z 10011427 f i nav.obj
 0001:00010447       ??0?$_Tree@V?$_Tmap_traits@PBXUtss_data_node@detail@boost@@U?$less@PBX@std@@V?$allocator@U?$pair@QBXUtss_data_node@detail@boost@@@std@@@5@$0A@@std@@@std@@QAE@ABU?$less@PBX@1@ABV?$allocator@U?$pair@QBXUtss_data_node@detail@boost@@@std@@@1@@Z 10011447 f i nav.obj
 0001:00010463       ?_Tidy@?$_Tree@V?$_Tmap_traits@PBXUtss_data_node@detail@boost@@U?$less@PBX@std@@V?$allocator@U?$pair@QBXUtss_data_node@detail@boost@@@std@@@5@$0A@@std@@@std@@IAEXXZ 10011463 f i nav.obj
 0001:000104a2       ??1?$_Tree_alloc@$0A@U?$_Tree_base_types@U?$pair@QBXUtss_data_node@detail@boost@@@std@@V?$allocator@U?$pair@QBXUtss_data_node@detail@boost@@@std@@@2@@std@@@std@@QAE@XZ 100114a2 f i nav.obj
 0001:000104b8       ?_Tidy@?$vector@U?$pair@PAVcondition_variable@boost@@PAVmutex@2@@std@@V?$allocator@U?$pair@PAVcondition_variable@boost@@PAVmutex@2@@std@@@2@@std@@IAEXXZ 100114b8 f i nav.obj
 0001:00010520       ??0?$_Vector_alloc@$0A@U?$_Vec_base_types@U?$pair@PAVcondition_variable@boost@@PAVmutex@2@@std@@V?$allocator@U?$pair@PAVcondition_variable@boost@@PAVmutex@2@@std@@@2@@std@@@std@@QAE@ABV?$allocator@U?$pair@PAVcondition_variable@boost@@PAVmutex@2@@std@@@1@@Z 10011520 f i nav.obj
 0001:00010536       ??0?$intrusive_ptr@Uthread_data_base@detail@boost@@@boost@@QAE@ABV01@@Z 10011536 f i nav.obj
 0001:00010561       ?append@?$basic_string@DU?$char_traits@D@std@@V?$allocator@D@2@@std@@QAEAAV12@ABV12@II@Z 10011561 f i nav.obj
 0001:00010611       ?append@?$basic_string@DU?$char_traits@D@std@@V?$allocator@D@2@@std@@QAEAAV12@PBDI@Z 10011611 f i nav.obj
 0001:000106b7       ?erase@?$_Tree@V?$_Tmap_traits@PBXUtss_data_node@detail@boost@@U?$less@PBX@std@@V?$allocator@U?$pair@QBXUtss_data_node@detail@boost@@@std@@@5@$0A@@std@@@std@@QAE?AV?$_Tree_iterator@V?$_Tree_val@U?$_Tree_simple_types@U?$pair@QBXUtss_data_node@detail@boost@@@std@@@std@@@std@@@2@V?$_Tree_const_iterator@V?$_Tree_val@U?$_Tree_simple_types@U?$pair@QBXUtss_data_node@detail@boost@@@std@@@std@@@std@@@2@0@Z 100116b7 f i nav.obj
 0001:00010758       ??0?$_Tree_comp@$0A@V?$_Tmap_traits@PBXUtss_data_node@detail@boost@@U?$less@PBX@std@@V?$allocator@U?$pair@QBXUtss_data_node@detail@boost@@@std@@@5@$0A@@std@@@std@@QAE@ABU?$less@PBX@1@ABV?$allocator@U?$pair@QBXUtss_data_node@detail@boost@@@std@@@1@@Z 10011758 f i nav.obj
 0001:00010771       ?_Destroy@?$vector@U?$pair@PAVcondition_variable@boost@@PAVmutex@2@@std@@V?$allocator@U?$pair@PAVcondition_variable@boost@@PAVmutex@2@@std@@@2@@std@@IAEXPAU?$pair@PAVcondition_variable@boost@@PAVmutex@2@@2@0@Z 10011771 f i nav.obj
 0001:0001079b       ??0?$_Vector_val@U?$_Simple_types@U?$pair@PAVcondition_variable@boost@@PAVmutex@2@@std@@@std@@@std@@QAE@XZ 1001179b f i nav.obj
 0001:000107bb       ??0?$allocator@D@std@@QAE@ABV01@@Z 100117bb f i nav.obj
 0001:000107c9       ?erase@?$_Tree@V?$_Tmap_traits@PBXUtss_data_node@detail@boost@@U?$less@PBX@std@@V?$allocator@U?$pair@QBXUtss_data_node@detail@boost@@@std@@@5@$0A@@std@@@std@@QAE?AV?$_Tree_iterator@V?$_Tree_val@U?$_Tree_simple_types@U?$pair@QBXUtss_data_node@detail@boost@@@std@@@std@@@std@@@2@V?$_Tree_const_iterator@V?$_Tree_val@U?$_Tree_simple_types@U?$pair@QBXUtss_data_node@detail@boost@@@std@@@std@@@std@@@2@@Z 100117c9 f i nav.obj
 0001:00010e39       ?clear@?$_Tree@V?$_Tmap_traits@PBXUtss_data_node@detail@boost@@U?$less@PBX@std@@V?$allocator@U?$pair@QBXUtss_data_node@detail@boost@@@std@@@5@$0A@@std@@@std@@QAEXXZ 10011e39 f i nav.obj
 0001:00010e88       ??0?$_Tree_buy@U?$pair@QBXUtss_data_node@detail@boost@@@std@@V?$allocator@U?$pair@QBXUtss_data_node@detail@boost@@@std@@@2@@std@@QAE@ABV?$allocator@U?$pair@QBXUtss_data_node@detail@boost@@@std@@@1@@Z 10011e88 f i nav.obj
 0001:00010ea1       ?_Erase@?$_Tree@V?$_Tmap_traits@PBXUtss_data_node@detail@boost@@U?$less@PBX@std@@V?$allocator@U?$pair@QBXUtss_data_node@detail@boost@@@std@@@5@$0A@@std@@@std@@IAEXPAU?$_Tree_node@U?$pair@QBXUtss_data_node@detail@boost@@@std@@PAX@2@@Z 10011ea1 f i nav.obj
 0001:00010f2b       ??0?$_Tree_alloc@$0A@U?$_Tree_base_types@U?$pair@QBXUtss_data_node@detail@boost@@@std@@V?$allocator@U?$pair@QBXUtss_data_node@detail@boost@@@std@@@2@@std@@@std@@QAE@ABV?$allocator@U?$pair@QBXUtss_data_node@detail@boost@@@std@@@1@@Z 10011f2b f i nav.obj
 0001:00010f4e       ?_Buyheadnode@?$_Tree_alloc@$0A@U?$_Tree_base_types@U?$pair@QBXUtss_data_node@detail@boost@@@std@@V?$allocator@U?$pair@QBXUtss_data_node@detail@boost@@@std@@@2@@std@@@std@@QAEPAU?$_Tree_node@U?$pair@QBXUtss_data_node@detail@boost@@@std@@PAX@2@XZ 10011f4e f i nav.obj
 0001:0001108a       ?allocate@?$_Wrap_alloc@V?$allocator@U?$_Tree_node@U?$pair@QBXUtss_data_node@detail@boost@@@std@@PAX@std@@@std@@@std@@QAEPAU?$_Tree_node@U?$pair@QBXUtss_data_node@detail@boost@@@std@@PAX@2@I@Z 1001208a f i nav.obj
 0001:000110a0       ?allocate@?$allocator@U?$_Tree_node@U?$pair@QBXUtss_data_node@detail@boost@@@std@@PAX@std@@@std@@QAEPAU?$_Tree_node@U?$pair@QBXUtss_data_node@detail@boost@@@std@@PAX@2@I@Z 100120a0 f i nav.obj
 0001:000110b7       ??$_Pow_int@M@@YAMMH@Z     100120b7 f i nav.obj
 0001:0001113f       ??A?$CUtlMemory@EH@@QBEABEH@Z 1001213f f i nav.obj
 0001:0001113f       ??A?$CUtlMemory@EH@@QAEAAEH@Z 1001213f f i nav.obj
 0001:00011152       ??$throw_exception@Vthread_resource_error@boost@@@boost@@YAXABVthread_resource_error@0@@Z 10012152 f i nav.obj
 0001:000111d9       ??$throw_exception@Vbad_alloc@std@@@boost@@YAXABVbad_alloc@std@@@Z 100121d9 f i nav.obj
 0001:00011257       ?Head@?$CUtlVector@PAVNode@@V?$CUtlMemory@PAVNode@@H@@@@QAEAAPAVNode@@XZ 10012257 f i nav.obj
 0001:0001126a       ?IsValidIndex@?$CUtlVector@PAVNode@@V?$CUtlMemory@PAVNode@@H@@@@QBE_NH@Z 1001226a f i nav.obj
 0001:00011297       ?AddToHead@?$CUtlVector@PAVNode@@V?$CUtlMemory@PAVNode@@H@@@@QAEHABQAVNode@@@Z 10012297 f i nav.obj
 0001:000112af       ?HasElement@?$CUtlVector@PAVNode@@V?$CUtlMemory@PAVNode@@H@@@@QBE_NABQAVNode@@@Z 100122af f i nav.obj
 0001:000112da       ?EnsureCapacity@?$CUtlVector@PAVNode@@V?$CUtlMemory@PAVNode@@H@@@@QAEXH@Z 100122da f i nav.obj
 0001:000112f8       ?FindAndRemove@?$CUtlVector@PAUBorder@@V?$CUtlMemory@PAUBorder@@H@@@@QAE_NABQAUBorder@@@Z 100122f8 f i nav.obj
 0001:000112f8       ?FindAndRemove@?$CUtlVector@PAVNode@@V?$CUtlMemory@PAVNode@@H@@@@QAE_NABQAVNode@@@Z 100122f8 f i nav.obj
 0001:00011329       ??$SwapBufferToTargetEndian@M@CByteswap@@QAEXPAM0H@Z 10012329 f i nav.obj
 0001:000113ae       ??$GetType@H@CUtlBuffer@@IAEXAAHPBD@Z 100123ae f i nav.obj
 0001:000113ec       ??$GetType@M@CUtlBuffer@@IAEXAAMPBD@Z 100123ec f i nav.obj
 0001:00011433       ??$PutType@H@CUtlBuffer@@IAEXHPBD@Z 10012433 f i nav.obj
 0001:0001146b       ??$PutType@M@CUtlBuffer@@IAEXMPBD@Z 1001246b f i nav.obj
 0001:000114b4       ??0?$CUtlLinkedList@UGroundSeedSpot@@H$0A@HV?$CUtlMemory@U?$UtlLinkedListElem_t@UGroundSeedSpot@@H@@H@@@@QAE@HH@Z 100124b4 f i nav.obj
 0001:000114b4       ??0?$CUtlLinkedList@UAirSeedSpot@@H$0A@HV?$CUtlMemory@U?$UtlLinkedListElem_t@UAirSeedSpot@@H@@H@@@@QAE@HH@Z 100124b4 f i nav.obj
 0001:00011521       ??1?$CUtlLinkedList@UGroundSeedSpot@@H$0A@HV?$CUtlMemory@U?$UtlLinkedListElem_t@UGroundSeedSpot@@H@@H@@@@QAE@XZ 10012521 f i nav.obj
 0001:00011521       ??1?$CUtlLinkedList@UAirSeedSpot@@H$0A@HV?$CUtlMemory@U?$UtlLinkedListElem_t@UAirSeedSpot@@H@@H@@@@QAE@XZ 10012521 f i nav.obj
 0001:0001156c       ?InternalElement@?$CUtlLinkedList@UAirSeedSpot@@H$0A@HV?$CUtlMemory@U?$UtlLinkedListElem_t@UAirSeedSpot@@H@@H@@@@IAEAAU?$UtlLinkedListElem_t@UAirSeedSpot@@H@@H@Z 1001256c f i nav.obj
 0001:0001156c       ?InternalElement@?$CUtlLinkedList@UGroundSeedSpot@@H$0A@HV?$CUtlMemory@U?$UtlLinkedListElem_t@UGroundSeedSpot@@H@@H@@@@IBEABU?$UtlLinkedListElem_t@UGroundSeedSpot@@H@@H@Z 1001256c f i nav.obj
 0001:0001156c       ?Element@?$CUtlLinkedList@UAirSeedSpot@@H$0A@HV?$CUtlMemory@U?$UtlLinkedListElem_t@UAirSeedSpot@@H@@H@@@@QAEAAUAirSeedSpot@@H@Z 1001256c f i nav.obj
 0001:0001156c       ?Element@?$CUtlLinkedList@UGroundSeedSpot@@H$0A@HV?$CUtlMemory@U?$UtlLinkedListElem_t@UGroundSeedSpot@@H@@H@@@@QAEAAUGroundSeedSpot@@H@Z 1001256c f i nav.obj
 0001:0001156c       ?InternalElement@?$CUtlLinkedList@UAirSeedSpot@@H$0A@HV?$CUtlMemory@U?$UtlLinkedListElem_t@UAirSeedSpot@@H@@H@@@@IBEABU?$UtlLinkedListElem_t@UAirSeedSpot@@H@@H@Z 1001256c f i nav.obj
 0001:0001156c       ?InternalElement@?$CUtlLinkedList@UGroundSeedSpot@@H$0A@HV?$CUtlMemory@U?$UtlLinkedListElem_t@UGroundSeedSpot@@H@@H@@@@IAEAAU?$UtlLinkedListElem_t@UGroundSeedSpot@@H@@H@Z 1001256c f i nav.obj
 0001:00011582       ?EnsureCapacity@?$CUtlLinkedList@UGroundSeedSpot@@H$0A@HV?$CUtlMemory@U?$UtlLinkedListElem_t@UGroundSeedSpot@@H@@H@@@@QAEXH@Z 10012582 f i nav.obj
 0001:00011582       ?EnsureCapacity@?$CUtlLinkedList@UAirSeedSpot@@H$0A@HV?$CUtlMemory@U?$UtlLinkedListElem_t@UAirSeedSpot@@H@@H@@@@QAEXH@Z 10012582 f i nav.obj
 0001:000115a0       ?AddToTail@?$CUtlLinkedList@UGroundSeedSpot@@H$0A@HV?$CUtlMemory@U?$UtlLinkedListElem_t@UGroundSeedSpot@@H@@H@@@@QAEHABUGroundSeedSpot@@@Z 100125a0 f i nav.obj
 0001:000115bc       ?RemoveAll@?$CUtlLinkedList@UGroundSeedSpot@@H$0A@HV?$CUtlMemory@U?$UtlLinkedListElem_t@UGroundSeedSpot@@H@@H@@@@QAEXXZ 100125bc f i nav.obj
 0001:000115bc       ?RemoveAll@?$CUtlLinkedList@UAirSeedSpot@@H$0A@HV?$CUtlMemory@U?$UtlLinkedListElem_t@UAirSeedSpot@@H@@H@@@@QAEXXZ 100125bc f i nav.obj
 0001:0001175a       ?Next@?$CUtlLinkedList@UAirSeedSpot@@H$0A@HV?$CUtlMemory@U?$UtlLinkedListElem_t@UAirSeedSpot@@H@@H@@@@QBEHH@Z 1001275a f i nav.obj
 0001:0001175a       ?Next@?$CUtlLinkedList@UGroundSeedSpot@@H$0A@HV?$CUtlMemory@U?$UtlLinkedListElem_t@UGroundSeedSpot@@H@@H@@@@QBEHH@Z 1001275a f i nav.obj
 0001:00011773       ?IsValidIndex@?$CUtlLinkedList@UGroundSeedSpot@@H$0A@HV?$CUtlMemory@U?$UtlLinkedListElem_t@UGroundSeedSpot@@H@@H@@@@QBE_NH@Z 10012773 f i nav.obj
 0001:00011773       ?IsValidIndex@?$CUtlLinkedList@UAirSeedSpot@@H$0A@HV?$CUtlMemory@U?$UtlLinkedListElem_t@UAirSeedSpot@@H@@H@@@@QBE_NH@Z 10012773 f i nav.obj
 0001:000117e8       ?AddToTail@?$CUtlLinkedList@UAirSeedSpot@@H$0A@HV?$CUtlMemory@U?$UtlLinkedListElem_t@UAirSeedSpot@@H@@H@@@@QAEHABUAirSeedSpot@@@Z 100127e8 f i nav.obj
 0001:00011804       ??$?0P8Nav@@AEXPA_N@ZPAV0@PA_N@thread@boost@@QAE@P8Nav@@AEXPA_N@ZPAV2@0@Z 10012804 f i nav.obj
 0001:00011876       ??$?0P8Nav@@AEXPAUJobInfo_t@@PAVNode@@1@ZPAV0@PAU1@PAV2@PAV2@@thread@boost@@QAE@P8Nav@@AEXPAUJobInfo_t@@PAVNode@@1@ZPAV2@011@Z 10012876 f i nav.obj
 0001:000118ee       ?PurgeAndDeleteElements@?$CUtlVector@PAUBorder@@V?$CUtlMemory@PAUBorder@@H@@@@QAEXXZ 100128ee f i nav.obj
 0001:00011934       ??$_Destroy_range@U?$_Wrap_alloc@V?$allocator@U?$pair@PAVcondition_variable@boost@@PAVmutex@2@@std@@@std@@@std@@@std@@YAXPAU?$pair@PAVcondition_variable@boost@@PAVmutex@2@@0@0AAU?$_Wrap_alloc@V?$allocator@U?$pair@PAVcondition_variable@boost@@PAVmutex@2@@std@@@std@@@0@@Z 10012934 f i nav.obj
 0001:0001195e       ??$destroy@U?$pair@QBXUtss_data_node@detail@boost@@@std@@@?$_Wrap_alloc@V?$allocator@U?$_Tree_node@U?$pair@QBXUtss_data_node@detail@boost@@@std@@PAX@std@@@std@@@std@@QAEXPAU?$pair@QBXUtss_data_node@detail@boost@@@1@@Z 1001295e f i nav.obj
 0001:00011976       ??$_Allocate@U?$_Tree_node@U?$pair@QBXUtss_data_node@detail@boost@@@std@@PAX@std@@@std@@YAPAU?$_Tree_node@U?$pair@QBXUtss_data_node@detail@boost@@@std@@PAX@0@IPAU10@@Z 10012976 f i nav.obj
 0001:000119af       ??_D?$clone_impl@U?$error_info_injector@Vthread_resource_error@boost@@@exception_detail@boost@@@exception_detail@boost@@QAEXXZ 100129af f i nav.obj
 0001:000119cb       ??0?$clone_impl@U?$error_info_injector@Vthread_resource_error@boost@@@exception_detail@boost@@@exception_detail@boost@@QAE@ABV012@@Z 100129cb f i nav.obj
 0001:00011a9a       ??0?$error_info_injector@Vthread_resource_error@boost@@@exception_detail@boost@@QAE@ABU012@@Z 10012a9a f i nav.obj
 0001:00011b1c       ??0thread_resource_error@boost@@QAE@ABV01@@Z 10012b1c f i nav.obj
 0001:00011b3e       ??0thread_exception@boost@@QAE@ABV01@@Z 10012b3e f i nav.obj
 0001:00011b60       ??0system_error@system@boost@@QAE@ABV012@@Z 10012b60 f i nav.obj
 0001:00011bd8       ??_D?$clone_impl@U?$error_info_injector@Vbad_alloc@std@@@exception_detail@boost@@@exception_detail@boost@@QAEXXZ 10012bd8 f i nav.obj
 0001:00011bf4       ??0?$clone_impl@U?$error_info_injector@Vbad_alloc@std@@@exception_detail@boost@@@exception_detail@boost@@QAE@ABV012@@Z 10012bf4 f i nav.obj
 0001:00011cc3       ??0?$error_info_injector@Vbad_alloc@std@@@exception_detail@boost@@QAE@ABU012@@Z 10012cc3 f i nav.obj
 0001:00011d45       ??0bad_alloc@std@@QAE@ABV01@@Z 10012d45 f i nav.obj
 0001:00011d67       ??_E?$clone_impl@U?$error_info_injector@Vthread_resource_error@boost@@@exception_detail@boost@@@exception_detail@boost@@UAEPAXI@Z 10012d67 f i * CIL library *:* CIL module *
 0001:00011d67       ??_G?$clone_impl@U?$error_info_injector@Vthread_resource_error@boost@@@exception_detail@boost@@@exception_detail@boost@@UAEPAXI@Z 10012d67 f i nav.obj
 0001:00011d8e       ??_E?$error_info_injector@Vthread_resource_error@boost@@@exception_detail@boost@@UAEPAXI@Z 10012d8e f i * CIL library *:* CIL module *
 0001:00011d8e       ??_G?$error_info_injector@Vthread_resource_error@boost@@@exception_detail@boost@@UAEPAXI@Z 10012d8e f i nav.obj
 0001:00011db5       ??_E?$clone_impl@U?$error_info_injector@Vbad_alloc@std@@@exception_detail@boost@@@exception_detail@boost@@UAEPAXI@Z 10012db5 f i * CIL library *:* CIL module *
 0001:00011db5       ??_G?$clone_impl@U?$error_info_injector@Vbad_alloc@std@@@exception_detail@boost@@@exception_detail@boost@@UAEPAXI@Z 10012db5 f i nav.obj
 0001:00011ddc       ??_G?$error_info_injector@Vbad_alloc@std@@@exception_detail@boost@@UAEPAXI@Z 10012ddc f i nav.obj
 0001:00011ddc       ??_E?$error_info_injector@Vbad_alloc@std@@@exception_detail@boost@@UAEPAXI@Z 10012ddc f i * CIL library *:* CIL module *
 0001:00011e03       ??0?$basic_string@DU?$char_traits@D@std@@V?$allocator@D@2@@std@@QAE@ABV01@@Z 10012e03 f i nav.obj
 0001:00011e4d       ?InvalidIndex@?$CUtlLinkedList@UGroundSeedSpot@@H$0A@HV?$CUtlMemory@U?$UtlLinkedListElem_t@UGroundSeedSpot@@H@@H@@@@SAHXZ 10012e4d f i nav.obj
 0001:00011e4d       ?InvalidIndex@?$CUtlLinkedList@UAirSeedSpot@@H$0A@HV?$CUtlMemory@U?$UtlLinkedListElem_t@UAirSeedSpot@@H@@H@@@@SAHXZ 10012e4d f i nav.obj
 0001:00011e57       ?ResetDbgInfo@?$CUtlLinkedList@UGroundSeedSpot@@H$0A@HV?$CUtlMemory@U?$UtlLinkedListElem_t@UGroundSeedSpot@@H@@H@@@@IAEXXZ 10012e57 f i nav.obj
 0001:00011e57       ?ResetDbgInfo@?$CUtlLinkedList@UAirSeedSpot@@H$0A@HV?$CUtlMemory@U?$UtlLinkedListElem_t@UAirSeedSpot@@H@@H@@@@IAEXXZ 10012e57 f i nav.obj
 0001:00011e6e       ?First@?$CUtlMemory@U?$UtlLinkedListElem_t@UGroundSeedSpot@@H@@H@@QBE?AVIterator_t@1@XZ 10012e6e f i nav.obj
 0001:00011e6e       ?First@?$CUtlMemory@U?$UtlLinkedListElem_t@UAirSeedSpot@@H@@H@@QBE?AVIterator_t@1@XZ 10012e6e f i nav.obj
 0001:00011ea7       ?Next@?$CUtlMemory@U?$UtlLinkedListElem_t@UGroundSeedSpot@@H@@H@@QBE?AVIterator_t@1@ABV21@@Z 10012ea7 f i nav.obj
 0001:00011ea7       ?Next@?$CUtlMemory@U?$UtlLinkedListElem_t@UAirSeedSpot@@H@@H@@QBE?AVIterator_t@1@ABV21@@Z 10012ea7 f i nav.obj
 0001:00011eea       ?GetIndex@?$CUtlMemory@U?$UtlLinkedListElem_t@UAirSeedSpot@@H@@H@@QBEHABVIterator_t@1@@Z 10012eea f i nav.obj
 0001:00011eea       ?GetIndex@?$CUtlMemory@U?$UtlLinkedListElem_t@UGroundSeedSpot@@H@@H@@QBEHABVIterator_t@1@@Z 10012eea f i nav.obj
 0001:00011efa       ?IsIdxAfter@?$CUtlMemory@U?$UtlLinkedListElem_t@UAirSeedSpot@@H@@H@@QBE_NHABVIterator_t@1@@Z 10012efa f i nav.obj
 0001:00011efa       ?IsIdxAfter@?$CUtlMemory@U?$UtlLinkedListElem_t@UGroundSeedSpot@@H@@H@@QBE_NHABVIterator_t@1@@Z 10012efa f i nav.obj
 0001:00011f20       ?InvalidIterator@?$CUtlMemory@U?$UtlLinkedListElem_t@UGroundSeedSpot@@H@@H@@QBE?AVIterator_t@1@XZ 10012f20 f i nav.obj
 0001:00011f20       ?InvalidIterator@?$CUtlMemory@U?$UtlLinkedListElem_t@UAirSeedSpot@@H@@H@@QBE?AVIterator_t@1@XZ 10012f20 f i nav.obj
 0001:00011f3c       ??8Iterator_t@?$CUtlMemory@U?$UtlLinkedListElem_t@UAirSeedSpot@@H@@H@@QBE_NV01@@Z 10012f3c f i nav.obj
 0001:00011f3c       ??8Iterator_t@?$CUtlMemory@U?$UtlLinkedListElem_t@UGroundSeedSpot@@H@@H@@QBE_NV01@@Z 10012f3c f i nav.obj
 0001:00011f62       ??9Iterator_t@?$CUtlMemory@U?$UtlLinkedListElem_t@UGroundSeedSpot@@H@@H@@QBE_NV01@@Z 10012f62 f i nav.obj
 0001:00011f62       ??9Iterator_t@?$CUtlMemory@U?$UtlLinkedListElem_t@UAirSeedSpot@@H@@H@@QBE_NV01@@Z 10012f62 f i nav.obj
 0001:00011f88       ??1?$error_info_injector@Vthread_resource_error@boost@@@exception_detail@boost@@UAE@XZ 10012f88 f i nav.obj
 0001:00011fb7       ??1?$clone_impl@U?$error_info_injector@Vthread_resource_error@boost@@@exception_detail@boost@@@exception_detail@boost@@UAE@XZ 10012fb7 f i nav.obj
 0001:0001200b       ?clone@?$clone_impl@U?$error_info_injector@Vthread_resource_error@boost@@@exception_detail@boost@@@exception_detail@boost@@EBEPBVclone_base@23@XZ 1001300b f i nav.obj
 0001:000120a9       ?rethrow@?$clone_impl@U?$error_info_injector@Vthread_resource_error@boost@@@exception_detail@boost@@@exception_detail@boost@@EBEXXZ 100130a9 f i nav.obj
 0001:000120e7       ??1?$error_info_injector@Vbad_alloc@std@@@exception_detail@boost@@UAE@XZ 100130e7 f i nav.obj
 0001:00012116       ??1?$clone_impl@U?$error_info_injector@Vbad_alloc@std@@@exception_detail@boost@@@exception_detail@boost@@UAE@XZ 10013116 f i nav.obj
 0001:0001216a       ?clone@?$clone_impl@U?$error_info_injector@Vbad_alloc@std@@@exception_detail@boost@@@exception_detail@boost@@EBEPBVclone_base@23@XZ 1001316a f i nav.obj
 0001:00012208       ?rethrow@?$clone_impl@U?$error_info_injector@Vbad_alloc@std@@@exception_detail@boost@@@exception_detail@boost@@EBEXXZ 10013208 f i nav.obj
 0001:00012232       ?select_on_container_copy_construction@?$_Wrap_alloc@V?$allocator@D@std@@@std@@QBE?AU12@XZ 10013232 f i nav.obj
 0001:00012258       ??0?$clone_impl@U?$error_info_injector@Vthread_resource_error@boost@@@exception_detail@boost@@@exception_detail@boost@@AAE@ABV012@Uclone_tag@012@@Z 10013258 f i nav.obj
 0001:0001234e       ??0?$clone_impl@U?$error_info_injector@Vbad_alloc@std@@@exception_detail@boost@@@exception_detail@boost@@AAE@ABV012@Uclone_tag@012@@Z 1001334e f i nav.obj
 0001:00012444       ??0?$_Wrap_alloc@V?$allocator@D@std@@@std@@QAE@ABV?$allocator@D@1@@Z 10013444 f i nav.obj
 0001:0001245d       ?select_on_container_copy_construction@?$allocator_traits@V?$allocator@D@std@@@std@@SA?AV?$allocator@D@2@ABV32@@Z 1001345d f i nav.obj
 0001:00012470       ?select_on_container_copy_construction@?$allocator@D@std@@QBE?AV12@XZ 10013470 f i nav.obj
 0001:00012489       ??$enable_error_info@Vthread_resource_error@boost@@@boost@@YA?AU?$error_info_injector@Vthread_resource_error@boost@@@exception_detail@0@ABVthread_resource_error@0@@Z 10013489 f i nav.obj
 0001:000124aa       ??$enable_current_exception@U?$error_info_injector@Vthread_resource_error@boost@@@exception_detail@boost@@@boost@@YA?AV?$clone_impl@U?$error_info_injector@Vthread_resource_error@boost@@@exception_detail@boost@@@exception_detail@0@ABU?$error_info_injector@Vthread_resource_error@boost@@@20@@Z 100134aa f i nav.obj
 0001:000124cd       ??$enable_error_info@Vbad_alloc@std@@@boost@@YA?AU?$error_info_injector@Vbad_alloc@std@@@exception_detail@0@ABVbad_alloc@std@@@Z 100134cd f i nav.obj
 0001:000124ee       ??$enable_current_exception@U?$error_info_injector@Vbad_alloc@std@@@exception_detail@boost@@@boost@@YA?AV?$clone_impl@U?$error_info_injector@Vbad_alloc@std@@@exception_detail@boost@@@exception_detail@0@ABU?$error_info_injector@Vbad_alloc@std@@@20@@Z 100134ee f i nav.obj
 0001:00012511       ?Find@?$CUtlVector@PAVNode@@V?$CUtlMemory@PAVNode@@H@@@@QBEHABQAVNode@@@Z 10013511 f i nav.obj
 0001:00012511       ?Find@?$CUtlVector@PAUBorder@@V?$CUtlMemory@PAUBorder@@H@@@@QBEHABQAUBorder@@@Z 10013511 f i nav.obj
 0001:00012555       ?EnsureCapacity@?$CUtlMemory@PAVNode@@H@@QAEXH@Z 10013555 f i nav.obj
 0001:000125dc       ??$LowLevelByteSwap@M@CByteswap@@CAXPAM0@Z 100135dc f i nav.obj
 0001:0001262b       ??$GetTypeBin@H@CUtlBuffer@@IAEXAAH@Z 1001362b f i nav.obj
 0001:000126a2       ??$PutTypeBin@H@CUtlBuffer@@IAEXH@Z 100136a2 f i nav.obj
 0001:00012718       ??$PutTypeBin@M@CUtlBuffer@@IAEXM@Z 10013718 f i nav.obj
 0001:00012792       ?InsertBefore@?$CUtlLinkedList@UGroundSeedSpot@@H$0A@HV?$CUtlMemory@U?$UtlLinkedListElem_t@UGroundSeedSpot@@H@@H@@@@QAEHHABUGroundSeedSpot@@@Z 10013792 f i nav.obj
 0001:000127d2       ?ConstructList@?$CUtlLinkedList@UGroundSeedSpot@@H$0A@HV?$CUtlMemory@U?$UtlLinkedListElem_t@UGroundSeedSpot@@H@@H@@@@IAEXXZ 100137d2 f i nav.obj
 0001:000127d2       ?ConstructList@?$CUtlLinkedList@UAirSeedSpot@@H$0A@HV?$CUtlMemory@U?$UtlLinkedListElem_t@UAirSeedSpot@@H@@H@@@@IAEXXZ 100137d2 f i nav.obj
 0001:00012803       ??0?$CUtlMemory@U?$UtlLinkedListElem_t@UGroundSeedSpot@@H@@H@@QAE@HH@Z 10013803 f i nav.obj
 0001:00012803       ??0?$CUtlMemory@U?$UtlLinkedListElem_t@UAirSeedSpot@@H@@H@@QAE@HH@Z 10013803 f i nav.obj
 0001:0001285d       ??A?$CUtlMemory@U?$UtlLinkedListElem_t@UGroundSeedSpot@@H@@H@@QBEABU?$UtlLinkedListElem_t@UGroundSeedSpot@@H@@H@Z 1001385d f i nav.obj
 0001:0001285d       ??A?$CUtlMemory@U?$UtlLinkedListElem_t@UAirSeedSpot@@H@@H@@QBEABU?$UtlLinkedListElem_t@UAirSeedSpot@@H@@H@Z 1001385d f i nav.obj
 0001:0001285d       ??A?$CUtlMemory@U?$UtlLinkedListElem_t@UGroundSeedSpot@@H@@H@@QAEAAU?$UtlLinkedListElem_t@UGroundSeedSpot@@H@@H@Z 1001385d f i nav.obj
 0001:0001285d       ??A?$CUtlMemory@U?$UtlLinkedListElem_t@UAirSeedSpot@@H@@H@@QAEAAU?$UtlLinkedListElem_t@UAirSeedSpot@@H@@H@Z 1001385d f i nav.obj
 0001:00012873       ?IsIdxValid@?$CUtlMemory@U?$UtlLinkedListElem_t@UGroundSeedSpot@@H@@H@@QBE_NH@Z 10013873 f i nav.obj
 0001:00012873       ?IsIdxValid@?$CUtlMemory@U?$UtlLinkedListElem_t@UAirSeedSpot@@H@@H@@QBE_NH@Z 10013873 f i nav.obj
 0001:000128a7       ?EnsureCapacity@?$CUtlMemory@U?$UtlLinkedListElem_t@UAirSeedSpot@@H@@H@@QAEXH@Z 100138a7 f i nav.obj
 0001:000128a7       ?EnsureCapacity@?$CUtlMemory@U?$UtlLinkedListElem_t@UGroundSeedSpot@@H@@H@@QAEXH@Z 100138a7 f i nav.obj
 0001:0001292e       ?InsertBefore@?$CUtlLinkedList@UAirSeedSpot@@H$0A@HV?$CUtlMemory@U?$UtlLinkedListElem_t@UAirSeedSpot@@H@@H@@@@QAEHHABUAirSeedSpot@@@Z 1001392e f i nav.obj
 0001:0001296e       ??$bind@XXVNav@@PA_NPAV1@PA_N@boost@@YA?AV?$bind_t@XV?$mf1@XVNav@@PA_N@_mfi@boost@@V?$list2@V?$value@PAVNav@@@_bi@boost@@V?$value@PA_N@23@@_bi@3@@_bi@0@U?$type@X@0@P8Nav@@AEXPA_N@ZPAV4@1@Z 1001396e f i nav.obj
 0001:000129af       ??$make_thread_info@V?$bind_t@XV?$mf1@XVNav@@PA_N@_mfi@boost@@V?$list2@V?$value@PAVNav@@@_bi@boost@@V?$value@PA_N@23@@_bi@3@@_bi@boost@@@thread@boost@@CA?AV?$intrusive_ptr@Uthread_data_base@detail@boost@@@1@$$QAV?$bind_t@XV?$mf1@XVNav@@PA_N@_mfi@boost@@V?$list2@V?$value@PAVNav@@@_bi@boost@@V?$value@PA_N@23@@_bi@3@@_bi@1@@Z 100139af f i nav.obj
 0001:000129e3       ??$bind@XXVNav@@PAUJobInfo_t@@PAVNode@@PAV3@PAV1@PAU2@PAV3@PAV3@@boost@@YA?AV?$bind_t@XV?$mf3@XVNav@@PAUJobInfo_t@@PAVNode@@PAV3@@_mfi@boost@@V?$list4@V?$value@PAVNav@@@_bi@boost@@V?$value@PAUJobInfo_t@@@23@V?$value@PAVNode@@@23@V523@@_bi@3@@_bi@0@U?$type@X@0@P8Nav@@AEXPAUJobInfo_t@@PAVNode@@2@ZPAV4@122@Z 100139e3 f i nav.obj
 0001:00012a3c       ??$make_thread_info@V?$bind_t@XV?$mf3@XVNav@@PAUJobInfo_t@@PAVNode@@PAV3@@_mfi@boost@@V?$list4@V?$value@PAVNav@@@_bi@boost@@V?$value@PAUJobInfo_t@@@23@V?$value@PAVNode@@@23@V523@@_bi@3@@_bi@boost@@@thread@boost@@CA?AV?$intrusive_ptr@Uthread_data_base@detail@boost@@@1@$$QAV?$bind_t@XV?$mf3@XVNav@@PAUJobInfo_t@@PAVNode@@PAV3@@_mfi@boost@@V?$list4@V?$value@PAVNav@@@_bi@boost@@V?$value@PAUJobInfo_t@@@23@V?$value@PAVNode@@@23@V523@@_bi@3@@_bi@1@@Z 10013a3c f i nav.obj
 0001:00012a70       ??$_Ptr_cat@U?$pair@PAVcondition_variable@boost@@PAVmutex@2@@std@@U12@@std@@YA?AU_Nonscalar_ptr_iterator_tag@0@PAU?$pair@PAVcondition_variable@boost@@PAVmutex@2@@0@0@Z 10013a70 f i nav.obj
 0001:00012a79       ??$_Destroy_range@U?$_Wrap_alloc@V?$allocator@U?$pair@PAVcondition_variable@boost@@PAVmutex@2@@std@@@std@@@std@@@std@@YAXPAU?$pair@PAVcondition_variable@boost@@PAVmutex@2@@0@0AAU?$_Wrap_alloc@V?$allocator@U?$pair@PAVcondition_variable@boost@@PAVmutex@2@@std@@@std@@@0@U_Nonscalar_ptr_iterator_tag@0@@Z 10013a79 f i nav.obj
 0001:00012a9e       ??$destroy@U?$pair@QBXUtss_data_node@detail@boost@@@std@@@?$allocator_traits@V?$allocator@U?$_Tree_node@U?$pair@QBXUtss_data_node@detail@boost@@@std@@PAX@std@@@std@@@std@@SAXAAV?$allocator@U?$_Tree_node@U?$pair@QBXUtss_data_node@detail@boost@@@std@@PAX@std@@@1@PAU?$pair@QBXUtss_data_node@detail@boost@@@1@@Z 10013a9e f i nav.obj
 0001:00012aae       ??0?$error_info_injector@Vthread_resource_error@boost@@@exception_detail@boost@@QAE@ABVthread_resource_error@2@@Z 10013aae f i nav.obj
 0001:00012b17       ??0?$clone_impl@U?$error_info_injector@Vthread_resource_error@boost@@@exception_detail@boost@@@exception_detail@boost@@QAE@ABU?$error_info_injector@Vthread_resource_error@boost@@@12@@Z 10013b17 f i nav.obj
 0001:00012c0d       ??0?$error_info_injector@Vbad_alloc@std@@@exception_detail@boost@@QAE@ABVbad_alloc@std@@@Z 10013c0d f i nav.obj
 0001:00012c76       ??0?$clone_impl@U?$error_info_injector@Vbad_alloc@std@@@exception_detail@boost@@@exception_detail@boost@@QAE@ABU?$error_info_injector@Vbad_alloc@std@@@12@@Z 10013c76 f i nav.obj
 0001:00012d6c       ??0?$bind_t@XV?$mf1@XVNav@@PA_N@_mfi@boost@@V?$list2@V?$value@PAVNav@@@_bi@boost@@V?$value@PA_N@23@@_bi@3@@_bi@boost@@QAE@V?$mf1@XVNav@@PA_N@_mfi@2@ABV?$list2@V?$value@PAVNav@@@_bi@boost@@V?$value@PA_N@23@@12@@Z 10013d6c f i nav.obj
 0001:00012d93       ??0?$list2@V?$value@PAVNav@@@_bi@boost@@V?$value@PA_N@23@@_bi@boost@@QAE@V?$value@PAVNav@@@12@V?$value@PA_N@12@@Z 10013d93 f i nav.obj
 0001:00012daf       ??0?$value@PAVNav@@@_bi@boost@@QAE@ABQAVNav@@@Z 10013daf f i nav.obj
 0001:00012daf       ??0?$value@PAUJobInfo_t@@@_bi@boost@@QAE@ABQAUJobInfo_t@@@Z 10013daf f i nav.obj
 0001:00012daf       ??0?$value@PAVNode@@@_bi@boost@@QAE@ABQAVNode@@@Z 10013daf f i nav.obj
 0001:00012daf       ??0?$value@PA_N@_bi@boost@@QAE@ABQA_N@Z 10013daf f i nav.obj
 0001:00012dc7       ??0?$bind_t@XV?$mf3@XVNav@@PAUJobInfo_t@@PAVNode@@PAV3@@_mfi@boost@@V?$list4@V?$value@PAVNav@@@_bi@boost@@V?$value@PAUJobInfo_t@@@23@V?$value@PAVNode@@@23@V523@@_bi@3@@_bi@boost@@QAE@V?$mf3@XVNav@@PAUJobInfo_t@@PAVNode@@PAV3@@_mfi@2@ABV?$list4@V?$value@PAVNav@@@_bi@boost@@V?$value@PAUJobInfo_t@@@23@V?$value@PAVNode@@@23@V523@@12@@Z 10013dc7 f i nav.obj
 0001:00012dee       ??0?$list4@V?$value@PAVNav@@@_bi@boost@@V?$value@PAUJobInfo_t@@@23@V?$value@PAVNode@@@23@V523@@_bi@boost@@QAE@V?$value@PAVNav@@@12@V?$value@PAUJobInfo_t@@@12@V?$value@PAVNode@@@12@2@Z 10013dee f i nav.obj
 0001:00012e10       ?run@?$thread_data@V?$bind_t@XV?$mf1@XVNav@@PA_N@_mfi@boost@@V?$list2@V?$value@PAVNav@@@_bi@boost@@V?$value@PA_N@23@@_bi@3@@_bi@boost@@@detail@boost@@UAEXXZ 10013e10 f i nav.obj
 0001:00012e24       ?run@?$thread_data@V?$bind_t@XV?$mf3@XVNav@@PAUJobInfo_t@@PAVNode@@PAV3@@_mfi@boost@@V?$list4@V?$value@PAVNav@@@_bi@boost@@V?$value@PAUJobInfo_t@@@23@V?$value@PAVNode@@@23@V523@@_bi@3@@_bi@boost@@@detail@boost@@UAEXXZ 10013e24 f i nav.obj
 0001:00012e38       ??R?$bind_t@XV?$mf1@XVNav@@PA_N@_mfi@boost@@V?$list2@V?$value@PAVNav@@@_bi@boost@@V?$value@PA_N@23@@_bi@3@@_bi@boost@@QAEXXZ 10013e38 f i nav.obj
 0001:00012e67       ??0?$storage2@V?$value@PAVNav@@@_bi@boost@@V?$value@PAUJobInfo_t@@@23@@_bi@boost@@QAE@V?$value@PAVNav@@@12@V?$value@PAUJobInfo_t@@@12@@Z 10013e67 f i nav.obj
 0001:00012e67       ??0?$storage2@V?$value@PAVNav@@@_bi@boost@@V?$value@PA_N@23@@_bi@boost@@QAE@V?$value@PAVNav@@@12@V?$value@PA_N@12@@Z 10013e67 f i nav.obj
 0001:00012e89       ??R?$bind_t@XV?$mf3@XVNav@@PAUJobInfo_t@@PAVNode@@PAV3@@_mfi@boost@@V?$list4@V?$value@PAVNav@@@_bi@boost@@V?$value@PAUJobInfo_t@@@23@V?$value@PAVNode@@@23@V523@@_bi@3@@_bi@boost@@QAEXXZ 10013e89 f i nav.obj
 0001:00012eb8       ??0?$storage4@V?$value@PAVNav@@@_bi@boost@@V?$value@PAUJobInfo_t@@@23@V?$value@PAVNode@@@23@V523@@_bi@boost@@QAE@V?$value@PAVNav@@@12@V?$value@PAUJobInfo_t@@@12@V?$value@PAVNode@@@12@2@Z 10013eb8 f i nav.obj
 0001:00012ee0       ??0?$storage3@V?$value@PAVNav@@@_bi@boost@@V?$value@PAUJobInfo_t@@@23@V?$value@PAVNode@@@23@@_bi@boost@@QAE@V?$value@PAVNav@@@12@V?$value@PAUJobInfo_t@@@12@V?$value@PAVNode@@@12@@Z 10013ee0 f i nav.obj
 0001:00012f05       ??$SwapBufferToTargetEndian@H@CByteswap@@QAEXPAH0H@Z 10013f05 f i nav.obj
 0001:00012f8a       ?LinkBefore@?$CUtlLinkedList@UGroundSeedSpot@@H$0A@HV?$CUtlMemory@U?$UtlLinkedListElem_t@UGroundSeedSpot@@H@@H@@@@QAEXHH@Z 10013f8a f i nav.obj
 0001:00012f8a       ?LinkBefore@?$CUtlLinkedList@UAirSeedSpot@@H$0A@HV?$CUtlMemory@U?$UtlLinkedListElem_t@UAirSeedSpot@@H@@H@@@@QAEXHH@Z 10013f8a f i nav.obj
 0001:0001303f       ?AllocInternal@?$CUtlLinkedList@UGroundSeedSpot@@H$0A@HV?$CUtlMemory@U?$UtlLinkedListElem_t@UGroundSeedSpot@@H@@H@@@@IAEH_N@Z 1001403f f i nav.obj
 0001:000131cf       ??$CopyConstruct@UGroundSeedSpot@@@@YAXPAUGroundSeedSpot@@ABU0@@Z 100141cf f i nav.obj
 0001:000131cf       ??$CopyConstruct@UAirSeedSpot@@@@YAXPAUAirSeedSpot@@ABU0@@Z 100141cf f i nav.obj
 0001:00013206       ?AllocInternal@?$CUtlLinkedList@UAirSeedSpot@@H$0A@HV?$CUtlMemory@U?$UtlLinkedListElem_t@UAirSeedSpot@@H@@H@@@@IAEH_N@Z 10014206 f i nav.obj
 0001:00013396       ??$heap_new@V?$thread_data@V?$bind_t@XV?$mf1@XVNav@@PA_N@_mfi@boost@@V?$list2@V?$value@PAVNav@@@_bi@boost@@V?$value@PA_N@23@@_bi@3@@_bi@boost@@@detail@boost@@V?$bind_t@XV?$mf1@XVNav@@PA_N@_mfi@boost@@V?$list2@V?$value@PAVNav@@@_bi@boost@@V?$value@PA_N@23@@_bi@3@@_bi@3@@detail@boost@@YAPAV?$thread_data@V?$bind_t@XV?$mf1@XVNav@@PA_N@_mfi@boost@@V?$list2@V?$value@PAVNav@@@_bi@boost@@V?$value@PA_N@23@@_bi@3@@_bi@boost@@@01@$$QAV?$bind_t@XV?$mf1@XVNav@@PA_N@_mfi@boost@@V?$list2@V?$value@PAVNav@@@_bi@boost@@V?$value@PA_N@23@@_bi@3@@_bi@1@@Z 10014396 f i nav.obj
 0001:00013451       ??$heap_new@V?$thread_data@V?$bind_t@XV?$mf3@XVNav@@PAUJobInfo_t@@PAVNode@@PAV3@@_mfi@boost@@V?$list4@V?$value@PAVNav@@@_bi@boost@@V?$value@PAUJobInfo_t@@@23@V?$value@PAVNode@@@23@V523@@_bi@3@@_bi@boost@@@detail@boost@@V?$bind_t@XV?$mf3@XVNav@@PAUJobInfo_t@@PAVNode@@PAV3@@_mfi@boost@@V?$list4@V?$value@PAVNav@@@_bi@boost@@V?$value@PAUJobInfo_t@@@23@V?$value@PAVNode@@@23@V523@@_bi@3@@_bi@3@@detail@boost@@YAPAV?$thread_data@V?$bind_t@XV?$mf3@XVNav@@PAUJobInfo_t@@PAVNode@@PAV3@@_mfi@boost@@V?$list4@V?$value@PAVNav@@@_bi@boost@@V?$value@PAUJobInfo_t@@@23@V?$value@PAVNode@@@23@V523@@_bi@3@@_bi@boost@@@01@$$QAV?$bind_t@XV?$mf3@XVNav@@PAUJobInfo_t@@PAVNode@@PAV3@@_mfi@boost@@V?$list4@V?$value@PAVNav@@@_bi@boost@@V?$value@PAUJobInfo_t@@@23@V?$value@PAVNode@@@23@V523@@_bi@3@@_bi@1@@Z 10014451 f i nav.obj
 0001:0001350c       ??$destroy@U?$pair@QBXUtss_data_node@detail@boost@@@std@@@?$allocator@U?$_Tree_node@U?$pair@QBXUtss_data_node@detail@boost@@@std@@PAX@std@@@std@@QAEXPAU?$pair@QBXUtss_data_node@detail@boost@@@1@@Z 1001450c f i nav.obj
 0001:00013521       ??$?RV?$mf1@XVNav@@PA_N@_mfi@boost@@Vlist0@_bi@2@@?$list2@V?$value@PAVNav@@@_bi@boost@@V?$value@PA_N@23@@_bi@boost@@QAEXV?$type@X@12@AAV?$mf1@XVNav@@PA_N@_mfi@2@AAVlist0@12@H@Z 10014521 f i nav.obj
 0001:0001355d       ??$?RV?$mf3@XVNav@@PAUJobInfo_t@@PAVNode@@PAV3@@_mfi@boost@@Vlist0@_bi@2@@?$list4@V?$value@PAVNav@@@_bi@boost@@V?$value@PAUJobInfo_t@@@23@V?$value@PAVNode@@@23@V523@@_bi@boost@@QAEXV?$type@X@12@AAV?$mf3@XVNav@@PAUJobInfo_t@@PAVNode@@PAV3@@_mfi@2@AAVlist0@12@H@Z 1001455d f i nav.obj
 0001:000135bb       ??_G?$pair@QBXUtss_data_node@detail@boost@@@std@@QAEPAXI@Z 100145bb f i nav.obj
 0001:000135e2       ??1?$pair@QBXUtss_data_node@detail@boost@@@std@@QAE@XZ 100145e2 f i nav.obj
 0001:000135f6       ??1tss_data_node@detail@boost@@QAE@XZ 100145f6 f i nav.obj
 0001:00013607       ?IsValidIterator@?$CUtlMemory@U?$UtlLinkedListElem_t@UAirSeedSpot@@H@@H@@QBE_NABVIterator_t@1@@Z 10014607 f i nav.obj
 0001:00013607       ?IsValidIterator@?$CUtlMemory@U?$UtlLinkedListElem_t@UGroundSeedSpot@@H@@H@@QBE_NABVIterator_t@1@@Z 10014607 f i nav.obj
 0001:0001361f       ??R?$mf1@XVNav@@PA_N@_mfi@boost@@QBEXPAVNav@@PA_N@Z 1001461f f i nav.obj
 0001:00013635       ??R?$mf3@XVNav@@PAUJobInfo_t@@PAVNode@@PAV3@@_mfi@boost@@QBEXPAVNav@@PAUJobInfo_t@@PAVNode@@2@Z 10014635 f i nav.obj
 0001:00013651       ??0?$thread_data@V?$bind_t@XV?$mf1@XVNav@@PA_N@_mfi@boost@@V?$list2@V?$value@PAVNav@@@_bi@boost@@V?$value@PA_N@23@@_bi@3@@_bi@boost@@@detail@boost@@QAE@$$QAV?$bind_t@XV?$mf1@XVNav@@PA_N@_mfi@boost@@V?$list2@V?$value@PAVNav@@@_bi@boost@@V?$value@PA_N@23@@_bi@3@@_bi@2@@Z 10014651 f i nav.obj
 0001:000136bd       ??0?$thread_data@V?$bind_t@XV?$mf3@XVNav@@PAUJobInfo_t@@PAVNode@@PAV3@@_mfi@boost@@V?$list4@V?$value@PAVNav@@@_bi@boost@@V?$value@PAUJobInfo_t@@@23@V?$value@PAVNode@@@23@V523@@_bi@3@@_bi@boost@@@detail@boost@@QAE@$$QAV?$bind_t@XV?$mf3@XVNav@@PAUJobInfo_t@@PAVNode@@PAV3@@_mfi@boost@@V?$list4@V?$value@PAVNav@@@_bi@boost@@V?$value@PAUJobInfo_t@@@23@V?$value@PAVNode@@@23@V523@@_bi@3@@_bi@2@@Z 100146bd f i nav.obj
 0001:0001372b       ??_E?$thread_data@V?$bind_t@XV?$mf1@XVNav@@PA_N@_mfi@boost@@V?$list2@V?$value@PAVNav@@@_bi@boost@@V?$value@PA_N@23@@_bi@3@@_bi@boost@@@detail@boost@@UAEPAXI@Z 1001472b f i * CIL library *:* CIL module *
 0001:0001372b       ??_G?$thread_data@V?$bind_t@XV?$mf3@XVNav@@PAUJobInfo_t@@PAVNode@@PAV3@@_mfi@boost@@V?$list4@V?$value@PAVNav@@@_bi@boost@@V?$value@PAUJobInfo_t@@@23@V?$value@PAVNode@@@23@V523@@_bi@3@@_bi@boost@@@detail@boost@@UAEPAXI@Z 1001472b f i nav.obj
 0001:0001372b       ??_E?$thread_data@V?$bind_t@XV?$mf3@XVNav@@PAUJobInfo_t@@PAVNode@@PAV3@@_mfi@boost@@V?$list4@V?$value@PAVNav@@@_bi@boost@@V?$value@PAUJobInfo_t@@@23@V?$value@PAVNode@@@23@V523@@_bi@3@@_bi@boost@@@detail@boost@@UAEPAXI@Z 1001472b f i * CIL library *:* CIL module *
 0001:0001372b       ??_G?$thread_data@V?$bind_t@XV?$mf1@XVNav@@PA_N@_mfi@boost@@V?$list2@V?$value@PAVNav@@@_bi@boost@@V?$value@PA_N@23@@_bi@3@@_bi@boost@@@detail@boost@@UAEPAXI@Z 1001472b f i nav.obj
 0001:00013752       ??1?$thread_data@V?$bind_t@XV?$mf1@XVNav@@PA_N@_mfi@boost@@V?$list2@V?$value@PAVNav@@@_bi@boost@@V?$value@PA_N@23@@_bi@3@@_bi@boost@@@detail@boost@@UAE@XZ 10014752 f i nav.obj
 0001:00013752       ??1?$thread_data@V?$bind_t@XV?$mf3@XVNav@@PAUJobInfo_t@@PAVNode@@PAV3@@_mfi@boost@@V?$list4@V?$value@PAVNav@@@_bi@boost@@V?$value@PAUJobInfo_t@@@23@V?$value@PAVNode@@@23@V523@@_bi@3@@_bi@boost@@@detail@boost@@UAE@XZ 10014752 f i nav.obj
 0001:00013763       ??$LowLevelByteSwap@H@CByteswap@@CAXPAH0@Z 10014763 f i nav.obj
 0001:000137ae       ?Unlink@?$CUtlLinkedList@UAirSeedSpot@@H$0A@HV?$CUtlMemory@U?$UtlLinkedListElem_t@UAirSeedSpot@@H@@H@@@@QAEXH@Z 100147ae f i nav.obj
 0001:000137ae       ?Unlink@?$CUtlLinkedList@UGroundSeedSpot@@H$0A@HV?$CUtlMemory@U?$UtlLinkedListElem_t@UGroundSeedSpot@@H@@H@@@@QAEXH@Z 100147ae f i nav.obj
 0001:00013861       ?Grow@?$CUtlMemory@U?$UtlLinkedListElem_t@UGroundSeedSpot@@H@@H@@QAEXH@Z 10014861 f i nav.obj
 0001:00013861       ?Grow@?$CUtlMemory@U?$UtlLinkedListElem_t@UAirSeedSpot@@H@@H@@QAEXH@Z 10014861 f i nav.obj
 0001:0001395b       ??$?APAVNav@@@list0@_bi@boost@@QBEAAPAVNav@@AAV?$value@PAVNav@@@12@@Z 1001495b f i nav.obj
 0001:0001395b       ??$?APAUJobInfo_t@@@list0@_bi@boost@@QBEAAPAUJobInfo_t@@AAV?$value@PAUJobInfo_t@@@12@@Z 1001495b f i nav.obj
 0001:0001395b       ??$?APA_N@list0@_bi@boost@@QBEAAPA_NAAV?$value@PA_N@12@@Z 1001495b f i nav.obj
 0001:0001395b       ??$?APAVNode@@@list0@_bi@boost@@QBEAAPAVNode@@AAV?$value@PAVNode@@@12@@Z 1001495b f i nav.obj
 0001:0001396e       ?IsInList@?$CUtlLinkedList@UAirSeedSpot@@H$0A@HV?$CUtlMemory@U?$UtlLinkedListElem_t@UAirSeedSpot@@H@@H@@@@QBE_NH@Z 1001496e f i nav.obj
 0001:0001396e       ?IsInList@?$CUtlLinkedList@UGroundSeedSpot@@H$0A@HV?$CUtlMemory@U?$UtlLinkedListElem_t@UGroundSeedSpot@@H@@H@@@@QBE_NH@Z 1001496e f i nav.obj
 0001:000139c9       ?Previous@?$CUtlLinkedList@UAirSeedSpot@@H$0A@HV?$CUtlMemory@U?$UtlLinkedListElem_t@UAirSeedSpot@@H@@H@@@@QBEHH@Z 100149c9 f i nav.obj
 0001:000139c9       ?Previous@?$CUtlLinkedList@UGroundSeedSpot@@H$0A@HV?$CUtlMemory@U?$UtlLinkedListElem_t@UGroundSeedSpot@@H@@H@@@@QBEHH@Z 100149c9 f i nav.obj
 0001:000139e2       ??_E?$error_info_injector@Vthread_resource_error@boost@@@exception_detail@boost@@WCM@AEPAXI@Z 100149e2 f i nav.obj
 0001:000139ea       ?rethrow@?$clone_impl@U?$error_info_injector@Vthread_resource_error@boost@@@exception_detail@boost@@@exception_detail@boost@@$0PPPPPPPM@A@BEXXZ 100149ea f i nav.obj
 0001:000139f2       ??_E?$clone_impl@U?$error_info_injector@Vthread_resource_error@boost@@@exception_detail@boost@@@exception_detail@boost@@WCM@AEPAXI@Z 100149f2 f i nav.obj
 0001:000139fa       ??_E?$error_info_injector@Vbad_alloc@std@@@exception_detail@boost@@WM@AEPAXI@Z 100149fa f i nav.obj
 0001:00013a02       ?clone@?$clone_impl@U?$error_info_injector@Vbad_alloc@std@@@exception_detail@boost@@@exception_detail@boost@@$0PPPPPPPM@A@BEPBVclone_base@23@XZ 10014a02 f i nav.obj
 0001:00013a0a       ?clone@?$clone_impl@U?$error_info_injector@Vthread_resource_error@boost@@@exception_detail@boost@@@exception_detail@boost@@$0PPPPPPPM@A@BEPBVclone_base@23@XZ 10014a0a f i nav.obj
 0001:00013a12       ??_E?$clone_impl@U?$error_info_injector@Vbad_alloc@std@@@exception_detail@boost@@@exception_detail@boost@@$4PPPPPPPM@CI@AEPAXI@Z 10014a12 f i nav.obj
 0001:00013a1d       ??_E?$clone_impl@U?$error_info_injector@Vbad_alloc@std@@@exception_detail@boost@@@exception_detail@boost@@WM@AEPAXI@Z 10014a1d f i nav.obj
 0001:00013a25       ?rethrow@?$clone_impl@U?$error_info_injector@Vbad_alloc@std@@@exception_detail@boost@@@exception_detail@boost@@$0PPPPPPPM@A@BEXXZ 10014a25 f i nav.obj
 0001:00013a2d       ??_E?$clone_impl@U?$error_info_injector@Vthread_resource_error@boost@@@exception_detail@boost@@@exception_detail@boost@@$4PPPPPPPM@EI@AEPAXI@Z 10014a2d f i nav.obj
 0001:00013a38       ??0Node@@QAE@ABVVector@@0PAV0@@Z 10014a38 f   node.obj
 0001:00013add       ?ConnectTo@Node@@QAEXPAV1@W4NavDirType@@@Z 10014add f   node.obj
 0001:00013af5       ?GetConnectedNode@Node@@QAEPAV1@W4NavDirType@@@Z 10014af5 f   node.obj
 0001:00013b0a       ?GetParent@Node@@QAEPAV1@XZ 10014b0a f   node.obj
 0001:00013b19       ?MarkAsVisited@Node@@QAEXW4NavDirType@@@Z 10014b19 f   node.obj
 0001:00013b3c       ?HasVisited@Node@@QAE_NW4NavDirType@@@Z 10014b3c f   node.obj
 0001:00013b60       ?SetStatus@Node@@QAEXPAV1@MM@Z 10014b60 f   node.obj
 0001:00013b8e       ?IsOpened@Node@@QAE_NXZ    10014b8e f   node.obj
 0001:00013b9d       ?SetOpened@Node@@QAEX_N@Z  10014b9d f   node.obj
 0001:00013bb1       ?IsDisabled@Node@@QAE_NXZ  10014bb1 f   node.obj
 0001:00013bc0       ?SetDisabled@Node@@QAEX_N@Z 10014bc0 f   node.obj
 0001:00013bd4       ?IsClosed@Node@@QAE_NXZ    10014bd4 f   node.obj
 0001:00013be3       ?SetClosed@Node@@QAEX_N@Z  10014be3 f   node.obj
 0001:00013bf7       ?GetAStarParent@Node@@QAEPAV1@XZ 10014bf7 f   node.obj
 0001:00013c06       ?GetScoreF@Node@@QAEMXZ    10014c06 f   node.obj
 0001:00013c15       ?GetScoreG@Node@@QAEMXZ    10014c15 f   node.obj
 0001:00013c24       ?GetID@Node@@QAEHXZ        10014c24 f   node.obj
 0001:00013c33       ?SetID@Node@@QAEXH@Z       10014c33 f   node.obj
 0001:00013c47       ?SetNormal@Node@@QAEXABVVector@@@Z 10014c47 f   node.obj
 0001:00013c60       ?SetPosition@Node@@QAEXABVVector@@@Z 10014c60 f   node.obj
 0001:00013c76       ?GetBorder@Node@@QBEPAUBorder@@XZ 10014c76 f   node.obj
 0001:00013c85       ?SetBorder@Node@@QAEXPAUBorder@@@Z 10014c85 f   node.obj
 0001:00013c99       ?GetNext@Node@@QBEPAV1@XZ  10014c99 f   node.obj
 0001:00013ca8       ?SetNext@Node@@QAEXPAV1@@Z 10014ca8 f   node.obj
 0001:00013cbc       ?SetPrev@Node@@QAEXPAV1@@Z 10014cbc f   node.obj
 0001:00013cd0       _cosf                      10014cd0 f i mathlib:mathlib_base.obj
 0001:00013ce0       ?SinCos@@YAXMPAM0@Z        10014ce0 f i mathlib:mathlib_base.obj
 0001:00013d00       ?_sqrtf@@YAMM@Z            10014d00 f   mathlib:mathlib_base.obj
 0001:00013d10       ?_rsqrtf@@YAMM@Z           10014d10 f   mathlib:mathlib_base.obj
 0001:00013d20       ?_VectorNormalize@@YIMAAVVector@@@Z 10014d20 f   mathlib:mathlib_base.obj
 0001:00013d60       ?_VectorNormalizeFast@@YIXAAVVector@@@Z 10014d60 f   mathlib:mathlib_base.obj
 0001:00013da0       ?_InvRSquared@@YAMPBM@Z    10014da0 f   mathlib:mathlib_base.obj
 0001:00013dd0       _CreateInterface           10014dd0 f   tier1:interface.obj
 0001:00013e40       ?Sys_GetFactory@@YAP6APAXPBDPAH@Z0@Z 10014e40 f   tier1:interface.obj
 0001:00013e60       ?FindConversion@CUtlCStringConversion@@UAEDPBDPAH@Z 10014e60 f   tier1:utlbuffer.obj
 0001:00013e80       ??0CUtlCharConversion@@QAE@DPBDHPAUConversionArray_t@0@@Z 10014e80 f   tier1:utlbuffer.obj
 0001:00013f30       ?FindConversion@CUtlCharConversion@@UAEDPBDPAH@Z 10014f30 f   tier1:utlbuffer.obj
 0001:00013fb0       ?GetOverflow@CUtlBuffer@@IAE_NH@Z 10014fb0 f   tier1:utlbuffer.obj
 0001:00013fc0       ?FindConversion@CUtlNoEscConversion@@UAEDPBDPAH@Z 10014fc0 f i tier1:utlbuffer.obj
 0001:00013fd0       ?CheckGet@CUtlBuffer@@IAE_NH@Z 10014fd0 f   tier1:utlbuffer.obj
 0001:00014030       ?CheckArbitraryPeekGet@CUtlBuffer@@IAE_NHAAH@Z 10015030 f   tier1:utlbuffer.obj
 0001:000140a0       ?CheckPut@CUtlBuffer@@IAE_NH@Z 100150a0 f   tier1:utlbuffer.obj
 0001:000140f0       ?AddNullTermination@CUtlBuffer@@IAEXXZ 100150f0 f   tier1:utlbuffer.obj
 0001:00014140       ?ConvertToGrowableMemory@?$CUtlMemory@EH@@QAEXH@Z 10015140 f i tier1:utlbuffer.obj
 0001:00014190       ?Grow@?$CUtlMemory@EH@@QAEXH@Z 10015190 f i tier1:utlbuffer.obj
 0001:00014240       ?EnsureCapacity@CUtlBuffer@@QAEXH@Z 10015240 f   tier1:utlbuffer.obj
 0001:000142a0       ?Get@CUtlBuffer@@QAEXPAXH@Z 100152a0 f   tier1:utlbuffer.obj
 0001:000142e0       ?EatWhiteSpace@CUtlBuffer@@QAEXXZ 100152e0 f   tier1:utlbuffer.obj
 0001:00014350       ?PeekWhiteSpace@CUtlBuffer@@IAEHH@Z 10015350 f   tier1:utlbuffer.obj
 0001:000143f0       ?PeekStringLength@CUtlBuffer@@QAEHXZ 100153f0 f   tier1:utlbuffer.obj
 0001:00014550       ?Put@CUtlBuffer@@QAEXPBXH@Z 10015550 f   tier1:utlbuffer.obj
 0001:000145c0       ?PutOverflow@CUtlBuffer@@IAE_NH@Z 100155c0 f   tier1:utlbuffer.obj
 0001:00014610       ?SeekPut@CUtlBuffer@@QAEXW4SeekType_t@1@H@Z 10015610 f   tier1:utlbuffer.obj
 0001:00014690       ??$PutTypeBin@D@CUtlBuffer@@IAEXD@Z 10015690 f i tier1:utlbuffer.obj
 0001:00014730       ?PutTabs@CUtlBuffer@@IAEXXZ 10015730 f i tier1:utlbuffer.obj
 0001:00014770       ??0CUtlBuffer@@QAE@HHH@Z   10015770 f   tier1:utlbuffer.obj
 0001:000147f0       ?PutString@CUtlBuffer@@QAEXPBD@Z 100157f0 f   tier1:utlbuffer.obj
 0001:000148f0       ?Printf@CUtlBuffer@@QAAXPBDZZ 100158f0 f   tier1:utlbuffer.obj
 0001:00014930       ?GetChar@CUtlBuffer@@QAEDXZ 10015930 f i tier1:utlbuffer.obj
 0001:00014980       ?GetString@CUtlBuffer@@QAEXPADH@Z 10015980 f   tier1:utlbuffer.obj
 0001:00014a40       ?VaScanf@CUtlBuffer@@QAEHPBDPAD@Z 10015a40 f   tier1:utlbuffer.obj
 0001:00014d60       ?Scanf@CUtlBuffer@@QAAHPBDZZ 10015d60 f   tier1:utlbuffer.obj
 0001:00014d80       ?V_snprintf@@YAHPADHPBDZZ  10015d80 f   tier1:strtools.obj
 0001:00014dd0       ?V_vsnprintf@@YAHPADHPBD0@Z 10015dd0 f   tier1:strtools.obj
 0001:00014e12       @__security_check_cookie@4 10015e12 f   LIBCMT:secchk.obj
 0001:00014e30       _memmove                   10015e30 f   LIBCMT:memmove.obj
 0001:00015474       __vsnprintf_helper         10016474 f   LIBCMT:vsnprnc.obj
 0001:0001553c       __vsprintf_s_l             1001653c f   LIBCMT:vsnprnc.obj
 0001:000155b1       _vsprintf_s                100165b1 f   LIBCMT:vsnprnc.obj
 0001:000155cc       ??3@YAXPAX@Z               100165cc f   LIBCMT:delete.obj
 0001:000155d1       ??2@YAPAXI@Z               100165d1 f   LIBCMT:new.obj
 0001:00015620       ___onexitinit              10016620 f   LIBCMT:onexit.obj
 0001:0001564f       __onexit                   1001664f f   LIBCMT:onexit.obj
 0001:00015745       _atexit                    10016745 f   LIBCMT:onexit.obj
 0001:0001575a       __purecall                 1001675a f   LIBCMT:purevirt.obj
 0001:00015784       ??1type_info@@UAE@XZ       10016784 f   LIBCMT:typinfo.obj
 0001:00015792       ??8type_info@@QBE_NABV0@@Z 10016792 f   LIBCMT:typinfo.obj
 0001:000157b0       ??_Gtype_info@@UAEPAXI@Z   100167b0 f i LIBCMT:typinfo.obj
 0001:000157b0       ??_Etype_info@@UAEPAXI@Z   100167b0 f i LIBCMT:typinfo.obj
 0001:000157cf       ??0exception@std@@QAE@ABQBD@Z 100167cf f   LIBCMT:stdexcpt.obj
 0001:000157f4       ??0exception@std@@QAE@ABQBDH@Z 100167f4 f   LIBCMT:stdexcpt.obj
 0001:0001580f       ??0exception@std@@QAE@ABV01@@Z 1001680f f   LIBCMT:stdexcpt.obj
 0001:00015832       ??1exception@std@@UAE@XZ   10016832 f   LIBCMT:stdexcpt.obj
 0001:0001583d       ??4exception@std@@QAEAAV01@ABV01@@Z 1001683d f   LIBCMT:stdexcpt.obj
 0001:00015870       ??_Eexception@std@@UAEPAXI@Z 10016870 f i LIBCMT:stdexcpt.obj
 0001:00015870       ??_Gexception@std@@UAEPAXI@Z 10016870 f i LIBCMT:stdexcpt.obj
 0001:00015895       ?_Copy_str@exception@std@@AAEXPBD@Z 10016895 f   LIBCMT:stdexcpt.obj
 0001:000158d3       ?_Tidy@exception@std@@AAEXXZ 100168d3 f   LIBCMT:stdexcpt.obj
 0001:000158ef       ?what@exception@std@@UBEPBDXZ 100168ef f   LIBCMT:stdexcpt.obj
 0001:000158fc       __gmtime64                 100168fc f   LIBCMT:gmtime64.obj
 0001:00015921       __gmtime64_s               10016921 f   LIBCMT:gmtime64.obj
 0001:00015b4a       __difftime64               10016b4a f   LIBCMT:difftm64.obj
 0001:00015b91       __time64                   10016b91 f   LIBCMT:time64.obj
 0001:00015be0       __fsopen                   10016be0 f   LIBCMT:fopen.obj
 0001:00015ca4       _fopen                     10016ca4 f   LIBCMT:fopen.obj
 0001:00015cb9       __fread_nolock_s           10016cb9 f   LIBCMT:fread.obj
 0001:00015e7c       _fread                     10016e7c f   LIBCMT:fread.obj
 0001:00015e97       _fread_s                   10016e97 f   LIBCMT:fread.obj
 0001:00015f28       __ftell_nolock             10016f28 f   LIBCMT:ftell.obj
 0001:00016281       _ftell                     10017281 f   LIBCMT:ftell.obj
 0001:000162e9       __fseek_nolock             100172e9 f   LIBCMT:fseek.obj
 0001:00016378       _fseek                     10017378 f   LIBCMT:fseek.obj
 0001:000163f7       __fclose_nolock            100173f7 f   LIBCMT:fclose.obj
 0001:00016463       _fclose                    10017463 f   LIBCMT:fclose.obj
 0001:000164da       __CRT_INIT@12              100174da f   LIBCMT:dllcrt0.obj
 0001:0001664c       __DllMainCRTStartup@12     1001764c f   LIBCMT:dllcrt0.obj
 0001:0001677d       ___DllXcptFilter           1001777d f   LIBCMT:dllcrt0.obj
 0001:000167a2       __fpmath                   100177a2 f   LIBCMT:fpinit.obj
 0001:000167b9       __cfltcvt_init             100177b9 f   LIBCMT:fpinit.obj
 0001:00016820       _acos                      10017820 f   LIBCMT:acos.obj
 0001:00016860       __CIacos                   10017860 f   LIBCMT:acos.obj
 0001:0001689b       __CIacos_default           1001789b f   LIBCMT:acos.obj
 0001:000168af       __acos_default             100178af     LIBCMT:acos.obj
 0001:00016970       _asin                      10017970 f   LIBCMT:asin.obj
 0001:000169b0       __CIasin                   100179b0 f   LIBCMT:asin.obj
 0001:000169eb       __CIasin_default           100179eb f   LIBCMT:asin.obj
 0001:000169ff       __asin_default             100179ff     LIBCMT:asin.obj
 0001:00016ac0       _fmod                      10017ac0 f   LIBCMT:87fmod.obj
 0001:00016aca       __CIfmod                   10017aca f   LIBCMT:87fmod.obj
 0001:00016af0       _pow                       10017af0 f   LIBCMT:pow.obj
 0001:00016b30       __CIpow                    10017b30 f   LIBCMT:pow.obj
 0001:00016b6b       __CIpow_default            10017b6b f   LIBCMT:pow.obj
 0001:00016b84       __pow_default              10017b84     LIBCMT:pow.obj
 0001:00016d80       __ftol2_sse                10017d80 f   LIBCMT:ftol2.obj
 0001:00016d89       __ftol2_pentium4           10017d89 f   LIBCMT:ftol2.obj
 0001:00016d9c       __ftol2_sse_excpt          10017d9c f   LIBCMT:ftol2.obj
 0001:00016db6       __ftol2                    10017db6 f   LIBCMT:ftol2.obj
 0001:00016e30       _floor                     10017e30 f   LIBCMT:floor_pentium4.obj
 0001:00016e70       __floor_pentium4           10017e70 f   LIBCMT:floor_pentium4.obj
 0001:00016f60       _memset                    10017f60 f   LIBCMT:memset.obj
 0001:00016ff0       __alloca_probe_16          10017ff0 f   LIBCMT:alloca16.obj
 0001:00017006       __alloca_probe_8           10018006     LIBCMT:alloca16.obj
 0001:00017020       _strstr                    10018020 f   LIBCMT:strstr.obj
 0001:00017290       _memcpy                    10018290 f   LIBCMT:memcpy.obj
 0001:000178d4       ??0_LocaleUpdate@@QAE@PAUlocaleinfo_struct@@@Z 100188d4 f i LIBCMT:_ctype.obj
 0001:0001795c       __isdigit_l                1001895c f i LIBCMT:_ctype.obj
 0001:000179ac       __isspace_l                100189ac f i LIBCMT:_ctype.obj
 0001:000179fc       _isdigit                   100189fc f i LIBCMT:_ctype.obj
 0001:00017a27       _isspace                   10018a27 f i LIBCMT:_ctype.obj
 0001:00017a60       _strchr                    10018a60 f   LIBCMT:strchr.obj
 0001:00017ace       ___from_strstr_to_strchr   10018ace     LIBCMT:strchr.obj
 0001:00017b8b       __strtod_l                 10018b8b f   LIBCMT:strtod.obj
 0001:00017ca0       _strtod                    10018ca0 f   LIBCMT:strtod.obj
 0001:00017ed9       _strtol                    10018ed9 f   LIBCMT:strtol.obj
 0001:00017f03       _strtoul                   10018f03 f   LIBCMT:strtol.obj
 0001:00017f2d       __tolower_l                10018f2d f   LIBCMT:tolower.obj
 0001:0001806e       _tolower                   1001906e f   LIBCMT:tolower.obj
 0001:000180a0       _strncat                   100190a0 f   LIBCMT:strncat.obj
 0001:000181e0       _strncpy                   100191e0 f   LIBCMT:strncpy.obj
 0001:00018304       __vsnprintf                10019304 f   LIBCMT:vsnprint.obj
 0001:0001831f       __vsnprintf_l              1001931f f   LIBCMT:vsnprint.obj
 0001:000183d0       __allrem                   100193d0 f   LIBCMT:llrem.obj
 0001:00018490       __alldiv                   10019490 f   LIBCMT:lldiv.obj
 0001:0001853a       ___raise_securityfailure   1001953a f   LIBCMT:gs_report.obj
 0001:00018577       ___report_gsfailure        10019577 f   LIBCMT:gs_report.obj
 0001:00018670       ___isa_available_init      10019670 f   LIBCMT:cpu_disp.obj
 0001:000187a9       __call_reportfault         100197a9 f   LIBCMT:invarg.obj
 0001:000188cc       __initp_misc_invarg        100198cc f   LIBCMT:invarg.obj
 0001:000188d9       __invalid_parameter        100198d9 f   LIBCMT:invarg.obj
 0001:00018904       __invalid_parameter_noinfo 10019904 f   LIBCMT:invarg.obj
 0001:00018914       __invoke_watson            10019914 f   LIBCMT:invarg.obj
 0001:0001893f       __flsbuf                   1001993f f   LIBCMT:_flsbuf.obj
 0001:00018a8c       __output_l                 10019a8c f   LIBCMT:output.obj
 0001:0001968c       __output_s_l               1001a68c f   LIBCMT:outputs.obj
 0001:0001a266       ___doserrno                1001b266 f   LIBCMT:dosmap.obj
 0001:0001a279       __dosmaperr                1001b279 f   LIBCMT:dosmap.obj
 0001:0001a29a       __errno                    1001b29a f   LIBCMT:dosmap.obj
 0001:0001a2ad       __get_errno_from_oserr     1001b2ad f   LIBCMT:dosmap.obj
 0001:0001a2ee       _free                      1001b2ee f   LIBCMT:free.obj
 0001:0001a326       _malloc                    1001b326 f   LIBCMT:malloc.obj
 0001:0001a3b8       __callnewh                 1001b3b8 f   LIBCMT:handler.obj
 0001:0001a3de       __initp_heap_handler       1001b3de f   LIBCMT:handler.obj
 0001:0001a3eb       __CxxThrowException@8      1001b3eb f   LIBCMT:throw.obj
 0001:0001a446       ___copy_path_to_wide_string 1001b446 f   LIBCMT:crt0dat.obj
 0001:0001a4f6       ___crtCorExitProcess       1001b4f6 f   LIBCMT:crt0dat.obj
 0001:0001a528       ___crtExitProcess          1001b528 f   LIBCMT:crt0dat.obj
 0001:0001a53e       ___freeCrtMemory           1001b53e f   LIBCMT:crt0dat.obj
 0001:0001a64e       __amsg_exit                1001b64e f   LIBCMT:crt0dat.obj
 0001:0001a66a       __cexit                    1001b66a f   LIBCMT:crt0dat.obj
 0001:0001a679       __cinit                    1001b679 f   LIBCMT:crt0dat.obj
 0001:0001a70a       __exit                     1001b70a f   LIBCMT:crt0dat.obj
 0001:0001a71e       __init_pointers            1001b71e f   LIBCMT:crt0dat.obj
 0001:0001a772       __initterm_e               1001b772 f   LIBCMT:crt0dat.obj
 0001:0001a794       __lockexit                 1001b794 f   LIBCMT:crt0dat.obj
 0001:0001a79d       __unlockexit               1001b79d f   LIBCMT:crt0dat.obj
 0001:0001a8d5       __msize                    1001b8d5 f   LIBCMT:msize.obj
 0001:0001a906       __calloc_crt               1001b906 f   LIBCMT:crtheap.obj
 0001:0001a950       __malloc_crt               1001b950 f   LIBCMT:crtheap.obj
 0001:0001a999       __realloc_crt              1001b999 f   LIBCMT:crtheap.obj
 0001:0001a9f0       __SEH_prolog4              1001b9f0 f   LIBCMT:sehprolg4.obj
 0001:0001aa35       __SEH_epilog4              1001ba35 f   LIBCMT:sehprolg4.obj
 0001:0001aa50       __except_handler4          1001ba50 f   LIBCMT:chandler4.obj
 0001:0001abe5       __FF_MSGBANNER             1001bbe5 f   LIBCMT:crt0msg.obj
 0001:0001ac1e       __GET_RTERRMSG             1001bc1e f   LIBCMT:crt0msg.obj
 0001:0001ac42       __NMSG_WRITE               1001bc42 f   LIBCMT:crt0msg.obj
 0001:0001adfd       __set_abort_behavior       1001bdfd f   LIBCMT:abort.obj
 0001:0001ae1c       _abort                     1001be1c f   LIBCMT:abort.obj
 0001:0001ae5f       __initp_misc_purevirt      1001be5f f   LIBCMT:inithelp.obj
 0001:0001ae70       _strcmp                    1001be70 f   LIBCMT:strcmp.obj
 0001:0001aefc       ?_Type_info_dtor@type_info@@CAXPAV1@@Z 1001befc f   LIBCMT:typname.obj
 0001:0001af6d       _strcpy_s                  1001bf6d f   LIBCMT:strcpy_s.obj
 0001:0001afd0       _strlen                    1001bfd0 f   LIBCMT:strlen.obj
 0001:0001b05b       ___getgmtimebuf            1001c05b f   LIBCMT:gmtime.obj
 0001:0001b090       __allmul                   1001c090 f   LIBCMT:llmul.obj
 0001:0001b0d0       __aulldiv                  1001c0d0 f   LIBCMT:ulldiv.obj
 0001:0001b138       ___initstdio               1001c138 f   LIBCMT:_file.obj
 0001:0001b1ab       ___endstdio                1001c1ab f   LIBCMT:_file.obj
 0001:0001b1d2       ___iob_func                1001c1d2 f   LIBCMT:_file.obj
 0001:0001b1d8       __lock_file                1001c1d8 f   LIBCMT:_file.obj
 0001:0001b217       __lock_file2               1001c217 f   LIBCMT:_file.obj
 0001:0001b247       __unlock_file              1001c247 f   LIBCMT:_file.obj
 0001:0001b281       __unlock_file2             1001c281 f   LIBCMT:_file.obj
 0001:0001b2ae       __getstream                1001c2ae f   LIBCMT:stream.obj
 0001:0001b3c6       __openfile                 1001c3c6 f   LIBCMT:_open.obj
 0001:0001b640       __local_unwind4            1001c640 f   LIBCMT:exsup4.obj
 0001:0001b716       __seh_longjmp_unwind4@4    1001c716 f   LIBCMT:exsup4.obj
 0001:0001b732       @_EH4_CallFilterFunc@8     1001c732 f   LIBCMT:exsup4.obj
 0001:0001b749       @_EH4_TransferToHandler@8  1001c749 f   LIBCMT:exsup4.obj
 0001:0001b762       @_EH4_GlobalUnwind2@8      1001c762 f   LIBCMT:exsup4.obj
 0001:0001b77b       @_EH4_LocalUnwind@16       1001c77b f   LIBCMT:exsup4.obj
 0001:0001b792       __filbuf                   1001c792 f   LIBCMT:_filbuf.obj
 0001:0001b8b3       __fileno                   1001c8b3 f   LIBCMT:fileno.obj
 0001:0001b8d7       _memcpy_s                  1001c8d7 f   LIBCMT:memcpy_s.obj
 0001:0001b956       __read                     1001c956 f   LIBCMT:read.obj
 0001:0001ba5e       __read_nolock              1001ca5e f   LIBCMT:read.obj
 0001:0001c1ed       __lseek                    1001d1ed f   LIBCMT:lseek.obj
 0001:0001c2cf       __lseek_nolock             1001d2cf f   LIBCMT:lseek.obj
 0001:0001c341       __lseeki64                 1001d341 f   LIBCMT:lseeki64.obj
 0001:0001c43d       __lseeki64_nolock          1001d43d f   LIBCMT:lseeki64.obj
 0001:0001c4b0       __alloca_probe             1001d4b0     LIBCMT:chkstk.obj
 0001:0001c4b0       __chkstk                   1001d4b0 f   LIBCMT:chkstk.obj
 0001:0001c4db       __ioinit                   1001d4db f   LIBCMT:ioinit.obj
 0001:0001c789       __ioterm                   1001d789 f   LIBCMT:ioinit.obj
 0001:0001c7db       __fflush_nolock            1001d7db f   LIBCMT:fflush.obj
 0001:0001c821       __flush                    1001d821 f   LIBCMT:fflush.obj
 0001:0001c885       __flushall                 1001d885 f   LIBCMT:fflush.obj
 0001:0001c972       __close                    1001d972 f   LIBCMT:close.obj
 0001:0001ca3c       __close_nolock             1001da3c f   LIBCMT:close.obj
 0001:0001cad6       __freebuf                  1001dad6 f   LIBCMT:_freebuf.obj
 0001:0001cb06       __XcptFilter               1001db06 f   LIBCMT:winxfltr.obj
 0001:0001cc61       ___CppXcptFilter           1001dc61 f   LIBCMT:winxfltr.obj
 0001:0001cc7f       ___get_flsindex            1001dc7f f   LIBCMT:tidtable.obj
 0001:0001cc85       __freefls@4                1001dc85 f   LIBCMT:tidtable.obj
 0001:0001cdbc       __freeptd                  1001ddbc f   LIBCMT:tidtable.obj
 0001:0001cdf2       __getptd                   1001ddf2 f   LIBCMT:tidtable.obj
 0001:0001ce0a       __getptd_noexit            1001de0a f   LIBCMT:tidtable.obj
 0001:0001ce79       __initptd                  1001de79 f   LIBCMT:tidtable.obj
 0001:0001cf2c       __mtinit                   1001df2c f   LIBCMT:tidtable.obj
 0001:0001cfa2       __mtterm                   1001dfa2 f   LIBCMT:tidtable.obj
 0001:0001cfbf       __heap_init                1001dfbf f   LIBCMT:heapinit.obj
 0001:0001cfd4       __heap_term                1001dfd4 f   LIBCMT:heapinit.obj
 0001:0001cfdc       __setargv                  1001dfdc f   LIBCMT:stdargv.obj
 0001:0001d209       __setenvp                  1001e209 f   LIBCMT:stdenvp.obj
 0001:0001d2ea       ___security_init_cookie    1001e2ea f   LIBCMT:gs_support.obj
 0001:0001d384       _DllMain@12                1001e384 f   LIBCMT:dllmain.obj
 0001:0001d38a       ___crtGetEnvironmentStringsA 1001e38a f   LIBCMT:a_env.obj
 0001:0001d415       ___crtFlsAlloc             1001e415 f   LIBCMT:winapisupp.obj
 0001:0001d433       ___crtFlsFree              1001e433 f   LIBCMT:winapisupp.obj
 0001:0001d452       ___crtFlsGetValue          1001e452 f   LIBCMT:winapisupp.obj
 0001:0001d471       ___crtFlsSetValue          1001e471 f   LIBCMT:winapisupp.obj
 0001:0001d493       ___crtIsPackagedApp        1001e493 f   LIBCMT:winapisupp.obj
 0001:0001d4d1       ___crtLoadWinApiPointers   1001e4d1 f   LIBCMT:winapisupp.obj
 0001:0001d710       ___crtTerminateProcess     1001e710 f   LIBCMT:winapisupp.obj
 0001:0001d725       ___crtUnhandledException   1001e725 f   LIBCMT:winapisupp.obj
 0001:0001d73b       __RTC_Initialize           1001e73b f   LIBCMT:initsect.obj
 0001:0001d75b       __RTC_Terminate            1001e75b f   LIBCMT:initsect.obj
 0001:0001d77b       __cfltcvt                  1001e77b f   LIBCMT:cvt.obj
 0001:0001d79c       __cfltcvt_l                1001e79c f   LIBCMT:cvt.obj
 0001:0001d822       __cftoa_l                  1001e822 f   LIBCMT:cvt.obj
 0001:0001db7c       __cftoe                    1001eb7c f   LIBCMT:cvt.obj
 0001:0001dce9       __cftoe_l                  1001ece9 f   LIBCMT:cvt.obj
 0001:0001de9f       __cftof_l                  1001ee9f f   LIBCMT:cvt.obj
 0001:0001df5e       __cftog_l                  1001ef5e f   LIBCMT:cvt.obj
 0001:0001e05b       __cropzeros                1001f05b f   LIBCMT:cvt.obj
 0001:0001e06c       __cropzeros_l              1001f06c f   LIBCMT:cvt.obj
 0001:0001e0ea       __fassign                  1001f0ea f   LIBCMT:cvt.obj
 0001:0001e102       __fassign_l                1001f102 f   LIBCMT:cvt.obj
 0001:0001e142       __forcdecpt                1001f142 f   LIBCMT:cvt.obj
 0001:0001e153       __forcdecpt_l              1001f153 f   LIBCMT:cvt.obj
 0001:0001e1c5       __positive                 1001f1c5 f   LIBCMT:cvt.obj
 0001:0001e207       __setdefaultprecision      1001f207 f   LIBCMT:fp8.obj
 0001:0001e22e       __initp_misc_cfltcvt_tab   1001f22e f   LIBCMT:cmiscdat.obj
 0001:0001e24d       __sse2_mathfcns_init       1001f24d f   LIBCMT:mathfcns.obj
 0001:0001e260       __CIacos_pentium4          1001f260 f   LIBCMT:acos_pentium4.obj
 0001:0001e278       __acos_pentium4            1001f278     LIBCMT:acos_pentium4.obj
 0001:0001e7c0       __trandisp1                1001f7c0 f   LIBCMT:87disp.obj
 0001:0001e827       __trandisp2                1001f827 f   LIBCMT:87disp.obj
 0001:0001e8b3       __rttospopde               1001f8b3     LIBCMT:87disp.obj
 0001:0001e8b8       __rttospop                 1001f8b8     LIBCMT:87disp.obj
 0001:0001e8ba       __rtnospop                 1001f8ba     LIBCMT:87disp.obj
 0001:0001e8bc       __rttosnpop                1001f8bc     LIBCMT:87disp.obj
 0001:0001e8bd       __rtnospopde               1001f8bd     LIBCMT:87disp.obj
 0001:0001e8c4       __rtzeropop                1001f8c4     LIBCMT:87disp.obj
 0001:0001e8c6       __rtzeronpop               1001f8c6     LIBCMT:87disp.obj
 0001:0001e8cb       __rtonepop                 1001f8cb     LIBCMT:87disp.obj
 0001:0001e8cd       __rtonenpop                1001f8cd     LIBCMT:87disp.obj
 0001:0001e8d2       __tosnan1                  1001f8d2     LIBCMT:87disp.obj
 0001:0001e8fd       __nosnan2                  1001f8fd     LIBCMT:87disp.obj
 0001:0001e8ff       __tosnan2                  1001f8ff     LIBCMT:87disp.obj
 0001:0001e927       __nan2                     1001f927     LIBCMT:87disp.obj
 0001:0001e966       __rtindfpop                1001f966     LIBCMT:87disp.obj
 0001:0001e968       __rtindfnpop               1001f968     LIBCMT:87disp.obj
 0001:0001e979       __rttosnpopde              1001f979     LIBCMT:87disp.obj
 0001:0001e983       __rtchsifneg               1001f983     LIBCMT:87disp.obj
 0001:0001e990       __startTwoArgErrorHandling 1001f990 f   LIBCMT:genexcep.obj
 0001:0001e9a7       __startOneArgErrorHandling 1001f9a7 f   LIBCMT:genexcep.obj
 0001:0001e9f0       __twoToTOS                 1001f9f0 f   LIBCMT:common.obj
 0001:0001ea05       __load_CW                  1001fa05 f   LIBCMT:common.obj
 0001:0001ea1c       __convertTOStoQNaN         1001fa1c f   LIBCMT:common.obj
 0001:0001ea35       __fload_withFB             1001fa35 f   LIBCMT:common.obj
 0001:0001ea78       __checkTOS_withFB          1001fa78 f   LIBCMT:common.obj
 0001:0001ea8e       __fast_exit                1001fa8e f   LIBCMT:common.obj
 0001:0001ea9b       __math_exit                1001fa9b f   LIBCMT:common.obj
 0001:0001eac5       __check_overflow_exit      1001fac5 f   LIBCMT:common.obj
 0001:0001ead9       __check_range_exit         1001fad9 f   LIBCMT:common.obj
 0001:0001eb80       __CIasin_pentium4          1001fb80 f   LIBCMT:asin_pentium4.obj
 0001:0001eb98       __asin_pentium4            1001fb98     LIBCMT:asin_pentium4.obj
 0001:0001f100       __cintrindisp2             10020100 f   LIBCMT:87cdisp.obj
 0001:0001f13e       __cintrindisp1             1002013e f   LIBCMT:87cdisp.obj
 0001:0001f17b       __ctrandisp2               1002017b f   LIBCMT:87cdisp.obj
 0001:0001f30a       __ctrandisp1               1002030a f   LIBCMT:87cdisp.obj
 0001:0001f33d       __fload                    1002033d f   LIBCMT:87cdisp.obj
 0001:0001f380       __CIpow_pentium4           10020380 f   LIBCMT:pow_pentium4.obj
 0001:0001f399       __pow_pentium4             10020399     LIBCMT:pow_pentium4.obj
 0001:0001fef1       __fFEXP                    10020ef1     LIBCMT:87tran.obj
 0001:0001ff48       __rtinfpopse               10020f48     LIBCMT:87tran.obj
 0001:0001ff4a       __rtinfnpopse              10020f4a     LIBCMT:87tran.obj
 0001:0001ff5a       __fFLN                     10020f5a     LIBCMT:87tran.obj
 0001:0002000f       __rtinfpop                 1002100f     LIBCMT:87tran.obj
 0001:00020011       __rtinfnpop                10021011     LIBCMT:87tran.obj
 0001:0002002e       __ffexpm1                  1002102e     LIBCMT:87tran.obj
 0001:000200d7       __d_inttype                100210d7 f   LIBCMT:powhlp.obj
 0001:0002013d       __powhlp                   1002113d f   LIBCMT:powhlp.obj
 0001:00020273       ___libm_error_support      10021273 f   LIBCMT:libm_error.obj
 0001:0002055b       __floor_default            1002155b f   LIBCMT:floor.obj
 0001:0002062e       __VEC_memset               1002162e f   LIBCMT:p4_memset.obj
 0001:000206f6       ___addlocaleref            100216f6 f   LIBCMT:localref.obj
 0001:00020786       ___freetlocinfo            10021786 f   LIBCMT:localref.obj
 0001:000208e0       ___removelocaleref         100218e0 f   LIBCMT:localref.obj
 0001:0002097b       ___updatetlocinfo          1002197b f   LIBCMT:localref.obj
 0001:000209f7       __updatetlocinfoEx_nolock  100219f7 f   LIBCMT:localref.obj
 0001:00020a42       ___initmbctable            10021a42 f   LIBCMT:mbctype.obj
 0001:00020cfd       ___updatetmbcinfo          10021cfd f   LIBCMT:mbctype.obj
 0001:00020da2       __setmbcp                  10021da2 f   LIBCMT:mbctype.obj
 0001:00020f50       __setmbcp_nolock           10021f50 f   LIBCMT:mbctype.obj
 0001:00021145       __isctype_l                10022145 f   LIBCMT:isctype.obj
 0001:000211f4       __locterm                  100221f4 f   LIBCMT:wsetloca.obj
 0001:00021246       __fltin2                   10022246 f   LIBCMT:cfin.obj
 0001:000212f0       __isleadbyte_l             100222f0 f i LIBCMT:_wctype.obj
 0001:00021326       _isleadbyte                10022326 f i LIBCMT:_wctype.obj
 0001:00021520       ___crtLCMapStringA         10022520 f   LIBCMT:a_map.obj
 0001:00021564       __freea                    10022564 f i LIBCMT:a_map.obj
 0001:00021582       __crt_debugger_hook        10022582 f   LIBCMT:dbghook.obj
 0001:0002158a       __isatty                   1002258a f   LIBCMT:isatty.obj
 0001:000215de       __write                    100225de f   LIBCMT:write.obj
 0001:000216c0       __write_nolock             100226c0 f   LIBCMT:write.obj
 0001:00021eea       __getbuf                   10022eea f   LIBCMT:_getbuf.obj
 0001:00021f30       __get_printf_count_output  10022f30 f   LIBCMT:printf.obj
 0001:00021f45       __wctomb_s_l               10022f45 f   LIBCMT:wctomb.obj
 0001:00022067       _wctomb_s                  10023067 f   LIBCMT:wctomb.obj
 0001:00022090       __aulldvrm                 10023090 f   LIBCMT:ulldvrm.obj
 0001:00022125       __lock                     10023125 f   LIBCMT:mlock.obj
 0001:00022159       __mtdeletelocks            10023159 f   LIBCMT:mlock.obj
 0001:000221ad       __mtinitlocknum            100231ad f   LIBCMT:mlock.obj
 0001:00022254       __mtinitlocks              10023254 f   LIBCMT:mlock.obj
 0001:00022289       __unlock                   10023289 f   LIBCMT:mlock.obj
 0001:000222a0       __FindPESection            100232a0 f   LIBCMT:pesect.obj
 0001:000222f0       __IsNonwritableInCurrentImage 100232f0 f   LIBCMT:pesect.obj
 0001:000223b0       __ValidateImageBase        100233b0 f   LIBCMT:pesect.obj
 0001:000223e1       ?_inconsistency@@YAXXZ     100233e1 f   LIBCMT:hooks.obj
 0001:00022419       ?terminate@@YAXXZ          10023419 f   LIBCMT:hooks.obj
 0001:0002244d       ?unexpected@@YAXXZ         1002344d f   LIBCMT:hooks.obj
 0001:00022460       __initp_eh_hooks           10023460 f   LIBCMT:hooks.obj
 0001:00022471       __initp_misc_rand_s        10023471 f   LIBCMT:rand_s.obj
 0001:0002247e       ___get_sigabrt             1002347e f   LIBCMT:winsig.obj
 0001:0002248b       __initp_misc_winsig        1002348b f   LIBCMT:winsig.obj
 0001:000224a7       _raise                     100234a7 f   LIBCMT:winsig.obj
 0001:00022698       _realloc                   10023698 f   LIBCMT:realloc.obj
 0001:00022743       __calloc_impl              10023743 f   LIBCMT:calloc_impl.obj
 0001:000227bd       _wcscat_s                  100237bd f   LIBCMT:wcscat_s.obj
 0001:00022829       _wcscpy_s                  10023829 f   LIBCMT:wcscpy_s.obj
 0001:00022885       _wcslen                    10023885 f   LIBCMT:wcslen.obj
 0001:0002289e       _wcsncpy_s                 1002389e f   LIBCMT:wcsncpy_s.obj
 0001:0002295c       __set_error_mode           1002395c f   LIBCMT:errmode.obj
 0001:0002299c       ___crtMessageBoxW          1002399c f   LIBCMT:crtmboxw.obj
 0001:00022b7e       _GetTableIndexFromLocaleName 10023b7e f   LIBCMT:winapinls.obj
 0001:00022bcc       ___crtDownlevelLocaleNameToLCID 10023bcc f   LIBCMT:winapinls.obj
 0001:00022bf6       ___crtLCMapStringEx        10023bf6 f   LIBCMT:winapinls.obj
 0001:00022c42       ___wcsnicmp_ascii          10023c42 f   LIBCMT:winapinls.obj
 0001:00022cb0       __fcloseall                10023cb0 f   LIBCMT:closeall.obj
 0001:00022d4d       __sopen_helper             10023d4d f   LIBCMT:open.obj
 0001:00022e14       __sopen_nolock             10023e14 f   LIBCMT:open.obj
 0001:00022e60       __sopen_s                  10023e60 f   LIBCMT:open.obj
 0001:00022e7e       __mbsnbcmp                 10023e7e f   LIBCMT:mbsnbcmp.obj
 0001:00022e96       __mbsnbcmp_l               10023e96 f   LIBCMT:mbsnbcmp.obj
 0001:00022fab       __mbsnbicmp                10023fab f   LIBCMT:mbsnbicm.obj
 0001:00022fc3       __mbsnbicmp_l              10023fc3 f   LIBCMT:mbsnbicm.obj
 0001:00023180       __global_unwind2           10024180 f   LIBCMT:exsup.obj
 0001:000231e5       __local_unwind2            100241e5 f   LIBCMT:exsup.obj
 0001:00023269       __abnormal_termination     10024269 f   LIBCMT:exsup.obj
 0001:0002328c       __NLG_Notify1              1002428c f   LIBCMT:exsup.obj
 0001:00023295       __NLG_Notify               10024295 f   LIBCMT:exsup.obj
 0001:000232ac       __NLG_Dispatch2            100242ac     LIBCMT:exsup.obj
 0001:000232ac       __NLG_Dispatch             100242ac     LIBCMT:exsup.obj
 0001:000232b4       __NLG_Call                 100242b4 f   LIBCMT:exsup.obj
 0001:000232b6       __NLG_Return2              100242b6     LIBCMT:exsup.obj
 0001:000232b7       ___lock_fhandle            100242b7 f   LIBCMT:osfinfo.obj
 0001:00023343       __alloc_osfhnd             10024343 f   LIBCMT:osfinfo.obj
 0001:000234e8       __free_osfhnd              100244e8 f   LIBCMT:osfinfo.obj
 0001:0002356e       __get_osfhandle            1002456e f   LIBCMT:osfinfo.obj
 0001:000235d5       __set_osfhnd               100245d5 f   LIBCMT:osfinfo.obj
 0001:00023657       __unlock_fhandle           10024657 f   LIBCMT:osfinfo.obj
 0001:0002367d       __commit                   1002467d f   LIBCMT:commit.obj
 0001:000237b9       __ismbblead                100247b9 f   LIBCMT:ismbbyte.obj
 0001:000237d0       _strrchr                   100247d0 f   LIBCMT:strrchr.obj
 0001:00023907       __fptostr                  10024907 f   LIBCMT:_fptostr.obj
 0001:000239b7       __atodbl_l                 100249b7 f   LIBCMT:atodbl.obj
 0001:00023a43       __atoflt_l                 10024a43 f   LIBCMT:atodbl.obj
 0001:00023acf       ___dtold                   10024acf f   LIBCMT:cfout.obj
 0001:00023b95       __fltout2                  10024b95 f   LIBCMT:cfout.obj
 0001:00023c30       __alldvrm                  10024c30 f   LIBCMT:lldvrm.obj
 0001:00023d10       __aullshr                  10024d10 f   LIBCMT:ullshr.obj
 0001:00023d2f       __controlfp_s              10024d2f f   LIBCMT:contrlfp.obj
 0001:00023d8c       __fptrap                   10024d8c f   LIBCMT:crt0fp.obj
 0001:00023d95       __87except                 10024d95 f   LIBCMT:87except.obj
 0001:00023e9e       __frnd                     10024e9e f   LIBCMT:frnd.obj
 0001:00023eb0       __fpclass                  10024eb0 f   LIBCMT:ieeemisc.obj
 0001:00023f4c       __decomp                   10024f4c f   LIBCMT:util.obj
 0001:0002401e       __set_exp                  1002501e f   LIBCMT:util.obj
 0001:00024049       __sptype                   10025049 f   LIBCMT:util.obj
 0001:000240a5       __matherr                  100250a5 f   LIBCMT:matherr.obj
 0001:000240a8       __errcode                  100250a8 f   LIBCMT:fpexcept.obj
 0001:000240da       __except1                  100250da f   LIBCMT:fpexcept.obj
 0001:000241a2       __handle_exc               100251a2 f   LIBCMT:fpexcept.obj
 0001:0002437e       __handle_qnan1             1002537e f   LIBCMT:fpexcept.obj
 0001:000243ce       __raise_exc                100253ce f   LIBCMT:fpexcept.obj
 0001:000243ef       __raise_exc_ex             100253ef f   LIBCMT:fpexcept.obj
 0001:000246d4       __set_errno_from_matherr   100256d4 f   LIBCMT:fpexcept.obj
 0001:00024701       __umatherr                 10025701 f   LIBCMT:fpexcept.obj
 0001:0002479f       ___set_fpsr_sse2           1002579f f   LIBCMT:fpctrl.obj
 0001:00024815       __clrfp                    10025815 f   LIBCMT:fpctrl.obj
 0001:00024824       __ctrlfp                   10025824 f   LIBCMT:fpctrl.obj
 0001:0002484d       __set_statfp               1002584d f   LIBCMT:fpctrl.obj
 0001:000248a3       __statfp                   100258a3 f   LIBCMT:fpctrl.obj
 0001:000248b1       ___free_lconv_mon          100258b1 f   LIBCMT:initmon.obj
 0001:000249ad       ___free_lconv_num          100259ad f   LIBCMT:initnum.obj
 0001:00024a14       ___free_lc_time            10025a14 f   LIBCMT:inittime.obj
 0001:00024e80       ___crtGetStringTypeA       10025e80 f   LIBCMT:a_str.obj
 0001:00024ebe       __ld12tod                  10025ebe f   LIBCMT:intrncvt.obj
 0001:0002542e       __ld12tof                  1002642e f   LIBCMT:intrncvt.obj
 0001:0002599e       ___strgtold12_l            1002699e f   LIBCMT:strgtold.obj
 0001:0002611a       __mbtowc_l                 1002711a f   LIBCMT:mbtowc.obj
 0001:0002620d       _mbtowc                    1002720d f   LIBCMT:mbtowc.obj
 0001:00026225       __putwch_nolock            10027225 f   LIBCMT:putwch.obj
 0001:000262f7       __wsopen_nolock            100272f7 f   LIBCMT:wopen.obj
 0001:00026a50       _strncmp                   10027a50 f   LIBCMT:strncmp.obj
 0001:00026ac8       __strnicmp                 10027ac8 f   LIBCMT:strnicmp.obj
 0001:00026b33       __strnicmp_l               10027b33 f   LIBCMT:strnicmp.obj
 0001:00026be2       _$I10_OUTPUT               10027be2 f   LIBCMT:x10fout.obj
 0001:0002764f       __control87                1002864f f i LIBCMT:ieee87.obj
 0001:000279e6       ___mtold12                 100289e6 f   LIBCMT:mantold.obj
 0001:00027bc8       ___termconout              10028bc8 f   LIBCMT:initcon.obj
 0001:00027bdf       ___initconout              10028bdf f   LIBCMT:initcon.obj
 0001:00027bfe       __chsize_nolock            10028bfe f   LIBCMT:chsize.obj
 0001:00027db2       __get_fmode                10028db2 f   LIBCMT:setmode.obj
 0001:00027ddc       __setmode_nolock           10028ddc f   LIBCMT:setmode.obj
 0001:00027eb0       ___ascii_strnicmp          10028eb0 f   LIBCMT:_strnicm.obj
 0001:00027f11       ??0length_error@std@@QAE@ABV01@@Z 10028f11 f i libcpmt:xthrow.obj
 0001:00027f2c       ??1length_error@std@@UAE@XZ 10028f2c f i libcpmt:xthrow.obj
 0001:00027f31       ??_Glength_error@std@@UAEPAXI@Z 10028f31 f i libcpmt:xthrow.obj
 0001:00027f31       ??_Elength_error@std@@UAEPAXI@Z 10028f31 f i libcpmt:xthrow.obj
 0001:00027f50       ?_Xbad_alloc@std@@YAXXZ    10028f50 f   libcpmt:xthrow.obj
 0001:00027f81       ?_Xlength_error@std@@YAXPBD@Z 10028f81 f   libcpmt:xthrow.obj
 0001:00027faf       ?_Xout_of_range@std@@YAXPBD@Z 10028faf f   libcpmt:xthrow.obj
 0001:00027fdd       ?_Syserror_map@std@@YAPBDH@Z 10028fdd f   libcpmt:syserror.obj
 0001:00028007       ?_Winerror_map@std@@YAPBDH@Z 10029007 f   libcpmt:syserror.obj
 0001:00028040       ??$?G_J@?$int_adapter@_J@date_time@boost@@QBE?AV012@ABV012@@Z 10029040 f i libboost_thread-vc110-mt-s-1_52:thread.obj
 0001:00028190       ??$_Destroy_range@U?$_Wrap_alloc@V?$allocator@V?$intrusive_ptr@Vbasic_cv_list_entry@detail@boost@@@boost@@@std@@@std@@@std@@YAXPAV?$intrusive_ptr@Vbasic_cv_list_entry@detail@boost@@@boost@@0AAU?$_Wrap_alloc@V?$allocator@V?$intrusive_ptr@Vbasic_cv_list_entry@detail@boost@@@boost@@@std@@@0@U_Nonscalar_ptr_iterator_tag@0@@Z 10029190 f i libboost_thread-vc110-mt-s-1_52:thread.obj
 0001:00028240       ??$call_once@P6AXXZ@boost@@YAXAAUonce_flag@0@P6AXXZ@Z 10029240 f i libboost_thread-vc110-mt-s-1_52:thread.obj
 0001:00028440       ??$int_to_string@H@detail@boost@@YAXHPAD@Z 10029440 f i libboost_thread-vc110-mt-s-1_52:thread.obj
 0001:000284b0       ??$int_to_string@K@detail@boost@@YAXKPAD@Z 100294b0 f i libboost_thread-vc110-mt-s-1_52:thread.obj
 0001:00028520       ??0date@gregorian@boost@@QAE@W4special_values@date_time@2@@Z 10029520 f i libboost_thread-vc110-mt-s-1_52:thread.obj
 0001:000285d0       ??0thread@boost@@QAE@XZ    100295d0 f   libboost_thread-vc110-mt-s-1_52:thread.obj
 0001:000285e0       ??1?$lock_guard@Vmutex@boost@@@boost@@QAE@XZ 100295e0 f i libboost_thread-vc110-mt-s-1_52:thread.obj
 0001:00028610       ??1thread_data_base@detail@boost@@UAE@XZ 10029610 f   libboost_thread-vc110-mt-s-1_52:thread.obj
 0001:00028760       ??4handle_manager@win32@detail@boost@@QAEAAV0123@PAX@Z 10029760 f i libboost_thread-vc110-mt-s-1_52:thread.obj
 0001:00028790       ?create_current_thread_tls_key@?A0xad6650d6@boost@@YAXXZ 10029790 f   libboost_thread-vc110-mt-s-1_52:thread.obj
 0001:000287b0       ?create_once_event@detail@boost@@YAPAXPADPAX@Z 100297b0 f i libboost_thread-vc110-mt-s-1_52:thread.obj
 0001:00028810       ?date@?$counted_time_rep@Vmillisec_posix_time_system_config@posix_time@boost@@@date_time@boost@@QBE?AV0gregorian@3@XZ 10029810 f i libboost_thread-vc110-mt-s-1_52:thread.obj
 0001:000288e0       ?detach@thread@boost@@QAEXXZ 100298e0 f   libboost_thread-vc110-mt-s-1_52:thread.obj
 0001:000288e0       ?release_handle@thread@boost@@AAEXXZ 100298e0 f   libboost_thread-vc110-mt-s-1_52:thread.obj
 0001:00028920       ?do_try_join_until@thread@boost@@AAE_N_K@Z 10029920 f   libboost_thread-vc110-mt-s-1_52:thread.obj
 0001:00028b10       ?from_day_number@?$gregorian_calendar_base@U?$year_month_day_base@Vgreg_year@gregorian@boost@@Vgreg_month@23@Vgreg_day@23@@date_time@boost@@I@date_time@boost@@SA?AU?$year_month_day_base@Vgreg_year@gregorian@boost@@Vgreg_month@23@Vgreg_day@23@@23@I@Z 10029b10 f i libboost_thread-vc110-mt-s-1_52:thread.obj
 0001:00028c40       ?from_special@?$int_adapter@I@date_time@boost@@SA?AV123@W4special_values@23@@Z 10029c40 f i libboost_thread-vc110-mt-s-1_52:thread.obj
 0001:00028ca0       ?from_special@?$int_adapter@_J@date_time@boost@@SA?AV123@W4special_values@23@@Z 10029ca0 f i libboost_thread-vc110-mt-s-1_52:thread.obj
 0001:00028d20       ?get_due_time@?A0xad6650d6@this_thread@boost@@YA?AT_LARGE_INTEGER@@ABUtimeout@detail@3@@Z 10029d20 f   libboost_thread-vc110-mt-s-1_52:thread.obj
 0001:00028f50       ?get_event@basic_timed_mutex@detail@boost@@AAEPAXXZ 10029f50 f i libboost_thread-vc110-mt-s-1_52:thread.obj
 0001:00028f90       ?get_id@thread@boost@@QBE?AVid@12@XZ 10029f90 f   libboost_thread-vc110-mt-s-1_52:thread.obj
 0001:00028ff0       ?get_milliseconds_until@detail@boost@@YAKABVptime@posix_time@2@@Z 10029ff0 f i libboost_thread-vc110-mt-s-1_52:thread.obj
 0001:00029070       ?get_thread_info@thread@boost@@ABE?AV?$intrusive_ptr@Uthread_data_base@detail@boost@@@2@XZ 1002a070 f   libboost_thread-vc110-mt-s-1_52:thread.obj
 0001:000290a0       ?get_time_of_day@?$counted_time_system@U?$counted_time_rep@Vmillisec_posix_time_system_config@posix_time@boost@@@date_time@boost@@@date_time@boost@@SA?AVtime_duration@posix_time@3@ABU?$counted_time_rep@Vmillisec_posix_time_system_config@posix_time@boost@@@23@@Z 1002a0a0 f i libboost_thread-vc110-mt-s-1_52:thread.obj
 0001:00029170       ?interruptible_wait@this_thread@boost@@YA_NPAXUtimeout@detail@2@@Z 1002a170 f   libboost_thread-vc110-mt-s-1_52:thread.obj
 0001:00029450       ?lock@basic_timed_mutex@detail@boost@@QAEXXZ 1002a450 f i libboost_thread-vc110-mt-s-1_52:thread.obj
 0001:00029500       ?notify_all@basic_condition_variable@detail@boost@@QAEXXZ 1002a500 f i libboost_thread-vc110-mt-s-1_52:thread.obj
 0001:00029670       ?tss_cleanup_implemented@boost@@YAXXZ 1002a670 f   libboost_thread-vc110-mt-s-1_52:tss_pe.obj
 0001:00029670       ?on_process_enter@boost@@YAXXZ 1002a670 f   libboost_thread-vc110-mt-s-1_52:thread.obj
 0001:00029680       ?on_process_exit@boost@@YAXXZ 1002a680 f   libboost_thread-vc110-mt-s-1_52:thread.obj
 0001:000296a0       ?on_thread_exit@boost@@YAXXZ 1002a6a0 f   libboost_thread-vc110-mt-s-1_52:thread.obj
 0001:000296b0       ?open_once_event@detail@boost@@YAPAXPADPAX@Z 1002a6b0 f i libboost_thread-vc110-mt-s-1_52:thread.obj
 0001:00029710       ?remaining_milliseconds@timeout@detail@boost@@QBE?AUremaining_time@123@XZ 1002a710 f i libboost_thread-vc110-mt-s-1_52:thread.obj
 0001:00029820       ?run_thread_exit_callbacks@?A0xad6650d6@boost@@YAXXZ 1002a820 f   libboost_thread-vc110-mt-s-1_52:thread.obj
 0001:000299c0       ?set_current_thread_data@?A0xad6650d6@boost@@YAXPAUthread_data_base@detail@2@@Z 1002a9c0 f   libboost_thread-vc110-mt-s-1_52:thread.obj
 0001:00029a90       ?start_thread@thread@boost@@AAEXXZ 1002aa90 f   libboost_thread-vc110-mt-s-1_52:thread.obj
 0001:00029b90       ?subtract_times@?$counted_time_system@U?$counted_time_rep@Vmillisec_posix_time_system_config@posix_time@boost@@@date_time@boost@@@date_time@boost@@SA?AVtime_duration@posix_time@3@ABU?$counted_time_rep@Vmillisec_posix_time_system_config@posix_time@boost@@@23@0@Z 1002ab90 f i libboost_thread-vc110-mt-s-1_52:thread.obj
 0001:00029cd0       ?thread_start_function@?A0xad6650d6@boost@@YGIPAX@Z 1002acd0 f   libboost_thread-vc110-mt-s-1_52:thread.obj
 0001:00029d40       ?timed_join@thread@boost@@QAE_NABVptime@posix_time@2@@Z 1002ad40 f   libboost_thread-vc110-mt-s-1_52:thread.obj
 0001:00029db0       ?dll_callback@?A0x7bab35e0@@YGHPAXK0@Z 1002adb0 f   libboost_thread-vc110-mt-s-1_52:tss_pe.obj
 0001:00029de0       ??0?$basic_string@DU?$char_traits@D@std@@V?$allocator@D@2@@std@@QAE@$$QAV01@@Z 1002ade0 f i libboost_system-vc110-mt-s-1_52:error_code.obj
 0001:00029e40       ??1local_free_on_destruction@detail@system@boost@@QAE@XZ 1002ae40 f i libboost_system-vc110-mt-s-1_52:error_code.obj
 0001:00029e50       ??_Ggeneric_error_category@?A0xe218785f@@UAEPAXI@Z 1002ae50 f i libboost_system-vc110-mt-s-1_52:error_code.obj
 0001:00029e50       ??_Gerror_category@system@boost@@UAEPAXI@Z 1002ae50 f i libboost_system-vc110-mt-s-1_52:error_code.obj
 0001:00029e50       ??_Gsystem_error_category@?A0xe218785f@@UAEPAXI@Z 1002ae50 f i libboost_system-vc110-mt-s-1_52:error_code.obj
 0001:00029e50       ??_Egeneric_error_category@?A0xe218785f@@UAEPAXI@Z 1002ae50 f i libboost_system-vc110-mt-s-1_52:error_code.obj
 0001:00029e50       ??_Eerror_category@system@boost@@UAEPAXI@Z 1002ae50 f i libboost_system-vc110-mt-s-1_52:error_code.obj
 0001:00029e50       ??_Esystem_error_category@?A0xe218785f@@UAEPAXI@Z 1002ae50 f i libboost_system-vc110-mt-s-1_52:error_code.obj
 0001:00029e70       ?default_error_condition@error_category@system@boost@@UBE?AVerror_condition@23@H@Z 1002ae70 f i libboost_system-vc110-mt-s-1_52:error_code.obj
 0001:00029e80       ?default_error_condition@system_error_category@?A0xe218785f@@UBE?AVerror_condition@system@boost@@H@Z 1002ae80 f   libboost_system-vc110-mt-s-1_52:error_code.obj
 0001:0002a850       ?equivalent@error_category@system@boost@@UBE_NABVerror_code@23@H@Z 1002b850 f i libboost_system-vc110-mt-s-1_52:error_code.obj
 0001:0002a870       ?equivalent@error_category@system@boost@@UBE_NHABVerror_condition@23@@Z 1002b870 f i libboost_system-vc110-mt-s-1_52:error_code.obj
 0001:0002a8b0       ?generic_category@system@boost@@YAABVerror_category@12@XZ 1002b8b0 f   libboost_system-vc110-mt-s-1_52:error_code.obj
 0001:0002a920       ?make_error_condition@errc@system@boost@@YA?AVerror_condition@23@W4errc_t@123@@Z 1002b920 f i libboost_system-vc110-mt-s-1_52:error_code.obj
 0001:0002a9a0       ?message@generic_error_category@?A0xe218785f@@UBE?AV?$basic_string@DU?$char_traits@D@std@@V?$allocator@D@2@@std@@H@Z 1002b9a0 f   libboost_system-vc110-mt-s-1_52:error_code.obj
 0001:0002ab90       ?message@system_error_category@?A0xe218785f@@UBE?AV?$basic_string@DU?$char_traits@D@std@@V?$allocator@D@2@@std@@H@Z 1002bb90 f   libboost_system-vc110-mt-s-1_52:error_code.obj
 0001:0002ad70       ?name@generic_error_category@?A0xe218785f@@UBEPBDXZ 1002bd70 f   libboost_system-vc110-mt-s-1_52:error_code.obj
 0001:0002ad80       ?name@system_error_category@?A0xe218785f@@UBEPBDXZ 1002bd80 f   libboost_system-vc110-mt-s-1_52:error_code.obj
 0001:0002ad90       ?system_category@system@boost@@YAABVerror_category@12@XZ 1002bd90 f   libboost_system-vc110-mt-s-1_52:error_code.obj
 0001:0002adf6       _IsProcessorFeaturePresent@4 1002bdf6 f   kernel32:KERNEL32.dll
 0001:0002adfc       _RtlUnwind@16              1002bdfc f   kernel32:KERNEL32.dll
 0001:0002ae02       __EH_prolog3_catch         1002be02 f   LIBCMT:ehprolg3.obj
 0001:0002af06       ?_CallCatchBlock2@@YAPAXPAUEHRegistrationNode@@PBU_s_FuncInfo@@PAXHK@Z 1002bf06 f   LIBCMT:_trnsctrl_.obj
 0001:0002af64       ?_CallMemberFunction1@@YGXPAX00@Z 1002bf64 f   LIBCMT:_trnsctrl_.obj
 0001:0002af64       ?_CallMemberFunction0@@YGXPAX0@Z 1002bf64 f   LIBCMT:_trnsctrl_.obj
 0001:0002af64       ?_CallMemberFunction2@@YGXPAX00H@Z 1002bf64 f   LIBCMT:_trnsctrl_.obj
 0001:0002af6b       ?_CallSETranslator@@YAHPAUEHExceptionRecord@@PAUEHRegistrationNode@@PAX2PBU_s_FuncInfo@@H1@Z 1002bf6b f   LIBCMT:_trnsctrl_.obj
 0001:0002b040       ?_GetRangeOfTrysToCheck@@YAPBU_s_TryBlockMapEntry@@PBU_s_FuncInfo@@HHPAI1@Z 1002c040 f   LIBCMT:_trnsctrl_.obj
 0001:0002b0bf       ?_JumpToContinuation@@YGXPAXPAUEHRegistrationNode@@@Z 1002c0bf f   LIBCMT:_trnsctrl_.obj
 0001:0002b0ef       ?_UnwindNestedFrames@@YGXPAUEHRegistrationNode@@PAUEHExceptionRecord@@@Z 1002c0ef f   LIBCMT:_trnsctrl_.obj
 0001:0002b142       __CreateFrameInfo          1002c142 f   LIBCMT:_trnsctrl_.obj
 0001:0002b16c       __FindAndUnlinkFrame       1002c16c f   LIBCMT:_trnsctrl_.obj
 0001:0002b1bc       __IsExceptionObjectToBeDestroyed 1002c1bc f   LIBCMT:_trnsctrl_.obj
 0001:0002b1e5       ___CxxFrameHandler3        1002c1e5 f   LIBCMT:_trnsctrl_.obj
 0001:0002b21b       __beginthreadex            1002c21b f   LIBCMT:threadex.obj
 0001:0002b2f5       __endthreadex              1002c2f5 f   LIBCMT:threadex.obj
 0001:0002b448       __get_sys_err_msg          1002c448 f i LIBCMT:strerror.obj
 0001:0002b46e       _strerror                  1002c46e f   LIBCMT:strerror.obj
 0001:0002b4e0       __CallSettingFrame@12      1002c4e0 f   LIBCMT:lowhelpr.obj
 0001:0002b507       __NLG_Return               1002c507     LIBCMT:lowhelpr.obj
 0001:0002b52c       ___DestructExceptionObject 1002c52c f   LIBCMT:frame.obj
 0001:0002b5b7       ??0bad_exception@std@@QAE@ABV01@@Z 1002c5b7 f i LIBCMT:frame.obj
 0001:0002b5d2       ??1bad_exception@std@@UAE@XZ 1002c5d2 f i LIBCMT:frame.obj
 0001:0002b5dd       ??_Gbad_exception@std@@UAEPAXI@Z 1002c5dd f i LIBCMT:frame.obj
 0001:0002b5dd       ??_Ebad_exception@std@@UAEPAXI@Z 1002c5dd f i LIBCMT:frame.obj
 0001:0002be13       ___AdjustPointer           1002ce13 f   LIBCMT:frame.obj
 0001:0002be38       ___BuildCatchObject        1002ce38 f   LIBCMT:frame.obj
 0001:0002bec6       ___BuildCatchObjectHelper  1002cec6 f   LIBCMT:frame.obj
 0001:0002c04b       ___FrameUnwindFilter       1002d04b f   LIBCMT:frame.obj
 0001:0002c099       ___FrameUnwindToState      1002d099 f   LIBCMT:frame.obj
 0001:0002c172       ___InternalCxxFrameHandler 1002d172 f   LIBCMT:frame.obj
 0001:0002c251       ___TypeMatch               1002d251 f   LIBCMT:frame.obj
 0001:0002c2ae       ___sys_errlist             1002d2ae f   LIBCMT:syserr.obj
 0001:0002c2b4       ___sys_nerr                1002d2b4 f   LIBCMT:syserr.obj
 0001:0002c2ba       ?_ValidateWrite@@YAHPAXI@Z 1002d2ba f   LIBCMT:validate.obj
 0001:0002c2ba       ?_ValidateRead@@YAHPBXI@Z  1002d2ba f   LIBCMT:validate.obj
 0001:0002c2ba       ?_ValidateExecute@@YAHP6GHXZ@Z 1002d2ba f   LIBCMT:validate.obj
 0001:0002c2d0       __aullrem                  1002d2d0 f   LIBCMT:ullrem.obj
 0001:0002c350       __libm_sse2_sqrt_precise   1002d350 f   LIBCMT:sqrt_sse2_precise.obj
 0001:0002c450       __CIsqrt                   1002d450 f   LIBCMT:sqrt.obj
 0001:0002c464       _sqrt                      1002d464     LIBCMT:sqrt.obj
 0002:00000000       __imp__GetFileType@4       1002f000     kernel32:KERNEL32.dll
 0002:00000004       __imp__CreateThread@24     1002f004     kernel32:KERNEL32.dll
 0002:00000008       __imp__FormatMessageA@28   1002f008     kernel32:KERNEL32.dll
 0002:0000000c       __imp__LocalFree@4         1002f00c     kernel32:KERNEL32.dll
 0002:00000010       __imp__SystemTimeToFileTime@8 1002f010     kernel32:KERNEL32.dll
 0002:00000014       __imp__CreateWaitableTimerA@12 1002f014     kernel32:KERNEL32.dll
 0002:00000018       __imp__ResumeThread@4      1002f018     kernel32:KERNEL32.dll
 0002:0000001c       __imp__SetWaitableTimer@24 1002f01c     kernel32:KERNEL32.dll
 0002:00000020       __imp__GetTickCount@0      1002f020     kernel32:KERNEL32.dll
 0002:00000024       __imp__GetProcessHeap@0    1002f024     kernel32:KERNEL32.dll
 0002:00000028       __imp__HeapFree@12         1002f028     kernel32:KERNEL32.dll
 0002:0000002c       __imp__GetSystemTimeAsFileTime@4 1002f02c     kernel32:KERNEL32.dll
 0002:00000030       __imp__HeapAlloc@12        1002f030     kernel32:KERNEL32.dll
 0002:00000034       __imp__CreateEventA@16     1002f034     kernel32:KERNEL32.dll
 0002:00000038       __imp__CloseHandle@4       1002f038     kernel32:KERNEL32.dll
 0002:0000003c       __imp__GetProcAddress@8    1002f03c     kernel32:KERNEL32.dll
 0002:00000040       __imp__GetModuleHandleA@4  1002f040     kernel32:KERNEL32.dll
 0002:00000044       __imp__MultiByteToWideChar@24 1002f044     kernel32:KERNEL32.dll
 0002:00000048       __imp__WideCharToMultiByte@32 1002f048     kernel32:KERNEL32.dll
 0002:0000004c       __imp__ResetEvent@4        1002f04c     kernel32:KERNEL32.dll
 0002:00000050       __imp__SetEvent@4          1002f050     kernel32:KERNEL32.dll
 0002:00000054       __imp__ReleaseSemaphore@12 1002f054     kernel32:KERNEL32.dll
 0002:00000058       __imp__WaitForMultipleObjects@16 1002f058     kernel32:KERNEL32.dll
 0002:0000005c       __imp__WaitForSingleObject@8 1002f05c     kernel32:KERNEL32.dll
 0002:00000060       __imp__OpenEventA@12       1002f060     kernel32:KERNEL32.dll
 0002:00000064       __imp__SetEndOfFile@4      1002f064     kernel32:KERNEL32.dll
 0002:00000068       __imp__CreateFileW@28      1002f068     kernel32:KERNEL32.dll
 0002:0000006c       __imp__WriteConsoleW@20    1002f06c     kernel32:KERNEL32.dll
 0002:00000070       __imp__EncodePointer@4     1002f070     kernel32:KERNEL32.dll
 0002:00000074       __imp__DecodePointer@4     1002f074     kernel32:KERNEL32.dll
 0002:00000078       __imp__ReadFile@20         1002f078     kernel32:KERNEL32.dll
 0002:0000007c       __imp__GetCommandLineA@0   1002f07c     kernel32:KERNEL32.dll
 0002:00000080       __imp__GetCurrentThreadId@0 1002f080     kernel32:KERNEL32.dll
 0002:00000084       __imp__GetLastError@0      1002f084     kernel32:KERNEL32.dll
 0002:00000088       __imp__IsDebuggerPresent@0 1002f088     kernel32:KERNEL32.dll
 0002:0000008c       __imp__IsProcessorFeaturePresent@4 1002f08c     kernel32:KERNEL32.dll
 0002:00000090       __imp__RaiseException@16   1002f090     kernel32:KERNEL32.dll
 0002:00000094       __imp__InterlockedDecrement@4 1002f094     kernel32:KERNEL32.dll
 0002:00000098       __imp__ExitProcess@4       1002f098     kernel32:KERNEL32.dll
 0002:0000009c       __imp__GetModuleHandleExW@12 1002f09c     kernel32:KERNEL32.dll
 0002:000000a0       __imp__AreFileApisANSI@0   1002f0a0     kernel32:KERNEL32.dll
 0002:000000a4       __imp__HeapSize@12         1002f0a4     kernel32:KERNEL32.dll
 0002:000000a8       __imp__Sleep@4             1002f0a8     kernel32:KERNEL32.dll
 0002:000000ac       __imp__GetStdHandle@4      1002f0ac     kernel32:KERNEL32.dll
 0002:000000b0       __imp__WriteFile@20        1002f0b0     kernel32:KERNEL32.dll
 0002:000000b4       __imp__GetModuleFileNameW@12 1002f0b4     kernel32:KERNEL32.dll
 0002:000000b8       __imp__EnterCriticalSection@4 1002f0b8     kernel32:KERNEL32.dll
 0002:000000bc       __imp__LeaveCriticalSection@4 1002f0bc     kernel32:KERNEL32.dll
 0002:000000c0       __imp__InitializeCriticalSectionAndSpinCount@8 1002f0c0     kernel32:KERNEL32.dll
 0002:000000c4       __imp__RtlUnwind@16        1002f0c4     kernel32:KERNEL32.dll
 0002:000000c8       __imp__GetConsoleMode@8    1002f0c8     kernel32:KERNEL32.dll
 0002:000000cc       __imp__ReadConsoleW@20     1002f0cc     kernel32:KERNEL32.dll
 0002:000000d0       __imp__SetFilePointer@16   1002f0d0     kernel32:KERNEL32.dll
 0002:000000d4       __imp__SetFilePointerEx@20 1002f0d4     kernel32:KERNEL32.dll
 0002:000000d8       __imp__ExitThread@4        1002f0d8     kernel32:KERNEL32.dll
 0002:000000dc       __imp__DeleteCriticalSection@4 1002f0dc     kernel32:KERNEL32.dll
 0002:000000e0       __imp__GetStartupInfoW@4   1002f0e0     kernel32:KERNEL32.dll
 0002:000000e4       __imp__SetLastError@4      1002f0e4     kernel32:KERNEL32.dll
 0002:000000e8       __imp__InterlockedIncrement@4 1002f0e8     kernel32:KERNEL32.dll
 0002:000000ec       __imp__GetModuleFileNameA@12 1002f0ec     kernel32:KERNEL32.dll
 0002:000000f0       __imp__QueryPerformanceCounter@4 1002f0f0     kernel32:KERNEL32.dll
 0002:000000f4       __imp__GetCurrentProcessId@0 1002f0f4     kernel32:KERNEL32.dll
 0002:000000f8       __imp__GetEnvironmentStringsW@0 1002f0f8     kernel32:KERNEL32.dll
 0002:000000fc       __imp__FreeEnvironmentStringsW@4 1002f0fc     kernel32:KERNEL32.dll
 0002:00000100       __imp__UnhandledExceptionFilter@4 1002f100     kernel32:KERNEL32.dll
 0002:00000104       __imp__SetUnhandledExceptionFilter@4 1002f104     kernel32:KERNEL32.dll
 0002:00000108       __imp__GetCurrentProcess@0 1002f108     kernel32:KERNEL32.dll
 0002:0000010c       __imp__TerminateProcess@8  1002f10c     kernel32:KERNEL32.dll
 0002:00000110       __imp__TlsAlloc@0          1002f110     kernel32:KERNEL32.dll
 0002:00000114       __imp__TlsGetValue@4       1002f114     kernel32:KERNEL32.dll
 0002:00000118       __imp__TlsSetValue@8       1002f118     kernel32:KERNEL32.dll
 0002:0000011c       __imp__TlsFree@4           1002f11c     kernel32:KERNEL32.dll
 0002:00000120       __imp__GetModuleHandleW@4  1002f120     kernel32:KERNEL32.dll
 0002:00000124       __imp__IsValidCodePage@4   1002f124     kernel32:KERNEL32.dll
 0002:00000128       __imp__GetACP@0            1002f128     kernel32:KERNEL32.dll
 0002:0000012c       __imp__GetOEMCP@0          1002f12c     kernel32:KERNEL32.dll
 0002:00000130       __imp__GetCPInfo@8         1002f130     kernel32:KERNEL32.dll
 0002:00000134       __imp__GetConsoleCP@0      1002f134     kernel32:KERNEL32.dll
 0002:00000138       __imp__LoadLibraryExW@12   1002f138     kernel32:KERNEL32.dll
 0002:0000013c       __imp__HeapReAlloc@16      1002f13c     kernel32:KERNEL32.dll
 0002:00000140       __imp__OutputDebugStringW@4 1002f140     kernel32:KERNEL32.dll
 0002:00000144       __imp__LoadLibraryW@4      1002f144     kernel32:KERNEL32.dll
 0002:00000148       __imp__LCMapStringW@24     1002f148     kernel32:KERNEL32.dll
 0002:0000014c       __imp__SetStdHandle@8      1002f14c     kernel32:KERNEL32.dll
 0002:00000150       __imp__FlushFileBuffers@4  1002f150     kernel32:KERNEL32.dll
 0002:00000154       __imp__GetStringTypeW@16   1002f154     kernel32:KERNEL32.dll
 0002:00000158       \177KERNEL32_NULL_THUNK_DATA 1002f158     kernel32:KERNEL32.dll
 0002:0000015c       __imp___AssertValidWritePtr 1002f15c     tier0:tier0.dll
 0002:00000160       __imp__AssertValidStringPtr 1002f160     tier0:tier0.dll
 0002:00000164       __imp_?Lock@CThreadMutex@@QAEXXZ 1002f164     tier0:tier0.dll
 0002:00000168       __imp_?Unlock@CThreadMutex@@QAEXXZ 1002f168     tier0:tier0.dll
 0002:0000016c       __imp_??0CThreadMutex@@QAE@XZ 1002f16c     tier0:tier0.dll
 0002:00000170       __imp_??1CThreadMutex@@QAE@XZ 1002f170     tier0:tier0.dll
 0002:00000174       __imp__Error               1002f174     tier0:tier0.dll
 0002:00000178       __imp__Msg                 1002f178     tier0:tier0.dll
 0002:0000017c       __imp__g_pMemAlloc         1002f17c     tier0:tier0.dll
 0002:00000180       \177tier0_NULL_THUNK_DATA  1002f180     tier0:tier0.dll
 0002:00000184       ___xc_a                    1002f184     LIBCMT:crt0init.obj
 0002:00000194       ?p_process_init@?A0x7bab35e0@@3P6AHXZA 1002f194     libboost_thread-vc110-mt-s-1_52:tss_pe.obj
 0002:000002ec       ___xc_z                    1002f2ec     LIBCMT:crt0init.obj
 0002:000002f0       ___xi_a                    1002f2f0     LIBCMT:crt0init.obj
 0002:00000308       ?p_tls_prepare@?A0x7bab35e0@@3P6AHXZA 1002f308     libboost_thread-vc110-mt-s-1_52:tss_pe.obj
 0002:0000030c       ___xi_z                    1002f30c     LIBCMT:crt0init.obj
 0002:00000310       ___xl_a                    1002f310     LIBCMT:tlssup.obj
 0002:00000314       ?__xl_ca@?A0x7bab35e0@@3P6GXPAUHINSTANCE__@@KPAX@ZA 1002f314     libboost_thread-vc110-mt-s-1_52:tss_pe.obj
 0002:00000318       ___xl_z                    1002f318     LIBCMT:tlssup.obj
 0002:0000031c       ___xp_a                    1002f31c     LIBCMT:crt0init.obj
 0002:0000032c       ___xp_z                    1002f32c     LIBCMT:crt0init.obj
 0002:00000330       ___xt_a                    1002f330     LIBCMT:crt0init.obj
 0002:00000334       ?p_process_term@?A0x7bab35e0@@3P6AHXZA 1002f334     libboost_thread-vc110-mt-s-1_52:tss_pe.obj
 0002:00000338       ___xt_z                    1002f338     LIBCMT:crt0init.obj
 0002:00000378       ?nanmask@@3HB              1002f378     mathlib:mathlib_base.obj
 0002:0000037c       __real@34000000            1002f37c     mathlib:mathlib_base.obj
 0002:00000380       __real@3fe0000000000000    1002f380     mathlib:mathlib_base.obj
 0002:00000450       ??_C@_0BA@OBHPCBFP@CreateInterface?$AA@ 1002f450     tier1:interface.obj
 0002:00000460       ??_C@_00CNPNBAHC@?$AA@     1002f460     tier1:utlbuffer.obj
 0002:00000464       ??_C@_01BJJEKLCA@?$CC?$AA@ 1002f464     tier1:utlbuffer.obj
 0002:00000468       ??_C@_01GEODFPGF@?8?$AA@   1002f468     tier1:utlbuffer.obj
 0002:0000046c       ??_C@_01OGPIMHDM@?$DP?$AA@ 1002f46c     tier1:utlbuffer.obj
 0002:00000470       ??_C@_01KICIPPFI@?2?$AA@   1002f470     tier1:utlbuffer.obj
 0002:00000474       ??_C@_01MCMALHOG@a?$AA@    1002f474     tier1:utlbuffer.obj
 0002:00000478       ??_C@_01INIBCBCB@f?$AA@    1002f478     tier1:utlbuffer.obj
 0002:0000047c       ??_C@_01KDCPPGHE@r?$AA@    1002f47c     tier1:utlbuffer.obj
 0002:00000480       ??_C@_01OJONOECF@b?$AA@    1002f480     tier1:utlbuffer.obj
 0002:00000484       ??_C@_01MHEDDDHA@v?$AA@    1002f484     tier1:utlbuffer.obj
 0002:00000488       ??_C@_01PFHFFBPC@t?$AA@    1002f488     tier1:utlbuffer.obj
 0002:0000048c       ??_C@_01EFFIKLCJ@n?$AA@    1002f48c     tier1:utlbuffer.obj
 0002:00000494       ??_7CUtlCharConversion@@6B@ 1002f494     tier1:utlbuffer.obj
 0002:0000049c       ??_7CUtlNoEscConversion@@6B@ 1002f49c     tier1:utlbuffer.obj
 0002:000004a4       ??_7CUtlCStringConversion@@6B@ 1002f4a4     tier1:utlbuffer.obj
 0002:000004a8       ??_C@_02HAOIJKIC@?$CFc?$AA@ 1002f4a8     tier1:utlbuffer.obj
 0002:000004ac       ??_C@_01JOAMLHOP@?9?$AA@   1002f4ac     tier1:strtools.obj
 0002:000004b4       ??_7bad_alloc@std@@6B@     1002f4b4     LIBCMT:new.obj
 0002:000004c0       ??_7type_info@@6B@         1002f4c0     LIBCMT:typinfo.obj
 0002:000004c8       ??_7exception@std@@6B@     1002f4c8     LIBCMT:stdexcpt.obj
 0002:000004d0       ??_C@_0BC@EOODALEL@Unknown?5exception?$AA@ 1002f4d0     LIBCMT:stdexcpt.obj
 0002:000004e4       __pDefaultRawDllMain       1002f4e4     LIBCMT:dllcrt0.obj
 0002:000004e8       __FPinit                   1002f4e8     LIBCMT:fpinit.obj
 0002:000004f0       __OP_FMODjmptab            1002f4f0     LIBCMT:87fmod.obj
 0002:00000598       ??_C@_06OJHGLDPL@?$CInull?$CJ?$AA@ 1002f598     LIBCMT:output.obj
 0002:000005a0       ??_C@_1O@CEDCILHN@?$AA?$CI?$AAn?$AAu?$AAl?$AAl?$AA?$CJ?$AA?$AA@ 1002f5a0     LIBCMT:output.obj
 0002:000005b0       ___lookuptable             1002f5b0     LIBCMT:output.obj
 0002:00000610       ___lookuptable_s           1002f610     LIBCMT:outputs.obj
 0002:0000068c       ??_C@_1BI@BGOHAHKC@?$AAm?$AAs?$AAc?$AAo?$AAr?$AAe?$AAe?$AA?4?$AAd?$AAl?$AAl?$AA?$AA@ 1002f68c     LIBCMT:crt0dat.obj
 0002:000006a4       ??_C@_0P@MIGLKIOC@CorExitProcess?$AA@ 1002f6a4     LIBCMT:crt0dat.obj
 0002:000006b8       ??_C@_1FE@LLNEDJMD@?$AAR?$AA6?$AA0?$AA0?$AA8?$AA?$AN?$AA?6?$AA?9?$AA?5?$AAn?$AAo?$AAt?$AA?5?$AAe?$AAn?$AAo?$AAu?$AAg?$AAh?$AA?5?$AAs?$AAp?$AAa?$AAc?$AAe?$AA?5?$AAf?$AAo?$AAr?$AA?5?$AAa?$AAr@ 1002f6b8     LIBCMT:crt0msg.obj
 0002:00000710       ??_C@_1FI@HONFMGBI@?$AAR?$AA6?$AA0?$AA0?$AA9?$AA?$AN?$AA?6?$AA?9?$AA?5?$AAn?$AAo?$AAt?$AA?5?$AAe?$AAn?$AAo?$AAu?$AAg?$AAh?$AA?5?$AAs?$AAp?$AAa?$AAc?$AAe?$AA?5?$AAf?$AAo?$AAr?$AA?5?$AAe?$AAn@ 1002f710     LIBCMT:crt0msg.obj
 0002:00000768       ??_C@_1EG@BEHAGFJD@?$AAR?$AA6?$AA0?$AA1?$AA0?$AA?$AN?$AA?6?$AA?9?$AA?5?$AAa?$AAb?$AAo?$AAr?$AAt?$AA?$CI?$AA?$CJ?$AA?5?$AAh?$AAa?$AAs?$AA?5?$AAb?$AAe?$AAe?$AAn?$AA?5?$AAc?$AAa?$AAl?$AAl?$AAe?$AAd@ 1002f768     LIBCMT:crt0msg.obj
 0002:000007b0       ??_C@_1FI@LOGNIKDM@?$AAR?$AA6?$AA0?$AA1?$AA6?$AA?$AN?$AA?6?$AA?9?$AA?5?$AAn?$AAo?$AAt?$AA?5?$AAe?$AAn?$AAo?$AAu?$AAg?$AAh?$AA?5?$AAs?$AAp?$AAa?$AAc?$AAe?$AA?5?$AAf?$AAo?$AAr?$AA?5?$AAt?$AAh@ 1002f7b0     LIBCMT:crt0msg.obj
 0002:00000808       ??_C@_1FK@BEOGODMC@?$AAR?$AA6?$AA0?$AA1?$AA7?$AA?$AN?$AA?6?$AA?9?$AA?5?$AAu?$AAn?$AAe?$AAx?$AAp?$AAe?$AAc?$AAt?$AAe?$AAd?$AA?5?$AAm?$AAu?$AAl?$AAt?$AAi?$AAt?$AAh?$AAr?$AAe?$AAa?$AAd?$AA?5@ 1002f808     LIBCMT:crt0msg.obj
 0002:00000868       ??_C@_1EC@JIBHAOPH@?$AAR?$AA6?$AA0?$AA1?$AA8?$AA?$AN?$AA?6?$AA?9?$AA?5?$AAu?$AAn?$AAe?$AAx?$AAp?$AAe?$AAc?$AAt?$AAe?$AAd?$AA?5?$AAh?$AAe?$AAa?$AAp?$AA?5?$AAe?$AAr?$AAr?$AAo?$AAr?$AA?$AN?$AA?6@ 1002f868     LIBCMT:crt0msg.obj
 0002:000008b0       ??_C@_1FC@ECHBIFBC@?$AAR?$AA6?$AA0?$AA1?$AA9?$AA?$AN?$AA?6?$AA?9?$AA?5?$AAu?$AAn?$AAa?$AAb?$AAl?$AAe?$AA?5?$AAt?$AAo?$AA?5?$AAo?$AAp?$AAe?$AAn?$AA?5?$AAc?$AAo?$AAn?$AAs?$AAo?$AAl?$AAe?$AA?5@ 1002f8b0     LIBCMT:crt0msg.obj
 0002:00000908       ??_C@_1GK@FHCKBEFA@?$AAR?$AA6?$AA0?$AA2?$AA4?$AA?$AN?$AA?6?$AA?9?$AA?5?$AAn?$AAo?$AAt?$AA?5?$AAe?$AAn?$AAo?$AAu?$AAg?$AAh?$AA?5?$AAs?$AAp?$AAa?$AAc?$AAe?$AA?5?$AAf?$AAo?$AAr?$AA?5?$AA_?$AAo@ 1002f908     LIBCMT:crt0msg.obj
 0002:00000978       ??_C@_1EM@MAADIHMB@?$AAR?$AA6?$AA0?$AA2?$AA5?$AA?$AN?$AA?6?$AA?9?$AA?5?$AAp?$AAu?$AAr?$AAe?$AA?5?$AAv?$AAi?$AAr?$AAt?$AAu?$AAa?$AAl?$AA?5?$AAf?$AAu?$AAn?$AAc?$AAt?$AAi?$AAo?$AAn?$AA?5?$AAc@ 1002f978     LIBCMT:crt0msg.obj
 0002:000009c8       ??_C@_1GK@MCAAGJMO@?$AAR?$AA6?$AA0?$AA2?$AA6?$AA?$AN?$AA?6?$AA?9?$AA?5?$AAn?$AAo?$AAt?$AA?5?$AAe?$AAn?$AAo?$AAu?$AAg?$AAh?$AA?5?$AAs?$AAp?$AAa?$AAc?$AAe?$AA?5?$AAf?$AAo?$AAr?$AA?5?$AAs?$AAt@ 1002f9c8     LIBCMT:crt0msg.obj
 0002:00000a38       ??_C@_1GK@MFGOKLAG@?$AAR?$AA6?$AA0?$AA2?$AA7?$AA?$AN?$AA?6?$AA?9?$AA?5?$AAn?$AAo?$AAt?$AA?5?$AAe?$AAn?$AAo?$AAu?$AAg?$AAh?$AA?5?$AAs?$AAp?$AAa?$AAc?$AAe?$AA?5?$AAf?$AAo?$AAr?$AA?5?$AAl?$AAo@ 1002fa38     LIBCMT:crt0msg.obj
 0002:00000aa8       ??_C@_1EK@HHFLMAOL@?$AAR?$AA6?$AA0?$AA2?$AA8?$AA?$AN?$AA?6?$AA?9?$AA?5?$AAu?$AAn?$AAa?$AAb?$AAl?$AAe?$AA?5?$AAt?$AAo?$AA?5?$AAi?$AAn?$AAi?$AAt?$AAi?$AAa?$AAl?$AAi?$AAz?$AAe?$AA?5?$AAh?$AAe@ 1002faa8     LIBCMT:crt0msg.obj
 0002:00000af4       ??_C@_1DO@BMFCDCD@?$AAR?$AA6?$AA0?$AA3?$AA0?$AA?$AN?$AA?6?$AA?9?$AA?5?$AAC?$AAR?$AAT?$AA?5?$AAn?$AAo?$AAt?$AA?5?$AAi?$AAn?$AAi?$AAt?$AAi?$AAa?$AAl?$AAi?$AAz?$AAe?$AAd?$AA?$AN?$AA?6?$AA?$AA@ 1002faf4     LIBCMT:crt0msg.obj
 0002:00000b38       ??_C@_1MG@ENCOOIDF@?$AAR?$AA6?$AA0?$AA3?$AA1?$AA?$AN?$AA?6?$AA?9?$AA?5?$AAA?$AAt?$AAt?$AAe?$AAm?$AAp?$AAt?$AA?5?$AAt?$AAo?$AA?5?$AAi?$AAn?$AAi?$AAt?$AAi?$AAa?$AAl?$AAi?$AAz?$AAe?$AA?5?$AAt@ 1002fb38     LIBCMT:crt0msg.obj
 0002:00000c00       ??_C@_1GG@GOPILAJP@?$AAR?$AA6?$AA0?$AA3?$AA2?$AA?$AN?$AA?6?$AA?9?$AA?5?$AAn?$AAo?$AAt?$AA?5?$AAe?$AAn?$AAo?$AAu?$AAg?$AAh?$AA?5?$AAs?$AAp?$AAa?$AAc?$AAe?$AA?5?$AAf?$AAo?$AAr?$AA?5?$AAl?$AAo@ 1002fc00     LIBCMT:crt0msg.obj
 0002:00000c68       ??_C@_1BOO@KGEDBGAJ@?$AAR?$AA6?$AA0?$AA3?$AA3?$AA?$AN?$AA?6?$AA?9?$AA?5?$AAA?$AAt?$AAt?$AAe?$AAm?$AAp?$AAt?$AA?5?$AAt?$AAo?$AA?5?$AAu?$AAs?$AAe?$AA?5?$AAM?$AAS?$AAI?$AAL?$AA?5?$AAc?$AAo?$AAd@ 1002fc68     LIBCMT:crt0msg.obj
 0002:00000e58       ??_C@_1GG@MKFPEKFO@?$AAR?$AA6?$AA0?$AA3?$AA4?$AA?$AN?$AA?6?$AA?9?$AA?5?$AAi?$AAn?$AAc?$AAo?$AAn?$AAs?$AAi?$AAs?$AAt?$AAe?$AAn?$AAt?$AA?5?$AAo?$AAn?$AAe?$AAx?$AAi?$AAt?$AA?5?$AAb?$AAe?$AAg@ 1002fe58     LIBCMT:crt0msg.obj
 0002:00000ec0       ??_C@_1BO@BFCDCGC@?$AAD?$AAO?$AAM?$AAA?$AAI?$AAN?$AA?5?$AAe?$AAr?$AAr?$AAo?$AAr?$AA?$AN?$AA?6?$AA?$AA@ 1002fec0     LIBCMT:crt0msg.obj
 0002:00000ee0       ??_C@_1BK@KMOMNAAI@?$AAS?$AAI?$AAN?$AAG?$AA?5?$AAe?$AAr?$AAr?$AAo?$AAr?$AA?$AN?$AA?6?$AA?$AA@ 1002fee0     LIBCMT:crt0msg.obj
 0002:00000efc       ??_C@_1BM@JBBEPPHI@?$AAT?$AAL?$AAO?$AAS?$AAS?$AA?5?$AAe?$AAr?$AAr?$AAo?$AAr?$AA?$AN?$AA?6?$AA?$AA@ 1002fefc     LIBCMT:crt0msg.obj
 0002:00000f18       ??_C@_15JNBOKNOG@?$AA?$AN?$AA?6?$AA?$AA@ 1002ff18     LIBCMT:crt0msg.obj
 0002:00000f20       ??_C@_1BO@BKOMIGKJ@?$AAr?$AAu?$AAn?$AAt?$AAi?$AAm?$AAe?$AA?5?$AAe?$AAr?$AAr?$AAo?$AAr?$AA?5?$AA?$AA@ 1002ff20     LIBCMT:crt0msg.obj
 0002:00000ff8       ??_C@_1FK@PGACCAFB@?$AAR?$AA6?$AA0?$AA0?$AA2?$AA?$AN?$AA?6?$AA?9?$AA?5?$AAf?$AAl?$AAo?$AAa?$AAt?$AAi?$AAn?$AAg?$AA?5?$AAp?$AAo?$AAi?$AAn?$AAt?$AA?5?$AAs?$AAu?$AAp?$AAp?$AAo?$AAr?$AAt?$AA?5@ 1002fff8     LIBCMT:crt0msg.obj
 0002:00001054       ??_C@_1DE@JNGNBFGO@?$AAR?$AAu?$AAn?$AAt?$AAi?$AAm?$AAe?$AA?5?$AAE?$AAr?$AAr?$AAo?$AAr?$AA?$CB?$AA?6?$AA?6?$AAP?$AAr?$AAo?$AAg?$AAr?$AAa?$AAm?$AA?3?$AA?5?$AA?$AA@ 10030054     LIBCMT:crt0msg.obj
 0002:00001088       ??_C@_1CO@EAEJAADC@?$AA?$DM?$AAp?$AAr?$AAo?$AAg?$AAr?$AAa?$AAm?$AA?5?$AAn?$AAa?$AAm?$AAe?$AA?5?$AAu?$AAn?$AAk?$AAn?$AAo?$AAw?$AAn?$AA?$DO?$AA?$AA@ 10030088     LIBCMT:crt0msg.obj
 0002:000010b8       ??_C@_17LGKOMLJ@?$AA?4?$AA?4?$AA?4?$AA?$AA@ 100300b8     LIBCMT:crt0msg.obj
 0002:000010c0       ??_C@_15IABLJNFO@?$AA?6?$AA?6?$AA?$AA@ 100300c0     LIBCMT:crt0msg.obj
 0002:000010c8       ??_C@_1EK@MBDPDCGA@?$AAM?$AAi?$AAc?$AAr?$AAo?$AAs?$AAo?$AAf?$AAt?$AA?5?$AAV?$AAi?$AAs?$AAu?$AAa?$AAl?$AA?5?$AAC?$AA?$CL?$AA?$CL?$AA?5?$AAR?$AAu?$AAn?$AAt?$AAi?$AAm?$AAe?$AA?5?$AAL?$AAi?$AAb@ 100300c8     LIBCMT:crt0msg.obj
 0002:00001138       __XcptActTab               10030138     LIBCMT:winxfltr.obj
 0002:000011c8       __XcptActTabCount          100301c8     LIBCMT:winxfltr.obj
 0002:000011cc       __XcptActTabSize           100301cc     LIBCMT:winxfltr.obj
 0002:000011d0       __First_FPE_Indx           100301d0     LIBCMT:winxfltr.obj
 0002:000011d4       __Num_FPE                  100301d4     LIBCMT:winxfltr.obj
 0002:000011d8       ??_C@_1BK@MGMFAEKH@?$AAk?$AAe?$AAr?$AAn?$AAe?$AAl?$AA3?$AA2?$AA?4?$AAd?$AAl?$AAl?$AA?$AA@ 100301d8     LIBCMT:winapisupp.obj
 0002:000011f4       ??_C@_08KNHFBNJ@FlsAlloc?$AA@ 100301f4     LIBCMT:winapisupp.obj
 0002:00001200       ??_C@_07PEJMOBNF@FlsFree?$AA@ 10030200     LIBCMT:winapisupp.obj
 0002:00001208       ??_C@_0M@GDNOONDI@FlsGetValue?$AA@ 10030208     LIBCMT:winapisupp.obj
 0002:00001214       ??_C@_0M@JCPCPOEF@FlsSetValue?$AA@ 10030214     LIBCMT:winapisupp.obj
 0002:00001220       ??_C@_0BM@HCFOFFN@InitializeCriticalSectionEx?$AA@ 10030220     LIBCMT:winapisupp.obj
 0002:0000123c       ??_C@_0BD@KIEEOEEH@CreateSemaphoreExW?$AA@ 1003023c     LIBCMT:winapisupp.obj
 0002:00001250       ??_C@_0BI@BKLFFAPO@SetThreadStackGuarantee?$AA@ 10030250     LIBCMT:winapisupp.obj
 0002:00001268       ??_C@_0BG@OGFAJCKC@CreateThreadpoolTimer?$AA@ 10030268     LIBCMT:winapisupp.obj
 0002:00001280       ??_C@_0BD@LPLEMMDI@SetThreadpoolTimer?$AA@ 10030280     LIBCMT:winapisupp.obj
 0002:00001294       ??_C@_0CA@FMNJENH@WaitForThreadpoolTimerCallbacks?$AA@ 10030294     LIBCMT:winapisupp.obj
 0002:000012b4       ??_C@_0BF@DCFCCNOC@CloseThreadpoolTimer?$AA@ 100302b4     LIBCMT:winapisupp.obj
 0002:000012cc       ??_C@_0BF@FLABGKKM@CreateThreadpoolWait?$AA@ 100302cc     LIBCMT:winapisupp.obj
 0002:000012e4       ??_C@_0BC@MGCOHNA@SetThreadpoolWait?$AA@ 100302e4     LIBCMT:winapisupp.obj
 0002:000012f8       ??_C@_0BE@OCIOMIMP@CloseThreadpoolWait?$AA@ 100302f8     LIBCMT:winapisupp.obj
 0002:0000130c       ??_C@_0BJ@LKGHFHBO@FlushProcessWriteBuffers?$AA@ 1003030c     LIBCMT:winapisupp.obj
 0002:00001328       ??_C@_0BP@KALKKPMO@FreeLibraryWhenCallbackReturns?$AA@ 10030328     LIBCMT:winapisupp.obj
 0002:00001348       ??_C@_0BK@DFNBACLA@GetCurrentProcessorNumber?$AA@ 10030348     LIBCMT:winapisupp.obj
 0002:00001364       ??_C@_0BP@KHGALBC@GetLogicalProcessorInformation?$AA@ 10030364     LIBCMT:winapisupp.obj
 0002:00001384       ??_C@_0BE@FKKLLFLM@CreateSymbolicLinkW?$AA@ 10030384     LIBCMT:winapisupp.obj
 0002:00001398       ??_C@_0BJ@OHNKDLIJ@SetDefaultDllDirectories?$AA@ 10030398     LIBCMT:winapisupp.obj
 0002:000013b4       ??_C@_0BE@LJANKFHF@EnumSystemLocalesEx?$AA@ 100303b4     LIBCMT:winapisupp.obj
 0002:000013c8       ??_C@_0BA@IHGNDAEB@CompareStringEx?$AA@ 100303c8     LIBCMT:winapisupp.obj
 0002:000013d8       ??_C@_0BA@EPCJIIPD@GetDateFormatEx?$AA@ 100303d8     LIBCMT:winapisupp.obj
 0002:000013e8       ??_C@_0BA@ONOKGCMP@GetLocaleInfoEx?$AA@ 100303e8     LIBCMT:winapisupp.obj
 0002:000013f8       ??_C@_0BA@CIJJKCJJ@GetTimeFormatEx?$AA@ 100303f8     LIBCMT:winapisupp.obj
 0002:00001408       ??_C@_0BJ@PBCCBIPI@GetUserDefaultLocaleName?$AA@ 10030408     LIBCMT:winapisupp.obj
 0002:00001424       ??_C@_0BC@CELBKLLA@IsValidLocaleName?$AA@ 10030424     LIBCMT:winapisupp.obj
 0002:00001438       ??_C@_0O@KKBNKAPF@LCMapStringEx?$AA@ 10030438     LIBCMT:winapisupp.obj
 0002:00001448       ??_C@_0BE@JOGNEJCI@GetCurrentPackageId?$AA@ 10030448     LIBCMT:winapisupp.obj
 0002:0000145c       ??_C@_05KLBDPFGC@e?$CL000?$AA@ 1003045c     LIBCMT:cvt.obj
 0002:00002c90       __indefinite               10031c90     LIBCMT:87disp.obj
 0002:00002c9a       __piby2                    10031c9a     LIBCMT:87disp.obj
 0002:00002cc8       __DEFAULT_CW_in_mem        10031cc8     LIBCMT:common.obj
 0002:00002cca       __pi_by_2_to_61            10031cca     LIBCMT:common.obj
 0002:00007e60       __infinity                 10036e60     LIBCMT:87tran.obj
 0002:00007e6a       __minfinity                10036e6a     LIBCMT:87tran.obj
 0002:00007e74       __logemax                  10036e74     LIBCMT:87tran.obj
 0002:00007e9a       __OP_EXPjmptab             10036e9a     LIBCMT:87tran.obj
 0002:00007f28       ??_C@_03MGHMBJCF@log?$AA@  10036f28     LIBCMT:libm_error.obj
 0002:00007f2c       ??_C@_05HGHHAHAP@log10?$AA@ 10036f2c     LIBCMT:libm_error.obj
 0002:00007f34       ??_C@_03KHJOGHMM@exp?$AA@  10036f34     LIBCMT:libm_error.obj
 0002:00007f38       ??_C@_03JGHBODFD@pow?$AA@  10036f38     LIBCMT:libm_error.obj
 0002:00007f3c       ??_C@_04FIHNOPOL@asin?$AA@ 10036f3c     LIBCMT:libm_error.obj
 0002:00007f44       ??_C@_04PDIFKINK@acos?$AA@ 10036f44     LIBCMT:libm_error.obj
 0002:00007f4c       ??_C@_05EOHGHCHD@exp10?$AA@ 10036f4c     LIBCMT:libm_error.obj
 0002:00007f54       ??_C@_04MLLJIGOK@atan?$AA@ 10036f54     LIBCMT:libm_error.obj
 0002:00007f5c       ??_C@_04GFPJNGEK@ceil?$AA@ 10036f5c     LIBCMT:libm_error.obj
 0002:00007f64       ??_C@_05PBJFFIGL@floor?$AA@ 10036f64     LIBCMT:libm_error.obj
 0002:00007f6c       ??_C@_04EHEDPDJG@modf?$AA@ 10036f6c     LIBCMT:libm_error.obj
 0002:00007f74       ??_C@_03BLEJJJBH@sin?$AA@  10036f74     LIBCMT:libm_error.obj
 0002:00007f78       ??_C@_03LALBNOCG@cos?$AA@  10036f78     LIBCMT:libm_error.obj
 0002:00007f7c       ??_C@_03IIINPABG@tan?$AA@  10036f7c     LIBCMT:libm_error.obj
 0002:00007f80       ??_C@_04EIAKFFMI@sqrt?$AA@ 10036f80     LIBCMT:libm_error.obj
 0002:00007f98       ??_C@_1M@HPNHIDJI@?$AAj?$AAa?$AA?9?$AAJ?$AAP?$AA?$AA@ 10036f98     LIBCMT:mbctype.obj
 0002:00007fa4       ??_C@_1M@BIBDDEMK@?$AAz?$AAh?$AA?9?$AAC?$AAN?$AA?$AA@ 10036fa4     LIBCMT:mbctype.obj
 0002:00007fb0       ??_C@_1M@JLOOOEGK@?$AAk?$AAo?$AA?9?$AAK?$AAR?$AA?$AA@ 10036fb0     LIBCMT:mbctype.obj
 0002:00007fbc       ??_C@_1M@CLNBBOPM@?$AAz?$AAh?$AA?9?$AAT?$AAW?$AA?$AA@ 10036fbc     LIBCMT:mbctype.obj
 0002:00007fc8       ??_C@_03KOEHGMDN@Sun?$AA@  10036fc8     LIBCMT:nlsdata.obj
 0002:00007fcc       ??_C@_03PDAGKDH@Mon?$AA@   10036fcc     LIBCMT:nlsdata.obj
 0002:00007fd0       ??_C@_03NAGEINEP@Tue?$AA@  10036fd0     LIBCMT:nlsdata.obj
 0002:00007fd4       ??_C@_03MHOMLAJA@Wed?$AA@  10036fd4     LIBCMT:nlsdata.obj
 0002:00007fd8       ??_C@_03IOFIKPDN@Thu?$AA@  10036fd8     LIBCMT:nlsdata.obj
 0002:00007fdc       ??_C@_03IDIOELNC@Fri?$AA@  10036fdc     LIBCMT:nlsdata.obj
 0002:00007fe0       ??_C@_03FEFJNEK@Sat?$AA@   10036fe0     LIBCMT:nlsdata.obj
 0002:00007fe4       ??_C@_06OOPIFAJ@Sunday?$AA@ 10036fe4     LIBCMT:nlsdata.obj
 0002:00007fec       ??_C@_06JLEDEDGH@Monday?$AA@ 10036fec     LIBCMT:nlsdata.obj
 0002:00007ff4       ??_C@_07BAAGCFCM@Tuesday?$AA@ 10036ff4     LIBCMT:nlsdata.obj
 0002:00007ffc       ??_C@_09DLIGFAKA@Wednesday?$AA@ 10036ffc     LIBCMT:nlsdata.obj
 0002:00008008       ??_C@_08HACCIKIA@Thursday?$AA@ 10037008     LIBCMT:nlsdata.obj
 0002:00008014       ??_C@_06JECMNKMI@Friday?$AA@ 10037014     LIBCMT:nlsdata.obj
 0002:0000801c       ??_C@_08INBOOONO@Saturday?$AA@ 1003701c     LIBCMT:nlsdata.obj
 0002:00008028       ??_C@_03JIHJHPIE@Jan?$AA@  10037028     LIBCMT:nlsdata.obj
 0002:0000802c       ??_C@_03HJBDCHOM@Feb?$AA@  1003702c     LIBCMT:nlsdata.obj
 0002:00008030       ??_C@_03ODNJBKGA@Mar?$AA@  10037030     LIBCMT:nlsdata.obj
 0002:00008034       ??_C@_03LEOLGMJP@Apr?$AA@  10037034     LIBCMT:nlsdata.obj
 0002:00008038       ??_C@_03CNMDKL@May?$AA@    10037038     LIBCMT:nlsdata.obj
 0002:0000803c       ??_C@_03IDFGHECI@Jun?$AA@  1003703c     LIBCMT:nlsdata.obj
 0002:00008040       ??_C@_03LBGABGKK@Jul?$AA@  10037040     LIBCMT:nlsdata.obj
 0002:00008044       ??_C@_03IFJFEIGA@Aug?$AA@  10037044     LIBCMT:nlsdata.obj
 0002:00008048       ??_C@_03GGCAPAJC@Sep?$AA@  10037048     LIBCMT:nlsdata.obj
 0002:0000804c       ??_C@_03BMAOKBAD@Oct?$AA@  1003704c     LIBCMT:nlsdata.obj
 0002:00008050       ??_C@_03JPJOFNIA@Nov?$AA@  10037050     LIBCMT:nlsdata.obj
 0002:00008054       ??_C@_03MKABNOCG@Dec?$AA@  10037054     LIBCMT:nlsdata.obj
 0002:00008058       ??_C@_07CGJPFGJA@January?$AA@ 10037058     LIBCMT:nlsdata.obj
 0002:00008060       ??_C@_08GNJGEPFN@February?$AA@ 10037060     LIBCMT:nlsdata.obj
 0002:0000806c       ??_C@_05HPCKOFNC@March?$AA@ 1003706c     LIBCMT:nlsdata.obj
 0002:00008074       ??_C@_05DMJDNLEJ@April?$AA@ 10037074     LIBCMT:nlsdata.obj
 0002:0000807c       ??_C@_04CNLMGBGM@June?$AA@ 1003707c     LIBCMT:nlsdata.obj
 0002:00008084       ??_C@_04MIEPOIFP@July?$AA@ 10037084     LIBCMT:nlsdata.obj
 0002:0000808c       ??_C@_06LBBHFDDG@August?$AA@ 1003708c     LIBCMT:nlsdata.obj
 0002:00008094       ??_C@_09BHHEALKD@September?$AA@ 10037094     LIBCMT:nlsdata.obj
 0002:000080a0       ??_C@_07JJNFCEND@October?$AA@ 100370a0     LIBCMT:nlsdata.obj
 0002:000080a8       ??_C@_08HCHEGEOA@November?$AA@ 100370a8     LIBCMT:nlsdata.obj
 0002:000080b4       ??_C@_08EDHMEBNP@December?$AA@ 100370b4     LIBCMT:nlsdata.obj
 0002:000080c0       ??_C@_02DEDBPAFC@AM?$AA@   100370c0     LIBCMT:nlsdata.obj
 0002:000080c4       ??_C@_02CJNFDJBF@PM?$AA@   100370c4     LIBCMT:nlsdata.obj
 0002:000080c8       ??_C@_08BPBNCDIB@MM?1dd?1yy?$AA@ 100370c8     LIBCMT:nlsdata.obj
 0002:000080d4       ??_C@_0BE@CKGJFCPC@dddd?0?5MMMM?5dd?0?5yyyy?$AA@ 100370d4     LIBCMT:nlsdata.obj
 0002:000080e8       ??_C@_08JCCMCCIL@HH?3mm?3ss?$AA@ 100370e8     LIBCMT:nlsdata.obj
 0002:000080f4       ??_C@_17MBGCMIPB@?$AAS?$AAu?$AAn?$AA?$AA@ 100370f4     LIBCMT:nlsdata.obj
 0002:000080fc       ??_C@_17KBOMKBF@?$AAM?$AAo?$AAn?$AA?$AA@ 100370fc     LIBCMT:nlsdata.obj
 0002:00008104       ??_C@_17BMKGEGOJ@?$AAT?$AAu?$AAe?$AA?$AA@ 10037104     LIBCMT:nlsdata.obj
 0002:0000810c       ??_C@_17CJEDCEPE@?$AAW?$AAe?$AAd?$AA?$AA@ 1003710c     LIBCMT:nlsdata.obj
 0002:00008114       ??_C@_17PDPHAADD@?$AAT?$AAh?$AAu?$AA?$AA@ 10037114     LIBCMT:nlsdata.obj
 0002:0000811c       ??_C@_17HFOLPPLP@?$AAF?$AAr?$AAi?$AA?$AA@ 1003711c     LIBCMT:nlsdata.obj
 0002:00008124       ??_C@_17GGIBDPIH@?$AAS?$AAa?$AAt?$AA?$AA@ 10037124     LIBCMT:nlsdata.obj
 0002:0000812c       ??_C@_1O@IHNHDHPB@?$AAS?$AAu?$AAn?$AAd?$AAa?$AAy?$AA?$AA@ 1003712c     LIBCMT:nlsdata.obj
 0002:0000813c       ??_C@_1O@MMNBFLIA@?$AAM?$AAo?$AAn?$AAd?$AAa?$AAy?$AA?$AA@ 1003713c     LIBCMT:nlsdata.obj
 0002:0000814c       ??_C@_1BA@ENFBFFEK@?$AAT?$AAu?$AAe?$AAs?$AAd?$AAa?$AAy?$AA?$AA@ 1003714c     LIBCMT:nlsdata.obj
 0002:0000815c       ??_C@_1BE@EBOGMDOH@?$AAW?$AAe?$AAd?$AAn?$AAe?$AAs?$AAd?$AAa?$AAy?$AA?$AA@ 1003715c     LIBCMT:nlsdata.obj
 0002:00008170       ??_C@_1BC@HHMNLIHE@?$AAT?$AAh?$AAu?$AAr?$AAs?$AAd?$AAa?$AAy?$AA?$AA@ 10037170     LIBCMT:nlsdata.obj
 0002:00008184       ??_C@_1O@PDICJHAG@?$AAF?$AAr?$AAi?$AAd?$AAa?$AAy?$AA?$AA@ 10037184     LIBCMT:nlsdata.obj
 0002:00008194       ??_C@_1BC@ENMNNPAJ@?$AAS?$AAa?$AAt?$AAu?$AAr?$AAd?$AAa?$AAy?$AA?$AA@ 10037194     LIBCMT:nlsdata.obj
 0002:000081a8       ??_C@_17DKNBKCHM@?$AAJ?$AAa?$AAn?$AA?$AA@ 100371a8     LIBCMT:nlsdata.obj
 0002:000081b0       ??_C@_17LMDJEKJN@?$AAF?$AAe?$AAb?$AA?$AA@ 100371b0     LIBCMT:nlsdata.obj
 0002:000081b8       ??_C@_17CKNLEDEC@?$AAM?$AAa?$AAr?$AA?$AA@ 100371b8     LIBCMT:nlsdata.obj
 0002:000081c0       ??_C@_17LFPOIHDD@?$AAA?$AAp?$AAr?$AA?$AA@ 100371c0     LIBCMT:nlsdata.obj
 0002:000081c8       ??_C@_17PNNKMEED@?$AAM?$AAa?$AAy?$AA?$AA@ 100371c8     LIBCMT:nlsdata.obj
 0002:000081d0       ??_C@_17KCJGOCPB@?$AAJ?$AAu?$AAn?$AA?$AA@ 100371d0     LIBCMT:nlsdata.obj
 0002:000081d8       ??_C@_17IJPCKHK@?$AAJ?$AAu?$AAl?$AA?$AA@ 100371d8     LIBCMT:nlsdata.obj
 0002:000081e0       ??_C@_17ICPELBCN@?$AAA?$AAu?$AAg?$AA?$AA@ 100371e0     LIBCMT:nlsdata.obj
 0002:000081e8       ??_C@_17HCHCOKMG@?$AAS?$AAe?$AAp?$AA?$AA@ 100371e8     LIBCMT:nlsdata.obj
 0002:000081f0       ??_C@_17FNLKOI@?$AAO?$AAc?$AAt?$AA?$AA@ 100371f0     LIBCMT:nlsdata.obj
 0002:000081f8       ??_C@_17BBDMLCIG@?$AAN?$AAo?$AAv?$AA?$AA@ 100371f8     LIBCMT:nlsdata.obj
 0002:00008200       ??_C@_17EGKACKIF@?$AAD?$AAe?$AAc?$AA?$AA@ 10037200     LIBCMT:nlsdata.obj
 0002:00008208       ??_C@_1BA@EFMEIEBA@?$AAJ?$AAa?$AAn?$AAu?$AAa?$AAr?$AAy?$AA?$AA@ 10037208     LIBCMT:nlsdata.obj
 0002:00008218       ??_C@_1BC@JGDDFFAM@?$AAF?$AAe?$AAb?$AAr?$AAu?$AAa?$AAr?$AAy?$AA?$AA@ 10037218     LIBCMT:nlsdata.obj
 0002:0000822c       ??_C@_1M@IKEENEDF@?$AAM?$AAa?$AAr?$AAc?$AAh?$AA?$AA@ 1003722c     LIBCMT:nlsdata.obj
 0002:00008238       ??_C@_1M@GJNLMHFD@?$AAA?$AAp?$AAr?$AAi?$AAl?$AA?$AA@ 10037238     LIBCMT:nlsdata.obj
 0002:00008244       ??_C@_19EPFLPGAP@?$AAJ?$AAu?$AAn?$AAe?$AA?$AA@ 10037244     LIBCMT:nlsdata.obj
 0002:00008250       ??_C@_19BIFMLPCD@?$AAJ?$AAu?$AAl?$AAy?$AA?$AA@ 10037250     LIBCMT:nlsdata.obj
 0002:0000825c       ??_C@_1O@PAHLKOAC@?$AAA?$AAu?$AAg?$AAu?$AAs?$AAt?$AA?$AA@ 1003725c     LIBCMT:nlsdata.obj
 0002:0000826c       ??_C@_1BE@DKAAMBJL@?$AAS?$AAe?$AAp?$AAt?$AAe?$AAm?$AAb?$AAe?$AAr?$AA?$AA@ 1003726c     LIBCMT:nlsdata.obj
 0002:00008280       ??_C@_1BA@EPANDLNG@?$AAO?$AAc?$AAt?$AAo?$AAb?$AAe?$AAr?$AA?$AA@ 10037280     LIBCMT:nlsdata.obj
 0002:00008290       ??_C@_1BC@BGLIFPF@?$AAN?$AAo?$AAv?$AAe?$AAm?$AAb?$AAe?$AAr?$AA?$AA@ 10037290     LIBCMT:nlsdata.obj
 0002:000082a4       ??_C@_1BC@FEMKIFH@?$AAD?$AAe?$AAc?$AAe?$AAm?$AAb?$AAe?$AAr?$AA?$AA@ 100372a4     LIBCMT:nlsdata.obj
 0002:000082b8       ??_C@_15ODEHAHHF@?$AAA?$AAM?$AA?$AA@ 100372b8     LIBCMT:nlsdata.obj
 0002:000082c0       ??_C@_15CLMNNGEL@?$AAP?$AAM?$AA?$AA@ 100372c0     LIBCMT:nlsdata.obj
 0002:000082c8       ??_C@_1BC@IEBCMHCM@?$AAM?$AAM?$AA?1?$AAd?$AAd?$AA?1?$AAy?$AAy?$AA?$AA@ 100372c8     LIBCMT:nlsdata.obj
 0002:000082dc       ??_C@_1CI@KNAKOEBC@?$AAd?$AAd?$AAd?$AAd?$AA?0?$AA?5?$AAM?$AAM?$AAM?$AAM?$AA?5?$AAd?$AAd?$AA?0?$AA?5?$AAy?$AAy?$AAy?$AAy?$AA?$AA@ 100372dc     LIBCMT:nlsdata.obj
 0002:00008304       ??_C@_1BC@GDGBMEMK@?$AAH?$AAH?$AA?3?$AAm?$AAm?$AA?3?$AAs?$AAs?$AA?$AA@ 10037304     LIBCMT:nlsdata.obj
 0002:00008318       ??_C@_1M@BMHNFIME@?$AAe?$AAn?$AA?9?$AAU?$AAS?$AA?$AA@ 10037318     LIBCMT:nlsdata.obj
 0002:000083a8       ??_C@_1BG@GOEBHBDC@?$AAU?$AAS?$AAE?$AAR?$AA3?$AA2?$AA?4?$AAD?$AAL?$AAL?$AA?$AA@ 100373a8     LIBCMT:crtmboxw.obj
 0002:000083c0       ??_C@_0M@DLDCCGNP@MessageBoxW?$AA@ 100373c0     LIBCMT:crtmboxw.obj
 0002:000083cc       ??_C@_0BA@HNOPNCHB@GetActiveWindow?$AA@ 100373cc     LIBCMT:crtmboxw.obj
 0002:000083dc       ??_C@_0BD@HHGDFDBJ@GetLastActivePopup?$AA@ 100373dc     LIBCMT:crtmboxw.obj
 0002:000083f0       ??_C@_0BK@DEKFELLI@GetUserObjectInformationW?$AA@ 100373f0     LIBCMT:crtmboxw.obj
 0002:0000840c       ??_C@_0BI@DFKBFLJE@GetProcessWindowStation?$AA@ 1003740c     LIBCMT:crtmboxw.obj
 0002:00008428       _LcidToLocaleNameTable     10037428     LIBCMT:winapinls.obj
 0002:00008b48       _LocaleNameToIndexTable    10037b48     LIBCMT:winapinls.obj
 0002:00009268       ??_C@_15EMKDOKLE@?$AAa?$AAr?$AA?$AA@ 10038268     LIBCMT:winapinls.obj
 0002:00009270       ??_C@_15KNPADPLH@?$AAb?$AAg?$AA?$AA@ 10038270     LIBCMT:winapinls.obj
 0002:00009278       ??_C@_15EDMHLDMO@?$AAc?$AAa?$AA?$AA@ 10038278     LIBCMT:winapinls.obj
 0002:00009280       ??_C@_1O@BPEAJADD@?$AAz?$AAh?$AA?9?$AAC?$AAH?$AAS?$AA?$AA@ 10038280     LIBCMT:winapinls.obj
 0002:00009290       ??_C@_15LJNHCMNK@?$AAc?$AAs?$AA?$AA@ 10038290     LIBCMT:winapinls.obj
 0002:00009298       ??_C@_15FOMCIDHG@?$AAd?$AAa?$AA?$AA@ 10038298     LIBCMT:winapinls.obj
 0002:000092a0       ??_C@_15NBKABECB@?$AAd?$AAe?$AA?$AA@ 100382a0     LIBCMT:winapinls.obj
 0002:000092a8       ??_C@_15GHPEIIAO@?$AAe?$AAl?$AA?$AA@ 100382a8     LIBCMT:winapinls.obj
 0002:000092b0       ??_C@_15MNPNEAIF@?$AAe?$AAn?$AA?$AA@ 100382b0     LIBCMT:winapinls.obj
 0002:000092b8       ??_C@_15GPIOMPMH@?$AAe?$AAs?$AA?$AA@ 100382b8     LIBCMT:winapinls.obj
 0002:000092c0       ??_C@_15NGLOAKJC@?$AAf?$AAi?$AA?$AA@ 100382c0     LIBCMT:winapinls.obj
 0002:000092c8       ??_C@_15FBKGNKAM@?$AAf?$AAr?$AA?$AA@ 100382c8     LIBCMT:winapinls.obj
 0002:000092d0       ??_C@_15KGGCNEFK@?$AAh?$AAe?$AA?$AA@ 100382d0     LIBCMT:winapinls.obj
 0002:000092d8       ??_C@_15PGHLIDMF@?$AAh?$AAu?$AA?$AA@ 100382d8     LIBCMT:winapinls.obj
 0002:000092e0       ??_C@_15BIEMAPLM@?$AAi?$AAs?$AA?$AA@ 100382e0     LIBCMT:winapinls.obj
 0002:000092e8       ??_C@_15IFJLDHAF@?$AAi?$AAt?$AA?$AA@ 100382e8     LIBCMT:winapinls.obj
 0002:000092f0       ??_C@_15GEMIOCAG@?$AAj?$AAa?$AA?$AA@ 100382f0     LIBCMT:winapinls.obj
 0002:000092f8       ??_C@_15EPELEGJA@?$AAk?$AAo?$AA?$AA@ 100382f8     LIBCMT:winapinls.obj
 0002:00009300       ??_C@_15NDDHIMN@?$AAn?$AAl?$AA?$AA@ 10038300     LIBCMT:winapinls.obj
 0002:00009308       ??_C@_15BPIGNHCD@?$AAn?$AAo?$AA?$AA@ 10038308     LIBCMT:winapinls.obj
 0002:00009310       ??_C@_15DEOPBLCG@?$AAp?$AAl?$AA?$AA@ 10038310     LIBCMT:winapinls.obj
 0002:00009318       ??_C@_15KBECGEFG@?$AAp?$AAt?$AA?$AA@ 10038318     LIBCMT:winapinls.obj
 0002:00009320       ??_C@_15GLJCBFMD@?$AAr?$AAo?$AA?$AA@ 10038320     LIBCMT:winapinls.obj
 0002:00009328       ??_C@_15FEDGKCDI@?$AAr?$AAu?$AA?$AA@ 10038328     LIBCMT:winapinls.obj
 0002:00009330       ??_C@_15GLKMLLHM@?$AAh?$AAr?$AA?$AA@ 10038330     LIBCMT:winapinls.obj
 0002:00009338       ??_C@_15CPKMFBDB@?$AAs?$AAk?$AA?$AA@ 10038338     LIBCMT:winapinls.obj
 0002:00009340       ??_C@_15BAAIOGMK@?$AAs?$AAq?$AA?$AA@ 10038340     LIBCMT:winapinls.obj
 0002:00009348       ??_C@_15INNPNOHD@?$AAs?$AAv?$AA?$AA@ 10038348     LIBCMT:winapinls.obj
 0002:00009350       ??_C@_15CABMMOGH@?$AAt?$AAh?$AA?$AA@ 10038350     LIBCMT:winapinls.obj
 0002:00009358       ??_C@_15BPLIHJJM@?$AAt?$AAr?$AA?$AA@ 10038358     LIBCMT:winapinls.obj
 0002:00009360       ??_C@_15NEOEKKDJ@?$AAu?$AAr?$AA?$AA@ 10038360     LIBCMT:winapinls.obj
 0002:00009368       ??_C@_15NFICGAJK@?$AAi?$AAd?$AA?$AA@ 10038368     LIBCMT:winapinls.obj
 0002:00009370       ??_C@_15PJPFLCCM@?$AAu?$AAk?$AA?$AA@ 10038370     LIBCMT:winapinls.obj
 0002:00009378       ??_C@_15HPJPHDM@?$AAb?$AAe?$AA?$AA@ 10038378     LIBCMT:winapinls.obj
 0002:00009380       ??_C@_15LCHLGJII@?$AAs?$AAl?$AA?$AA@ 10038380     LIBCMT:winapinls.obj
 0002:00009388       ??_C@_15PCFJPHHO@?$AAe?$AAt?$AA?$AA@ 10038388     LIBCMT:winapinls.obj
 0002:00009390       ??_C@_15HPFPGODN@?$AAl?$AAv?$AA?$AA@ 10038390     LIBCMT:winapinls.obj
 0002:00009398       ??_C@_15NFFGKGLG@?$AAl?$AAt?$AA?$AA@ 10038398     LIBCMT:winapinls.obj
 0002:000093a0       ??_C@_15BDAKCCHN@?$AAf?$AAa?$AA?$AA@ 100383a0     LIBCMT:winapinls.obj
 0002:000093a8       ??_C@_15NFGIAIAJ@?$AAv?$AAi?$AA?$AA@ 100383a8     LIBCMT:winapinls.obj
 0002:000093b0       ??_C@_15LMKNDMHN@?$AAh?$AAy?$AA?$AA@ 100383b0     LIBCMT:winapinls.obj
 0002:000093b8       ??_C@_15IJBHMCFL@?$AAa?$AAz?$AA?$AA@ 100383b8     LIBCMT:winapinls.obj
 0002:000093c0       ??_C@_15EKOFJABL@?$AAe?$AAu?$AA?$AA@ 100383c0     LIBCMT:winapinls.obj
 0002:000093c8       ??_C@_15BGHADCNK@?$AAm?$AAk?$AA?$AA@ 100383c8     LIBCMT:winapinls.obj
 0002:000093d0       ??_C@_15JDNICKHM@?$AAa?$AAf?$AA?$AA@ 100383d0     LIBCMT:winapinls.obj
 0002:000093d8       ??_C@_15KPJEDBKD@?$AAk?$AAa?$AA?$AA@ 100383d8     LIBCMT:winapinls.obj
 0002:000093e0       ??_C@_15PDNFFFEO@?$AAf?$AAo?$AA?$AA@ 100383e0     LIBCMT:winapinls.obj
 0002:000093e8       ??_C@_15OMLEGLOC@?$AAh?$AAi?$AA?$AA@ 100383e8     LIBCMT:winapinls.obj
 0002:000093f0       ??_C@_15IDNNENKK@?$AAm?$AAs?$AA?$AA@ 100383f0     LIBCMT:winapinls.obj
 0002:000093f8       ??_C@_15MACJNBMH@?$AAk?$AAk?$AA?$AA@ 100383f8     LIBCMT:winapinls.obj
 0002:00009400       ??_C@_15DKDJEOND@?$AAk?$AAy?$AA?$AA@ 10038400     LIBCMT:winapinls.obj
 0002:00009408       ??_C@_15DFGDLJBG@?$AAs?$AAw?$AA?$AA@ 10038408     LIBCMT:winapinls.obj
 0002:00009410       ??_C@_15BBFAICNG@?$AAu?$AAz?$AA?$AA@ 10038410     LIBCMT:winapinls.obj
 0002:00009418       ??_C@_15DKNDCGEA@?$AAt?$AAt?$AA?$AA@ 10038418     LIBCMT:winapinls.obj
 0002:00009420       ??_C@_15MGIFMDPL@?$AAp?$AAa?$AA?$AA@ 10038420     LIBCMT:winapinls.obj
 0002:00009428       ??_C@_15HCNDBBA@?$AAg?$AAu?$AA?$AA@ 10038428     LIBCMT:winapinls.obj
 0002:00009430       ??_C@_15FNBEIBON@?$AAt?$AAa?$AA?$AA@ 10038430     LIBCMT:winapinls.obj
 0002:00009438       ??_C@_15NCHGBGLK@?$AAt?$AAe?$AA?$AA@ 10038438     LIBCMT:winapinls.obj
 0002:00009440       ??_C@_15PHPHCBPF@?$AAk?$AAn?$AA?$AA@ 10038440     LIBCMT:winapinls.obj
 0002:00009448       ??_C@_15DLGBCKMP@?$AAm?$AAr?$AA?$AA@ 10038448     LIBCMT:winapinls.obj
 0002:00009450       ??_C@_15EABBLBFF@?$AAs?$AAa?$AA?$AA@ 10038450     LIBCMT:winapinls.obj
 0002:00009458       ??_C@_15CBKOMCOI@?$AAm?$AAn?$AA?$AA@ 10038458     LIBCMT:winapinls.obj
 0002:00009460       ??_C@_15CKDMCJAF@?$AAg?$AAl?$AA?$AA@ 10038460     LIBCMT:winapinls.obj
 0002:00009468       ??_C@_17CNJFBPG@?$AAk?$AAo?$AAk?$AA?$AA@ 10038468     LIBCMT:winapinls.obj
 0002:00009470       ??_C@_17FFBJICPL@?$AAs?$AAy?$AAr?$AA?$AA@ 10038470     LIBCMT:winapinls.obj
 0002:00009478       ??_C@_17KPNDCPAF@?$AAd?$AAi?$AAv?$AA?$AA@ 10038478     LIBCMT:winapinls.obj
 0002:00009480       ??_C@_11LOCGONAA@?$AA?$AA@ 10038480     LIBCMT:winapinls.obj
 0002:00009484       ??_C@_1M@OKAHONE@?$AAa?$AAr?$AA?9?$AAS?$AAA?$AA?$AA@ 10038484     LIBCMT:winapinls.obj
 0002:00009490       ??_C@_1M@FFFIGIGK@?$AAb?$AAg?$AA?9?$AAB?$AAG?$AA?$AA@ 10038490     LIBCMT:winapinls.obj
 0002:0000949c       ??_C@_1M@BJNKEDC@?$AAc?$AAa?$AA?9?$AAE?$AAS?$AA?$AA@ 1003849c     LIBCMT:winapinls.obj
 0002:000094a8       ??_C@_1M@IJJHFJHA@?$AAc?$AAs?$AA?9?$AAC?$AAZ?$AA?$AA@ 100384a8     LIBCMT:winapinls.obj
 0002:000094b4       ??_C@_1M@CLPEOBGI@?$AAd?$AAa?$AA?9?$AAD?$AAK?$AA?$AA@ 100384b4     LIBCMT:winapinls.obj
 0002:000094c0       ??_C@_1M@MCMADGCB@?$AAd?$AAe?$AA?9?$AAD?$AAE?$AA?$AA@ 100384c0     LIBCMT:winapinls.obj
 0002:000094cc       ??_C@_1M@OOCKEMAM@?$AAe?$AAl?$AA?9?$AAG?$AAR?$AA?$AA@ 100384cc     LIBCMT:winapinls.obj
 0002:000094d8       ??_C@_1M@DDNJFGID@?$AAf?$AAi?$AA?9?$AAF?$AAI?$AA?$AA@ 100384d8     LIBCMT:winapinls.obj
 0002:000094e4       ??_C@_1M@GLIPPMAC@?$AAf?$AAr?$AA?9?$AAF?$AAR?$AA?$AA@ 100384e4     LIBCMT:winapinls.obj
 0002:000094f0       ??_C@_1M@GFMCHPE@?$AAh?$AAe?$AA?9?$AAI?$AAL?$AA?$AA@ 100384f0     LIBCMT:winapinls.obj
 0002:000094fc       ??_C@_1M@MHLPGNKM@?$AAh?$AAu?$AA?9?$AAH?$AAU?$AA?$AA@ 100384fc     LIBCMT:winapinls.obj
 0002:00009508       ??_C@_1M@LPDDNNPN@?$AAi?$AAs?$AA?9?$AAI?$AAS?$AA?$AA@ 10038508     LIBCMT:winapinls.obj
 0002:00009514       ??_C@_1M@MADIPODN@?$AAi?$AAt?$AA?9?$AAI?$AAT?$AA?$AA@ 10038514     LIBCMT:winapinls.obj
 0002:00009520       ??_C@_1M@IHBJJGG@?$AAn?$AAl?$AA?9?$AAN?$AAL?$AA?$AA@ 10038520     LIBCMT:winapinls.obj
 0002:0000952c       ??_C@_1M@EANAGDL@?$AAn?$AAb?$AA?9?$AAN?$AAO?$AA?$AA@ 1003852c     LIBCMT:winapinls.obj
 0002:00009538       ??_C@_1M@NEIEMEGP@?$AAp?$AAl?$AA?9?$AAP?$AAL?$AA?$AA@ 10038538     LIBCMT:winapinls.obj
 0002:00009544       ??_C@_1M@BOCFIGEP@?$AAp?$AAt?$AA?9?$AAB?$AAR?$AA?$AA@ 10038544     LIBCMT:winapinls.obj
 0002:00009550       ??_C@_1M@IMPFOPBG@?$AAr?$AAo?$AA?9?$AAR?$AAO?$AA?$AA@ 10038550     LIBCMT:winapinls.obj
 0002:0000955c       ??_C@_1M@IDNNEJMM@?$AAr?$AAu?$AA?9?$AAR?$AAU?$AA?$AA@ 1003855c     LIBCMT:winapinls.obj
 0002:00009568       ??_C@_1M@LILEEOGM@?$AAh?$AAr?$AA?9?$AAH?$AAR?$AA?$AA@ 10038568     LIBCMT:winapinls.obj
 0002:00009574       ??_C@_1M@FKIFEHPB@?$AAs?$AAk?$AA?9?$AAS?$AAK?$AA?$AA@ 10038574     LIBCMT:winapinls.obj
 0002:00009580       ??_C@_1M@LJMAMNPJ@?$AAs?$AAq?$AA?9?$AAA?$AAL?$AA?$AA@ 10038580     LIBCMT:winapinls.obj
 0002:0000958c       ??_C@_1M@GIAKDKJK@?$AAs?$AAv?$AA?9?$AAS?$AAE?$AA?$AA@ 1003858c     LIBCMT:winapinls.obj
 0002:00009598       ??_C@_1M@MKJKIKCL@?$AAt?$AAh?$AA?9?$AAT?$AAH?$AA?$AA@ 10038598     LIBCMT:winapinls.obj
 0002:000095a4       ??_C@_1M@MFLCCMPB@?$AAt?$AAr?$AA?9?$AAT?$AAR?$AA?$AA@ 100385a4     LIBCMT:winapinls.obj
 0002:000095b0       ??_C@_1M@OIJHDKJN@?$AAu?$AAr?$AA?9?$AAP?$AAK?$AA?$AA@ 100385b0     LIBCMT:winapinls.obj
 0002:000095bc       ??_C@_1M@LHIPCIEK@?$AAi?$AAd?$AA?9?$AAI?$AAD?$AA?$AA@ 100385bc     LIBCMT:winapinls.obj
 0002:000095c8       ??_C@_1M@MFMOBGI@?$AAu?$AAk?$AA?9?$AAU?$AAA?$AA?$AA@ 100385c8     LIBCMT:winapinls.obj
 0002:000095d4       ??_C@_1M@OBGLJIPL@?$AAb?$AAe?$AA?9?$AAB?$AAY?$AA?$AA@ 100385d4     LIBCMT:winapinls.obj
 0002:000095e0       ??_C@_1M@BCFAJEAD@?$AAs?$AAl?$AA?9?$AAS?$AAI?$AA?$AA@ 100385e0     LIBCMT:winapinls.obj
 0002:000095ec       ??_C@_1M@FKFFEDDN@?$AAe?$AAt?$AA?9?$AAE?$AAE?$AA?$AA@ 100385ec     LIBCMT:winapinls.obj
 0002:000095f8       ??_C@_1M@KGKKAACI@?$AAl?$AAv?$AA?9?$AAL?$AAV?$AA?$AA@ 100385f8     LIBCMT:winapinls.obj
 0002:00009604       ??_C@_1M@IFGBIJO@?$AAl?$AAt?$AA?9?$AAL?$AAT?$AA?$AA@ 10038604     LIBCMT:winapinls.obj
 0002:00009610       ??_C@_1M@FGEAHEDM@?$AAf?$AAa?$AA?9?$AAI?$AAR?$AA?$AA@ 10038610     LIBCMT:winapinls.obj
 0002:0000961c       ??_C@_1M@KBMAIBFN@?$AAv?$AAi?$AA?9?$AAV?$AAN?$AA?$AA@ 1003861c     LIBCMT:winapinls.obj
 0002:00009628       ??_C@_1M@GPCBKDJK@?$AAh?$AAy?$AA?9?$AAA?$AAM?$AA?$AA@ 10038628     LIBCMT:winapinls.obj
 0002:00009634       ??_C@_1BG@BECMDDJB@?$AAa?$AAz?$AA?9?$AAA?$AAZ?$AA?9?$AAL?$AAa?$AAt?$AAn?$AA?$AA@ 10038634     LIBCMT:winapinls.obj
 0002:0000964c       ??_C@_1M@MAOFCAEA@?$AAe?$AAu?$AA?9?$AAE?$AAS?$AA?$AA@ 1003864c     LIBCMT:winapinls.obj
 0002:00009658       ??_C@_1M@IGHABKPI@?$AAm?$AAk?$AA?9?$AAM?$AAK?$AA?$AA@ 10038658     LIBCMT:winapinls.obj
 0002:00009664       ??_C@_1M@IAIGNEJG@?$AAt?$AAn?$AA?9?$AAZ?$AAA?$AA?$AA@ 10038664     LIBCMT:winapinls.obj
 0002:00009670       ??_C@_1M@IIJCOJFA@?$AAx?$AAh?$AA?9?$AAZ?$AAA?$AA?$AA@ 10038670     LIBCMT:winapinls.obj
 0002:0000967c       ??_C@_1M@LGPJHNJH@?$AAz?$AAu?$AA?9?$AAZ?$AAA?$AA?$AA@ 1003867c     LIBCMT:winapinls.obj
 0002:00009688       ??_C@_1M@HOKAOIO@?$AAa?$AAf?$AA?9?$AAZ?$AAA?$AA?$AA@ 10038688     LIBCMT:winapinls.obj
 0002:00009694       ??_C@_1M@DPCLHLIE@?$AAk?$AAa?$AA?9?$AAG?$AAE?$AA?$AA@ 10038694     LIBCMT:winapinls.obj
 0002:000096a0       ??_C@_1M@BLKMHJBI@?$AAf?$AAo?$AA?9?$AAF?$AAO?$AA?$AA@ 100386a0     LIBCMT:winapinls.obj
 0002:000096ac       ??_C@_1M@LGGJAPPB@?$AAh?$AAi?$AA?9?$AAI?$AAN?$AA?$AA@ 100386ac     LIBCMT:winapinls.obj
 0002:000096b8       ??_C@_1M@FIKPIHFE@?$AAm?$AAt?$AA?9?$AAM?$AAT?$AA?$AA@ 100386b8     LIBCMT:winapinls.obj
 0002:000096c4       ??_C@_1M@HEGGPBFA@?$AAs?$AAe?$AA?9?$AAN?$AAO?$AA?$AA@ 100386c4     LIBCMT:winapinls.obj
 0002:000096d0       ??_C@_1M@EIBJEEPA@?$AAm?$AAs?$AA?9?$AAM?$AAY?$AA?$AA@ 100386d0     LIBCMT:winapinls.obj
 0002:000096dc       ??_C@_1M@FHLBGMPP@?$AAk?$AAk?$AA?9?$AAK?$AAZ?$AA?$AA@ 100386dc     LIBCMT:winapinls.obj
 0002:000096e8       ??_C@_1M@NGJJLCGI@?$AAk?$AAy?$AA?9?$AAK?$AAG?$AA?$AA@ 100386e8     LIBCMT:winapinls.obj
 0002:000096f4       ??_C@_1M@GIENNBFC@?$AAs?$AAw?$AA?9?$AAK?$AAE?$AA?$AA@ 100386f4     LIBCMT:winapinls.obj
 0002:00009700       ??_C@_1BG@NDGMJIMJ@?$AAu?$AAz?$AA?9?$AAU?$AAZ?$AA?9?$AAL?$AAa?$AAt?$AAn?$AA?$AA@ 10038700     LIBCMT:winapinls.obj
 0002:00009718       ??_C@_1M@IDCCIHBC@?$AAt?$AAt?$AA?9?$AAR?$AAU?$AA?$AA@ 10038718     LIBCMT:winapinls.obj
 0002:00009724       ??_C@_1M@LOICPMOJ@?$AAb?$AAn?$AA?9?$AAI?$AAN?$AA?$AA@ 10038724     LIBCMT:winapinls.obj
 0002:00009730       ??_C@_1M@KPKKNEAH@?$AAp?$AAa?$AA?9?$AAI?$AAN?$AA?$AA@ 10038730     LIBCMT:winapinls.obj
 0002:0000973c       ??_C@_1M@PJGPPBOG@?$AAg?$AAu?$AA?9?$AAI?$AAN?$AA?$AA@ 1003873c     LIBCMT:winapinls.obj
 0002:00009748       ??_C@_1M@KMKMOPHI@?$AAt?$AAa?$AA?9?$AAI?$AAN?$AA?$AA@ 10038748     LIBCMT:winapinls.obj
 0002:00009754       ??_C@_1M@KFEHEPAC@?$AAt?$AAe?$AA?9?$AAI?$AAN?$AA?$AA@ 10038754     LIBCMT:winapinls.obj
 0002:00009760       ??_C@_1M@CDCLMGHI@?$AAk?$AAn?$AA?9?$AAI?$AAN?$AA?$AA@ 10038760     LIBCMT:winapinls.obj
 0002:0000976c       ??_C@_1M@MIODLDKF@?$AAm?$AAl?$AA?9?$AAI?$AAN?$AA?$AA@ 1003876c     LIBCMT:winapinls.obj
 0002:00009778       ??_C@_1M@PBIEACPO@?$AAm?$AAr?$AA?9?$AAI?$AAN?$AA?$AA@ 10038778     LIBCMT:winapinls.obj
 0002:00009784       ??_C@_1M@NIDEAGPH@?$AAs?$AAa?$AA?9?$AAI?$AAN?$AA?$AA@ 10038784     LIBCMT:winapinls.obj
 0002:00009790       ??_C@_1M@FHIHCBIO@?$AAm?$AAn?$AA?9?$AAM?$AAN?$AA?$AA@ 10038790     LIBCMT:winapinls.obj
 0002:0000979c       ??_C@_1M@JAIJPENP@?$AAc?$AAy?$AA?9?$AAG?$AAB?$AA?$AA@ 1003879c     LIBCMT:winapinls.obj
 0002:000097a8       ??_C@_1M@PHGFBEPN@?$AAg?$AAl?$AA?9?$AAE?$AAS?$AA?$AA@ 100387a8     LIBCMT:winapinls.obj
 0002:000097b4       ??_C@_1O@KPIPDNCP@?$AAk?$AAo?$AAk?$AA?9?$AAI?$AAN?$AA?$AA@ 100387b4     LIBCMT:winapinls.obj
 0002:000097c4       ??_C@_1O@KNHJLDJA@?$AAs?$AAy?$AAr?$AA?9?$AAS?$AAY?$AA?$AA@ 100387c4     LIBCMT:winapinls.obj
 0002:000097d4       ??_C@_1O@MKEKBLAH@?$AAd?$AAi?$AAv?$AA?9?$AAM?$AAV?$AA?$AA@ 100387d4     LIBCMT:winapinls.obj
 0002:000097e4       ??_C@_1O@OHDCKDDF@?$AAq?$AAu?$AAz?$AA?9?$AAB?$AAO?$AA?$AA@ 100387e4     LIBCMT:winapinls.obj
 0002:000097f4       ??_C@_1M@LEPJNLFD@?$AAn?$AAs?$AA?9?$AAZ?$AAA?$AA?$AA@ 100387f4     LIBCMT:winapinls.obj
 0002:00009800       ??_C@_1M@OMLEIIJB@?$AAm?$AAi?$AA?9?$AAN?$AAZ?$AA?$AA@ 10038800     LIBCMT:winapinls.obj
 0002:0000980c       ??_C@_1M@PMPEAILG@?$AAa?$AAr?$AA?9?$AAI?$AAQ?$AA?$AA@ 1003880c     LIBCMT:winapinls.obj
 0002:00009818       ??_C@_1M@CNKPNOEE@?$AAd?$AAe?$AA?9?$AAC?$AAH?$AA?$AA@ 10038818     LIBCMT:winapinls.obj
 0002:00009824       ??_C@_1M@LKMGMLKO@?$AAe?$AAn?$AA?9?$AAG?$AAB?$AA?$AA@ 10038824     LIBCMT:winapinls.obj
 0002:00009830       ??_C@_1M@PGKJFFGL@?$AAe?$AAs?$AA?9?$AAM?$AAX?$AA?$AA@ 10038830     LIBCMT:winapinls.obj
 0002:0000983c       ??_C@_1M@DNNANBDC@?$AAf?$AAr?$AA?9?$AAB?$AAE?$AA?$AA@ 1003883c     LIBCMT:winapinls.obj
 0002:00009848       ??_C@_1M@HLGMDFHM@?$AAi?$AAt?$AA?9?$AAC?$AAH?$AA?$AA@ 10038848     LIBCMT:winapinls.obj
 0002:00009854       ??_C@_1M@CLLBGJH@?$AAn?$AAl?$AA?9?$AAB?$AAE?$AA?$AA@ 10038854     LIBCMT:winapinls.obj
 0002:00009860       ??_C@_1M@BODBOGLF@?$AAn?$AAn?$AA?9?$AAN?$AAO?$AA?$AA@ 10038860     LIBCMT:winapinls.obj
 0002:0000986c       ??_C@_1M@HFFAHKAD@?$AAp?$AAt?$AA?9?$AAP?$AAT?$AA?$AA@ 1003886c     LIBCMT:winapinls.obj
 0002:00009878       ??_C@_1BG@LNOAKHIE@?$AAs?$AAr?$AA?9?$AAS?$AAP?$AA?9?$AAL?$AAa?$AAt?$AAn?$AA?$AA@ 10038878     LIBCMT:winapinls.obj
 0002:00009890       ??_C@_1M@HBMHBGAK@?$AAs?$AAv?$AA?9?$AAF?$AAI?$AA?$AA@ 10038890     LIBCMT:winapinls.obj
 0002:0000989c       ??_C@_1BG@DGCJGJBE@?$AAa?$AAz?$AA?9?$AAA?$AAZ?$AA?9?$AAC?$AAy?$AAr?$AAl?$AA?$AA@ 1003889c     LIBCMT:winapinls.obj
 0002:000098b4       ??_C@_1M@KEJDAAHB@?$AAs?$AAe?$AA?9?$AAS?$AAE?$AA?$AA@ 100388b4     LIBCMT:winapinls.obj
 0002:000098c0       ??_C@_1M@HEIBJJAD@?$AAm?$AAs?$AA?9?$AAB?$AAN?$AA?$AA@ 100388c0     LIBCMT:winapinls.obj
 0002:000098cc       ??_C@_1BG@PBGJMCEM@?$AAu?$AAz?$AA?9?$AAU?$AAZ?$AA?9?$AAC?$AAy?$AAr?$AAl?$AA?$AA@ 100388cc     LIBCMT:winapinls.obj
 0002:000098e4       ??_C@_1O@LAOBCMDF@?$AAq?$AAu?$AAz?$AA?9?$AAE?$AAC?$AA?$AA@ 100388e4     LIBCMT:winapinls.obj
 0002:000098f4       ??_C@_1M@POEEMAIO@?$AAa?$AAr?$AA?9?$AAE?$AAG?$AA?$AA@ 100388f4     LIBCMT:winapinls.obj
 0002:00009900       ??_C@_1M@EFAKDEDL@?$AAz?$AAh?$AA?9?$AAH?$AAK?$AA?$AA@ 10038900     LIBCMT:winapinls.obj
 0002:0000990c       ??_C@_1M@HKKIJHGI@?$AAd?$AAe?$AA?9?$AAA?$AAT?$AA?$AA@ 1003890c     LIBCMT:winapinls.obj
 0002:00009918       ??_C@_1M@KBFBEHJF@?$AAe?$AAn?$AA?9?$AAA?$AAU?$AA?$AA@ 10038918     LIBCMT:winapinls.obj
 0002:00009924       ??_C@_1M@MNPLFAAH@?$AAe?$AAs?$AA?9?$AAE?$AAS?$AA?$AA@ 10038924     LIBCMT:winapinls.obj
 0002:00009930       ??_C@_1M@HJOOJFMA@?$AAf?$AAr?$AA?9?$AAC?$AAA?$AA?$AA@ 10038930     LIBCMT:winapinls.obj
 0002:0000993c       ??_C@_1BG@JPOFPNAB@?$AAs?$AAr?$AA?9?$AAS?$AAP?$AA?9?$AAC?$AAy?$AAr?$AAl?$AA?$AA@ 1003893c     LIBCMT:winapinls.obj
 0002:00009954       ??_C@_1M@LNFOCMOB@?$AAs?$AAe?$AA?9?$AAF?$AAI?$AA?$AA@ 10038954     LIBCMT:winapinls.obj
 0002:00009960       ??_C@_1O@MGJBOAMB@?$AAq?$AAu?$AAz?$AA?9?$AAP?$AAE?$AA?$AA@ 10038960     LIBCMT:winapinls.obj
 0002:00009970       ??_C@_1M@GJINLBOK@?$AAa?$AAr?$AA?9?$AAL?$AAY?$AA?$AA@ 10038970     LIBCMT:winapinls.obj
 0002:0000997c       ??_C@_1M@GGMNHJNL@?$AAz?$AAh?$AA?9?$AAS?$AAG?$AA?$AA@ 1003897c     LIBCMT:winapinls.obj
 0002:00009988       ??_C@_1M@HOIKODND@?$AAd?$AAe?$AA?9?$AAL?$AAU?$AA?$AA@ 10038988     LIBCMT:winapinls.obj
 0002:00009994       ??_C@_1M@DDOCCGFG@?$AAe?$AAn?$AA?9?$AAC?$AAA?$AA?$AA@ 10038994     LIBCMT:winapinls.obj
 0002:000099a0       ??_C@_1M@BNOEMJLF@?$AAe?$AAs?$AA?9?$AAG?$AAT?$AA?$AA@ 100389a0     LIBCMT:winapinls.obj
 0002:000099ac       ??_C@_1M@EOGNKEK@?$AAf?$AAr?$AA?9?$AAC?$AAH?$AA?$AA@ 100389ac     LIBCMT:winapinls.obj
 0002:000099b8       ??_C@_1M@FLIDJFHL@?$AAh?$AAr?$AA?9?$AAB?$AAA?$AA?$AA@ 100389b8     LIBCMT:winapinls.obj
 0002:000099c4       ??_C@_1O@FMCELNAJ@?$AAs?$AAm?$AAj?$AA?9?$AAN?$AAO?$AA?$AA@ 100389c4     LIBCMT:winapinls.obj
 0002:000099d4       ??_C@_1M@JHGLJMGJ@?$AAa?$AAr?$AA?9?$AAD?$AAZ?$AA?$AA@ 100389d4     LIBCMT:winapinls.obj
 0002:000099e0       ??_C@_1M@JKKFDCNP@?$AAz?$AAh?$AA?9?$AAM?$AAO?$AA?$AA@ 100389e0     LIBCMT:winapinls.obj
 0002:000099ec       ??_C@_1M@GEEFALPE@?$AAd?$AAe?$AA?9?$AAL?$AAI?$AA?$AA@ 100389ec     LIBCMT:winapinls.obj
 0002:000099f8       ??_C@_1M@IGEOFBG@?$AAe?$AAn?$AA?9?$AAN?$AAZ?$AA?$AA@ 100389f8     LIBCMT:winapinls.obj
 0002:00009a04       ??_C@_1M@KDBONEHP@?$AAe?$AAs?$AA?9?$AAC?$AAR?$AA?$AA@ 10038a04     LIBCMT:winapinls.obj
 0002:00009a10       ??_C@_1M@FHMDOHNN@?$AAf?$AAr?$AA?9?$AAL?$AAU?$AA?$AA@ 10038a10     LIBCMT:winapinls.obj
 0002:00009a1c       ??_C@_1BG@NFKKMAFG@?$AAb?$AAs?$AA?9?$AAB?$AAA?$AA?9?$AAL?$AAa?$AAt?$AAn?$AA?$AA@ 10038a1c     LIBCMT:winapinls.obj
 0002:00009a34       ??_C@_1O@IMNBEMCI@?$AAs?$AAm?$AAj?$AA?9?$AAS?$AAE?$AA?$AA@ 10038a34     LIBCMT:winapinls.obj
 0002:00009a44       ??_C@_1M@DHHMBNDP@?$AAa?$AAr?$AA?9?$AAM?$AAA?$AA?$AA@ 10038a44     LIBCMT:winapinls.obj
 0002:00009a50       ??_C@_1M@BNBLJCGH@?$AAe?$AAn?$AA?9?$AAI?$AAE?$AA?$AA@ 10038a50     LIBCMT:winapinls.obj
 0002:00009a5c       ??_C@_1M@GEPAFMDL@?$AAe?$AAs?$AA?9?$AAP?$AAA?$AA?$AA@ 10038a5c     LIBCMT:winapinls.obj
 0002:00009a68       ??_C@_1M@OJONDMDL@?$AAf?$AAr?$AA?9?$AAM?$AAC?$AA?$AA@ 10038a68     LIBCMT:winapinls.obj
 0002:00009a74       ??_C@_1BG@OBCNFJB@?$AAs?$AAr?$AA?9?$AAB?$AAA?$AA?9?$AAL?$AAa?$AAt?$AAn?$AA?$AA@ 10038a74     LIBCMT:winapinls.obj
 0002:00009a8c       ??_C@_1O@KEMEEGPO@?$AAs?$AAm?$AAa?$AA?9?$AAN?$AAO?$AA?$AA@ 10038a8c     LIBCMT:winapinls.obj
 0002:00009a9c       ??_C@_1M@ELMGFODK@?$AAa?$AAr?$AA?9?$AAT?$AAN?$AA?$AA@ 10038a9c     LIBCMT:winapinls.obj
 0002:00009aa8       ??_C@_1M@BHDLHFAF@?$AAe?$AAn?$AA?9?$AAZ?$AAA?$AA?$AA@ 10038aa8     LIBCMT:winapinls.obj
 0002:00009ab4       ??_C@_1M@BMGIGLIF@?$AAe?$AAs?$AA?9?$AAD?$AAO?$AA?$AA@ 10038ab4     LIBCMT:winapinls.obj
 0002:00009ac0       ??_C@_1BG@CMBHIPBE@?$AAs?$AAr?$AA?9?$AAB?$AAA?$AA?9?$AAC?$AAy?$AAr?$AAl?$AA?$AA@ 10038ac0     LIBCMT:winapinls.obj
 0002:00009ad8       ??_C@_1O@HEDBLHNP@?$AAs?$AAm?$AAa?$AA?9?$AAS?$AAE?$AA?$AA@ 10038ad8     LIBCMT:winapinls.obj
 0002:00009ae8       ??_C@_1M@DAGCADIM@?$AAa?$AAr?$AA?9?$AAO?$AAM?$AA?$AA@ 10038ae8     LIBCMT:winapinls.obj
 0002:00009af4       ??_C@_1M@FODLMICG@?$AAe?$AAn?$AA?9?$AAJ?$AAM?$AA?$AA@ 10038af4     LIBCMT:winapinls.obj
 0002:00009b00       ??_C@_1M@DNMLCIHB@?$AAe?$AAs?$AA?9?$AAV?$AAE?$AA?$AA@ 10038b00     LIBCMT:winapinls.obj
 0002:00009b0c       ??_C@_1O@EOKHMKJK@?$AAs?$AAm?$AAs?$AA?9?$AAF?$AAI?$AA?$AA@ 10038b0c     LIBCMT:winapinls.obj
 0002:00009b1c       ??_C@_1M@CAFJMKOF@?$AAa?$AAr?$AA?9?$AAY?$AAE?$AA?$AA@ 10038b1c     LIBCMT:winapinls.obj
 0002:00009b28       ??_C@_1M@CBFHIJLI@?$AAe?$AAn?$AA?9?$AAC?$AAB?$AA?$AA@ 10038b28     LIBCMT:winapinls.obj
 0002:00009b34       ??_C@_1M@BGNFLDN@?$AAe?$AAs?$AA?9?$AAC?$AAO?$AA?$AA@ 10038b34     LIBCMT:winapinls.obj
 0002:00009b40       ??_C@_1O@JMPHMAMC@?$AAs?$AAm?$AAn?$AA?9?$AAF?$AAI?$AA?$AA@ 10038b40     LIBCMT:winapinls.obj
 0002:00009b50       ??_C@_1M@JLANABKE@?$AAa?$AAr?$AA?9?$AAS?$AAY?$AA?$AA@ 10038b50     LIBCMT:winapinls.obj
 0002:00009b5c       ??_C@_1M@HPKGCFGN@?$AAe?$AAn?$AA?9?$AAB?$AAZ?$AA?$AA@ 10038b5c     LIBCMT:winapinls.obj
 0002:00009b68       ??_C@_1M@OLJCMLGM@?$AAe?$AAs?$AA?9?$AAP?$AAE?$AA?$AA@ 10038b68     LIBCMT:winapinls.obj
 0002:00009b74       ??_C@_1M@MKKGFKLE@?$AAa?$AAr?$AA?9?$AAJ?$AAO?$AA?$AA@ 10038b74     LIBCMT:winapinls.obj
 0002:00009b80       ??_C@_1M@EKPGLDNI@?$AAe?$AAn?$AA?9?$AAT?$AAT?$AA?$AA@ 10038b80     LIBCMT:winapinls.obj
 0002:00009b8c       ??_C@_1M@OONGHFHE@?$AAe?$AAs?$AA?9?$AAA?$AAR?$AA?$AA@ 10038b8c     LIBCMT:winapinls.obj
 0002:00009b98       ??_C@_1M@OOJFGBHE@?$AAa?$AAr?$AA?9?$AAL?$AAB?$AA?$AA@ 10038b98     LIBCMT:winapinls.obj
 0002:00009ba4       ??_C@_1M@GCEJHNEG@?$AAe?$AAn?$AA?9?$AAZ?$AAW?$AA?$AA@ 10038ba4     LIBCMT:winapinls.obj
 0002:00009bb0       ??_C@_1M@JNOCAHJI@?$AAe?$AAs?$AA?9?$AAE?$AAC?$AA?$AA@ 10038bb0     LIBCMT:winapinls.obj
 0002:00009bbc       ??_C@_1M@JEFHPGGB@?$AAa?$AAr?$AA?9?$AAK?$AAW?$AA?$AA@ 10038bbc     LIBCMT:winapinls.obj
 0002:00009bc8       ??_C@_1M@MLKIBJOJ@?$AAe?$AAn?$AA?9?$AAP?$AAH?$AA?$AA@ 10038bc8     LIBCMT:winapinls.obj
 0002:00009bd4       ??_C@_1M@BDNIPEND@?$AAe?$AAs?$AA?9?$AAC?$AAL?$AA?$AA@ 10038bd4     LIBCMT:winapinls.obj
 0002:00009be0       ??_C@_1M@MPNMEKBD@?$AAa?$AAr?$AA?9?$AAA?$AAE?$AA?$AA@ 10038be0     LIBCMT:winapinls.obj
 0002:00009bec       ??_C@_1M@KBJALCPI@?$AAe?$AAs?$AA?9?$AAU?$AAY?$AA?$AA@ 10038bec     LIBCMT:winapinls.obj
 0002:00009bf8       ??_C@_1M@LLCCOAGA@?$AAa?$AAr?$AA?9?$AAB?$AAH?$AA?$AA@ 10038bf8     LIBCMT:winapinls.obj
 0002:00009c04       ??_C@_1M@PBFNCDEL@?$AAe?$AAs?$AA?9?$AAP?$AAY?$AA?$AA@ 10038c04     LIBCMT:winapinls.obj
 0002:00009c10       ??_C@_1M@EDGINPNP@?$AAa?$AAr?$AA?9?$AAQ?$AAA?$AA?$AA@ 10038c10     LIBCMT:winapinls.obj
 0002:00009c1c       ??_C@_1M@MKDBIIJI@?$AAe?$AAs?$AA?9?$AAB?$AAO?$AA?$AA@ 10038c1c     LIBCMT:winapinls.obj
 0002:00009c28       ??_C@_1M@CPKKEBLD@?$AAe?$AAs?$AA?9?$AAS?$AAV?$AA?$AA@ 10038c28     LIBCMT:winapinls.obj
 0002:00009c34       ??_C@_1M@NDBGMMJL@?$AAe?$AAs?$AA?9?$AAH?$AAN?$AA?$AA@ 10038c34     LIBCMT:winapinls.obj
 0002:00009c40       ??_C@_1M@JIJIBHDP@?$AAe?$AAs?$AA?9?$AAN?$AAI?$AA?$AA@ 10038c40     LIBCMT:winapinls.obj
 0002:00009c4c       ??_C@_1M@CGFMKEEK@?$AAe?$AAs?$AA?9?$AAP?$AAR?$AA?$AA@ 10038c4c     LIBCMT:winapinls.obj
 0002:00009c58       ??_C@_1O@ICJHKIIK@?$AAz?$AAh?$AA?9?$AAC?$AAH?$AAT?$AA?$AA@ 10038c58     LIBCMT:winapinls.obj
 0002:00009c68       ??_C@_15CLNEJCE@?$AAs?$AAr?$AA?$AA@ 10038c68     LIBCMT:winapinls.obj
 0002:00009c70       ??_C@_1M@KAHEKEIG@?$AAa?$AAf?$AA?9?$AAz?$AAa?$AA?$AA@ 10038c70     LIBCMT:winapinls.obj
 0002:00009c7c       ??_C@_1M@GIECOABL@?$AAa?$AAr?$AA?9?$AAa?$AAe?$AA?$AA@ 10038c7c     LIBCMT:winapinls.obj
 0002:00009c88       ??_C@_1M@BMLMEKGI@?$AAa?$AAr?$AA?9?$AAb?$AAh?$AA?$AA@ 10038c88     LIBCMT:winapinls.obj
 0002:00009c94       ??_C@_1M@DAPFDGGB@?$AAa?$AAr?$AA?9?$AAd?$AAz?$AA?$AA@ 10038c94     LIBCMT:winapinls.obj
 0002:00009ca0       ??_C@_1M@FJNKGKIG@?$AAa?$AAr?$AA?9?$AAe?$AAg?$AA?$AA@ 10038ca0     LIBCMT:winapinls.obj
 0002:00009cac       ??_C@_1M@FLGKKCLO@?$AAa?$AAr?$AA?9?$AAi?$AAq?$AA?$AA@ 10038cac     LIBCMT:winapinls.obj
 0002:00009cb8       ??_C@_1M@GNDIPALM@?$AAa?$AAr?$AA?9?$AAj?$AAo?$AA?$AA@ 10038cb8     LIBCMT:winapinls.obj
 0002:00009cc4       ??_C@_1M@DDMJFMGJ@?$AAa?$AAr?$AA?9?$AAk?$AAw?$AA?$AA@ 10038cc4     LIBCMT:winapinls.obj
 0002:00009cd0       ??_C@_1M@EJALMLHM@?$AAa?$AAr?$AA?9?$AAl?$AAb?$AA?$AA@ 10038cd0     LIBCMT:winapinls.obj
 0002:00009cdc       ??_C@_1M@MOBDBLOC@?$AAa?$AAr?$AA?9?$AAl?$AAy?$AA?$AA@ 10038cdc     LIBCMT:winapinls.obj
 0002:00009ce8       ??_C@_1M@JAOCLHDH@?$AAa?$AAr?$AA?9?$AAm?$AAa?$AA?$AA@ 10038ce8     LIBCMT:winapinls.obj
 0002:00009cf4       ??_C@_1M@JHPMKJIE@?$AAa?$AAr?$AA?9?$AAo?$AAm?$AA?$AA@ 10038cf4     LIBCMT:winapinls.obj
 0002:00009d00       ??_C@_1M@OEPGHFNH@?$AAa?$AAr?$AA?9?$AAq?$AAa?$AA?$AA@ 10038d00     LIBCMT:winapinls.obj
 0002:00009d0c       ??_C@_1M@KJDONENM@?$AAa?$AAr?$AA?9?$AAs?$AAa?$AA?$AA@ 10038d0c     LIBCMT:winapinls.obj
 0002:00009d18       ??_C@_1M@DMJDKLKM@?$AAa?$AAr?$AA?9?$AAs?$AAy?$AA?$AA@ 10038d18     LIBCMT:winapinls.obj
 0002:00009d24       ??_C@_1M@OMFIPEDC@?$AAa?$AAr?$AA?9?$AAt?$AAn?$AA?$AA@ 10038d24     LIBCMT:winapinls.obj
 0002:00009d30       ??_C@_1M@IHMHGAON@?$AAa?$AAr?$AA?9?$AAy?$AAe?$AA?$AA@ 10038d30     LIBCMT:winapinls.obj
 0002:00009d3c       ??_C@_1BG@KDCPGJGB@?$AAa?$AAz?$AA?9?$AAa?$AAz?$AA?9?$AAc?$AAy?$AAr?$AAl?$AA?$AA@ 10038d3c     LIBCMT:winapinls.obj
 0002:00009d54       ??_C@_1BG@IBCKDDOE@?$AAa?$AAz?$AA?9?$AAa?$AAz?$AA?9?$AAl?$AAa?$AAt?$AAn?$AA?$AA@ 10038d54     LIBCMT:winapinls.obj
 0002:00009d6c       ??_C@_1M@EGPFDCPD@?$AAb?$AAe?$AA?9?$AAb?$AAy?$AA?$AA@ 10038d6c     LIBCMT:winapinls.obj
 0002:00009d78       ??_C@_1M@PCMGMCGC@?$AAb?$AAg?$AA?9?$AAb?$AAg?$AA?$AA@ 10038d78     LIBCMT:winapinls.obj
 0002:00009d84       ??_C@_1M@BJBMFGOB@?$AAb?$AAn?$AA?9?$AAi?$AAn?$AA?$AA@ 10038d84     LIBCMT:winapinls.obj
 0002:00009d90       ??_C@_1BG@EAKMMACD@?$AAb?$AAs?$AA?9?$AAb?$AAa?$AA?9?$AAl?$AAa?$AAt?$AAn?$AA?$AA@ 10038d90     LIBCMT:winapinls.obj
 0002:00009da8       ??_C@_1M@KGADAODK@?$AAc?$AAa?$AA?9?$AAe?$AAs?$AA?$AA@ 10038da8     LIBCMT:winapinls.obj
 0002:00009db4       ??_C@_1M@COAJPDHI@?$AAc?$AAs?$AA?9?$AAc?$AAz?$AA?$AA@ 10038db4     LIBCMT:winapinls.obj
 0002:00009dc0       ??_C@_1M@DHBHFONH@?$AAc?$AAy?$AA?9?$AAg?$AAb?$AA?$AA@ 10038dc0     LIBCMT:winapinls.obj
 0002:00009dcc       ??_C@_1M@IMGKELGA@?$AAd?$AAa?$AA?9?$AAd?$AAk?$AA?$AA@ 10038dcc     LIBCMT:winapinls.obj
 0002:00009dd8       ??_C@_1M@NNDGDNGA@?$AAd?$AAe?$AA?9?$AAa?$AAt?$AA?$AA@ 10038dd8     LIBCMT:winapinls.obj
 0002:00009de4       ??_C@_1M@IKDBHEEM@?$AAd?$AAe?$AA?9?$AAc?$AAh?$AA?$AA@ 10038de4     LIBCMT:winapinls.obj
 0002:00009df0       ??_C@_1M@GFFOJMCJ@?$AAd?$AAe?$AA?9?$AAd?$AAe?$AA?$AA@ 10038df0     LIBCMT:winapinls.obj
 0002:00009dfc       ??_C@_1M@MDNLKBPM@?$AAd?$AAe?$AA?9?$AAl?$AAi?$AA?$AA@ 10038dfc     LIBCMT:winapinls.obj
 0002:00009e08       ??_C@_1M@NJBEEJNL@?$AAd?$AAe?$AA?9?$AAl?$AAu?$AA?$AA@ 10038e08     LIBCMT:winapinls.obj
 0002:00009e14       ??_C@_1O@GNNELBAP@?$AAd?$AAi?$AAv?$AA?9?$AAm?$AAv?$AA?$AA@ 10038e14     LIBCMT:winapinls.obj
 0002:00009e24       ??_C@_1M@EJLEOGAE@?$AAe?$AAl?$AA?9?$AAg?$AAr?$AA?$AA@ 10038e24     LIBCMT:winapinls.obj
 0002:00009e30       ??_C@_1M@GMPONJN@?$AAe?$AAn?$AA?9?$AAa?$AAu?$AA?$AA@ 10038e30     LIBCMT:winapinls.obj
 0002:00009e3c       ??_C@_1M@NIDIIPGF@?$AAe?$AAn?$AA?9?$AAb?$AAz?$AA?$AA@ 10038e3c     LIBCMT:winapinls.obj
 0002:00009e48       ??_C@_1M@JEHMIMFO@?$AAe?$AAn?$AA?9?$AAc?$AAa?$AA?$AA@ 10038e48     LIBCMT:winapinls.obj
 0002:00009e54       ??_C@_1M@IGMJCDLA@?$AAe?$AAn?$AA?9?$AAc?$AAb?$AA?$AA@ 10038e54     LIBCMT:winapinls.obj
 0002:00009e60       ??_C@_1M@BNFIGBKG@?$AAe?$AAn?$AA?9?$AAg?$AAb?$AA?$AA@ 10038e60     LIBCMT:winapinls.obj
 0002:00009e6c       ??_C@_1M@LKIFDIGP@?$AAe?$AAn?$AA?9?$AAi?$AAe?$AA?$AA@ 10038e6c     LIBCMT:winapinls.obj
 0002:00009e78       ??_C@_1M@PJKFGCCO@?$AAe?$AAn?$AA?9?$AAj?$AAm?$AA?$AA@ 10038e78     LIBCMT:winapinls.obj
 0002:00009e84       ??_C@_1M@KPPKEPBO@?$AAe?$AAn?$AA?9?$AAn?$AAz?$AA?$AA@ 10038e84     LIBCMT:winapinls.obj
 0002:00009e90       ??_C@_1M@GMDGLDOB@?$AAe?$AAn?$AA?9?$AAp?$AAh?$AA?$AA@ 10038e90     LIBCMT:winapinls.obj
 0002:00009e9c       ??_C@_1M@ONGIBJNA@?$AAe?$AAn?$AA?9?$AAt?$AAt?$AA?$AA@ 10038e9c     LIBCMT:winapinls.obj
 0002:00009ea8       ??_C@_1M@LLODPCMM@?$AAe?$AAn?$AA?9?$AAu?$AAs?$AA?$AA@ 10038ea8     LIBCMT:winapinls.obj
 0002:00009eb4       ??_C@_1M@LAKFNPAN@?$AAe?$AAn?$AA?9?$AAz?$AAa?$AA?$AA@ 10038eb4     LIBCMT:winapinls.obj
 0002:00009ec0       ??_C@_1M@MFNHNHEO@?$AAe?$AAn?$AA?9?$AAz?$AAw?$AA?$AA@ 10038ec0     LIBCMT:winapinls.obj
 0002:00009ecc       ??_C@_1M@EJEINPHM@?$AAe?$AAs?$AA?9?$AAa?$AAr?$AA?$AA@ 10038ecc     LIBCMT:winapinls.obj
 0002:00009ed8       ??_C@_1M@GNKPCCJA@?$AAe?$AAs?$AA?9?$AAb?$AAo?$AA?$AA@ 10038ed8     LIBCMT:winapinls.obj
 0002:00009ee4       ??_C@_1M@LEEGFONL@?$AAe?$AAs?$AA?9?$AAc?$AAl?$AA?$AA@ 10038ee4     LIBCMT:winapinls.obj
 0002:00009ef0       ??_C@_1M@KGPDPBDF@?$AAe?$AAs?$AA?9?$AAc?$AAo?$AA?$AA@ 10038ef0     LIBCMT:winapinls.obj
 0002:00009efc       ??_C@_1M@EIAHOHH@?$AAe?$AAs?$AA?9?$AAc?$AAr?$AA?$AA@ 10038efc     LIBCMT:winapinls.obj
 0002:00009f08       ??_C@_1M@LLPGMBIN@?$AAe?$AAs?$AA?9?$AAd?$AAo?$AA?$AA@ 10038f08     LIBCMT:winapinls.obj
 0002:00009f14       ??_C@_1M@DKHMKNJA@?$AAe?$AAs?$AA?9?$AAe?$AAc?$AA?$AA@ 10038f14     LIBCMT:winapinls.obj
 0002:00009f20       ??_C@_1M@GKGFPKAP@?$AAe?$AAs?$AA?9?$AAe?$AAs?$AA?$AA@ 10038f20     LIBCMT:winapinls.obj
 0002:00009f2c       ??_C@_1M@LKHKGDLN@?$AAe?$AAs?$AA?9?$AAg?$AAt?$AA?$AA@ 10038f2c     LIBCMT:winapinls.obj
 0002:00009f38       ??_C@_1M@HEIIGGJD@?$AAe?$AAs?$AA?9?$AAh?$AAn?$AA?$AA@ 10038f38     LIBCMT:winapinls.obj
 0002:00009f44       ??_C@_1M@FBDHPPGD@?$AAe?$AAs?$AA?9?$AAm?$AAx?$AA?$AA@ 10038f44     LIBCMT:winapinls.obj
 0002:00009f50       ??_C@_1M@DPAGLNDH@?$AAe?$AAs?$AA?9?$AAn?$AAi?$AA?$AA@ 10038f50     LIBCMT:winapinls.obj
 0002:00009f5c       ??_C@_1M@MDGOPGDD@?$AAe?$AAs?$AA?9?$AAp?$AAa?$AA?$AA@ 10038f5c     LIBCMT:winapinls.obj
 0002:00009f68       ??_C@_1M@EMAMGBGE@?$AAe?$AAs?$AA?9?$AAp?$AAe?$AA?$AA@ 10038f68     LIBCMT:winapinls.obj
 0002:00009f74       ??_C@_1M@IBMCAOEC@?$AAe?$AAs?$AA?9?$AAp?$AAr?$AA?$AA@ 10038f74     LIBCMT:winapinls.obj
 0002:00009f80       ??_C@_1M@FGMDIJED@?$AAe?$AAs?$AA?9?$AAp?$AAy?$AA?$AA@ 10038f80     LIBCMT:winapinls.obj
 0002:00009f8c       ??_C@_1M@IIDEOLLL@?$AAe?$AAs?$AA?9?$AAs?$AAv?$AA?$AA@ 10038f8c     LIBCMT:winapinls.obj
 0002:00009f98       ??_C@_1M@GAOBIPA@?$AAe?$AAs?$AA?9?$AAu?$AAy?$AA?$AA@ 10038f98     LIBCMT:winapinls.obj
 0002:00009fa4       ??_C@_1M@JKFFICHJ@?$AAe?$AAs?$AA?9?$AAv?$AAe?$AA?$AA@ 10038fa4     LIBCMT:winapinls.obj
 0002:00009fb0       ??_C@_1M@PNMLOJDF@?$AAe?$AAt?$AA?9?$AAe?$AAe?$AA?$AA@ 10038fb0     LIBCMT:winapinls.obj
 0002:00009fbc       ??_C@_1M@GHHLIKEI@?$AAe?$AAu?$AA?9?$AAe?$AAs?$AA?$AA@ 10038fbc     LIBCMT:winapinls.obj
 0002:00009fc8       ??_C@_1M@PBNONODE@?$AAf?$AAa?$AA?9?$AAi?$AAr?$AA?$AA@ 10038fc8     LIBCMT:winapinls.obj
 0002:00009fd4       ??_C@_1M@JEEHPMIL@?$AAf?$AAi?$AA?9?$AAf?$AAi?$AA?$AA@ 10038fd4     LIBCMT:winapinls.obj
 0002:00009fe0       ??_C@_1M@LMDCNDBA@?$AAf?$AAo?$AA?9?$AAf?$AAo?$AA?$AA@ 10038fe0     LIBCMT:winapinls.obj
 0002:00009fec       ??_C@_1M@JKEOHLDK@?$AAf?$AAr?$AA?9?$AAb?$AAe?$AA?$AA@ 10038fec     LIBCMT:winapinls.obj
 0002:00009ff8       ??_C@_1M@NOHADPMI@?$AAf?$AAr?$AA?9?$AAc?$AAa?$AA?$AA@ 10038ff8     LIBCMT:winapinls.obj
 0002:0000a004       ??_C@_1M@KDHIHAEC@?$AAf?$AAr?$AA?9?$AAc?$AAh?$AA?$AA@ 10039004     LIBCMT:winapinls.obj
 0002:0000a010       ??_C@_1M@MMBBFGAK@?$AAf?$AAr?$AA?9?$AAf?$AAr?$AA?$AA@ 10039010     LIBCMT:winapinls.obj
 0002:0000a01c       ??_C@_1M@PAFNENNF@?$AAf?$AAr?$AA?9?$AAl?$AAu?$AA?$AA@ 1003901c     LIBCMT:winapinls.obj
 0002:0000a028       ??_C@_1M@EOHDJGDD@?$AAf?$AAr?$AA?9?$AAm?$AAc?$AA?$AA@ 10039028     LIBCMT:winapinls.obj
 0002:0000a034       ??_C@_1M@FAPLLOPF@?$AAg?$AAl?$AA?9?$AAe?$AAs?$AA?$AA@ 10039034     LIBCMT:winapinls.obj
 0002:0000a040       ??_C@_1M@FOPBFLOO@?$AAg?$AAu?$AA?9?$AAi?$AAn?$AA?$AA@ 10039040     LIBCMT:winapinls.obj
 0002:0000a04c       ??_C@_1M@KBMCINPM@?$AAh?$AAe?$AA?9?$AAi?$AAl?$AA?$AA@ 1003904c     LIBCMT:winapinls.obj
 0002:0000a058       ??_C@_1M@BBPHKFPJ@?$AAh?$AAi?$AA?9?$AAi?$AAn?$AA?$AA@ 10039058     LIBCMT:winapinls.obj
 0002:0000a064       ??_C@_1M@PMBNDPHD@?$AAh?$AAr?$AA?9?$AAb?$AAa?$AA?$AA@ 10039064     LIBCMT:winapinls.obj
 0002:0000a070       ??_C@_1M@BPCKOEGE@?$AAh?$AAr?$AA?9?$AAh?$AAr?$AA?$AA@ 10039070     LIBCMT:winapinls.obj
 0002:0000a07c       ??_C@_1M@GACBMHKE@?$AAh?$AAu?$AA?9?$AAh?$AAu?$AA?$AA@ 1003907c     LIBCMT:winapinls.obj
 0002:0000a088       ??_C@_1M@MILPAJJC@?$AAh?$AAy?$AA?9?$AAa?$AAm?$AA?$AA@ 10039088     LIBCMT:winapinls.obj
 0002:0000a094       ??_C@_1M@BABBICEC@?$AAi?$AAd?$AA?9?$AAi?$AAd?$AA?$AA@ 10039094     LIBCMT:winapinls.obj
 0002:0000a0a0       ??_C@_1M@BIKNHHPF@?$AAi?$AAs?$AA?9?$AAi?$AAs?$AA?$AA@ 100390a0     LIBCMT:winapinls.obj
 0002:0000a0ac       ??_C@_1M@NMPCJPHE@?$AAi?$AAt?$AA?9?$AAc?$AAh?$AA?$AA@ 100390ac     LIBCMT:winapinls.obj
 0002:0000a0b8       ??_C@_1M@GHKGFEDF@?$AAi?$AAt?$AA?9?$AAi?$AAt?$AA?$AA@ 100390b8     LIBCMT:winapinls.obj
 0002:0000a0c4       ??_C@_1M@NIEJCJJA@?$AAj?$AAa?$AA?9?$AAj?$AAp?$AA?$AA@ 100390c4     LIBCMT:winapinls.obj
 0002:0000a0d0       ??_C@_1M@JILFNBIM@?$AAk?$AAa?$AA?9?$AAg?$AAe?$AA?$AA@ 100390d0     LIBCMT:winapinls.obj
 0002:0000a0dc       ??_C@_1M@PACPMGPH@?$AAk?$AAk?$AA?9?$AAk?$AAz?$AA?$AA@ 100390dc     LIBCMT:winapinls.obj
 0002:0000a0e8       ??_C@_1M@IELFGMHA@?$AAk?$AAn?$AA?9?$AAi?$AAn?$AA?$AA@ 100390e8     LIBCMT:winapinls.obj
 0002:0000a0f4       ??_C@_1O@IBBJHCH@?$AAk?$AAo?$AAk?$AA?9?$AAi?$AAn?$AA?$AA@ 100390f4     LIBCMT:winapinls.obj
 0002:0000a104       ??_C@_1M@DMHAEOGC@?$AAk?$AAo?$AA?9?$AAk?$AAr?$AA?$AA@ 10039104     LIBCMT:winapinls.obj
 0002:0000a110       ??_C@_1M@HBAHBIGA@?$AAk?$AAy?$AA?9?$AAk?$AAg?$AA?$AA@ 10039110     LIBCMT:winapinls.obj
 0002:0000a11c       ??_C@_1M@KPMILCJG@?$AAl?$AAt?$AA?9?$AAl?$AAt?$AA?$AA@ 1003911c     LIBCMT:winapinls.obj
 0002:0000a128       ??_C@_1M@BDEKKCA@?$AAl?$AAv?$AA?9?$AAl?$AAv?$AA?$AA@ 10039128     LIBCMT:winapinls.obj
 0002:0000a134       ??_C@_1M@ELCKCCJJ@?$AAm?$AAi?$AA?9?$AAn?$AAz?$AA?$AA@ 10039134     LIBCMT:winapinls.obj
 0002:0000a140       ??_C@_1M@CBOOLAPA@?$AAm?$AAk?$AA?9?$AAm?$AAk?$AA?$AA@ 10039140     LIBCMT:winapinls.obj
 0002:0000a14c       ??_C@_1M@GPHNBJKN@?$AAm?$AAl?$AA?9?$AAi?$AAn?$AA?$AA@ 1003914c     LIBCMT:winapinls.obj
 0002:0000a158       ??_C@_1M@PABJILIG@?$AAm?$AAn?$AA?9?$AAm?$AAn?$AA?$AA@ 10039158     LIBCMT:winapinls.obj
 0002:0000a164       ??_C@_1M@FGBKKIPG@?$AAm?$AAr?$AA?9?$AAi?$AAn?$AA?$AA@ 10039164     LIBCMT:winapinls.obj
 0002:0000a170       ??_C@_1M@NDBPDDAL@?$AAm?$AAs?$AA?9?$AAb?$AAn?$AA?$AA@ 10039170     LIBCMT:winapinls.obj
 0002:0000a17c       ??_C@_1M@OPIHOOPI@?$AAm?$AAs?$AA?9?$AAm?$AAy?$AA?$AA@ 1003917c     LIBCMT:winapinls.obj
 0002:0000a188       ??_C@_1M@PPDBCNFM@?$AAm?$AAt?$AA?9?$AAm?$AAt?$AA?$AA@ 10039188     LIBCMT:winapinls.obj
 0002:0000a194       ??_C@_1M@KDJDKMDD@?$AAn?$AAb?$AA?9?$AAn?$AAo?$AA?$AA@ 10039194     LIBCMT:winapinls.obj
 0002:0000a1a0       ??_C@_1M@KFCFLMJP@?$AAn?$AAl?$AA?9?$AAb?$AAe?$AA?$AA@ 100391a0     LIBCMT:winapinls.obj
 0002:0000a1ac       ??_C@_1M@KPOPDDGO@?$AAn?$AAl?$AA?9?$AAn?$AAl?$AA?$AA@ 100391ac     LIBCMT:winapinls.obj
 0002:0000a1b8       ??_C@_1M@LJKPEMLN@?$AAn?$AAn?$AA?9?$AAn?$AAo?$AA?$AA@ 100391b8     LIBCMT:winapinls.obj
 0002:0000a1c4       ??_C@_1M@BDGHHBFL@?$AAn?$AAs?$AA?9?$AAz?$AAa?$AA?$AA@ 100391c4     LIBCMT:winapinls.obj
 0002:0000a1d0       ??_C@_1M@IDEHOAP@?$AAp?$AAa?$AA?9?$AAi?$AAn?$AA?$AA@ 100391d0     LIBCMT:winapinls.obj
 0002:0000a1dc       ??_C@_1M@HDBKGOGH@?$AAp?$AAl?$AA?9?$AAp?$AAl?$AA?$AA@ 100391dc     LIBCMT:winapinls.obj
 0002:0000a1e8       ??_C@_1M@LJLLCMEH@?$AAp?$AAt?$AA?9?$AAb?$AAr?$AA?$AA@ 100391e8     LIBCMT:winapinls.obj
 0002:0000a1f4       ??_C@_1M@NCMONAAL@?$AAp?$AAt?$AA?9?$AAp?$AAt?$AA?$AA@ 100391f4     LIBCMT:winapinls.obj
 0002:0000a200       ??_C@_1O@EAKMAJDN@?$AAq?$AAu?$AAz?$AA?9?$AAb?$AAo?$AA?$AA@ 10039200     LIBCMT:winapinls.obj
 0002:0000a210       ??_C@_1O@BHHPIGDN@?$AAq?$AAu?$AAz?$AA?9?$AAe?$AAc?$AA?$AA@ 10039210     LIBCMT:winapinls.obj
 0002:0000a220       ??_C@_1O@GBAPEKMJ@?$AAq?$AAu?$AAz?$AA?9?$AAp?$AAe?$AA?$AA@ 10039220     LIBCMT:winapinls.obj
 0002:0000a230       ??_C@_1M@CLGLEFBO@?$AAr?$AAo?$AA?9?$AAr?$AAo?$AA?$AA@ 10039230     LIBCMT:winapinls.obj
 0002:0000a23c       ??_C@_1M@CEEDODME@?$AAr?$AAu?$AA?9?$AAr?$AAu?$AA?$AA@ 1003923c     LIBCMT:winapinls.obj
 0002:0000a248       ??_C@_1M@HPKKKMPP@?$AAs?$AAa?$AA?9?$AAi?$AAn?$AA?$AA@ 10039248     LIBCMT:winapinls.obj
 0002:0000a254       ??_C@_1M@BKMAIGOJ@?$AAs?$AAe?$AA?9?$AAf?$AAi?$AA?$AA@ 10039254     LIBCMT:winapinls.obj
 0002:0000a260       ??_C@_1M@NDPIFLFI@?$AAs?$AAe?$AA?9?$AAn?$AAo?$AA?$AA@ 10039260     LIBCMT:winapinls.obj
 0002:0000a26c       ??_C@_1M@DANKKHJ@?$AAs?$AAe?$AA?9?$AAs?$AAe?$AA?$AA@ 1003926c     LIBCMT:winapinls.obj
 0002:0000a278       ??_C@_1M@PNBLONPJ@?$AAs?$AAk?$AA?9?$AAs?$AAk?$AA?$AA@ 10039278     LIBCMT:winapinls.obj
 0002:0000a284       ??_C@_1M@LFMODOAL@?$AAs?$AAl?$AA?9?$AAs?$AAi?$AA?$AA@ 10039284     LIBCMT:winapinls.obj
 0002:0000a290       ??_C@_1O@DFKOMPG@?$AAs?$AAm?$AAa?$AA?9?$AAn?$AAo?$AA?$AA@ 10039290     LIBCMT:winapinls.obj
 0002:0000a2a0       ??_C@_1O@NDKPBNNH@?$AAs?$AAm?$AAa?$AA?9?$AAs?$AAe?$AA?$AA@ 100392a0     LIBCMT:winapinls.obj
 0002:0000a2b0       ??_C@_1O@PLLKBHAB@?$AAs?$AAm?$AAj?$AA?9?$AAn?$AAo?$AA?$AA@ 100392b0     LIBCMT:winapinls.obj
 0002:0000a2c0       ??_C@_1O@CLEPOGCA@?$AAs?$AAm?$AAj?$AA?9?$AAs?$AAe?$AA?$AA@ 100392c0     LIBCMT:winapinls.obj
 0002:0000a2d0       ??_C@_1O@DLGJGKMK@?$AAs?$AAm?$AAn?$AA?9?$AAf?$AAi?$AA?$AA@ 100392d0     LIBCMT:winapinls.obj
 0002:0000a2e0       ??_C@_1O@OJDJGAJC@?$AAs?$AAm?$AAs?$AA?9?$AAf?$AAi?$AA?$AA@ 100392e0     LIBCMT:winapinls.obj
 0002:0000a2f0       ??_C@_1M@BOFOGHPB@?$AAs?$AAq?$AA?9?$AAa?$AAl?$AA?$AA@ 100392f0     LIBCMT:winapinls.obj
 0002:0000a2fc       ??_C@_1BG@LJBBIPGB@?$AAs?$AAr?$AA?9?$AAb?$AAa?$AA?9?$AAc?$AAy?$AAr?$AAl?$AA?$AA@ 100392fc     LIBCMT:winapinls.obj
 0002:0000a314       ??_C@_1BG@JLBENFOE@?$AAs?$AAr?$AA?9?$AAb?$AAa?$AA?9?$AAl?$AAa?$AAt?$AAn?$AA?$AA@ 10039314     LIBCMT:winapinls.obj
 0002:0000a32c       ??_C@_1BG@KODPNHE@?$AAs?$AAr?$AA?9?$AAs?$AAp?$AA?9?$AAc?$AAy?$AAr?$AAl?$AA?$AA@ 1003932c     LIBCMT:winapinls.obj
 0002:0000a344       ??_C@_1BG@CIOGKHPB@?$AAs?$AAr?$AA?9?$AAs?$AAp?$AA?9?$AAl?$AAa?$AAt?$AAn?$AA?$AA@ 10039344     LIBCMT:winapinls.obj
 0002:0000a35c       ??_C@_1M@NGFJLMAC@?$AAs?$AAv?$AA?9?$AAf?$AAi?$AA?$AA@ 1003935c     LIBCMT:winapinls.obj
 0002:0000a368       ??_C@_1M@MPJEJAJC@?$AAs?$AAv?$AA?9?$AAs?$AAe?$AA?$AA@ 10039368     LIBCMT:winapinls.obj
 0002:0000a374       ??_C@_1M@MPNDHLFK@?$AAs?$AAw?$AA?9?$AAk?$AAe?$AA?$AA@ 10039374     LIBCMT:winapinls.obj
 0002:0000a380       ??_C@_1O@KOHBJJI@?$AAs?$AAy?$AAr?$AA?9?$AAs?$AAy?$AA?$AA@ 10039380     LIBCMT:winapinls.obj
 0002:0000a390       ??_C@_1M@LDCEFHA@?$AAt?$AAa?$AA?9?$AAi?$AAn?$AA?$AA@ 10039390     LIBCMT:winapinls.obj
 0002:0000a39c       ??_C@_1M@CNJOFAK@?$AAt?$AAe?$AA?9?$AAi?$AAn?$AA?$AA@ 1003939c     LIBCMT:winapinls.obj
 0002:0000a3a8       ??_C@_1M@GNAECACD@?$AAt?$AAh?$AA?9?$AAt?$AAh?$AA?$AA@ 100393a8     LIBCMT:winapinls.obj
 0002:0000a3b4       ??_C@_1M@CHBIHOJO@?$AAt?$AAn?$AA?9?$AAz?$AAa?$AA?$AA@ 100393b4     LIBCMT:winapinls.obj
 0002:0000a3c0       ??_C@_1M@GCCMIGPJ@?$AAt?$AAr?$AA?9?$AAt?$AAr?$AA?$AA@ 100393c0     LIBCMT:winapinls.obj
 0002:0000a3cc       ??_C@_1M@CELMCNBK@?$AAt?$AAt?$AA?9?$AAr?$AAu?$AA?$AA@ 100393cc     LIBCMT:winapinls.obj
 0002:0000a3d8       ??_C@_1M@KLMCELGA@?$AAu?$AAk?$AA?9?$AAu?$AAa?$AA?$AA@ 100393d8     LIBCMT:winapinls.obj
 0002:0000a3e4       ??_C@_1M@EPAJJAJF@?$AAu?$AAr?$AA?9?$AAp?$AAk?$AA?$AA@ 100393e4     LIBCMT:winapinls.obj
 0002:0000a3f0       ??_C@_1BG@GEGPMCDJ@?$AAu?$AAz?$AA?9?$AAu?$AAz?$AA?9?$AAc?$AAy?$AAr?$AAl?$AA?$AA@ 100393f0     LIBCMT:winapinls.obj
 0002:0000a408       ??_C@_1BG@EGGKJILM@?$AAu?$AAz?$AA?9?$AAu?$AAz?$AA?9?$AAl?$AAa?$AAt?$AAn?$AA?$AA@ 10039408     LIBCMT:winapinls.obj
 0002:0000a420       ??_C@_1M@GFOCLFF@?$AAv?$AAi?$AA?9?$AAv?$AAn?$AA?$AA@ 10039420     LIBCMT:winapinls.obj
 0002:0000a42c       ??_C@_1M@CPAMEDFI@?$AAx?$AAh?$AA?9?$AAz?$AAa?$AA?$AA@ 1003942c     LIBCMT:winapinls.obj
 0002:0000a438       ??_C@_1O@EBKIFIGN@?$AAz?$AAh?$AA?9?$AAc?$AAh?$AAs?$AA?$AA@ 10039438     LIBCMT:winapinls.obj
 0002:0000a448       ??_C@_1O@NMHPGANE@?$AAz?$AAh?$AA?9?$AAc?$AAh?$AAt?$AA?$AA@ 10039448     LIBCMT:winapinls.obj
 0002:0000a458       ??_C@_1M@LPINJOMC@?$AAz?$AAh?$AA?9?$AAc?$AAn?$AA?$AA@ 10039458     LIBCMT:winapinls.obj
 0002:0000a464       ??_C@_1M@OCJEJODD@?$AAz?$AAh?$AA?9?$AAh?$AAk?$AA?$AA@ 10039464     LIBCMT:winapinls.obj
 0002:0000a470       ??_C@_1M@DNDLJINH@?$AAz?$AAh?$AA?9?$AAm?$AAo?$AA?$AA@ 10039470     LIBCMT:winapinls.obj
 0002:0000a47c       ??_C@_1M@MBFDNDND@?$AAz?$AAh?$AA?9?$AAs?$AAg?$AA?$AA@ 1003947c     LIBCMT:winapinls.obj
 0002:0000a488       ??_C@_1M@IMEPLEPE@?$AAz?$AAh?$AA?9?$AAt?$AAw?$AA?$AA@ 10039488     LIBCMT:winapinls.obj
 0002:0000a494       ??_C@_1M@BBGHNHJP@?$AAz?$AAu?$AA?9?$AAz?$AAa?$AA?$AA@ 10039494     LIBCMT:winapinls.obj
 0002:0000a628       ??_C@_08EHJDFFNH@__based?$CI?$AA@ 10039628     LIBCMT:undname.obj
 0002:0000a634       ??_C@_07KOLFKCDI@__cdecl?$AA@ 10039634     LIBCMT:undname.obj
 0002:0000a63c       ??_C@_08GHMPAG@__pascal?$AA@ 1003963c     LIBCMT:undname.obj
 0002:0000a648       ??_C@_09IFJBGAPI@__stdcall?$AA@ 10039648     LIBCMT:undname.obj
 0002:0000a654       ??_C@_0L@NPHFGOKO@__thiscall?$AA@ 10039654     LIBCMT:undname.obj
 0002:0000a660       ??_C@_0L@JMKHOMEK@__fastcall?$AA@ 10039660     LIBCMT:undname.obj
 0002:0000a66c       ??_C@_09HIJEGCPM@__clrcall?$AA@ 1003966c     LIBCMT:undname.obj
 0002:0000a678       ??_C@_06GHPCKEAG@__eabi?$AA@ 10039678     LIBCMT:undname.obj
 0002:0000a680       ??_C@_07JOMMBBKO@__ptr64?$AA@ 10039680     LIBCMT:undname.obj
 0002:0000a688       ??_C@_0L@PILCLIHE@__restrict?$AA@ 10039688     LIBCMT:undname.obj
 0002:0000a694       ??_C@_0M@GFIIJFMG@__unaligned?$AA@ 10039694     LIBCMT:undname.obj
 0002:0000a6a0       ??_C@_09DHDLOLLB@restrict?$CI?$AA@ 100396a0     LIBCMT:undname.obj
 0002:0000a6ac       ??_C@_04NIHEBCM@?5new?$AA@ 100396ac     LIBCMT:undname.obj
 0002:0000a6b4       ??_C@_07FPCDHGMM@?5delete?$AA@ 100396b4     LIBCMT:undname.obj
 0002:0000a6bc       ??_C@_01NEMOKFLO@?$DN?$AA@ 100396bc     LIBCMT:undname.obj
 0002:0000a6c0       ??_C@_02GPIOPFAK@?$DO?$DO?$AA@ 100396c0     LIBCMT:undname.obj
 0002:0000a6c4       ??_C@_02FODMEDOG@?$DM?$DM?$AA@ 100396c4     LIBCMT:undname.obj
 0002:0000a6c8       ??_C@_01DCLJPIOD@?$CB?$AA@ 100396c8     LIBCMT:undname.obj
 0002:0000a6cc       ??_C@_02EGOFBIJA@?$DN?$DN?$AA@ 100396cc     LIBCMT:undname.obj
 0002:0000a6d0       ??_C@_02FDNJECIE@?$CB?$DN?$AA@ 100396d0     LIBCMT:undname.obj
 0002:0000a6d4       ??_C@_02GPECMEKF@?$FL?$FN?$AA@ 100396d4     LIBCMT:undname.obj
 0002:0000a6d8       ??_C@_08LHJFAFGD@operator?$AA@ 100396d8     LIBCMT:undname.obj
 0002:0000a6e4       ??_C@_02HBOOOICD@?9?$DO?$AA@ 100396e4     LIBCMT:undname.obj
 0002:0000a6e8       ??_C@_01NBENCBCI@?$CK?$AA@ 100396e8     LIBCMT:undname.obj
 0002:0000a6ec       ??_C@_02ECNGHCIF@?$CL?$CL?$AA@ 100396ec     LIBCMT:undname.obj
 0002:0000a6f0       ??_C@_02BAABKJLB@?9?9?$AA@ 100396f0     LIBCMT:undname.obj
 0002:0000a6f4       ??_C@_01MIFGBAGJ@?$CL?$AA@ 100396f4     LIBCMT:undname.obj
 0002:0000a6f8       ??_C@_01HNPIGOCE@?$CG?$AA@ 100396f8     LIBCMT:undname.obj
 0002:0000a6fc       ??_C@_03MNHNFDLC@?9?$DO?$CK?$AA@ 100396fc     LIBCMT:undname.obj
 0002:0000a700       ??_C@_01KMDKNFGN@?1?$AA@   10039700     LIBCMT:undname.obj
 0002:0000a704       ??_C@_01FGNFDNOH@?$CF?$AA@ 10039704     LIBCMT:undname.obj
 0002:0000a708       ??_C@_01MNNFJEPP@?$DM?$AA@ 10039708     LIBCMT:undname.obj
 0002:0000a70c       ??_C@_02EHCHHCKH@?$DM?$DN?$AA@ 1003970c     LIBCMT:undname.obj
 0002:0000a710       ??_C@_01PPODPGHN@?$DO?$AA@ 10039710     LIBCMT:undname.obj
 0002:0000a714       ??_C@_02EEKDKGMJ@?$DO?$DN?$AA@ 10039714     LIBCMT:undname.obj
 0002:0000a718       ??_C@_01IHBHIGKO@?0?$AA@   10039718     LIBCMT:undname.obj
 0002:0000a71c       ??_C@_02HCKGKOFO@?$CI?$CJ?$AA@ 1003971c     LIBCMT:undname.obj
 0002:0000a720       ??_C@_01PJKLJHI@?$HO?$AA@  10039720     LIBCMT:undname.obj
 0002:0000a724       ??_C@_01JKBOJNNK@?$FO?$AA@ 10039724     LIBCMT:undname.obj
 0002:0000a728       ??_C@_01DNKMNLPK@?$HM?$AA@ 10039728     LIBCMT:undname.obj
 0002:0000a72c       ??_C@_02PPKAJPJL@?$CG?$CG?$AA@ 1003972c     LIBCMT:undname.obj
 0002:0000a730       ??_C@_02NONPIBCD@?$HM?$HM?$AA@ 10039730     LIBCMT:undname.obj
 0002:0000a734       ??_C@_02FPIMKNGF@?$CK?$DN?$AA@ 10039734     LIBCMT:undname.obj
 0002:0000a738       ??_C@_02FOEOMHFC@?$CL?$DN?$AA@ 10039738     LIBCMT:undname.obj
 0002:0000a73c       ??_C@_02FKMDLLOA@?9?$DN?$AA@ 1003973c     LIBCMT:undname.obj
 0002:0000a740       ??_C@_02FJEHGPIO@?1?$DN?$AA@ 10039740     LIBCMT:undname.obj
 0002:0000a744       ??_C@_02FENAOKFI@?$CF?$DN?$AA@ 10039744     LIBCMT:undname.obj
 0002:0000a748       ??_C@_03IKFCCPFF@?$DO?$DO?$DN?$AA@ 10039748     LIBCMT:undname.obj
 0002:0000a74c       ??_C@_03CDNPDDLA@?$DM?$DM?$DN?$AA@ 1003974c     LIBCMT:undname.obj
 0002:0000a750       ??_C@_02FGJGFEAB@?$CG?$DN?$AA@ 10039750     LIBCMT:undname.obj
 0002:0000a754       ??_C@_02DHLNPPGH@?$HM?$DN?$AA@ 10039754     LIBCMT:undname.obj
 0002:0000a758       ??_C@_02MHEGNOJ@?$FO?$DN?$AA@ 10039758     LIBCMT:undname.obj
 0002:0000a75c       ??_C@_09IFPLHPGF@?$GAvftable?8?$AA@ 1003975c     LIBCMT:undname.obj
 0002:0000a768       ??_C@_09BLBHBJP@?$GAvbtable?8?$AA@ 10039768     LIBCMT:undname.obj
 0002:0000a774       ??_C@_07FEEIOKP@?$GAvcall?8?$AA@ 10039774     LIBCMT:undname.obj
 0002:0000a77c       ??_C@_08LLFFHHDJ@?$GAtypeof?8?$AA@ 1003977c     LIBCMT:undname.obj
 0002:0000a788       ??_C@_0BF@KDPPACIK@?$GAlocal?5static?5guard?8?$AA@ 10039788     LIBCMT:undname.obj
 0002:0000a7a0       ??_C@_08OBABFOLI@?$GAstring?8?$AA@ 100397a0     LIBCMT:undname.obj
 0002:0000a7ac       ??_C@_0BD@JDLKDPAB@?$GAvbase?5destructor?8?$AA@ 100397ac     LIBCMT:undname.obj
 0002:0000a7c0       ??_C@_0BN@DEGPLNFK@?$GAvector?5deleting?5destructor?8?$AA@ 100397c0     LIBCMT:undname.obj
 0002:0000a7e0       ??_C@_0BO@OBMKPJIG@?$GAdefault?5constructor?5closure?8?$AA@ 100397e0     LIBCMT:undname.obj
 0002:0000a800       ??_C@_0BN@IMDCHIKM@?$GAscalar?5deleting?5destructor?8?$AA@ 10039800     LIBCMT:undname.obj
 0002:0000a820       ??_C@_0BO@PFGOCPJJ@?$GAvector?5constructor?5iterator?8?$AA@ 10039820     LIBCMT:undname.obj
 0002:0000a840       ??_C@_0BN@LFPFMEDL@?$GAvector?5destructor?5iterator?8?$AA@ 10039840     LIBCMT:undname.obj
 0002:0000a860       ??_C@_0CE@IKBNEHA@?$GAvector?5vbase?5constructor?5iterat@ 10039860     LIBCMT:undname.obj
 0002:0000a884       ??_C@_0BL@NILFHHPC@?$GAvirtual?5displacement?5map?8?$AA@ 10039884     LIBCMT:undname.obj
 0002:0000a8a0       ??_C@_0CB@JONCMFFK@?$GAeh?5vector?5constructor?5iterator?8@ 100398a0     LIBCMT:undname.obj
 0002:0000a8c4       ??_C@_0CA@GCEOPDGL@?$GAeh?5vector?5destructor?5iterator?8?$AA@ 100398c4     LIBCMT:undname.obj
 0002:0000a8e4       ??_C@_0CH@OOJPLCPH@?$GAeh?5vector?5vbase?5constructor?5ite@ 100398e4     LIBCMT:undname.obj
 0002:0000a90c       ??_C@_0BL@LLKPOHJI@?$GAcopy?5constructor?5closure?8?$AA@ 1003990c     LIBCMT:undname.obj
 0002:0000a928       ??_C@_0BA@KBCDOMBN@?$GAudt?5returning?8?$AA@ 10039928     LIBCMT:undname.obj
 0002:0000a938       ??_C@_03KLGMFNMG@?$GAEH?$AA@ 10039938     LIBCMT:undname.obj
 0002:0000a93c       ??_C@_05KHLCHHI@?$GARTTI?$AA@ 1003993c     LIBCMT:undname.obj
 0002:0000a944       ??_C@_0BA@KKLDJDLB@?$GAlocal?5vftable?8?$AA@ 10039944     LIBCMT:undname.obj
 0002:0000a954       ??_C@_0CE@IIHCMGGL@?$GAlocal?5vftable?5constructor?5closu@ 10039954     LIBCMT:undname.obj
 0002:0000a978       ??_C@_06FHBGPFGH@?5new?$FL?$FN?$AA@ 10039978     LIBCMT:undname.obj
 0002:0000a980       ??_C@_09LBNFPBCA@?5delete?$FL?$FN?$AA@ 10039980     LIBCMT:undname.obj
 0002:0000a98c       ??_C@_0P@HJKNJFNN@?$GAomni?5callsig?8?$AA@ 1003998c     LIBCMT:undname.obj
 0002:0000a99c       ??_C@_0BL@CNOONJFP@?$GAplacement?5delete?5closure?8?$AA@ 1003999c     LIBCMT:undname.obj
 0002:0000a9b8       ??_C@_0BN@CKNJLHMB@?$GAplacement?5delete?$FL?$FN?5closure?8?$AA@ 100399b8     LIBCMT:undname.obj
 0002:0000a9d8       ??_C@_0CG@CFDHKGGD@?$GAmanaged?5vector?5constructor?5iter@ 100399d8     LIBCMT:undname.obj
 0002:0000aa00       ??_C@_0CF@IMGKMJNO@?$GAmanaged?5vector?5destructor?5itera@ 10039a00     LIBCMT:undname.obj
 0002:0000aa28       ??_C@_0CG@HLDDJMAG@?$GAeh?5vector?5copy?5constructor?5iter@ 10039a28     LIBCMT:undname.obj
 0002:0000aa50       ??_C@_0CM@FCBBDIGB@?$GAeh?5vector?5vbase?5copy?5constructo@ 10039a50     LIBCMT:undname.obj
 0002:0000aa7c       ??_C@_0BL@CLIPGLGB@?$GAdynamic?5initializer?5for?5?8?$AA@ 10039a7c     LIBCMT:undname.obj
 0002:0000aa98       ??_C@_0CB@PDBIFEP@?$GAdynamic?5atexit?5destructor?5for?5?8@ 10039a98     LIBCMT:undname.obj
 0002:0000aabc       ??_C@_0CD@CGAJBKEJ@?$GAvector?5copy?5constructor?5iterato@ 10039abc     LIBCMT:undname.obj
 0002:0000aae0       ??_C@_0CJ@GJELGAMM@?$GAvector?5vbase?5copy?5constructor?5i@ 10039ae0     LIBCMT:undname.obj
 0002:0000ab0c       ??_C@_0CL@FGIJHLCE@?$GAmanaged?5vector?5copy?5constructor@ 10039b0c     LIBCMT:undname.obj
 0002:0000ab38       ??_C@_0BM@PMGGMLDN@?$GAlocal?5static?5thread?5guard?8?$AA@ 10039b38     LIBCMT:undname.obj
 0002:0000ab54       ??_C@_0BC@DAFEJGAK@?5Type?5Descriptor?8?$AA@ 10039b54     LIBCMT:undname.obj
 0002:0000ab68       ??_C@_0BM@LDKODKLH@?5Base?5Class?5Descriptor?5at?5?$CI?$AA@ 10039b68     LIBCMT:undname.obj
 0002:0000ab84       ??_C@_0BD@LGICGFMM@?5Base?5Class?5Array?8?$AA@ 10039b84     LIBCMT:undname.obj
 0002:0000ab98       ??_C@_0BN@MECKDCOJ@?5Class?5Hierarchy?5Descriptor?8?$AA@ 10039b98     LIBCMT:undname.obj
 0002:0000abb8       ??_C@_0BK@CFCOFLF@?5Complete?5Object?5Locator?8?$AA@ 10039bb8     LIBCMT:undname.obj
 0002:0000abd4       ??_C@_04COOMCNPB@sinh?$AA@ 10039bd4     LIBCMT:fpexcept.obj
 0002:0000abdc       ??_C@_04HPJJNFIM@cosh?$AA@ 10039bdc     LIBCMT:fpexcept.obj
 0002:0000abe4       ??_C@_04FJHINJAO@tanh?$AA@ 10039be4     LIBCMT:fpexcept.obj
 0002:0000abec       ??_C@_05KNGEOGJB@atan2?$AA@ 10039bec     LIBCMT:fpexcept.obj
 0002:0000abf4       ??_C@_04ODHECPBC@fabs?$AA@ 10039bf4     LIBCMT:fpexcept.obj
 0002:0000abfc       ??_C@_05CEJMAHNP@ldexp?$AA@ 10039bfc     LIBCMT:fpexcept.obj
 0002:0000ac04       ??_C@_05KBKMEMPO@_cabs?$AA@ 10039c04     LIBCMT:fpexcept.obj
 0002:0000ac0c       ??_C@_06MEIMCGCF@_hypot?$AA@ 10039c0c     LIBCMT:fpexcept.obj
 0002:0000ac14       ??_C@_04KEPJIHGP@fmod?$AA@ 10039c14     LIBCMT:fpexcept.obj
 0002:0000ac1c       ??_C@_05GKKHEGJL@frexp?$AA@ 10039c1c     LIBCMT:fpexcept.obj
 0002:0000ac24       ??_C@_03MJLDFKDL@_y0?$AA@  10039c24     LIBCMT:fpexcept.obj
 0002:0000ac28       ??_C@_03NAKIGLHK@_y1?$AA@  10039c28     LIBCMT:fpexcept.obj
 0002:0000ac2c       ??_C@_03ONILCKOB@_yn?$AA@  10039c2c     LIBCMT:fpexcept.obj
 0002:0000ac30       ??_C@_05JGDBENOH@_logb?$AA@ 10039c30     LIBCMT:fpexcept.obj
 0002:0000ac38       ??_C@_0L@KDOEJCKC@_nextafter?$AA@ 10039c38     LIBCMT:fpexcept.obj
 0002:0000ac48       ___newctype                10039c48     LIBCMT:ctype.obj
 0002:0000af48       __wctype                   10039f48     LIBCMT:ctype.obj
 0002:0000b150       ___newclmap                1003a150     LIBCMT:ctype.obj
 0002:0000b2d0       ___newcumap                1003a2d0     LIBCMT:ctype.obj
 0002:0000b450       ___rg_language_count       1003a450     LIBCMT:getqloc.obj
 0002:0000b454       ___rg_country_count        1003a454     LIBCMT:getqloc.obj
 0002:0000b458       ??_C@_0M@HHGEPIBF@CreateFile2?$AA@ 1003a458     LIBCMT:wopen.obj
 0002:0000b464       ??_C@_06PGGFOGJG@1?$CDSNAN?$AA@ 1003a464     LIBCMT:x10fout.obj
 0002:0000b46c       ??_C@_05PHHOCPM@1?$CDIND?$AA@ 1003a46c     LIBCMT:x10fout.obj
 0002:0000b474       ??_C@_05DNEBIAHO@1?$CDINF?$AA@ 1003a474     LIBCMT:x10fout.obj
 0002:0000b47c       ??_C@_06IMKFLFPG@1?$CDQNAN?$AA@ 1003a47c     LIBCMT:x10fout.obj
 0002:0000b484       ??_C@_1BA@BALFACEM@?$AAC?$AAO?$AAN?$AAO?$AAU?$AAT?$AA$?$AA?$AA@ 1003a484     LIBCMT:initcon.obj
 0002:0000b498       ??_7logic_error@std@@6B@   1003a498     libcpmt:xthrow.obj
 0002:0000b4a4       ??_7length_error@std@@6B@  1003a4a4     libcpmt:xthrow.obj
 0002:0000b4b0       ??_7out_of_range@std@@6B@  1003a4b0     libcpmt:xthrow.obj
 0002:0000b4bc       ??_7runtime_error@std@@6B@ 1003a4bc     libcpmt:xthrow.obj
 0002:0000b4c8       ??_7error_category@std@@6B@ 1003a4c8     libcpmt:xthrow.obj
 0002:0000b4e4       ??_7_Generic_error_category@std@@6B@ 1003a4e4     libcpmt:xthrow.obj
 0002:0000b500       ??_7_Iostream_error_category@std@@6B@ 1003a500     libcpmt:xthrow.obj
 0002:0000b51c       ??_7_System_error_category@std@@6B@ 1003a51c     libcpmt:xthrow.obj
 0002:0000ba08       ??_C@_0BC@CIJDGCDI@permission?5denied?$AA@ 1003aa08     libcpmt:syserror.obj
 0002:0000ba1c       ??_C@_0M@MIDIAGJP@file?5exists?$AA@ 1003aa1c     libcpmt:syserror.obj
 0002:0000ba28       ??_C@_0P@FDINDDOK@no?5such?5device?$AA@ 1003aa28     libcpmt:syserror.obj
 0002:0000ba38       ??_C@_0BC@EJHOMAAK@filename?5too?5long?$AA@ 1003aa38     libcpmt:syserror.obj
 0002:0000ba4c       ??_C@_0BI@NGCEHDD@device?5or?5resource?5busy?$AA@ 1003aa4c     libcpmt:syserror.obj
 0002:0000ba64       ??_C@_08GLNPIFBN@io?5error?$AA@ 1003aa64     libcpmt:syserror.obj
 0002:0000ba70       ??_C@_0BE@JIDOCPHM@directory?5not?5empty?$AA@ 1003aa70     libcpmt:syserror.obj
 0002:0000ba84       ??_C@_0BB@FCMFBGOM@invalid?5argument?$AA@ 1003aa84     libcpmt:syserror.obj
 0002:0000ba98       ??_C@_0BD@IJDJKDEA@no?5space?5on?5device?$AA@ 1003aa98     libcpmt:syserror.obj
 0002:0000baac       ??_C@_0BK@NDOCBPGE@no?5such?5file?5or?5directory?$AA@ 1003aaac     libcpmt:syserror.obj
 0002:0000bac8       ??_C@_0BH@KEFGLDAF@function?5not?5supported?$AA@ 1003aac8     libcpmt:syserror.obj
 0002:0000bae0       ??_C@_0BC@NJECKMKE@no?5lock?5available?$AA@ 1003aae0     libcpmt:syserror.obj
 0002:0000baf4       ??_C@_0BC@ENOOLCNF@not?5enough?5memory?$AA@ 1003aaf4     libcpmt:syserror.obj
 0002:0000bb08       ??_C@_0BP@LKNGHENJ@resource?5unavailable?5try?5again?$AA@ 1003ab08     libcpmt:syserror.obj
 0002:0000bb28       ??_C@_0BC@PPHBOELF@cross?5device?5link?$AA@ 1003ab28     libcpmt:syserror.obj
 0002:0000bb3c       ??_C@_0BD@MOLBPMEA@operation?5canceled?$AA@ 1003ab3c     libcpmt:syserror.obj
 0002:0000bb50       ??_C@_0BE@GHAFMPAH@too?5many?5files?5open?$AA@ 1003ab50     libcpmt:syserror.obj
 0002:0000bb64       ??_C@_0BC@FNODOBAE@permission_denied?$AA@ 1003ab64     libcpmt:syserror.obj
 0002:0000bb78       ??_C@_0P@LNDJPBFK@address_in_use?$AA@ 1003ab78     libcpmt:syserror.obj
 0002:0000bb88       ??_C@_0BG@IPMGOJF@address_not_available?$AA@ 1003ab88     libcpmt:syserror.obj
 0002:0000bba0       ??_C@_0BN@LCBDHODA@address_family_not_supported?$AA@ 1003aba0     libcpmt:syserror.obj
 0002:0000bbc0       ??_C@_0BP@FOJJHMCC@connection_already_in_progress?$AA@ 1003abc0     libcpmt:syserror.obj
 0002:0000bbe0       ??_C@_0BE@DLHHIBGN@bad_file_descriptor?$AA@ 1003abe0     libcpmt:syserror.obj
 0002:0000bbf4       ??_C@_0BD@OJMJDIGI@connection_aborted?$AA@ 1003abf4     libcpmt:syserror.obj
 0002:0000bc08       ??_C@_0BD@NGKCIFEP@connection_refused?$AA@ 1003ac08     libcpmt:syserror.obj
 0002:0000bc1c       ??_C@_0BB@JOANDNCK@connection_reset?$AA@ 1003ac1c     libcpmt:syserror.obj
 0002:0000bc30       ??_C@_0BN@JLJNLKLK@destination_address_required?$AA@ 1003ac30     libcpmt:syserror.obj
 0002:0000bc50       ??_C@_0M@IJGMGFGP@bad_address?$AA@ 1003ac50     libcpmt:syserror.obj
 0002:0000bc5c       ??_C@_0BB@KKNHPPIN@host_unreachable?$AA@ 1003ac5c     libcpmt:syserror.obj
 0002:0000bc70       ??_C@_0BG@DJGBJIIK@operation_in_progress?$AA@ 1003ac70     libcpmt:syserror.obj
 0002:0000bc88       ??_C@_0M@EGEKIIMP@interrupted?$AA@ 1003ac88     libcpmt:syserror.obj
 0002:0000bc94       ??_C@_0BB@FFIHMIPJ@invalid_argument?$AA@ 1003ac94     libcpmt:syserror.obj
 0002:0000bca8       ??_C@_0BC@FIFLCHLO@already_connected?$AA@ 1003aca8     libcpmt:syserror.obj
 0002:0000bcbc       ??_C@_0BE@GJJJJDDA@too_many_files_open?$AA@ 1003acbc     libcpmt:syserror.obj
 0002:0000bcd0       ??_C@_0N@HPMLKHPL@message_size?$AA@ 1003acd0     libcpmt:syserror.obj
 0002:0000bce0       ??_C@_0BC@LEEIKBAL@filename_too_long?$AA@ 1003ace0     libcpmt:syserror.obj
 0002:0000bcf4       ??_C@_0N@FCPALPJK@network_down?$AA@ 1003acf4     libcpmt:syserror.obj
 0002:0000bd04       ??_C@_0O@EHNDLHIG@network_reset?$AA@ 1003ad04     libcpmt:syserror.obj
 0002:0000bd14       ??_C@_0BE@JFNJIDNF@network_unreachable?$AA@ 1003ad14     libcpmt:syserror.obj
 0002:0000bd28       ??_C@_0BA@FDIJKJCL@no_buffer_space?$AA@ 1003ad28     libcpmt:syserror.obj
 0002:0000bd38       ??_C@_0BD@JHIHCGKP@no_protocol_option?$AA@ 1003ad38     libcpmt:syserror.obj
 0002:0000bd4c       ??_C@_0O@GBCLHHD@not_connected?$AA@ 1003ad4c     libcpmt:syserror.obj
 0002:0000bd5c       ??_C@_0N@IMHKKLEM@not_a_socket?$AA@ 1003ad5c     libcpmt:syserror.obj
 0002:0000bd6c       ??_C@_0BI@ICEIDKLJ@operation_not_supported?$AA@ 1003ad6c     libcpmt:syserror.obj
 0002:0000bd84       ??_C@_0BH@KAPBAIJF@protocol_not_supported?$AA@ 1003ad84     libcpmt:syserror.obj
 0002:0000bd9c       ??_C@_0BE@GAOJJFPC@wrong_protocol_type?$AA@ 1003ad9c     libcpmt:syserror.obj
 0002:0000bdb0       ??_C@_09NCHNLHPG@timed_out?$AA@ 1003adb0     libcpmt:syserror.obj
 0002:0000bdbc       ??_C@_0BG@GDGHKFDH@operation_would_block?$AA@ 1003adbc     libcpmt:syserror.obj
 0002:0000bdd4       ??_C@_0BN@LKKBCCDB@address?5family?5not?5supported?$AA@ 1003add4     libcpmt:syserror.obj
 0002:0000bdf4       ??_C@_0P@LDMLAFHI@address?5in?5use?$AA@ 1003adf4     libcpmt:syserror.obj
 0002:0000be04       ??_C@_0BG@DHPCNBJB@address?5not?5available?$AA@ 1003ae04     libcpmt:syserror.obj
 0002:0000be1c       ??_C@_0BC@DFIBIBIL@already?5connected?$AA@ 1003ae1c     libcpmt:syserror.obj
 0002:0000be30       ??_C@_0BH@CAKOHOMI@argument?5list?5too?5long?$AA@ 1003ae30     libcpmt:syserror.obj
 0002:0000be48       ??_C@_0BH@CGIMPKIM@argument?5out?5of?5domain?$AA@ 1003ae48     libcpmt:syserror.obj
 0002:0000be60       ??_C@_0M@KGHGGJGL@bad?5address?$AA@ 1003ae60     libcpmt:syserror.obj
 0002:0000be6c       ??_C@_0BE@MPJPGCEO@bad?5file?5descriptor?$AA@ 1003ae6c     libcpmt:syserror.obj
 0002:0000be80       ??_C@_0M@PMMIEFCP@bad?5message?$AA@ 1003ae80     libcpmt:syserror.obj
 0002:0000be8c       ??_C@_0M@KPHOFDBE@broken?5pipe?$AA@ 1003ae8c     libcpmt:syserror.obj
 0002:0000be98       ??_C@_0BD@MGNDDEGM@connection?5aborted?$AA@ 1003ae98     libcpmt:syserror.obj
 0002:0000beac       ??_C@_0BP@KAIHPOGN@connection?5already?5in?5progress?$AA@ 1003aeac     libcpmt:syserror.obj
 0002:0000becc       ??_C@_0BD@PJLIIJEL@connection?5refused?$AA@ 1003aecc     libcpmt:syserror.obj
 0002:0000bee0       ??_C@_0BB@IECNJNOI@connection?5reset?$AA@ 1003aee0     libcpmt:syserror.obj
 0002:0000bef4       ??_C@_0BN@KDMIFEIP@destination?5address?5required?$AA@ 1003aef4     libcpmt:syserror.obj
 0002:0000bf14       ??_C@_0BI@BNCLIGPB@executable?5format?5error?$AA@ 1003af14     libcpmt:syserror.obj
 0002:0000bf2c       ??_C@_0P@DNAJLBJK@file?5too?5large?$AA@ 1003af2c     libcpmt:syserror.obj
 0002:0000bf3c       ??_C@_0BB@DHFDFGDM@host?5unreachable?$AA@ 1003af3c     libcpmt:syserror.obj
 0002:0000bf50       ??_C@_0BD@JPHBMONG@identifier?5removed?$AA@ 1003af50     libcpmt:syserror.obj
 0002:0000bf64       ??_C@_0BG@CDNPAGJK@illegal?5byte?5sequence?$AA@ 1003af64     libcpmt:syserror.obj
 0002:0000bf7c       ??_C@_0CD@BNPLBMNA@inappropriate?5io?5control?5operati@ 1003af7c     libcpmt:syserror.obj
 0002:0000bfa0       ??_C@_0N@OHAFKDEK@invalid?5seek?$AA@ 1003afa0     libcpmt:syserror.obj
 0002:0000bfb0       ??_C@_0P@FLLDBIDK@is?5a?5directory?$AA@ 1003afb0     libcpmt:syserror.obj
 0002:0000bfc0       ??_C@_0N@IFLPBIOP@message?5size?$AA@ 1003afc0     libcpmt:syserror.obj
 0002:0000bfd0       ??_C@_0N@KIIEAAIO@network?5down?$AA@ 1003afd0     libcpmt:syserror.obj
 0002:0000bfe0       ??_C@_0O@FNPDBHEE@network?5reset?$AA@ 1003afe0     libcpmt:syserror.obj
 0002:0000bff0       ??_C@_0BE@IFNCKGE@network?5unreachable?$AA@ 1003aff0     libcpmt:syserror.obj
 0002:0000c004       ??_C@_0BA@PFFCAOFK@no?5buffer?5space?$AA@ 1003b004     libcpmt:syserror.obj
 0002:0000c014       ??_C@_0BB@IEPBLJHK@no?5child?5process?$AA@ 1003b014     libcpmt:syserror.obj
 0002:0000c028       ??_C@_07PLECNNKG@no?5link?$AA@ 1003b028     libcpmt:syserror.obj
 0002:0000c030       ??_C@_0BF@PBGGPKKE@no?5message?5available?$AA@ 1003b030     libcpmt:syserror.obj
 0002:0000c048       ??_C@_0L@EDOLMPAK@no?5message?$AA@ 1003b048     libcpmt:syserror.obj
 0002:0000c054       ??_C@_0BD@EAMBFIDF@no?5protocol?5option?$AA@ 1003b054     libcpmt:syserror.obj
 0002:0000c068       ??_C@_0BE@MKFDAFMP@no?5stream?5resources?$AA@ 1003b068     libcpmt:syserror.obj
 0002:0000c07c       ??_C@_0BK@IMCPHCBI@no?5such?5device?5or?5address?$AA@ 1003b07c     libcpmt:syserror.obj
 0002:0000c098       ??_C@_0BA@ENLPPKBN@no?5such?5process?$AA@ 1003b098     libcpmt:syserror.obj
 0002:0000c0a8       ??_C@_0BA@DOCPFFJG@not?5a?5directory?$AA@ 1003b0a8     libcpmt:syserror.obj
 0002:0000c0b8       ??_C@_0N@POEIPGGF@not?5a?5socket?$AA@ 1003b0b8     libcpmt:syserror.obj
 0002:0000c0c8       ??_C@_0N@LGAPMMPI@not?5a?5stream?$AA@ 1003b0c8     libcpmt:syserror.obj
 0002:0000c0d8       ??_C@_0O@GLMIBBEG@not?5connected?$AA@ 1003b0d8     libcpmt:syserror.obj
 0002:0000c0e8       ??_C@_0O@NHEDABJP@not?5supported?$AA@ 1003b0e8     libcpmt:syserror.obj
 0002:0000c0f8       ??_C@_0BG@KDKHOPCO@operation?5in?5progress?$AA@ 1003b0f8     libcpmt:syserror.obj
 0002:0000c110       ??_C@_0BI@OHIEJAAB@operation?5not?5permitted?$AA@ 1003b110     libcpmt:syserror.obj
 0002:0000c128       ??_C@_0BI@LNEGIFLN@operation?5not?5supported?$AA@ 1003b128     libcpmt:syserror.obj
 0002:0000c140       ??_C@_0BG@OEMDKMEE@operation?5would?5block?$AA@ 1003b140     libcpmt:syserror.obj
 0002:0000c158       ??_C@_0L@BLPOFLNJ@owner?5dead?$AA@ 1003b158     libcpmt:syserror.obj
 0002:0000c164       ??_C@_0P@FNPOCJBE@protocol?5error?$AA@ 1003b164     libcpmt:syserror.obj
 0002:0000c174       ??_C@_0BH@JPPPLHJB@protocol?5not?5supported?$AA@ 1003b174     libcpmt:syserror.obj
 0002:0000c18c       ??_C@_0BG@EICBIHDP@read?5only?5file?5system?$AA@ 1003b18c     libcpmt:syserror.obj
 0002:0000c1a4       ??_C@_0BO@BJBOMOEJ@resource?5deadlock?5would?5occur?$AA@ 1003b1a4     libcpmt:syserror.obj
 0002:0000c1c4       ??_C@_0BE@GOIPJJHG@result?5out?5of?5range?$AA@ 1003b1c4     libcpmt:syserror.obj
 0002:0000c1d8       ??_C@_0BG@MPLKFPAE@state?5not?5recoverable?$AA@ 1003b1d8     libcpmt:syserror.obj
 0002:0000c1f0       ??_C@_0P@DIIFGFCG@stream?5timeout?$AA@ 1003b1f0     libcpmt:syserror.obj
 0002:0000c200       ??_C@_0P@IPFDMIFL@text?5file?5busy?$AA@ 1003b200     libcpmt:syserror.obj
 0002:0000c210       ??_C@_09KJPPMAOI@timed?5out?$AA@ 1003b210     libcpmt:syserror.obj
 0002:0000c21c       ??_C@_0BO@HACHBEKI@too?5many?5files?5open?5in?5system?$AA@ 1003b21c     libcpmt:syserror.obj
 0002:0000c23c       ??_C@_0P@HCOMKFCC@too?5many?5links?$AA@ 1003b23c     libcpmt:syserror.obj
 0002:0000c24c       ??_C@_0BO@EFGOJEF@too?5many?5symbolic?5link?5levels?$AA@ 1003b24c     libcpmt:syserror.obj
 0002:0000c26c       ??_C@_0BA@KGKGOOJA@value?5too?5large?$AA@ 1003b26c     libcpmt:syserror.obj
 0002:0000c27c       ??_C@_0BE@MIEJDDNH@wrong?5protocol?5type?$AA@ 1003b27c     libcpmt:syserror.obj
 0002:0000c294       ??_7exception@boost@@6B@   1003b294     libboost_thread-vc110-mt-s-1_52:thread.obj
 0002:0000c29c       ??_7clone_base@exception_detail@boost@@6B@ 1003b29c     libboost_thread-vc110-mt-s-1_52:thread.obj
 0002:0000c2ac       ??_7bad_day_of_month@gregorian@boost@@6B@ 1003b2ac     libboost_thread-vc110-mt-s-1_52:thread.obj
 0002:0000c2b8       ??_7bad_year@gregorian@boost@@6B@ 1003b2b8     libboost_thread-vc110-mt-s-1_52:thread.obj
 0002:0000c2c4       ??_7bad_month@gregorian@boost@@6B@ 1003b2c4     libboost_thread-vc110-mt-s-1_52:thread.obj
 0002:0000c2d0       ??_7system_error@system@boost@@6B@ 1003b2d0     libboost_thread-vc110-mt-s-1_52:thread.obj
 0002:0000c2dc       ??_7thread_exception@boost@@6B@ 1003b2dc     libboost_thread-vc110-mt-s-1_52:thread.obj
 0002:0000c2e8       ??_7thread_resource_error@boost@@6B@ 1003b2e8     libboost_thread-vc110-mt-s-1_52:thread.obj
 0002:0000c2f4       ??_7thread_data_base@detail@boost@@6B@ 1003b2f4     libboost_thread-vc110-mt-s-1_52:thread.obj
 0002:0000c2fc       ?fixed_mutex_name@?1??name_once_mutex@detail@boost@@YAXPADPAX@Z@4QBDB 1003b2fc     libboost_thread-vc110-mt-s-1_52:thread.obj
 0002:0000c334       ??_C@_0CE@FBJAFPKL@boost?5thread?3?5trying?5joining?5its@ 1003b334     libboost_thread-vc110-mt-s-1_52:thread.obj
 0002:0000c358       ??_C@_0CC@GBIDCBGJ@boost?5thread?3?5thread?5not?5joinabl@ 1003b358     libboost_thread-vc110-mt-s-1_52:thread.obj
 0002:0000c380       ??_7?$error_info_injector@Vruntime_error@std@@@exception_detail@boost@@6Bruntime_error@std@@@ 1003b380     libboost_thread-vc110-mt-s-1_52:thread.obj
 0002:0000c38c       ??_7?$error_info_injector@Vruntime_error@std@@@exception_detail@boost@@6Bexception@2@@ 1003b38c     libboost_thread-vc110-mt-s-1_52:thread.obj
 0002:0000c394       ??_7?$clone_impl@U?$error_info_injector@Vruntime_error@std@@@exception_detail@boost@@@exception_detail@boost@@6Bruntime_error@std@@@ 1003b394     libboost_thread-vc110-mt-s-1_52:thread.obj
 0002:0000c3a0       ??_7?$clone_impl@U?$error_info_injector@Vruntime_error@std@@@exception_detail@boost@@@exception_detail@boost@@6Bexception@2@@ 1003b3a0     libboost_thread-vc110-mt-s-1_52:thread.obj
 0002:0000c3a8       ??_7?$clone_impl@U?$error_info_injector@Vruntime_error@std@@@exception_detail@boost@@@exception_detail@boost@@6B@ 1003b3a8     libboost_thread-vc110-mt-s-1_52:thread.obj
 0002:0000c3b8       ??_7?$error_info_injector@Ubad_day_of_month@gregorian@boost@@@exception_detail@boost@@6Bbad_day_of_month@gregorian@2@@ 1003b3b8     libboost_thread-vc110-mt-s-1_52:thread.obj
 0002:0000c3c4       ??_7?$error_info_injector@Ubad_day_of_month@gregorian@boost@@@exception_detail@boost@@6Bexception@2@@ 1003b3c4     libboost_thread-vc110-mt-s-1_52:thread.obj
 0002:0000c3cc       ??_7?$clone_impl@U?$error_info_injector@Ubad_day_of_month@gregorian@boost@@@exception_detail@boost@@@exception_detail@boost@@6Bbad_day_of_month@gregorian@2@@ 1003b3cc     libboost_thread-vc110-mt-s-1_52:thread.obj
 0002:0000c3d8       ??_7?$clone_impl@U?$error_info_injector@Ubad_day_of_month@gregorian@boost@@@exception_detail@boost@@@exception_detail@boost@@6Bexception@2@@ 1003b3d8     libboost_thread-vc110-mt-s-1_52:thread.obj
 0002:0000c3e0       ??_7?$clone_impl@U?$error_info_injector@Ubad_day_of_month@gregorian@boost@@@exception_detail@boost@@@exception_detail@boost@@6B@ 1003b3e0     libboost_thread-vc110-mt-s-1_52:thread.obj
 0002:0000c3f0       ??_7?$error_info_injector@Vthread_resource_error@boost@@@exception_detail@boost@@6Bthread_resource_error@2@@ 1003b3f0     libboost_thread-vc110-mt-s-1_52:thread.obj
 0002:0000c3fc       ??_7?$error_info_injector@Vthread_resource_error@boost@@@exception_detail@boost@@6Bexception@2@@ 1003b3fc     libboost_thread-vc110-mt-s-1_52:thread.obj
 0002:0000c404       ??_7?$clone_impl@U?$error_info_injector@Vthread_resource_error@boost@@@exception_detail@boost@@@exception_detail@boost@@6Bthread_resource_error@2@@ 1003b404     libboost_thread-vc110-mt-s-1_52:thread.obj
 0002:0000c410       ??_7?$clone_impl@U?$error_info_injector@Vthread_resource_error@boost@@@exception_detail@boost@@@exception_detail@boost@@6Bexception@2@@ 1003b410     libboost_thread-vc110-mt-s-1_52:thread.obj
 0002:0000c418       ??_7?$clone_impl@U?$error_info_injector@Vthread_resource_error@boost@@@exception_detail@boost@@@exception_detail@boost@@6B@ 1003b418     libboost_thread-vc110-mt-s-1_52:thread.obj
 0002:0000c428       ??_7?$error_info_injector@Vbad_alloc@std@@@exception_detail@boost@@6Bbad_alloc@std@@@ 1003b428     libboost_thread-vc110-mt-s-1_52:thread.obj
 0002:0000c434       ??_7?$error_info_injector@Vbad_alloc@std@@@exception_detail@boost@@6Bexception@2@@ 1003b434     libboost_thread-vc110-mt-s-1_52:thread.obj
 0002:0000c43c       ??_7?$clone_impl@U?$error_info_injector@Vbad_alloc@std@@@exception_detail@boost@@@exception_detail@boost@@6Bbad_alloc@std@@@ 1003b43c     libboost_thread-vc110-mt-s-1_52:thread.obj
 0002:0000c448       ??_7?$clone_impl@U?$error_info_injector@Vbad_alloc@std@@@exception_detail@boost@@@exception_detail@boost@@6Bexception@2@@ 1003b448     libboost_thread-vc110-mt-s-1_52:thread.obj
 0002:0000c450       ??_7?$clone_impl@U?$error_info_injector@Vbad_alloc@std@@@exception_detail@boost@@@exception_detail@boost@@6B@ 1003b450     libboost_thread-vc110-mt-s-1_52:thread.obj
 0002:0000c460       ??_7?$error_info_injector@Ubad_year@gregorian@boost@@@exception_detail@boost@@6Bbad_year@gregorian@2@@ 1003b460     libboost_thread-vc110-mt-s-1_52:thread.obj
 0002:0000c46c       ??_7?$error_info_injector@Ubad_year@gregorian@boost@@@exception_detail@boost@@6Bexception@2@@ 1003b46c     libboost_thread-vc110-mt-s-1_52:thread.obj
 0002:0000c474       ??_7?$clone_impl@U?$error_info_injector@Ubad_year@gregorian@boost@@@exception_detail@boost@@@exception_detail@boost@@6Bbad_year@gregorian@2@@ 1003b474     libboost_thread-vc110-mt-s-1_52:thread.obj
 0002:0000c480       ??_7?$clone_impl@U?$error_info_injector@Ubad_year@gregorian@boost@@@exception_detail@boost@@@exception_detail@boost@@6Bexception@2@@ 1003b480     libboost_thread-vc110-mt-s-1_52:thread.obj
 0002:0000c488       ??_7?$clone_impl@U?$error_info_injector@Ubad_year@gregorian@boost@@@exception_detail@boost@@@exception_detail@boost@@6B@ 1003b488     libboost_thread-vc110-mt-s-1_52:thread.obj
 0002:0000c498       ??_7?$error_info_injector@Ubad_month@gregorian@boost@@@exception_detail@boost@@6Bbad_month@gregorian@2@@ 1003b498     libboost_thread-vc110-mt-s-1_52:thread.obj
 0002:0000c4a4       ??_7?$error_info_injector@Ubad_month@gregorian@boost@@@exception_detail@boost@@6Bexception@2@@ 1003b4a4     libboost_thread-vc110-mt-s-1_52:thread.obj
 0002:0000c4ac       ??_7?$clone_impl@U?$error_info_injector@Ubad_month@gregorian@boost@@@exception_detail@boost@@@exception_detail@boost@@6Bbad_month@gregorian@2@@ 1003b4ac     libboost_thread-vc110-mt-s-1_52:thread.obj
 0002:0000c4b8       ??_7?$clone_impl@U?$error_info_injector@Ubad_month@gregorian@boost@@@exception_detail@boost@@@exception_detail@boost@@6Bexception@2@@ 1003b4b8     libboost_thread-vc110-mt-s-1_52:thread.obj
 0002:0000c4c0       ??_7?$clone_impl@U?$error_info_injector@Ubad_month@gregorian@boost@@@exception_detail@boost@@@exception_detail@boost@@6B@ 1003b4c0     libboost_thread-vc110-mt-s-1_52:thread.obj
 0002:0000c4cc       __pRawDllMain              1003b4cc     libboost_thread-vc110-mt-s-1_52:tss_pe.obj
 0002:0000c4d4       ??_7error_category@system@boost@@6B@ 1003b4d4     libboost_system-vc110-mt-s-1_52:error_code.obj
 0002:0000c4f0       ??_7generic_error_category@?A0xe218785f@@6B@ 1003b4f0     libboost_system-vc110-mt-s-1_52:error_code.obj
 0002:0000c50c       ??_7system_error_category@?A0xe218785f@@6B@ 1003b50c     libboost_system-vc110-mt-s-1_52:error_code.obj
 0002:0000c524       ??_C@_0O@NIPGCINC@Unknown?5error?$AA@ 1003b524     libboost_system-vc110-mt-s-1_52:error_code.obj
 0002:0000c534       ??_C@_0N@PPOMPGGK@RoInitialize?$AA@ 1003b534     LIBCMT:threadex.obj
 0002:0000c544       ??_C@_1BI@IDAOOPDH@?$AAc?$AAo?$AAm?$AAb?$AAa?$AAs?$AAe?$AA?4?$AAd?$AAl?$AAl?$AA?$AA@ 1003b544     LIBCMT:threadex.obj
 0002:0000c55c       ??_C@_0P@LLFHBIJD@RoUninitialize?$AA@ 1003b55c     LIBCMT:threadex.obj
 0002:0000c570       ??_C@_0EA@FCLIIPNN@Visual?5C?$CL?$CL?5CRT?3?5Not?5enough?5memor@ 1003b570     LIBCMT:strerror.obj
 0002:0000c5b0       __pDestructExceptionObject 1003b5b0     LIBCMT:frame.obj
 0002:0000c5b8       ??_7bad_exception@std@@6B@ 1003b5b8     LIBCMT:frame.obj
 0002:0000c5c0       ??_C@_0O@DPKOEFFH@bad?5exception?$AA@ 1003b5c0     LIBCMT:frame.obj
 0002:0000c5d0       __sys_errlist              1003b5d0     LIBCMT:syserr.obj
 0002:0000c680       ??_C@_08INEPGKHH@No?5error?$AA@ 1003b680     LIBCMT:syserr.obj
 0002:0000c68c       ??_C@_0BI@BJFCGOHL@Operation?5not?5permitted?$AA@ 1003b68c     LIBCMT:syserr.obj
 0002:0000c6a4       ??_C@_0BK@FMDHKPNF@No?5such?5file?5or?5directory?$AA@ 1003b6a4     LIBCMT:syserr.obj
 0002:0000c6c0       ??_C@_0BA@FKIAIBGA@No?5such?5process?$AA@ 1003b6c0     LIBCMT:syserr.obj
 0002:0000c6d0       ??_C@_0BK@FJBOAFDK@Interrupted?5function?5call?$AA@ 1003b6d0     LIBCMT:syserr.obj
 0002:0000c6ec       ??_C@_0BD@KKNFOBBD@Input?1output?5error?$AA@ 1003b6ec     LIBCMT:syserr.obj
 0002:0000c700       ??_C@_0BK@DPKMCKJ@No?5such?5device?5or?5address?$AA@ 1003b700     LIBCMT:syserr.obj
 0002:0000c71c       ??_C@_0BC@MFFGCDFL@Arg?5list?5too?5long?$AA@ 1003b71c     LIBCMT:syserr.obj
 0002:0000c730       ??_C@_0BC@HKPNECK@Exec?5format?5error?$AA@ 1003b730     LIBCMT:syserr.obj
 0002:0000c744       ??_C@_0BE@NFGDDCEF@Bad?5file?5descriptor?$AA@ 1003b744     LIBCMT:syserr.obj
 0002:0000c758       ??_C@_0BD@LOHELEP@No?5child?5processes?$AA@ 1003b758     LIBCMT:syserr.obj
 0002:0000c76c       ??_C@_0CB@EPFKGNAK@Resource?5temporarily?5unavailable@ 1003b76c     LIBCMT:syserr.obj
 0002:0000c790       ??_C@_0BB@IMDKMPFB@Not?5enough?5space?$AA@ 1003b790     LIBCMT:syserr.obj
 0002:0000c7a4       ??_C@_0BC@HFNFNKAI@Permission?5denied?$AA@ 1003b7a4     LIBCMT:syserr.obj
 0002:0000c7b8       ??_C@_0M@LOEHLCJD@Bad?5address?$AA@ 1003b7b8     LIBCMT:syserr.obj
 0002:0000c7c4       ??_C@_0BA@BIBLIOEK@Resource?5device?$AA@ 1003b7c4     LIBCMT:syserr.obj
 0002:0000c7d4       ??_C@_0M@NAAJNNGH@File?5exists?$AA@ 1003b7d4     LIBCMT:syserr.obj
 0002:0000c7e0       ??_C@_0O@OAMDNOCP@Improper?5link?$AA@ 1003b7e0     LIBCMT:syserr.obj
 0002:0000c7f0       ??_C@_0P@NLEIANHE@No?5such?5device?$AA@ 1003b7f0     LIBCMT:syserr.obj
 0002:0000c800       ??_C@_0BA@CJBACOOL@Not?5a?5directory?$AA@ 1003b800     LIBCMT:syserr.obj
 0002:0000c810       ??_C@_0P@NDHGCGKE@Is?5a?5directory?$AA@ 1003b810     LIBCMT:syserr.obj
 0002:0000c820       ??_C@_0BB@HMGGCEBG@Invalid?5argument?$AA@ 1003b820     LIBCMT:syserr.obj
 0002:0000c834       ??_C@_0BO@IIFBODJE@Too?5many?5open?5files?5in?5system?$AA@ 1003b834     LIBCMT:syserr.obj
 0002:0000c854       ??_C@_0BE@INBJMKGG@Too?5many?5open?5files?$AA@ 1003b854     LIBCMT:syserr.obj
 0002:0000c868       ??_C@_0CE@ONOKNLPF@Inappropriate?5I?1O?5control?5operat@ 1003b868     LIBCMT:syserr.obj
 0002:0000c88c       ??_C@_0P@LFMMIPAE@File?5too?5large?$AA@ 1003b88c     LIBCMT:syserr.obj
 0002:0000c89c       ??_C@_0BI@FEALHKLD@No?5space?5left?5on?5device?$AA@ 1003b89c     LIBCMT:syserr.obj
 0002:0000c8b4       ??_C@_0N@FEHLOILP@Invalid?5seek?$AA@ 1003b8b4     LIBCMT:syserr.obj
 0002:0000c8c4       ??_C@_0BG@DDBFNKBH@Read?9only?5file?5system?$AA@ 1003b8c4     LIBCMT:syserr.obj
 0002:0000c8dc       ??_C@_0P@PKCJJLLM@Too?5many?5links?$AA@ 1003b8dc     LIBCMT:syserr.obj
 0002:0000c8ec       ??_C@_0M@LHEPIIOM@Broken?5pipe?$AA@ 1003b8ec     LIBCMT:syserr.obj
 0002:0000c8f8       ??_C@_0N@MMJPGLJK@Domain?5error?$AA@ 1003b8f8     LIBCMT:syserr.obj
 0002:0000c908       ??_C@_0BB@FCBJFCAJ@Result?5too?5large?$AA@ 1003b908     LIBCMT:syserr.obj
 0002:0000c91c       ??_C@_0BK@JAEBMJJM@Resource?5deadlock?5avoided?$AA@ 1003b91c     LIBCMT:syserr.obj
 0002:0000c938       ??_C@_0BC@BEDIHIDK@Filename?5too?5long?$AA@ 1003b938     LIBCMT:syserr.obj
 0002:0000c94c       ??_C@_0BD@CLHBCGPB@No?5locks?5available?$AA@ 1003b94c     LIBCMT:syserr.obj
 0002:0000c960       ??_C@_0BJ@IHEHINLI@Function?5not?5implemented?$AA@ 1003b960     LIBCMT:syserr.obj
 0002:0000c97c       ??_C@_0BE@ICMCHPHH@Directory?5not?5empty?$AA@ 1003b97c     LIBCMT:syserr.obj
 0002:0000c990       ??_C@_0BG@KLEAJEFJ@Illegal?5byte?5sequence?$AA@ 1003b990     LIBCMT:syserr.obj
 0002:0000d940       ??_C@_0BM@PAPJHAGI@invalid?5map?1set?$DMT?$DO?5iterator?$AA@ 1003c940     ILuaModuleManager.obj
 0002:0000d95c       ??_C@_0BE@JONHPENG@map?1set?$DMT?$DO?5too?5long?$AA@ 1003c95c     ILuaModuleManager.obj
 0002:0000d970       ??_C@_07DCLBNMLN@generic?$AA@ 1003c970     ILuaObject.obj
 0002:0000d978       ??_C@_0O@BFJCFAAK@unknown?5error?$AA@ 1003c978     ILuaObject.obj
 0002:0000d988       ??_C@_08LLGCOLLL@iostream?$AA@ 1003c988     ILuaObject.obj
 0002:0000d994       ??_C@_0BG@PADBLCHM@iostream?5stream?5error?$AA@ 1003c994     ILuaObject.obj
 0002:0000d9ac       ??_C@_06FHFOAHML@system?$AA@ 1003c9ac     ILuaObject.obj
 0002:0000d9b4       ??_C@_0BI@CFPLBAOH@invalid?5string?5position?$AA@ 1003c9b4     ILuaObject.obj
 0002:0000d9cc       ??_C@_0BA@JFNIOLAK@string?5too?5long?$AA@ 1003c9cc     ILuaObject.obj
 0002:0000d9dc       ??_C@_0CM@DGIADEHE@could?5not?5convert?5calendar?5time?5@ 1003c9dc     main.obj
 0002:0000da08       ??_C@_0CJ@PIMMHAJE@Day?5of?5month?5value?5is?5out?5of?5ran@ 1003ca08     main.obj
 0002:0000da34       ??_C@_0CI@JOBANGKK@Year?5is?5out?5of?5valid?5range?3?51400@ 1003ca34     main.obj
 0002:0000da5c       ??_C@_0CD@FBNLMBFL@Month?5number?5is?5out?5of?5range?51?4?4@ 1003ca5c     main.obj
 0002:0000da80       ??_C@_0CD@EKHKOMOM@Day?5of?5month?5is?5not?5valid?5for?5ye@ 1003ca80     main.obj
 0002:0000daa8       ??_7?$thread_data@V?$bind_t@XV?$mf3@XVNav@@PAUJobInfo_t@@PAVNode@@PAV3@@_mfi@boost@@V?$list4@V?$value@PAVNav@@@_bi@boost@@V?$value@PAUJobInfo_t@@@23@V?$value@PAVNode@@@23@V523@@_bi@3@@_bi@boost@@@detail@boost@@6B@ 1003caa8     nav.obj
 0002:0000dab4       ??_7GMOD_TraceFilter@@6B@  1003cab4     nav.obj
 0002:0000dac0       ??_7ITraceFilter@@6B@      1003cac0     nav.obj
 0002:0000dacc       ??_7CTraceFilter@@6B@      1003cacc     nav.obj
 0002:0000dad4       ??_8?$clone_impl@U?$error_info_injector@Vthread_resource_error@boost@@@exception_detail@boost@@@exception_detail@boost@@7B@ 1003cad4     nav.obj
 0002:0000dae0       ??_7?$thread_data@V?$bind_t@XV?$mf1@XVNav@@PA_N@_mfi@boost@@V?$list2@V?$value@PAVNav@@@_bi@boost@@V?$value@PA_N@23@@_bi@3@@_bi@boost@@@detail@boost@@6B@ 1003cae0     nav.obj
 0002:0000dae8       ??_8?$clone_impl@U?$error_info_injector@Vruntime_error@std@@@exception_detail@boost@@@exception_detail@boost@@7B@ 1003cae8     main.obj
 0002:0000dae8       ??_8?$clone_impl@U?$error_info_injector@Vbad_alloc@std@@@exception_detail@boost@@@exception_detail@boost@@7B@ 1003cae8     nav.obj
 0002:0000dae8       ??_8?$clone_impl@U?$error_info_injector@Ubad_year@gregorian@boost@@@exception_detail@boost@@@exception_detail@boost@@7B@ 1003cae8     main.obj
 0002:0000dae8       ??_8?$clone_impl@U?$error_info_injector@Ubad_month@gregorian@boost@@@exception_detail@boost@@@exception_detail@boost@@7B@ 1003cae8     main.obj
 0002:0000dae8       ??_8?$clone_impl@U?$error_info_injector@Ubad_day_of_month@gregorian@boost@@@exception_detail@boost@@@exception_detail@boost@@7B@ 1003cae8     main.obj
 0002:0000daf0       ?npos@?$basic_string@DU?$char_traits@D@std@@V?$allocator@D@2@@std@@2IB 1003caf0     nav.obj
 0002:0000daf4       ??_C@_0P@GHFPNOJB@bad?5allocation?$AA@ 1003caf4     nav.obj
 0002:0000db04       ??_C@_02DPKJAMEF@?$CFd?$AA@ 1003cb04     nav.obj
 0002:0000db08       ??_C@_02LMMGGCAJ@?3?5?$AA@ 1003cb08     nav.obj
 0002:0000db0c       ??_C@_0BN@BEPNICCK@boost?3?3thread_resource_error?$AA@ 1003cb0c     nav.obj
 0002:0000db2c       ??_C@_02NJPGOMH@?$CFf?$AA@ 1003cb2c     nav.obj
 0002:0000db30       __real@00000000            1003cb30     ILuaInterface.obj
 0002:0000db38       __real@0000000000000000    1003cb38     ILuaInterface.obj
 0002:0000db40       __real@3c23d70a            1003cb40     ILuaInterface.obj
 0002:0000db44       __real@3dcccccd            1003cb44     ILuaInterface.obj
 0002:0000db48       __real@3eb0c6f7a0b5ed8d    1003cb48     ILuaInterface.obj
 0002:0000db50       __real@3ee66666            1003cb50     ILuaInterface.obj
 0002:0000db54       __real@3f000000            1003cb54     ILuaInterface.obj
 0002:0000db58       __real@3f800000            1003cb58     ILuaInterface.obj
 0002:0000db60       __real@3fe4cccccccccccd    1003cb60     ILuaInterface.obj
 0002:0000db68       __real@3ff0000000000000    1003cb68     ILuaInterface.obj
 0002:0000db70       __real@40000000            1003cb70     ILuaInterface.obj
 0002:0000db78       __real@4000000000000000    1003cb78     ILuaInterface.obj
 0002:0000db80       __real@4008000000000000    1003cb80     ILuaInterface.obj
 0002:0000db88       __real@4010000000000000    1003cb88     ILuaInterface.obj
 0002:0000db90       __real@4014000000000000    1003cb90     ILuaInterface.obj
 0002:0000db98       __real@4018000000000000    1003cb98     ILuaInterface.obj
 0002:0000dba0       __real@401c000000000000    1003cba0     ILuaInterface.obj
 0002:0000dba8       __real@4020000000000000    1003cba8     ILuaInterface.obj
 0002:0000dbb0       __real@4022000000000000    1003cbb0     ILuaInterface.obj
 0002:0000dbb8       __real@4024000000000000    1003cbb8     ILuaInterface.obj
 0002:0000dbc0       __real@4026000000000000    1003cbc0     ILuaInterface.obj
 0002:0000dbc8       __real@4028000000000000    1003cbc8     ILuaInterface.obj
 0002:0000dbd0       __real@402a000000000000    1003cbd0     ILuaInterface.obj
 0002:0000dbd8       __real@402c000000000000    1003cbd8     ILuaInterface.obj
 0002:0000dbe0       __real@41200000            1003cbe0     ILuaInterface.obj
 0002:0000dbe4       __real@42c80000            1003cbe4     ILuaInterface.obj
 0002:0000dbe8       __real@43070000            1003cbe8     ILuaInterface.obj
 0002:0000dbec       __real@461c3f9a            1003cbec     ILuaInterface.obj
 0002:0000dbf0       __real@7f7fffff            1003cbf0     ILuaInterface.obj
 0002:0000dbf4       __real@bf800000            1003cbf4     ILuaInterface.obj
 0002:0000dc00       __xmm@7fffffffffffffff7fffffffffffffff 1003cc00     ILuaInterface.obj
 0002:0000dc10       __xmm@80000000800000008000000080000000 1003cc10     ILuaInterface.obj
 0002:0000dc20       __load_config_used         1003cc20     LIBCMT:loadcfg.obj
 0002:0000dc68       __tls_used                 1003cc68     LIBCMT:tlssup.obj
 0002:0000dd0c       ??_R4CUtlCharConversion@@6B@ 1003cd0c     tier1:utlbuffer.obj
 0002:0000dd20       ??_R3CUtlCharConversion@@8 1003cd20     tier1:utlbuffer.obj
 0002:0000dd30       ??_R2CUtlCharConversion@@8 1003cd30     tier1:utlbuffer.obj
 0002:0000dd38       ??_R1A@?0A@EA@CUtlCharConversion@@8 1003cd38     tier1:utlbuffer.obj
 0002:0000dd54       ??_R4CUtlNoEscConversion@@6B@ 1003cd54     tier1:utlbuffer.obj
 0002:0000dd68       ??_R3CUtlNoEscConversion@@8 1003cd68     tier1:utlbuffer.obj
 0002:0000dd78       ??_R2CUtlNoEscConversion@@8 1003cd78     tier1:utlbuffer.obj
 0002:0000dd84       ??_R1A@?0A@EA@CUtlNoEscConversion@@8 1003cd84     tier1:utlbuffer.obj
 0002:0000dda0       ??_R4CUtlCStringConversion@@6B@ 1003cda0     tier1:utlbuffer.obj
 0002:0000ddb4       ??_R3CUtlCStringConversion@@8 1003cdb4     tier1:utlbuffer.obj
 0002:0000ddc4       ??_R2CUtlCStringConversion@@8 1003cdc4     tier1:utlbuffer.obj
 0002:0000ddd0       ??_R1A@?0A@EA@CUtlCStringConversion@@8 1003cdd0     tier1:utlbuffer.obj
 0002:0000ddec       ??_R4type_info@@6B@        1003cdec     LIBCMT:typinfo.obj
 0002:0000de00       ??_R3type_info@@8          1003ce00     LIBCMT:typinfo.obj
 0002:0000de10       ??_R2type_info@@8          1003ce10     LIBCMT:typinfo.obj
 0002:0000de18       ??_R1A@?0A@EA@type_info@@8 1003ce18     LIBCMT:typinfo.obj
 0002:0000de34       ??_R4exception@std@@6B@    1003ce34     LIBCMT:stdexcpt.obj
 0002:0000de48       ??_R4length_error@std@@6B@ 1003ce48     libcpmt:xthrow.obj
 0002:0000de5c       ??_R3length_error@std@@8   1003ce5c     libcpmt:xthrow.obj
 0002:0000de6c       ??_R2length_error@std@@8   1003ce6c     libcpmt:xthrow.obj
 0002:0000de7c       ??_R1A@?0A@EA@length_error@std@@8 1003ce7c     libcpmt:xthrow.obj
 0002:0000de98       ??_R4error_category@system@boost@@6B@ 1003ce98     libboost_system-vc110-mt-s-1_52:error_code.obj
 0002:0000deac       ??_R3error_category@system@boost@@8 1003ceac     libboost_system-vc110-mt-s-1_52:error_code.obj
 0002:0000debc       ??_R2error_category@system@boost@@8 1003cebc     libboost_system-vc110-mt-s-1_52:error_code.obj
 0002:0000dec8       ??_R1A@?0A@EA@error_category@system@boost@@8 1003cec8     libboost_system-vc110-mt-s-1_52:error_code.obj
 0002:0000dee4       ??_R13?0A@EA@noncopyable@noncopyable_@boost@@8 1003cee4     libboost_system-vc110-mt-s-1_52:error_code.obj
 0002:0000df00       ??_R3noncopyable@noncopyable_@boost@@8 1003cf00     libboost_system-vc110-mt-s-1_52:error_code.obj
 0002:0000df10       ??_R2noncopyable@noncopyable_@boost@@8 1003cf10     libboost_system-vc110-mt-s-1_52:error_code.obj
 0002:0000df18       ??_R1A@?0A@EA@noncopyable@noncopyable_@boost@@8 1003cf18     libboost_system-vc110-mt-s-1_52:error_code.obj
 0002:0000df34       ??_R4generic_error_category@?A0xe218785f@@6B@ 1003cf34     libboost_system-vc110-mt-s-1_52:error_code.obj
 0002:0000df48       ??_R3generic_error_category@?A0xe218785f@@8 1003cf48     libboost_system-vc110-mt-s-1_52:error_code.obj
 0002:0000df58       ??_R2generic_error_category@?A0xe218785f@@8 1003cf58     libboost_system-vc110-mt-s-1_52:error_code.obj
 0002:0000df68       ??_R1A@?0A@EA@generic_error_category@?A0xe218785f@@8 1003cf68     libboost_system-vc110-mt-s-1_52:error_code.obj
 0002:0000df84       ??_R4system_error_category@?A0xe218785f@@6B@ 1003cf84     libboost_system-vc110-mt-s-1_52:error_code.obj
 0002:0000df98       ??_R3system_error_category@?A0xe218785f@@8 1003cf98     libboost_system-vc110-mt-s-1_52:error_code.obj
 0002:0000dfa8       ??_R2system_error_category@?A0xe218785f@@8 1003cfa8     libboost_system-vc110-mt-s-1_52:error_code.obj
 0002:0000dfb8       ??_R1A@?0A@EA@system_error_category@?A0xe218785f@@8 1003cfb8     libboost_system-vc110-mt-s-1_52:error_code.obj
 0002:0000dfd4       ??_R4bad_exception@std@@6B@ 1003cfd4     LIBCMT:frame.obj
 0002:0000dfe8       ??_R3bad_exception@std@@8  1003cfe8     LIBCMT:frame.obj
 0002:0000dff8       ??_R2bad_exception@std@@8  1003cff8     LIBCMT:frame.obj
 0002:0000e004       ??_R1A@?0A@EA@bad_exception@std@@8 1003d004     LIBCMT:frame.obj
 0002:0000e020       ??_R3error_category@std@@8 1003d020     ILuaObject.obj
 0002:0000e030       ??_R1A@?0A@EA@error_category@std@@8 1003d030     ILuaObject.obj
 0002:0000e04c       ??_R3_System_error_category@std@@8 1003d04c     ILuaObject.obj
 0002:0000e05c       ??_R2_System_error_category@std@@8 1003d05c     ILuaObject.obj
 0002:0000e06c       ??_R4_Generic_error_category@std@@6B@ 1003d06c     ILuaObject.obj
 0002:0000e080       ??_R1A@?0A@EA@_Generic_error_category@std@@8 1003d080     ILuaObject.obj
 0002:0000e09c       ??_R1A@?0A@EA@_Iostream_error_category@std@@8 1003d09c     ILuaObject.obj
 0002:0000e0b8       ??_R4error_category@std@@6B@ 1003d0b8     ILuaObject.obj
 0002:0000e0cc       ??_R4_Iostream_error_category@std@@6B@ 1003d0cc     ILuaObject.obj
 0002:0000e0e0       ??_R2error_category@std@@8 1003d0e0     ILuaObject.obj
 0002:0000e0e8       ??_R1A@?0A@EA@_System_error_category@std@@8 1003d0e8     ILuaObject.obj
 0002:0000e104       ??_R3_Iostream_error_category@std@@8 1003d104     ILuaObject.obj
 0002:0000e114       ??_R4_System_error_category@std@@6B@ 1003d114     ILuaObject.obj
 0002:0000e128       ??_R2_Generic_error_category@std@@8 1003d128     ILuaObject.obj
 0002:0000e134       ??_R3_Generic_error_category@std@@8 1003d134     ILuaObject.obj
 0002:0000e144       ??_R2_Iostream_error_category@std@@8 1003d144     ILuaObject.obj
 0002:0000e154       ??_R4out_of_range@std@@6B@ 1003d154     main.obj
 0002:0000e168       ??_R2?$clone_impl@U?$error_info_injector@Ubad_month@gregorian@boost@@@exception_detail@boost@@@exception_detail@boost@@8 1003d168     main.obj
 0002:0000e18c       ??_R4?$clone_impl@U?$error_info_injector@Ubad_month@gregorian@boost@@@exception_detail@boost@@@exception_detail@boost@@6Bbad_month@gregorian@2@@ 1003d18c     main.obj
 0002:0000e1a0       ??_R2?$clone_impl@U?$error_info_injector@Ubad_day_of_month@gregorian@boost@@@exception_detail@boost@@@exception_detail@boost@@8 1003d1a0     main.obj
 0002:0000e1c4       ??_R1A@?0A@EA@?$clone_impl@U?$error_info_injector@Vruntime_error@std@@@exception_detail@boost@@@exception_detail@boost@@8 1003d1c4     main.obj
 0002:0000e1e0       ??_R4bad_day_of_month@gregorian@boost@@6B@ 1003d1e0     main.obj
 0002:0000e1f4       ??_R3exception@boost@@8    1003d1f4     main.obj
 0002:0000e204       ??_R1A@?0A@EA@?$error_info_injector@Ubad_day_of_month@gregorian@boost@@@exception_detail@boost@@8 1003d204     main.obj
 0002:0000e220       ??_R1A@?0A@EA@exception@std@@8 1003d220     main.obj
 0002:0000e23c       ??_R1A@?0A@EA@logic_error@std@@8 1003d23c     main.obj
 0002:0000e258       ??_R4bad_year@gregorian@boost@@6B@ 1003d258     main.obj
 0002:0000e26c       ??_R2runtime_error@std@@8  1003d26c     main.obj
 0002:0000e278       ??_R4?$clone_impl@U?$error_info_injector@Ubad_year@gregorian@boost@@@exception_detail@boost@@@exception_detail@boost@@6Bbad_year@gregorian@2@@ 1003d278     main.obj
 0002:0000e28c       ??_R1A@?0A@EA@bad_day_of_month@gregorian@boost@@8 1003d28c     main.obj
 0002:0000e2a8       ??_R2?$error_info_injector@Ubad_year@gregorian@boost@@@exception_detail@boost@@8 1003d2a8     main.obj
 0002:0000e2c4       ??_R4?$error_info_injector@Ubad_month@gregorian@boost@@@exception_detail@boost@@6Bbad_month@gregorian@2@@ 1003d2c4     main.obj
 0002:0000e2d8       ??_R3?$clone_impl@U?$error_info_injector@Ubad_month@gregorian@boost@@@exception_detail@boost@@@exception_detail@boost@@8 1003d2d8     main.obj
 0002:0000e2e8       ??_R4?$clone_impl@U?$error_info_injector@Vruntime_error@std@@@exception_detail@boost@@@exception_detail@boost@@6B@ 1003d2e8     main.obj
 0002:0000e2fc       ??_R4?$error_info_injector@Vruntime_error@std@@@exception_detail@boost@@6Bexception@2@@ 1003d2fc     main.obj
 0002:0000e310       ??_R1A@?0A@EA@?$clone_impl@U?$error_info_injector@Ubad_month@gregorian@boost@@@exception_detail@boost@@@exception_detail@boost@@8 1003d310     main.obj
 0002:0000e32c       ??_R4?$error_info_injector@Vruntime_error@std@@@exception_detail@boost@@6Bruntime_error@std@@@ 1003d32c     main.obj
 0002:0000e340       ??_R2out_of_range@std@@8   1003d340     main.obj
 0002:0000e350       ??_R4?$clone_impl@U?$error_info_injector@Ubad_month@gregorian@boost@@@exception_detail@boost@@@exception_detail@boost@@6Bexception@2@@ 1003d350     main.obj
 0002:0000e364       ??_R4?$clone_impl@U?$error_info_injector@Ubad_month@gregorian@boost@@@exception_detail@boost@@@exception_detail@boost@@6B@ 1003d364     main.obj
 0002:0000e378       ??_R1A@?0A@EA@?$clone_impl@U?$error_info_injector@Ubad_year@gregorian@boost@@@exception_detail@boost@@@exception_detail@boost@@8 1003d378     main.obj
 0002:0000e394       ??_R3bad_day_of_month@gregorian@boost@@8 1003d394     main.obj
 0002:0000e3a4       ??_R2?$clone_impl@U?$error_info_injector@Vruntime_error@std@@@exception_detail@boost@@@exception_detail@boost@@8 1003d3a4     main.obj
 0002:0000e3c0       ??_R3?$error_info_injector@Vruntime_error@std@@@exception_detail@boost@@8 1003d3c0     main.obj
 0002:0000e3d0       ??_R1A@CA@3FA@clone_base@exception_detail@boost@@8 1003d3d0     main.obj
 0002:0000e3ec       ??_R3runtime_error@std@@8  1003d3ec     main.obj
 0002:0000e3fc       ??_R3?$clone_impl@U?$error_info_injector@Ubad_year@gregorian@boost@@@exception_detail@boost@@@exception_detail@boost@@8 1003d3fc     main.obj
 0002:0000e40c       ??_R4?$error_info_injector@Ubad_day_of_month@gregorian@boost@@@exception_detail@boost@@6Bexception@2@@ 1003d40c     main.obj
 0002:0000e420       ??_R1M@?0A@EA@exception@boost@@8 1003d420     main.obj
 0002:0000e43c       ??_R1A@?0A@EA@?$error_info_injector@Ubad_month@gregorian@boost@@@exception_detail@boost@@8 1003d43c     main.obj
 0002:0000e458       ??_R4clone_base@exception_detail@boost@@6B@ 1003d458     main.obj
 0002:0000e46c       ??_R1A@?0A@EA@bad_year@gregorian@boost@@8 1003d46c     main.obj
 0002:0000e488       ??_R2?$error_info_injector@Vruntime_error@std@@@exception_detail@boost@@8 1003d488     main.obj
 0002:0000e49c       ??_R3?$error_info_injector@Ubad_month@gregorian@boost@@@exception_detail@boost@@8 1003d49c     main.obj
 0002:0000e4ac       ??_R4?$clone_impl@U?$error_info_injector@Ubad_day_of_month@gregorian@boost@@@exception_detail@boost@@@exception_detail@boost@@6Bexception@2@@ 1003d4ac     main.obj
 0002:0000e4c0       ??_R1A@?0A@EA@bad_month@gregorian@boost@@8 1003d4c0     main.obj
 0002:0000e4dc       ??_R2?$error_info_injector@Ubad_day_of_month@gregorian@boost@@@exception_detail@boost@@8 1003d4dc     main.obj
 0002:0000e4f8       ??_R3bad_month@gregorian@boost@@8 1003d4f8     main.obj
 0002:0000e508       ??_R4?$error_info_injector@Ubad_year@gregorian@boost@@@exception_detail@boost@@6Bbad_year@gregorian@2@@ 1003d508     main.obj
 0002:0000e51c       ??_R3bad_year@gregorian@boost@@8 1003d51c     main.obj
 0002:0000e52c       ??_R4?$clone_impl@U?$error_info_injector@Ubad_year@gregorian@boost@@@exception_detail@boost@@@exception_detail@boost@@6Bexception@2@@ 1003d52c     main.obj
 0002:0000e540       ??_R1A@?0A@EA@?$error_info_injector@Vruntime_error@std@@@exception_detail@boost@@8 1003d540     main.obj
 0002:0000e55c       ??_R3?$error_info_injector@Ubad_day_of_month@gregorian@boost@@@exception_detail@boost@@8 1003d55c     main.obj
 0002:0000e56c       ??_R4bad_month@gregorian@boost@@6B@ 1003d56c     main.obj
 0002:0000e580       ??_R4logic_error@std@@6B@  1003d580     main.obj
 0002:0000e594       ??_R2clone_base@exception_detail@boost@@8 1003d594     main.obj
 0002:0000e59c       ??_R4?$error_info_injector@Ubad_month@gregorian@boost@@@exception_detail@boost@@6Bexception@2@@ 1003d59c     main.obj
 0002:0000e5b0       ??_R4?$clone_impl@U?$error_info_injector@Ubad_day_of_month@gregorian@boost@@@exception_detail@boost@@@exception_detail@boost@@6Bbad_day_of_month@gregorian@2@@ 1003d5b0     main.obj
 0002:0000e5c4       ??_R2exception@std@@8      1003d5c4     main.obj
 0002:0000e5cc       ??_R1A@?0A@EA@runtime_error@std@@8 1003d5cc     main.obj
 0002:0000e5e8       ??_R4exception@boost@@6B@  1003d5e8     main.obj
 0002:0000e5fc       ??_R3exception@std@@8      1003d5fc     main.obj
 0002:0000e60c       ??_R3out_of_range@std@@8   1003d60c     main.obj
 0002:0000e61c       ??_R3?$clone_impl@U?$error_info_injector@Ubad_day_of_month@gregorian@boost@@@exception_detail@boost@@@exception_detail@boost@@8 1003d61c     main.obj
 0002:0000e62c       ??_R2logic_error@std@@8    1003d62c     main.obj
 0002:0000e638       ??_R4?$clone_impl@U?$error_info_injector@Vruntime_error@std@@@exception_detail@boost@@@exception_detail@boost@@6Bruntime_error@std@@@ 1003d638     main.obj
 0002:0000e64c       ??_R3logic_error@std@@8    1003d64c     main.obj
 0002:0000e65c       ??_R1A@?0A@EA@?$error_info_injector@Ubad_year@gregorian@boost@@@exception_detail@boost@@8 1003d65c     main.obj
 0002:0000e678       ??_R2?$error_info_injector@Ubad_month@gregorian@boost@@@exception_detail@boost@@8 1003d678     main.obj
 0002:0000e694       ??_R3clone_base@exception_detail@boost@@8 1003d694     main.obj
 0002:0000e6a4       ??_R4?$error_info_injector@Ubad_year@gregorian@boost@@@exception_detail@boost@@6Bexception@2@@ 1003d6a4     main.obj
 0002:0000e6b8       ??_R4?$clone_impl@U?$error_info_injector@Ubad_year@gregorian@boost@@@exception_detail@boost@@@exception_detail@boost@@6B@ 1003d6b8     main.obj
 0002:0000e6cc       ??_R1A@?0A@EA@?$clone_impl@U?$error_info_injector@Ubad_day_of_month@gregorian@boost@@@exception_detail@boost@@@exception_detail@boost@@8 1003d6cc     main.obj
 0002:0000e6e8       ??_R2exception@boost@@8    1003d6e8     main.obj
 0002:0000e6f0       ??_R2?$clone_impl@U?$error_info_injector@Ubad_year@gregorian@boost@@@exception_detail@boost@@@exception_detail@boost@@8 1003d6f0     main.obj
 0002:0000e714       ??_R3?$clone_impl@U?$error_info_injector@Vruntime_error@std@@@exception_detail@boost@@@exception_detail@boost@@8 1003d714     main.obj
 0002:0000e724       ??_R1A@?0A@EA@clone_base@exception_detail@boost@@8 1003d724     main.obj
 0002:0000e740       ??_R4?$error_info_injector@Ubad_day_of_month@gregorian@boost@@@exception_detail@boost@@6Bbad_day_of_month@gregorian@2@@ 1003d740     main.obj
 0002:0000e754       ??_R2bad_day_of_month@gregorian@boost@@8 1003d754     main.obj
 0002:0000e768       ??_R4?$clone_impl@U?$error_info_injector@Vruntime_error@std@@@exception_detail@boost@@@exception_detail@boost@@6Bexception@2@@ 1003d768     main.obj
 0002:0000e77c       ??_R2bad_year@gregorian@boost@@8 1003d77c     main.obj
 0002:0000e790       ??_R1A@?0A@EA@exception@boost@@8 1003d790     main.obj
 0002:0000e7ac       ??_R2bad_month@gregorian@boost@@8 1003d7ac     main.obj
 0002:0000e7c0       ??_R3?$error_info_injector@Ubad_year@gregorian@boost@@@exception_detail@boost@@8 1003d7c0     main.obj
 0002:0000e7d0       ??_R4?$clone_impl@U?$error_info_injector@Ubad_day_of_month@gregorian@boost@@@exception_detail@boost@@@exception_detail@boost@@6B@ 1003d7d0     main.obj
 0002:0000e7e4       ??_R4runtime_error@std@@6B@ 1003d7e4     main.obj
 0002:0000e7f8       ??_R1A@?0A@EA@out_of_range@std@@8 1003d7f8     main.obj
 0002:0000e814       ??_R2thread_exception@boost@@8 1003d814     nav.obj
 0002:0000e828       ??_R4?$error_info_injector@Vthread_resource_error@boost@@@exception_detail@boost@@6Bthread_resource_error@2@@ 1003d828     nav.obj
 0002:0000e83c       ??_R1A@?0A@EA@ITraceFilter@@8 1003d83c     nav.obj
 0002:0000e858       ??_R1A@?0A@EA@CTraceFilter@@8 1003d858     nav.obj
 0002:0000e874       ??_R3?$clone_impl@U?$error_info_injector@Vthread_resource_error@boost@@@exception_detail@boost@@@exception_detail@boost@@8 1003d874     nav.obj
 0002:0000e884       ??_R4GMOD_TraceFilter@@6B@ 1003d884     nav.obj
 0002:0000e898       ??_R2?$error_info_injector@Vthread_resource_error@boost@@@exception_detail@boost@@8 1003d898     nav.obj
 0002:0000e8b8       ??_R4thread_data_base@detail@boost@@6B@ 1003d8b8     nav.obj
 0002:0000e8cc       ??_R2?$thread_data@V?$bind_t@XV?$mf3@XVNav@@PAUJobInfo_t@@PAVNode@@PAV3@@_mfi@boost@@V?$list4@V?$value@PAVNav@@@_bi@boost@@V?$value@PAUJobInfo_t@@@23@V?$value@PAVNode@@@23@V523@@_bi@3@@_bi@boost@@@detail@boost@@8 1003d8cc     nav.obj
 0002:0000e8d8       ??_R4CTraceFilter@@6B@     1003d8d8     nav.obj
 0002:0000e8ec       ??_R3?$thread_data@V?$bind_t@XV?$mf3@XVNav@@PAUJobInfo_t@@PAVNode@@PAV3@@_mfi@boost@@V?$list4@V?$value@PAVNav@@@_bi@boost@@V?$value@PAUJobInfo_t@@@23@V?$value@PAVNode@@@23@V523@@_bi@3@@_bi@boost@@@detail@boost@@8 1003d8ec     nav.obj
 0002:0000e8fc       ??_R3system_error@system@boost@@8 1003d8fc     nav.obj
 0002:0000e90c       ??_R4?$thread_data@V?$bind_t@XV?$mf1@XVNav@@PA_N@_mfi@boost@@V?$list2@V?$value@PAVNav@@@_bi@boost@@V?$value@PA_N@23@@_bi@3@@_bi@boost@@@detail@boost@@6B@ 1003d90c     nav.obj
 0002:0000e920       ??_R4?$clone_impl@U?$error_info_injector@Vbad_alloc@std@@@exception_detail@boost@@@exception_detail@boost@@6B@ 1003d920     nav.obj
 0002:0000e934       ??_R1A@?0A@EA@?$error_info_injector@Vthread_resource_error@boost@@@exception_detail@boost@@8 1003d934     nav.obj
 0002:0000e950       ??_R4?$clone_impl@U?$error_info_injector@Vthread_resource_error@boost@@@exception_detail@boost@@@exception_detail@boost@@6B@ 1003d950     nav.obj
 0002:0000e964       ??_R2bad_alloc@std@@8      1003d964     nav.obj
 0002:0000e970       ??_R1A@?0A@EA@bad_alloc@std@@8 1003d970     nav.obj
 0002:0000e98c       ??_R3?$error_info_injector@Vthread_resource_error@boost@@@exception_detail@boost@@8 1003d98c     nav.obj
 0002:0000e99c       ??_R4?$error_info_injector@Vbad_alloc@std@@@exception_detail@boost@@6Bbad_alloc@std@@@ 1003d99c     nav.obj
 0002:0000e9b0       ??_R4system_error@system@boost@@6B@ 1003d9b0     nav.obj
 0002:0000e9c4       ??_R2?$clone_impl@U?$error_info_injector@Vthread_resource_error@boost@@@exception_detail@boost@@@exception_detail@boost@@8 1003d9c4     nav.obj
 0002:0000e9ec       ??_R4ITraceFilter@@6B@     1003d9ec     nav.obj
 0002:0000ea00       ??_R3GMOD_TraceFilter@@8   1003da00     nav.obj
 0002:0000ea10       ??_R4?$thread_data@V?$bind_t@XV?$mf3@XVNav@@PAUJobInfo_t@@PAVNode@@PAV3@@_mfi@boost@@V?$list4@V?$value@PAVNav@@@_bi@boost@@V?$value@PAUJobInfo_t@@@23@V?$value@PAVNode@@@23@V523@@_bi@3@@_bi@boost@@@detail@boost@@6B@ 1003da10     nav.obj
 0002:0000ea24       ??_R1A@?0A@EA@system_error@system@boost@@8 1003da24     nav.obj
 0002:0000ea40       ??_R1CM@?0A@EA@exception@boost@@8 1003da40     nav.obj
 0002:0000ea5c       ??_R3thread_data_base@detail@boost@@8 1003da5c     nav.obj
 0002:0000ea6c       ??_R2system_error@system@boost@@8 1003da6c     nav.obj
 0002:0000ea7c       ??_R2thread_resource_error@boost@@8 1003da7c     nav.obj
 0002:0000ea94       ??_R4?$clone_impl@U?$error_info_injector@Vthread_resource_error@boost@@@exception_detail@boost@@@exception_detail@boost@@6Bthread_resource_error@2@@ 1003da94     nav.obj
 0002:0000eaa8       ??_R2?$thread_data@V?$bind_t@XV?$mf1@XVNav@@PA_N@_mfi@boost@@V?$list2@V?$value@PAVNav@@@_bi@boost@@V?$value@PA_N@23@@_bi@3@@_bi@boost@@@detail@boost@@8 1003daa8     nav.obj
 0002:0000eab4       ??_R1A@?0A@EA@?$clone_impl@U?$error_info_injector@Vthread_resource_error@boost@@@exception_detail@boost@@@exception_detail@boost@@8 1003dab4     nav.obj
 0002:0000ead0       ??_R3ITraceFilter@@8       1003dad0     nav.obj
 0002:0000eae0       ??_R3CTraceFilter@@8       1003dae0     nav.obj
 0002:0000eaf0       ??_R4?$clone_impl@U?$error_info_injector@Vbad_alloc@std@@@exception_detail@boost@@@exception_detail@boost@@6Bbad_alloc@std@@@ 1003daf0     nav.obj
 0002:0000eb04       ??_R4?$clone_impl@U?$error_info_injector@Vthread_resource_error@boost@@@exception_detail@boost@@@exception_detail@boost@@6Bexception@2@@ 1003db04     nav.obj
 0002:0000eb18       ??_R3bad_alloc@std@@8      1003db18     nav.obj
 0002:0000eb28       ??_R4?$clone_impl@U?$error_info_injector@Vbad_alloc@std@@@exception_detail@boost@@@exception_detail@boost@@6Bexception@2@@ 1003db28     nav.obj
 0002:0000eb3c       ??_R1A@?0A@EA@?$thread_data@V?$bind_t@XV?$mf1@XVNav@@PA_N@_mfi@boost@@V?$list2@V?$value@PAVNav@@@_bi@boost@@V?$value@PA_N@23@@_bi@3@@_bi@boost@@@detail@boost@@8 1003db3c     nav.obj
 0002:0000eb58       ??_R1A@?0A@EA@thread_exception@boost@@8 1003db58     nav.obj
 0002:0000eb74       ??_R1A@EA@3FA@clone_base@exception_detail@boost@@8 1003db74     nav.obj
 0002:0000eb90       ??_R2CTraceFilter@@8       1003db90     nav.obj
 0002:0000eb9c       ??_R4?$error_info_injector@Vbad_alloc@std@@@exception_detail@boost@@6Bexception@2@@ 1003db9c     nav.obj
 0002:0000ebb0       ??_R4thread_resource_error@boost@@6B@ 1003dbb0     nav.obj
 0002:0000ebc4       ??_R2?$clone_impl@U?$error_info_injector@Vbad_alloc@std@@@exception_detail@boost@@@exception_detail@boost@@8 1003dbc4     nav.obj
 0002:0000ebe0       ??_R2GMOD_TraceFilter@@8   1003dbe0     nav.obj
 0002:0000ebf0       ??_R3thread_resource_error@boost@@8 1003dbf0     nav.obj
 0002:0000ec00       ??_R3?$thread_data@V?$bind_t@XV?$mf1@XVNav@@PA_N@_mfi@boost@@V?$list2@V?$value@PAVNav@@@_bi@boost@@V?$value@PA_N@23@@_bi@3@@_bi@boost@@@detail@boost@@8 1003dc00     nav.obj
 0002:0000ec10       ??_R4?$error_info_injector@Vthread_resource_error@boost@@@exception_detail@boost@@6Bexception@2@@ 1003dc10     nav.obj
 0002:0000ec24       ??_R1A@?0A@EA@thread_resource_error@boost@@8 1003dc24     nav.obj
 0002:0000ec40       ??_R1A@?0A@EA@?$thread_data@V?$bind_t@XV?$mf3@XVNav@@PAUJobInfo_t@@PAVNode@@PAV3@@_mfi@boost@@V?$list4@V?$value@PAVNav@@@_bi@boost@@V?$value@PAUJobInfo_t@@@23@V?$value@PAVNode@@@23@V523@@_bi@3@@_bi@boost@@@detail@boost@@8 1003dc40     nav.obj
 0002:0000ec5c       ??_R1A@?0A@EA@?$clone_impl@U?$error_info_injector@Vbad_alloc@std@@@exception_detail@boost@@@exception_detail@boost@@8 1003dc5c     nav.obj
 0002:0000ec78       ??_R1A@?0A@EA@?$error_info_injector@Vbad_alloc@std@@@exception_detail@boost@@8 1003dc78     nav.obj
 0002:0000ec94       ??_R2thread_data_base@detail@boost@@8 1003dc94     nav.obj
 0002:0000ec9c       ??_R4bad_alloc@std@@6B@    1003dc9c     nav.obj
 0002:0000ecb0       ??_R2ITraceFilter@@8       1003dcb0     nav.obj
 0002:0000ecb8       ??_R3thread_exception@boost@@8 1003dcb8     nav.obj
 0002:0000ecc8       ??_R3?$clone_impl@U?$error_info_injector@Vbad_alloc@std@@@exception_detail@boost@@@exception_detail@boost@@8 1003dcc8     nav.obj
 0002:0000ecd8       ??_R1A@?0A@EA@thread_data_base@detail@boost@@8 1003dcd8     nav.obj
 0002:0000ecf4       ??_R1A@?0A@EA@GMOD_TraceFilter@@8 1003dcf4     nav.obj
 0002:0000ed10       ??_R3?$error_info_injector@Vbad_alloc@std@@@exception_detail@boost@@8 1003dd10     nav.obj
 0002:0000ed20       ??_R4thread_exception@boost@@6B@ 1003dd20     nav.obj
 0002:0000ed34       ??_R2?$error_info_injector@Vbad_alloc@std@@@exception_detail@boost@@8 1003dd34     nav.obj
 0002:0000ed50       ___safe_se_handler_table   1003dd50     <linker-defined>
 0002:0000eea0       ___rtc_iaa                 1003dea0     LIBCMT:initsect.obj
 0002:0000eea4       ___rtc_izz                 1003dea4     LIBCMT:initsect.obj
 0002:0000eea8       ___rtc_taa                 1003dea8     LIBCMT:initsect.obj
 0002:0000eeac       ___rtc_tzz                 1003deac     LIBCMT:initsect.obj
 0002:0000eeb0       __TI2?AVbad_alloc@std@@    1003deb0     LIBCMT:new.obj
 0002:0000eec0       __CTA2?AVbad_alloc@std@@   1003dec0     LIBCMT:new.obj
 0002:0000f34c       __TI3?AVlength_error@std@@ 1003e34c     libcpmt:xthrow.obj
 0002:0000f35c       __CTA3?AVlength_error@std@@ 1003e35c     libcpmt:xthrow.obj
 0002:0000f36c       __CT??_R0?AVlength_error@std@@@8??0length_error@std@@QAE@ABV01@@Z12 1003e36c     libcpmt:xthrow.obj
 0002:0000f388       __TI3?AVout_of_range@std@@ 1003e388     libcpmt:xthrow.obj
 0002:0000f398       __CTA3?AVout_of_range@std@@ 1003e398     libcpmt:xthrow.obj
 0002:0000f66c       __TI1?AVthread_interrupted@boost@@ 1003e66c     libboost_thread-vc110-mt-s-1_52:thread.obj
 0002:0000f67c       __CTA1?AVthread_interrupted@boost@@ 1003e67c     libboost_thread-vc110-mt-s-1_52:thread.obj
 0002:0000f684       __CT??_R0?AVthread_interrupted@boost@@@81 1003e684     libboost_thread-vc110-mt-s-1_52:thread.obj
 0002:0000f8c4       __TI2?AVbad_exception@std@@ 1003e8c4     LIBCMT:frame.obj
 0002:0000f8d4       __CTA2?AVbad_exception@std@@ 1003e8d4     LIBCMT:frame.obj
 0002:0000f8e0       __CT??_R0?AVbad_exception@std@@@8??0bad_exception@std@@QAE@ABV01@@Z12 1003e8e0     LIBCMT:frame.obj
 0002:0000f8fc       __CT??_R0?AV?$clone_impl@U?$error_info_injector@Ubad_month@gregorian@boost@@@exception_detail@boost@@@exception_detail@boost@@@8??0?$clone_impl@U?$error_info_injector@Ubad_month@gregorian@boost@@@exception_detail@boost@@@exception_detail@boost@@QAE@ABV012@@Z44 1003e8fc     main.obj
 0002:0000f918       __CT??_R0?AVexception@std@@@8??0exception@std@@QAE@ABV01@@Z12 1003e918     main.obj
 0002:0000f934       __CTA6?AV?$clone_impl@U?$error_info_injector@Vruntime_error@std@@@exception_detail@boost@@@exception_detail@boost@@ 1003e934     main.obj
 0002:0000f950       __CTA8?AV?$clone_impl@U?$error_info_injector@Ubad_day_of_month@gregorian@boost@@@exception_detail@boost@@@exception_detail@boost@@ 1003e950     main.obj
 0002:0000f974       __CT??_R0?AV?$clone_impl@U?$error_info_injector@Ubad_day_of_month@gregorian@boost@@@exception_detail@boost@@@exception_detail@boost@@@8??0?$clone_impl@U?$error_info_injector@Ubad_day_of_month@gregorian@boost@@@exception_detail@boost@@@exception_detail@boost@@QAE@ABV012@@Z44 1003e974     main.obj
 0002:0000f990       __CT??_R0?AUbad_day_of_month@gregorian@boost@@@8??0bad_day_of_month@gregorian@boost@@QAE@ABU012@@Z12 1003e990     main.obj
 0002:0000f9ac       __CT??_R0?AV?$clone_impl@U?$error_info_injector@Vruntime_error@std@@@exception_detail@boost@@@exception_detail@boost@@@8??0?$clone_impl@U?$error_info_injector@Vruntime_error@std@@@exception_detail@boost@@@exception_detail@boost@@QAE@ABV012@@Z44 1003e9ac     main.obj
 0002:0000f9c8       __CT??_R0?AU?$error_info_injector@Ubad_day_of_month@gregorian@boost@@@exception_detail@boost@@@8??0?$error_info_injector@Ubad_day_of_month@gregorian@boost@@@exception_detail@boost@@QAE@ABU012@@Z32 1003e9c8     main.obj
 0002:0000f9e4       __CT??_R0?AVexception@boost@@@8??0exception@boost@@QAE@ABV01@@Z2012 1003e9e4     main.obj
 0002:0000fa00       __TI8?AV?$clone_impl@U?$error_info_injector@Ubad_month@gregorian@boost@@@exception_detail@boost@@@exception_detail@boost@@ 1003ea00     main.obj
 0002:0000fa10       __CT??_R0?AUbad_month@gregorian@boost@@@8??0bad_month@gregorian@boost@@QAE@ABU012@@Z12 1003ea10     main.obj
 0002:0000fa2c       __CT??_R0?AU?$error_info_injector@Vruntime_error@std@@@exception_detail@boost@@@8??0?$error_info_injector@Vruntime_error@std@@@exception_detail@boost@@QAE@ABU012@@Z32 1003ea2c     main.obj
 0002:0000fa48       __CT??_R0?AUbad_year@gregorian@boost@@@8??0bad_year@gregorian@boost@@QAE@ABU012@@Z12 1003ea48     main.obj
 0002:0000fa64       __TI8?AV?$clone_impl@U?$error_info_injector@Ubad_year@gregorian@boost@@@exception_detail@boost@@@exception_detail@boost@@ 1003ea64     main.obj
 0002:0000fa74       __CT??_R0?AVruntime_error@std@@@8??0runtime_error@std@@QAE@ABV01@@Z12 1003ea74     main.obj
 0002:0000fa90       __CT??_R0?AU?$error_info_injector@Ubad_month@gregorian@boost@@@exception_detail@boost@@@8??0?$error_info_injector@Ubad_month@gregorian@boost@@@exception_detail@boost@@QAE@ABU012@@Z32 1003ea90     main.obj
 0002:0000faac       __CT??_R0?AVclone_base@exception_detail@boost@@@8??0clone_base@exception_detail@boost@@QAE@ABV012@@Z40324 1003eaac     main.obj
 0002:0000fac8       __TI6?AV?$clone_impl@U?$error_info_injector@Vruntime_error@std@@@exception_detail@boost@@@exception_detail@boost@@ 1003eac8     main.obj
 0002:0000fad8       __CT??_R0?AVlogic_error@std@@@8??0logic_error@std@@QAE@ABV01@@Z12 1003ead8     main.obj
 0002:0000faf4       __CTA8?AV?$clone_impl@U?$error_info_injector@Ubad_month@gregorian@boost@@@exception_detail@boost@@@exception_detail@boost@@ 1003eaf4     main.obj
 0002:0000fb18       __CT??_R0?AVout_of_range@std@@@8??0out_of_range@std@@QAE@ABV01@@Z12 1003eb18     main.obj
 0002:0000fb34       __CT??_R0?AV?$clone_impl@U?$error_info_injector@Ubad_year@gregorian@boost@@@exception_detail@boost@@@exception_detail@boost@@@8??0?$clone_impl@U?$error_info_injector@Ubad_year@gregorian@boost@@@exception_detail@boost@@@exception_detail@boost@@QAE@ABV012@@Z44 1003eb34     main.obj
 0002:0000fb50       __TI8?AV?$clone_impl@U?$error_info_injector@Ubad_day_of_month@gregorian@boost@@@exception_detail@boost@@@exception_detail@boost@@ 1003eb50     main.obj
 0002:0000fb60       __CTA8?AV?$clone_impl@U?$error_info_injector@Ubad_year@gregorian@boost@@@exception_detail@boost@@@exception_detail@boost@@ 1003eb60     main.obj
 0002:0000fb84       __CT??_R0?AU?$error_info_injector@Ubad_year@gregorian@boost@@@exception_detail@boost@@@8??0?$error_info_injector@Ubad_year@gregorian@boost@@@exception_detail@boost@@QAE@ABU012@@Z32 1003eb84     main.obj
 0002:0000fba0       __CT??_R0?AVthread_exception@boost@@@8??0thread_exception@boost@@QAE@ABV01@@Z44 1003eba0     nav.obj
 0002:0000fbbc       __CT??_R0?AVthread_resource_error@boost@@@8??0thread_resource_error@boost@@QAE@ABV01@@Z44 1003ebbc     nav.obj
 0002:0000fbd8       __CT??_R0?AU?$error_info_injector@Vthread_resource_error@boost@@@exception_detail@boost@@@8??0?$error_info_injector@Vthread_resource_error@boost@@@exception_detail@boost@@QAE@ABU012@@Z64 1003ebd8     nav.obj
 0002:0000fbf4       __CT??_R0?AV?$clone_impl@U?$error_info_injector@Vbad_alloc@std@@@exception_detail@boost@@@exception_detail@boost@@@8??0?$clone_impl@U?$error_info_injector@Vbad_alloc@std@@@exception_detail@boost@@@exception_detail@boost@@QAE@ABV012@@Z44 1003ebf4     nav.obj
 0002:0000fc10       __CT??_R0?AU?$error_info_injector@Vbad_alloc@std@@@exception_detail@boost@@@8??0?$error_info_injector@Vbad_alloc@std@@@exception_detail@boost@@QAE@ABU012@@Z32 1003ec10     nav.obj
 0002:0000fc2c       __CT??_R0?AVbad_alloc@std@@@8??0bad_alloc@std@@QAE@ABV01@@Z12 1003ec2c     nav.obj
 0002:0000fc48       __TI6?AV?$clone_impl@U?$error_info_injector@Vbad_alloc@std@@@exception_detail@boost@@@exception_detail@boost@@ 1003ec48     nav.obj
 0002:0000fc58       __CT??_R0?AVexception@boost@@@8??0exception@boost@@QAE@ABV01@@Z2044 1003ec58     nav.obj
 0002:0000fc74       __CT??_R0?AVsystem_error@system@boost@@@8??0system_error@system@boost@@QAE@ABV012@@Z44 1003ec74     nav.obj
 0002:0000fc90       __TI9?AV?$clone_impl@U?$error_info_injector@Vthread_resource_error@boost@@@exception_detail@boost@@@exception_detail@boost@@ 1003ec90     nav.obj
 0002:0000fca0       __CT??_R0?AVclone_base@exception_detail@boost@@@8??0clone_base@exception_detail@boost@@QAE@ABV012@@Z40644 1003eca0     nav.obj
 0002:0000fcbc       __CTA9?AV?$clone_impl@U?$error_info_injector@Vthread_resource_error@boost@@@exception_detail@boost@@@exception_detail@boost@@ 1003ecbc     nav.obj
 0002:0000fce4       __CT??_R0?AV?$clone_impl@U?$error_info_injector@Vthread_resource_error@boost@@@exception_detail@boost@@@exception_detail@boost@@@8??0?$clone_impl@U?$error_info_injector@Vthread_resource_error@boost@@@exception_detail@boost@@@exception_detail@boost@@QAE@ABV012@@Z76 1003ece4     nav.obj
 0002:0000fd00       __CTA6?AV?$clone_impl@U?$error_info_injector@Vbad_alloc@std@@@exception_detail@boost@@@exception_detail@boost@@ 1003ed00     nav.obj
 0002:00010a68       __IMPORT_DESCRIPTOR_tier0  1003fa68     tier0:tier0.dll
 0002:00010a7c       __IMPORT_DESCRIPTOR_KERNEL32 1003fa7c     kernel32:KERNEL32.dll
 0002:00010a90       __NULL_IMPORT_DESCRIPTOR   1003fa90     tier0:tier0.dll
 0003:00000000       ?pfSqrt@@3P6AMM@ZA         10041000     mathlib:mathlib_base.obj
 0003:00000004       ?pfRSqrt@@3P6AMM@ZA        10041004     mathlib:mathlib_base.obj
 0003:00000008       ?pfRSqrtFast@@3P6AMM@ZA    10041008     mathlib:mathlib_base.obj
 0003:0000000c       ?pfVectorNormalize@@3P6IMAAVVector@@@ZA 1004100c     mathlib:mathlib_base.obj
 0003:00000010       ?pfVectorNormalizeFast@@3P6IXAAVVector@@@ZA 10041010     mathlib:mathlib_base.obj
 0003:00000014       ?pfInvRSquared@@3P6AMPBM@ZA 10041014     mathlib:mathlib_base.obj
 0003:00000018       ?pfFastSinCos@@3P6AXMPAM0@ZA 10041018     mathlib:mathlib_base.obj
 0003:0000001c       ?pfFastCos@@3P6AMM@ZA      1004101c     mathlib:mathlib_base.obj
 0003:00000028       ?vec3_invalid@@3VVector@@B 10041028     mathlib:mathlib_base.obj
 0003:00000080       ?power2_n@@3PAMA           10041080     mathlib:color_conversion.obj
 0003:00000500       ??_R0?AVCUtlCharConversion@@@8 10041500     tier1:utlbuffer.obj
 0003:00000524       ??_R0?AVCUtlNoEscConversion@@@8 10041524     tier1:utlbuffer.obj
 0003:00000548       ??_R0?AVCUtlCStringConversion@@@8 10041548     tier1:utlbuffer.obj
 0003:00000580       ??_R0?AVtype_info@@@8      10041580     LIBCMT:typinfo.obj
 0003:00000598       __fltused                  10041598     LIBCMT:fpinit.obj
 0003:0000059c       __ldused                   1004159c     LIBCMT:fpinit.obj
 0003:000005c0       __half                     100415c0     LIBCMT:pow.obj
 0003:000005d0       ___security_cookie         100415d0     LIBCMT:gs_cookie.obj
 0003:000005d4       ___security_cookie_complement 100415d4     LIBCMT:gs_cookie.obj
 0003:000005d8       ___isa_enabled             100415d8     LIBCMT:cpu_disp.obj
 0003:000005dc       ___nullstring              100415dc     LIBCMT:output.obj
 0003:000005e0       ___wnullstring             100415e0     LIBCMT:output.obj
 0003:00000760       ___abort_behavior          10041760     LIBCMT:abort.obj
 0003:00000770       __days                     10041770     LIBCMT:days.obj
 0003:000007a4       __lpdays                   100417a4     LIBCMT:days.obj
 0003:000007e0       __iob                      100417e0     LIBCMT:_file.obj
 0003:00000a60       __lookuptrailbytes         10041a60     LIBCMT:read.obj
 0003:00000b60       ___badioinfo               10041b60     LIBCMT:ioinit.obj
 0003:00000ba0       ___flsindex                10041ba0     LIBCMT:tidtable.obj
 0003:00000ba8       __cfltcvt_tab              10041ba8     LIBCMT:cmiscdat.obj
 0003:00000bd8       ___ptmbcinfo               10041bd8     LIBCMT:mbctype.obj
 0003:00000cd0       __mbctype                  10041cd0     LIBCMT:mbctype.obj
 0003:00000dd8       __mbcasemap                10041dd8     LIBCMT:mbctype.obj
 0003:00000ed8       ___initialmbcinfo          10041ed8     LIBCMT:mbctype.obj
 0003:000010f8       ___wclocalestr             100420f8     LIBCMT:nlsdata.obj
 0003:00001100       ___lc_time_c               10042100     LIBCMT:nlsdata.obj
 0003:00001264       ___ptlocinfo               10042264     LIBCMT:nlsdata.obj
 0003:00001268       ___initiallocinfo          10042268     LIBCMT:nlsdata.obj
 0003:00001320       ___initiallocalestructinfo 10042320     LIBCMT:nlsdata.obj
 0003:00001328       ___mb_cur_max              10042328     LIBCMT:nlsdata.obj
 0003:0000132c       ___globallocalestatus      1004232c     LIBCMT:glstatus.obj
 0003:00001340       __HUGE                     10042340     LIBCMT:huge.obj
 0003:00001470       __NLG_Destination          10042470     LIBCMT:exsup.obj
 0003:00001480       __d_inf                    10042480     LIBCMT:util.obj
 0003:00001488       __d_ind                    10042488     LIBCMT:util.obj
 0003:00001490       __d_max                    10042490     LIBCMT:util.obj
 0003:00001498       __d_min                    10042498     LIBCMT:util.obj
 0003:000014a0       __d_mzero                  100424a0     LIBCMT:util.obj
 0003:000014a8       __matherr_flag             100424a8     LIBCMT:matherr.obj
 0003:000015b8       ___lconv                   100425b8     LIBCMT:lconv.obj
 0003:000015bc       ___lconv_static_decimal    100425bc     LIBCMT:lconv.obj
 0003:000015c0       ___lconv_c                 100425c0     LIBCMT:lconv.obj
 0003:00001610       ___lconv_static_W_decimal  10042610     LIBCMT:lconv.obj
 0003:00001614       __pctype                   10042614     LIBCMT:ctype.obj
 0003:00001618       __pwctype                  10042618     LIBCMT:ctype.obj
 0003:00001650       __pow10pos                 10042650     LIBCMT:constpow.obj
 0003:000017b0       __pow10neg                 100427b0     LIBCMT:constpow.obj
 0003:0000190c       __confh                    1004290c     LIBCMT:initcon.obj
 0003:00001910       ??_R0?AVlength_error@std@@@8 10042910     libcpmt:xthrow.obj
 0003:00001930       ?current_thread_tls_key@?A0xad6650d6@boost@@3KA 10042930     libboost_thread-vc110-mt-s-1_52:thread.obj
 0003:00001934       ??_R0?AVthread_interrupted@boost@@@8 10042934     libboost_thread-vc110-mt-s-1_52:thread.obj
 0003:0000195c       ??_R0?AVerror_category@system@boost@@@8 1004295c     libboost_system-vc110-mt-s-1_52:error_code.obj
 0003:00001988       ??_R0?AVnoncopyable@noncopyable_@boost@@@8 10042988     libboost_system-vc110-mt-s-1_52:error_code.obj
 0003:000019b8       ??_R0?AVgeneric_error_category@?A0xe218785f@@@8 100429b8     libboost_system-vc110-mt-s-1_52:error_code.obj
 0003:000019ec       ??_R0?AVsystem_error_category@?A0xe218785f@@@8 100429ec     libboost_system-vc110-mt-s-1_52:error_code.obj
 0003:00001a20       ??_R0?AVbad_exception@std@@@8 10042a20     LIBCMT:frame.obj
 0003:00001a40       __sys_nerr                 10042a40     LIBCMT:syserr.obj
 0003:00001da8       ??_R0?AV_Iostream_error_category@std@@@8 10042da8     ILuaObject.obj
 0003:00001dd4       ??_R0?AV_System_error_category@std@@@8 10042dd4     ILuaObject.obj
 0003:00001e00       ??_R0?AVerror_category@std@@@8 10042e00     ILuaObject.obj
 0003:00001e24       ??_R0?AV_Generic_error_category@std@@@8 10042e24     ILuaObject.obj
 0003:00001e50       ??_R0?AVout_of_range@std@@@8 10042e50     main.obj
 0003:00001e70       ??_R0?AU?$error_info_injector@Ubad_day_of_month@gregorian@boost@@@exception_detail@boost@@@8 10042e70     main.obj
 0003:00001ed0       ??_R0?AU?$error_info_injector@Vruntime_error@std@@@exception_detail@boost@@@8 10042ed0     main.obj
 0003:00001f20       ??_R0?AVexception@std@@@8  10042f20     main.obj
 0003:00001f3c       ??_R0?AUbad_month@gregorian@boost@@@8 10042f3c     main.obj
 0003:00001f64       ??_R0?AUbad_year@gregorian@boost@@@8 10042f64     main.obj
 0003:00001f90       ??_R0?AV?$clone_impl@U?$error_info_injector@Ubad_day_of_month@gregorian@boost@@@exception_detail@boost@@@exception_detail@boost@@@8 10042f90     main.obj
 0003:00002018       ??_R0?AVruntime_error@std@@@8 10043018     main.obj
 0003:00002038       ??_R0?AUbad_day_of_month@gregorian@boost@@@8 10043038     main.obj
 0003:00002068       ??_R0?AVexception@boost@@@8 10043068     main.obj
 0003:00002088       ??_R0?AVclone_base@exception_detail@boost@@@8 10043088     main.obj
 0003:000020b8       ??_R0?AV?$clone_impl@U?$error_info_injector@Vruntime_error@std@@@exception_detail@boost@@@exception_detail@boost@@@8 100430b8     main.obj
 0003:00002130       ??_R0?AU?$error_info_injector@Ubad_month@gregorian@boost@@@exception_detail@boost@@@8 10043130     main.obj
 0003:00002188       ??_R0?AVlogic_error@std@@@8 10043188     main.obj
 0003:000021a8       ??_R0?AV?$clone_impl@U?$error_info_injector@Ubad_month@gregorian@boost@@@exception_detail@boost@@@exception_detail@boost@@@8 100431a8     main.obj
 0003:00002228       ??_R0?AV?$clone_impl@U?$error_info_injector@Ubad_year@gregorian@boost@@@exception_detail@boost@@@exception_detail@boost@@@8 10043228     main.obj
 0003:000022a8       ??_R0?AU?$error_info_injector@Ubad_year@gregorian@boost@@@exception_detail@boost@@@8 100432a8     main.obj
 0003:00002300       ??_R0?AV?$clone_impl@U?$error_info_injector@Vbad_alloc@std@@@exception_detail@boost@@@exception_detail@boost@@@8 10043300     nav.obj
 0003:00002378       ??_R0?AU?$error_info_injector@Vthread_resource_error@boost@@@exception_detail@boost@@@8 10043378     nav.obj
 0003:000023d4       ??_R0?AVsystem_error@system@boost@@@8 100433d4     nav.obj
 0003:000023fc       ??_R0?AVbad_alloc@std@@@8  100433fc     nav.obj
 0003:00002418       ??_R0?AV?$clone_impl@U?$error_info_injector@Vthread_resource_error@boost@@@exception_detail@boost@@@exception_detail@boost@@@8 10043418     nav.obj
 0003:0000249c       ??_R0?AVGMOD_TraceFilter@@@8 1004349c     nav.obj
 0003:000024c0       ??_R0?AU?$error_info_injector@Vbad_alloc@std@@@exception_detail@boost@@@8 100434c0     nav.obj
 0003:0000250c       ??_R0?AVITraceFilter@@@8   1004350c     nav.obj
 0003:00002528       ??_R0?AVCTraceFilter@@@8   10043528     nav.obj
 0003:00002544       ??_R0?AVthread_resource_error@boost@@@8 10043544     nav.obj
 0003:00002570       ??_R0?AV?$thread_data@V?$bind_t@XV?$mf3@XVNav@@PAUJobInfo_t@@PAVNode@@PAV3@@_mfi@boost@@V?$list4@V?$value@PAVNav@@@_bi@boost@@V?$value@PAUJobInfo_t@@@23@V?$value@PAVNode@@@23@V523@@_bi@3@@_bi@boost@@@detail@boost@@@8 10043570     nav.obj
 0003:0000264c       ??_R0?AUthread_data_base@detail@boost@@@8 1004364c     nav.obj
 0003:00002678       ??_R0?AVthread_exception@boost@@@8 10043678     nav.obj
 0003:000026a0       ??_R0?AV?$thread_data@V?$bind_t@XV?$mf1@XVNav@@PA_N@_mfi@boost@@V?$list2@V?$value@PAVNav@@@_bi@boost@@V?$value@PA_N@23@@_bi@3@@_bi@boost@@@detail@boost@@@8 100436a0     nav.obj
 0003:00002760       ?SinCosTable@@3PAMA        10043760     mathlib:mathlib_base.obj
 0003:00002b60       ?s_bMathlibInitialized@@3_NA 10043b60     mathlib:mathlib_base.obj
 0003:00002b70       ?vec3_origin@@3VVector@@B  10043b70     mathlib:mathlib_base.obj
 0003:00002b7c       ?vec3_angle@@3VQAngle@@B   10043b7c     mathlib:mathlib_base.obj
 0003:00002f88       ?lineartolightmap@@3PAEA   10043f88     mathlib:color_conversion.obj
 0003:00006788       ?lineartovertex@@3PAMA     10047788     mathlib:color_conversion.obj
 0003:0000a8a0       ?s_pInterfaceRegs@InterfaceReg@@2PAV1@A 1004b8a0     tier1:interface.obj
 0003:0000a8b0       ?s_StringCharConversion@@3VCUtlCStringConversion@@A 1004b8b0     tier1:utlbuffer.obj
 0003:0000b2c0       ?s_NoEscConversion@@3VCUtlNoEscConversion@@A 1004c2c0     tier1:utlbuffer.obj
 0003:0000bbdc       __aenvptr                  1004cbdc     LIBCMT:dllcrt0.obj
 0003:0000bbe0       __wenvptr                  1004cbe0     LIBCMT:dllcrt0.obj
 0003:0000bbe4       ___fastflag                1004cbe4     LIBCMT:fpinit.obj
 0003:0000bf08       ___isa_available           1004cf08     LIBCMT:cpu_disp.obj
 0003:0000bf0c       ___favor                   1004cf0c     LIBCMT:cpu_disp.obj
 0003:0000bf10       ___pInvalidArgHandler      1004cf10     LIBCMT:invarg.obj
 0003:0000bf14       ?_pnhHeap@@3P6AHI@ZA       1004cf14     LIBCMT:handler.obj
 0003:0000bf18       __umaskval                 1004cf18     LIBCMT:crt0dat.obj
 0003:0000bf1c       __exitflag                 1004cf1c     LIBCMT:crt0dat.obj
 0003:0000bf20       __C_Termination_Done       1004cf20     LIBCMT:crt0dat.obj
 0003:0000bf24       ___winitenv                1004cf24     LIBCMT:crt0dat.obj
 0003:0000bf28       ___initenv                 1004cf28     LIBCMT:crt0dat.obj
 0003:0000bf2c       __C_Exit_Done              1004cf2c     LIBCMT:crt0dat.obj
 0003:0000bf30       ___argc                    1004cf30     LIBCMT:crt0dat.obj
 0003:0000bf34       ___argv                    1004cf34     LIBCMT:crt0dat.obj
 0003:0000bf38       ___wargv                   1004cf38     LIBCMT:crt0dat.obj
 0003:0000bf3c       __environ                  1004cf3c     LIBCMT:crt0dat.obj
 0003:0000bf40       __wenviron                 1004cf40     LIBCMT:crt0dat.obj
 0003:0000bf44       __pgmptr                   1004cf44     LIBCMT:crt0dat.obj
 0003:0000bf48       __wpgmptr                  1004cf48     LIBCMT:crt0dat.obj
 0003:0000bf4c       __maxwait                  1004cf4c     LIBCMT:crtheap.obj
 0003:0000bf50       ___app_type                1004cf50     LIBCMT:crt0msg.obj
 0003:0000c580       ___pPurecall               1004d580     LIBCMT:inithelp.obj
 0003:0000c58c       __cflush                   1004d58c     LIBCMT:_file.obj
 0003:0000c590       ___pioinfo                 1004d590     LIBCMT:ioinit.obj
 0003:0000c690       __crtheap                  1004d690     LIBCMT:heapinit.obj
 0003:0000c7a4       ___mblocalename            1004d7a4     LIBCMT:mbctype.obj
 0003:0000c7a8       ___mbcodepage              1004d7a8     LIBCMT:mbctype.obj
 0003:0000c7ac       ___ismbcodepage            1004d7ac     LIBCMT:mbctype.obj
 0003:0000c7b0       ___mbulinfo                1004d7b0     LIBCMT:mbctype.obj
 0003:0000c7c0       ___locale_changed          1004d7c0     LIBCMT:wsetloca.obj
 0003:0000c7c8       __newmode                  1004d7c8     LIBCMT:_newmode.obj
 0003:0000c920       ?__pInconsistency@@3P6AXXZA 1004d920     LIBCMT:hooks.obj
 0003:0000c93c       __stdbuf                   1004d93c     LIBCMT:_sftbuf.obj
 0003:0000c944       ___error_mode              1004d944     LIBCMT:errmode.obj
 0003:0000c960       ?pArgList@UnDecorator@@0PAVReplicator@@A 1004d960     LIBCMT:undname.obj
 0003:0000c964       ?pZNameList@UnDecorator@@0PAVReplicator@@A 1004d964     LIBCMT:undname.obj
 0003:0000c968       ?pTemplateArgList@UnDecorator@@0PAVReplicator@@A 1004d968     LIBCMT:undname.obj
 0003:0000c96c       ?gName@UnDecorator@@0PBDB  1004d96c     LIBCMT:undname.obj
 0003:0000c970       ?name@UnDecorator@@0PBDB   1004d970     LIBCMT:undname.obj
 0003:0000c974       ?outputString@UnDecorator@@0PADA 1004d974     LIBCMT:undname.obj
 0003:0000c978       ?maxStringLength@UnDecorator@@0HA 1004d978     LIBCMT:undname.obj
 0003:0000c97c       ?disableFlags@UnDecorator@@0KA 1004d97c     LIBCMT:undname.obj
 0003:0000c980       ?fExplicitTemplateParams@UnDecorator@@0_NA 1004d980     LIBCMT:undname.obj
 0003:0000c981       ?fGetTemplateArgumentList@UnDecorator@@0_NA 1004d981     LIBCMT:undname.obj
 0003:0000c984       ?m_pGetParameter@UnDecorator@@0P6APADJ@ZA 1004d984     LIBCMT:undname.obj
 0003:0000c99c       __commode                  1004d99c     LIBCMT:ncommode.obj
 0003:0000c9a0       __outputformat             1004d9a0     LIBCMT:outputformat.obj
 0003:0000c9a4       ___lconv_static_null       1004d9a4     LIBCMT:lconv.obj
 0003:0000c9a8       ___lconv_static_W_null     1004d9a8     LIBCMT:lconv.obj
 0003:0000c9ac       __fmode                    1004d9ac     LIBCMT:txtmode.obj
 0003:0000c9b8       ?current_thread_tls_init_flag@?A0xad6650d6@boost@@3Uonce_flag@2@A 1004d9b8     libboost_thread-vc110-mt-s-1_52:thread.obj
 0003:0000c9d8       ?throws@system@boost@@3Verror_code@12@A 1004d9d8     libboost_system-vc110-mt-s-1_52:error_code.obj
 0003:0000ca24       __tls_index                1004da24     LIBCMT:tlssup.obj
 0003:0000ca28       ?enginetrace@@3PAVIEngineTrace@@A 1004da28     main.obj
 0003:0000ca2c       ?engine@@3PAVIVEngineServer@@A 1004da2c     main.obj
 0003:0000ca30       ?filesystem@@3PAVIFileSystem@@A 1004da30     main.obj
 0003:0000ca34       ?VectorMetaRef@@3HA        1004da34     main.obj
 0003:0000ca5c       ?modulemanager@@3PAVILuaModuleManager@@A 1004da5c     ILuaModuleManager.obj
 0003:0000ca88       ?timeout@@3Vtime_duration@posix_time@boost@@A 1004da88     main.obj
 0003:0000cacc       ?JobQueue@@3V?$CUtlVector@PAUJobInfo_t@@V?$CUtlMemory@PAUJobInfo_t@@H@@@@A 1004dacc     main.obj
 0003:0000cae0       ?sleep_time@@3Vtime_duration@posix_time@boost@@A 1004dae0     main.obj
 0003:0000cb68       ?id@?$num_put@_WV?$back_insert_iterator@V?$basic_string@_WU?$char_traits@_W@std@@V?$allocator@_W@2@@std@@@std@@@std@@2V0locale@2@A 1004db68     ILuaObject.obj
 0003:0000cb6c       ?_System_object@?$_Error_objects@H@std@@2V_System_error_category@2@A 1004db6c     ILuaObject.obj
 0003:0000cb70       ?id@?$numpunct@_W@std@@2V0locale@2@A 1004db70     ILuaObject.obj
 0003:0000cb74       ?id@?$num_put@DV?$back_insert_iterator@V?$basic_string@DU?$char_traits@D@std@@V?$allocator@D@2@@std@@@std@@@std@@2V0locale@2@A 1004db74     ILuaObject.obj
 0003:0000cb78       ?_Generic_object@?$_Error_objects@H@std@@2V_Generic_error_category@2@A 1004db78     ILuaObject.obj
 0003:0000cb7c       ?id@?$numpunct@D@std@@2V0locale@2@A 1004db7c     ILuaObject.obj
 0003:0000cb80       ?_Iostream_object@?$_Error_objects@H@std@@2V_Iostream_error_category@2@A 1004db80     ILuaObject.obj
 0003:0000cb84       __debugger_hook_dummy      1004db84     <common>
 0003:0000cb88       __pmatherr                 1004db88     <common>
 0003:0000cb8c       ___use_sse2_mathfcns       1004db8c     <common>
 0003:0000cba0       _encodedKERNEL32Functions  1004dba0     <common>
 0003:0000cc14       __nhandle                  1004dc14     <common>
 0003:0000cc18       ___piob                    1004dc18     <common>
 0003:0000cc1c       __nstream                  1004dc1c     <common>
 0003:0000cc20       __bufin                    1004dc20     <common>
 0003:0000dc20       ___dyn_tls_init_callback   1004ec20     <common>
 0003:0000dc24       ___onexitend               1004ec24     <common>
 0003:0000dc28       ___onexitbegin             1004ec28     <common>
 0003:0000dc2c       ___mbctype_initialized     1004ec2c     <common>
 0003:0000dc30       ___env_initialized         1004ec30     <common>
 0003:0000dc34       __acmdln                   1004ec34     <common>
 0004:00000000       __tls_start                1004f000     LIBCMT:tlssup.obj
 0004:00000001       __tls_end                  1004f001     LIBCMT:tlssup.obj

 entry point at        0001:0001664c

 Static symbols

 0000:fffa6000       .debug$S                   10000000     kernel32:KERNEL32.dll
 0000:fffa6000       .debug$S                   10000000     tier0:tier0.dll
 0000:fffa6000       .debug$S                   10000000     tier0:tier0.dll
 0000:fffa6000       .debug$S                   10000000     tier0:tier0.dll
 0000:fffa6000       .debug$S                   10000000     kernel32:KERNEL32.dll
 0000:fffa6000       .debug$S                   10000000     kernel32:KERNEL32.dll
 0000:fffa6000       .debug$S                   10000000     kernel32:KERNEL32.dll
 0000:fffa6000       .debug$S                   10000000     kernel32:KERNEL32.dll
 0000:fffa6000       .debug$S                   10000000     kernel32:KERNEL32.dll
 0000:fffa6000       .debug$S                   10000000     kernel32:KERNEL32.dll
 0000:fffa6000       .debug$S                   10000000     kernel32:KERNEL32.dll
 0000:fffa6000       .debug$S                   10000000     kernel32:KERNEL32.dll
 0000:fffa6000       .debug$S                   10000000     kernel32:KERNEL32.dll
 0000:fffa6000       .debug$S                   10000000     kernel32:KERNEL32.dll
 0000:fffa6000       .debug$S                   10000000     kernel32:KERNEL32.dll
 0000:fffa6000       .debug$S                   10000000     kernel32:KERNEL32.dll
 0000:fffa6000       .debug$S                   10000000     kernel32:KERNEL32.dll
 0000:fffa6000       .debug$S                   10000000     kernel32:KERNEL32.dll
 0000:fffa6000       .debug$S                   10000000     kernel32:KERNEL32.dll
 0000:fffa6000       .debug$S                   10000000     kernel32:KERNEL32.dll
 0000:fffa6000       .debug$S                   10000000     kernel32:KERNEL32.dll
 0000:fffa6000       .debug$S                   10000000     kernel32:KERNEL32.dll
 0000:fffa6000       .debug$S                   10000000     kernel32:KERNEL32.dll
 0000:fffa6000       .debug$S                   10000000     kernel32:KERNEL32.dll
 0000:fffa6000       .debug$S                   10000000     kernel32:KERNEL32.dll
 0000:fffa6000       .debug$S                   10000000     kernel32:KERNEL32.dll
 0000:fffa6000       .debug$S                   10000000     kernel32:KERNEL32.dll
 0000:fffa6000       .debug$S                   10000000     kernel32:KERNEL32.dll
 0000:fffa6000       .debug$S                   10000000     kernel32:KERNEL32.dll
 0000:fffa6000       .debug$S                   10000000     kernel32:KERNEL32.dll
 0000:fffa6000       .debug$S                   10000000     kernel32:KERNEL32.dll
 0000:fffa6000       .debug$S                   10000000     kernel32:KERNEL32.dll
 0000:fffa6000       .debug$S                   10000000     kernel32:KERNEL32.dll
 0000:fffa6000       .debug$S                   10000000     kernel32:KERNEL32.dll
 0000:fffa6000       .debug$S                   10000000     tier0:tier0.dll
 0000:fffa6000       .debug$S                   10000000     tier0:tier0.dll
 0000:fffa6000       .debug$S                   10000000     tier0:tier0.dll
 0000:fffa6000       .debug$S                   10000000     tier0:tier0.dll
 0000:fffa6000       .debug$S                   10000000     tier0:tier0.dll
 0000:fffa6000       .debug$S                   10000000     tier0:tier0.dll
 0000:fffa6000       .debug$S                   10000000     tier0:tier0.dll
 0000:fffa6000       .debug$S                   10000000     tier0:tier0.dll
 0000:fffa6000       .debug$S                   10000000     kernel32:KERNEL32.dll
 0000:fffa6000       .debug$S                   10000000     kernel32:KERNEL32.dll
 0000:fffa6000       .debug$S                   10000000     kernel32:KERNEL32.dll
 0000:fffa6000       .debug$S                   10000000     kernel32:KERNEL32.dll
 0000:fffa6000       .debug$S                   10000000     tier0:tier0.dll
 0000:fffa6000       .debug$S                   10000000     kernel32:KERNEL32.dll
 0000:fffa6000       .debug$S                   10000000     kernel32:KERNEL32.dll
 0000:fffa6000       .debug$S                   10000000     kernel32:KERNEL32.dll
 0000:fffa6000       .debug$S                   10000000     kernel32:KERNEL32.dll
 0000:fffa6000       .debug$S                   10000000     kernel32:KERNEL32.dll
 0000:fffa6000       .debug$S                   10000000     kernel32:KERNEL32.dll
 0000:fffa6000       .debug$S                   10000000     kernel32:KERNEL32.dll
 0000:fffa6000       .debug$S                   10000000     kernel32:KERNEL32.dll
 0000:fffa6000       .debug$S                   10000000     kernel32:KERNEL32.dll
 0000:fffa6000       .debug$S                   10000000     kernel32:KERNEL32.dll
 0000:fffa6000       .debug$S                   10000000     kernel32:KERNEL32.dll
 0000:fffa6000       .debug$S                   10000000     kernel32:KERNEL32.dll
 0000:fffa6000       .debug$S                   10000000     kernel32:KERNEL32.dll
 0000:fffa6000       .debug$S                   10000000     kernel32:KERNEL32.dll
 0000:fffa6000       .debug$S                   10000000     kernel32:KERNEL32.dll
 0000:fffa6000       .debug$S                   10000000     kernel32:KERNEL32.dll
 0000:fffa6000       .debug$S                   10000000     kernel32:KERNEL32.dll
 0000:fffa6000       .debug$S                   10000000     kernel32:KERNEL32.dll
 0000:fffa6000       .debug$S                   10000000     kernel32:KERNEL32.dll
 0000:fffa6000       .debug$S                   10000000     kernel32:KERNEL32.dll
 0000:fffa6000       .debug$S                   10000000     kernel32:KERNEL32.dll
 0000:fffa6000       .debug$S                   10000000     kernel32:KERNEL32.dll
 0000:fffa6000       .debug$S                   10000000     kernel32:KERNEL32.dll
 0000:fffa6000       .debug$S                   10000000     kernel32:KERNEL32.dll
 0000:fffa6000       .debug$S                   10000000     kernel32:KERNEL32.dll
 0000:fffa6000       .debug$S                   10000000     kernel32:KERNEL32.dll
 0000:fffa6000       .debug$S                   10000000     kernel32:KERNEL32.dll
 0000:fffa6000       .debug$S                   10000000     kernel32:KERNEL32.dll
 0000:fffa6000       .debug$S                   10000000     kernel32:KERNEL32.dll
 0000:fffa6000       .debug$S                   10000000     tier0:tier0.dll
 0000:fffa6000       .debug$S                   10000000     kernel32:KERNEL32.dll
 0000:fffa6000       .debug$S                   10000000     kernel32:KERNEL32.dll
 0000:fffa6000       .debug$S                   10000000     kernel32:KERNEL32.dll
 0000:fffa6000       .debug$S                   10000000     kernel32:KERNEL32.dll
 0000:fffa6000       .debug$S                   10000000     kernel32:KERNEL32.dll
 0000:fffa6000       .debug$S                   10000000     kernel32:KERNEL32.dll
 0000:fffa6000       .debug$S                   10000000     kernel32:KERNEL32.dll
 0000:fffa6000       .debug$S                   10000000     kernel32:KERNEL32.dll
 0000:fffa6000       .debug$S                   10000000     kernel32:KERNEL32.dll
 0000:fffa6000       .debug$S                   10000000     kernel32:KERNEL32.dll
 0000:fffa6000       .debug$S                   10000000     kernel32:KERNEL32.dll
 0000:fffa6000       .debug$S                   10000000     kernel32:KERNEL32.dll
 0000:fffa6000       .debug$S                   10000000     kernel32:KERNEL32.dll
 0000:fffa6000       .debug$S                   10000000     kernel32:KERNEL32.dll
 0000:fffa6000       .debug$S                   10000000     kernel32:KERNEL32.dll
 0000:fffa6000       .debug$S                   10000000     kernel32:KERNEL32.dll
 0000:fffa6000       .debug$S                   10000000     kernel32:KERNEL32.dll
 0000:fffa6000       .debug$S                   10000000     kernel32:KERNEL32.dll
 0000:fffa6000       .debug$S                   10000000     kernel32:KERNEL32.dll
 0000:fffa6000       .debug$S                   10000000     kernel32:KERNEL32.dll
 0000:fffa6000       .debug$S                   10000000     kernel32:KERNEL32.dll
 0000:fffa6000       .debug$S                   10000000     kernel32:KERNEL32.dll
 0000:fffa6000       .debug$S                   10000000     kernel32:KERNEL32.dll
 0000:fffa6000       .debug$S                   10000000     kernel32:KERNEL32.dll
 0000:fffa6000       .debug$S                   10000000     kernel32:KERNEL32.dll
 0000:fffa6000       .debug$S                   10000000     kernel32:KERNEL32.dll
 0000:fffa6000       .debug$S                   10000000     kernel32:KERNEL32.dll
 0000:fffa6000       .debug$S                   10000000     kernel32:KERNEL32.dll
 0000:fffa6000       .debug$S                   10000000     kernel32:KERNEL32.dll
 0000:fffa6000       .debug$S                   10000000     kernel32:KERNEL32.dll
 0000:fffa6000       .debug$S                   10000000     kernel32:KERNEL32.dll
 0000:fffa6000       .debug$S                   10000000     kernel32:KERNEL32.dll
 0000:fffa6000       .debug$S                   10000000     kernel32:KERNEL32.dll
 0000:fffa6000       .debug$S                   10000000     kernel32:KERNEL32.dll
 0000:fffa6000       .debug$S                   10000000     kernel32:KERNEL32.dll
 0000:fffa6000       .debug$S                   10000000     kernel32:KERNEL32.dll
 0000:fffa6000       .debug$S                   10000000     kernel32:KERNEL32.dll
 0000:fffa6000       .debug$S                   10000000     kernel32:KERNEL32.dll
 0000:fffa6000       .debug$S                   10000000     kernel32:KERNEL32.dll
 0000:fffa6000       .debug$S                   10000000     kernel32:KERNEL32.dll
 0000:fffa6000       .debug$S                   10000000     kernel32:KERNEL32.dll
 0000:fffa6000       .debug$S                   10000000     kernel32:KERNEL32.dll
 0000:fffa6000       .debug$S                   10000000     kernel32:KERNEL32.dll
 0000:fffa6000       .debug$S                   10000000     kernel32:KERNEL32.dll
 0000:fffa6000       .debug$S                   10000000     tier0:tier0.dll
 0000:fffa6000       .debug$S                   10000000     tier0:tier0.dll
 0000:fffa6000       .debug$S                   10000000     tier0:tier0.dll
 0000:fffa6000       .debug$S                   10000000     tier0:tier0.dll
 0001:000023a8       __catch$?_Buyheadnode@?$_Tree_alloc@$0A@U?$_Tree_base_types@U?$pair@QAUlua_State@@PAVILuaInterface@@@std@@V?$allocator@U?$pair@QAUlua_State@@PAVILuaInterface@@@std@@@2@@std@@@std@@QAEPAU?$_Tree_node@U?$pair@QAUlua_State@@PAVILuaInterface@@@std@@PAX@2@XZ$0 100033a8 f i * CIL library *:* CIL module *
 0001:00002683       __catch$??$_Buynode@U?$pair@PAUlua_State@@PAVILuaInterface@@@std@@@?$_Tree_buy@U?$pair@QAUlua_State@@PAVILuaInterface@@@std@@V?$allocator@U?$pair@QAUlua_State@@PAVILuaInterface@@@std@@@2@@std@@QAEPAU?$_Tree_node@U?$pair@QAUlua_State@@PAVILuaInterface@@@std@@PAX@1@$$QAU?$pair@PAUlua_State@@PAVILuaInterface@@@1@@Z$0 10003683 f i * CIL library *:* CIL module *
 0001:00003161       __catch$??$_Insert_hint@AAU?$pair@QAUlua_State@@PAVILuaInterface@@@std@@PAU?$_Tree_node@U?$pair@QAUlua_State@@PAVILuaInterface@@@std@@PAX@2@@?$_Tree@V?$_Tmap_traits@PAUlua_State@@PAVILuaInterface@@U?$less@PAUlua_State@@@std@@V?$allocator@U?$pair@QAUlua_State@@PAVILuaInterface@@@std@@@4@$0A@@std@@@std@@IAE?AV?$_Tree_iterator@V?$_Tree_val@U?$_Tree_simple_types@U?$pair@QAUlua_State@@PAVILuaInterface@@@std@@@std@@@std@@@1@V?$_Tree_const_iterator@V?$_Tree_val@U?$_Tree_simple_types@U?$pair@QAUlua_State@@PAVILuaInterface@@@std@@@std@@@std@@@1@AAU?$pair@QAUlua_State@@PAVILuaInterface@@@1@PAU?$_Tree_node@U?$pair@QAUlua_State@@PAVILuaInterface@@@std@@PAX@1@@Z$0 10004161 f i * CIL library *:* CIL module *
 0001:0000334f       __catch$?_Buynode0@?$_Tree_buy@U?$pair@QAUlua_State@@PAVILuaInterface@@@std@@V?$allocator@U?$pair@QAUlua_State@@PAVILuaInterface@@@std@@@2@@std@@QAEPAU?$_Tree_node@U?$pair@QAUlua_State@@PAVILuaInterface@@@std@@PAX@2@XZ$0 1000434f f i * CIL library *:* CIL module *
 0001:00003c24       __catch$??$_Insert_nohint@AAU?$pair@QAUlua_State@@PAVILuaInterface@@@std@@PAU?$_Tree_node@U?$pair@QAUlua_State@@PAVILuaInterface@@@std@@PAX@2@@?$_Tree@V?$_Tmap_traits@PAUlua_State@@PAVILuaInterface@@U?$less@PAUlua_State@@@std@@V?$allocator@U?$pair@QAUlua_State@@PAVILuaInterface@@@std@@@4@$0A@@std@@@std@@IAE?AU?$pair@V?$_Tree_iterator@V?$_Tree_val@U?$_Tree_simple_types@U?$pair@QAUlua_State@@PAVILuaInterface@@@std@@@std@@@std@@@std@@_N@1@_NAAU?$pair@QAUlua_State@@PAVILuaInterface@@@1@PAU?$_Tree_node@U?$pair@QAUlua_State@@PAVILuaInterface@@@std@@PAX@1@@Z$0 10004c24 f i * CIL library *:* CIL module *
 0001:00004ca7       __catch$?_Copy@?$basic_string@DU?$char_traits@D@std@@V?$allocator@D@2@@std@@QAEXII@Z$0 10005ca7 f i * CIL library *:* CIL module *
 0001:00004cdb       __catch$?_Copy@?$basic_string@DU?$char_traits@D@std@@V?$allocator@D@2@@std@@QAEXII@Z$1 10005cdb f i * CIL library *:* CIL module *
 0001:00004f81       _difftime                  10005f81 f   * CIL library *:* CIL module *
 0001:00004f9a       _gmtime                    10005f9a f   * CIL library *:* CIL module *
 0001:00004fa8       _time                      10005fa8 f   * CIL library *:* CIL module *
 0001:0000bd57       __catch$?what@system_error@system@boost@@UBEPBDXZ$0 1000cd57 f i * CIL library *:* CIL module *
 0001:0000c621       $LN19                      1000d621     * CIL library *:* CIL module *
 0001:0000db03       $LN53                      1000eb03     * CIL library *:* CIL module *
 0001:0001102e       __catch$?_Buyheadnode@?$_Tree_alloc@$0A@U?$_Tree_base_types@U?$pair@QBXUtss_data_node@detail@boost@@@std@@V?$allocator@U?$pair@QBXUtss_data_node@detail@boost@@@std@@@2@@std@@@std@@QAEPAU?$_Tree_node@U?$pair@QBXUtss_data_node@detail@boost@@@std@@PAX@2@XZ$0 1001202e f i * CIL library *:* CIL module *
 0001:0001341f       __catch$??$heap_new@V?$thread_data@V?$bind_t@XV?$mf1@XVNav@@PA_N@_mfi@boost@@V?$list2@V?$value@PAVNav@@@_bi@boost@@V?$value@PA_N@23@@_bi@3@@_bi@boost@@@detail@boost@@V?$bind_t@XV?$mf1@XVNav@@PA_N@_mfi@boost@@V?$list2@V?$value@PAVNav@@@_bi@boost@@V?$value@PA_N@23@@_bi@3@@_bi@3@@detail@boost@@YAPAV?$thread_data@V?$bind_t@XV?$mf1@XVNav@@PA_N@_mfi@boost@@V?$list2@V?$value@PAVNav@@@_bi@boost@@V?$value@PA_N@23@@_bi@3@@_bi@boost@@@01@$$QAV?$bind_t@XV?$mf1@XVNav@@PA_N@_mfi@boost@@V?$list2@V?$value@PAVNav@@@_bi@boost@@V?$value@PA_N@23@@_bi@3@@_bi@1@@Z$0 1001441f f i * CIL library *:* CIL module *
 0001:000134da       __catch$??$heap_new@V?$thread_data@V?$bind_t@XV?$mf3@XVNav@@PAUJobInfo_t@@PAVNode@@PAV3@@_mfi@boost@@V?$list4@V?$value@PAVNav@@@_bi@boost@@V?$value@PAUJobInfo_t@@@23@V?$value@PAVNode@@@23@V523@@_bi@3@@_bi@boost@@@detail@boost@@V?$bind_t@XV?$mf3@XVNav@@PAUJobInfo_t@@PAVNode@@PAV3@@_mfi@boost@@V?$list4@V?$value@PAVNav@@@_bi@boost@@V?$value@PAUJobInfo_t@@@23@V?$value@PAVNode@@@23@V523@@_bi@3@@_bi@3@@detail@boost@@YAPAV?$thread_data@V?$bind_t@XV?$mf3@XVNav@@PAUJobInfo_t@@PAVNode@@PAV3@@_mfi@boost@@V?$list4@V?$value@PAVNav@@@_bi@boost@@V?$value@PAUJobInfo_t@@@23@V?$value@PAVNode@@@23@V523@@_bi@3@@_bi@boost@@@01@$$QAV?$bind_t@XV?$mf3@XVNav@@PAUJobInfo_t@@PAVNode@@PAV3@@_mfi@boost@@V?$list4@V?$value@PAVNav@@@_bi@boost@@V?$value@PAUJobInfo_t@@@23@V?$value@PAVNode@@@23@V523@@_bi@3@@_bi@1@@Z$0 100144da f i * CIL library *:* CIL module *
 0001:00014d28       $LN111                     10015d28     tier1:utlbuffer.obj
 0001:00014d44       $LN102                     10015d44     tier1:utlbuffer.obj
 0001:00014e30       $$000000                   10015e30     LIBCMT:memmove.obj
 0001:00015080       LeadUpVec                  10016080     LIBCMT:memmove.obj
 0001:000150fc       UnwindUpVec                100160fc     LIBCMT:memmove.obj
 0001:00015168       TrailUpVec                 10016168     LIBCMT:memmove.obj
 0001:0001520c       LeadDownVec                1001620c     LIBCMT:memmove.obj
 0001:00015298       UnwindDownVec              10016298     LIBCMT:memmove.obj
 0001:00015304       TrailDownVec               10016304     LIBCMT:memmove.obj
 0001:0001568f       __onexit_nolock            1001668f f   LIBCMT:onexit.obj
 0001:0001666f       ___DllMainCRTStartup       1001766f f   LIBCMT:dllcrt0.obj
 0001:00016820       $$000000                   10017820     LIBCMT:acos.obj
 0001:00016970       $$000000                   10017970     LIBCMT:asin.obj
 0001:00016ac0       $$000000                   10017ac0     LIBCMT:87fmod.obj
 0001:00016af0       $$000000                   10017af0     LIBCMT:pow.obj
 0001:00016d80       $$000000                   10017d80     LIBCMT:ftol2.obj
 0001:00016e30       $$000000                   10017e30     LIBCMT:floor_pentium4.obj
 0001:00016f60       $$000000                   10017f60     LIBCMT:memset.obj
 0001:00016ff0       $$000000                   10017ff0     LIBCMT:alloca16.obj
 0001:00017020       $$000000                   10018020     LIBCMT:strstr.obj
 0001:00017290       $$000000                   10018290     LIBCMT:memcpy.obj
 0001:000174e0       LeadUpVec                  100184e0     LIBCMT:memcpy.obj
 0001:0001755c       UnwindUpVec                1001855c     LIBCMT:memcpy.obj
 0001:000175c8       TrailUpVec                 100185c8     LIBCMT:memcpy.obj
 0001:0001766c       LeadDownVec                1001866c     LIBCMT:memcpy.obj
 0001:000176f8       UnwindDownVec              100186f8     LIBCMT:memcpy.obj
 0001:00017764       TrailDownVec               10018764     LIBCMT:memcpy.obj
 0001:00017a60       $$000000                   10018a60     LIBCMT:strchr.obj
 0001:00017cb5       ?strtoxl@@YAKPAUlocaleinfo_struct@@PBDPAPBDHH@Z 10018cb5 f   LIBCMT:strtol.obj
 0001:000180a0       $$000000                   100190a0     LIBCMT:strncat.obj
 0001:000181e0       $$000000                   100191e0     LIBCMT:strncpy.obj
 0001:000183d0       $$000000                   100193d0     LIBCMT:llrem.obj
 0001:00018490       $$000000                   10019490     LIBCMT:lldiv.obj
 0001:000195f4       $LN272                     1001a5f4     LIBCMT:output.obj
 0001:00019614       _write_string              1001a614 f   LIBCMT:output.obj
 0001:00019614       _write_string              1001a614 f   LIBCMT:output.obj
 0001:0001a1d4       $LN277                     1001b1d4     LIBCMT:outputs.obj
 0001:0001a1f4       _write_char                1001b1f4 f   LIBCMT:outputs.obj
 0001:0001a1f4       _write_char                1001b1f4 f   LIBCMT:outputs.obj
 0001:0001a23a       _write_multi_char          1001b23a f   LIBCMT:outputs.obj
 0001:0001a23a       _write_multi_char          1001b23a f   LIBCMT:outputs.obj
 0001:0001a756       __initterm                 1001b756 f   LIBCMT:crt0dat.obj
 0001:0001a7a6       _doexit                    1001b7a6 f   LIBCMT:crt0dat.obj
 0001:0001a9f0       $$000000                   1001b9f0     LIBCMT:sehprolg4.obj
 0001:0001ae70       $$000000                   1001be70     LIBCMT:strcmp.obj
 0001:0001afd0       $$000000                   1001bfd0     LIBCMT:strlen.obj
 0001:0001b090       $$000000                   1001c090     LIBCMT:llmul.obj
 0001:0001b0d0       $$000000                   1001c0d0     LIBCMT:ulldiv.obj
 0001:0001b640       $$000000                   1001c640     LIBCMT:exsup4.obj
 0001:0001b6d0       __unwind_handler4          1001c6d0 f   LIBCMT:exsup4.obj
 0001:0001c4b0       $$000000                   1001d4b0     LIBCMT:chkstk.obj
 0001:0001c88e       _flsall                    1001d88e f   LIBCMT:fflush.obj
 0001:0001d08d       _parse_cmdline             1001e08d f   LIBCMT:stdargv.obj
 0001:0001db9a       __cftoe2_l                 1001eb9a f   LIBCMT:cvt.obj
 0001:0001ddb5       __cftof2_l                 1001edb5 f   LIBCMT:cvt.obj
 0001:0001e1df       __shift                    1001f1df f   LIBCMT:cvt.obj
 0001:0001e260       $$000000                   1001f260     LIBCMT:acos_pentium4.obj
 0001:0001e7c0       $$000000                   1001f7c0     LIBCMT:87disp.obj
 0001:0001e990       $$000000                   1001f990     LIBCMT:genexcep.obj
 0001:0001e9f0       $$000000                   1001f9f0     LIBCMT:common.obj
 0001:0001eb80       $$000000                   1001fb80     LIBCMT:asin_pentium4.obj
 0001:0001f100       $$000000                   10020100     LIBCMT:87cdisp.obj
 0001:0001f380       $$000000                   10020380     LIBCMT:pow_pentium4.obj
 0001:0001fee0       $$000000                   10020ee0     LIBCMT:87tran.obj
 0001:00020523       $LN79                      10021523     LIBCMT:libm_error.obj
 0001:00020a60       ?CPtoLocaleName@@YAPB_WH@Z 10021a60 f   LIBCMT:mbctype.obj
 0001:00020a9a       ?getSystemCP@@YAHH@Z       10021a9a f   LIBCMT:mbctype.obj
 0001:00020b06       ?setSBCS@@YAXPAUthreadmbcinfostruct@@@Z 10021b06 f   LIBCMT:mbctype.obj
 0001:00020b6f       ?setSBUpLow@@YAXPAUthreadmbcinfostruct@@@Z 10021b6f f   LIBCMT:mbctype.obj
 0001:00021337       ?__crtLCMapStringA_stat@@YAHPAUlocaleinfo_struct@@PB_WKPBDHPADHHH@Z 10022337 f   LIBCMT:a_map.obj
 0001:00022090       $$000000                   10023090     LIBCMT:ulldvrm.obj
 0001:0002265c       _siglookup                 1002365c f   LIBCMT:winsig.obj
 0001:00023180       $$000000                   10024180     LIBCMT:exsup.obj
 0001:000231a0       __unwind_handler           100241a0 f   LIBCMT:exsup.obj
 0001:00023763       ?x_ismbbtype_l@@YAHPAUlocaleinfo_struct@@IHH@Z 10024763 f   LIBCMT:ismbbyte.obj
 0001:000237d0       $$000000                   100247d0     LIBCMT:strrchr.obj
 0001:00023c30       $$000000                   10024c30     LIBCMT:lldvrm.obj
 0001:00023d10       $$000000                   10024d10     LIBCMT:ullshr.obj
 0001:00024d94       ?__crtGetStringTypeA_stat@@YAHPAUlocaleinfo_struct@@KPBDHPAGHH@Z 10025d94 f   LIBCMT:a_str.obj
 0001:000260ea       $LN304                     100270ea     LIBCMT:strgtold.obj
 0001:00026266       ___createFile              10027266 f   LIBCMT:wopen.obj
 0001:00026a50       $$000000                   10027a50     LIBCMT:strncmp.obj
 0001:000275a6       ___hw_cw_sse2              100285a6 f   LIBCMT:ieee87.obj
 0001:0002794f       __hw_cw                    1002894f f   LIBCMT:ieee87.obj
 0001:00027eb0       $$000000                   10028eb0     LIBCMT:_strnicm.obj
 0001:00028337       __catch$??$call_once@P6AXXZ@boost@@YAXAAUonce_flag@0@P6AXXZ@Z$0 10029337 f i libboost_thread-vc110-mt-s-1_52:thread.obj
 0001:00028c88       $LN48                      10029c88     libboost_thread-vc110-mt-s-1_52:thread.obj
 0001:00028d0c       $LN49                      10029d0c     libboost_thread-vc110-mt-s-1_52:thread.obj
 0001:00029d35       __catch$?thread_start_function@?A0xad6650d6@boost@@YGIPAX@Z$0 1002ad35 f   libboost_thread-vc110-mt-s-1_52:thread.obj
 0001:00029d60       ?on_tls_prepare@?A0x7bab35e0@@YAHXZ 1002ad60 f   libboost_thread-vc110-mt-s-1_52:tss_pe.obj
 0001:00029d70       ?on_process_init@?A0x7bab35e0@@YAHXZ 1002ad70 f   libboost_thread-vc110-mt-s-1_52:tss_pe.obj
 0001:00029d90       ?on_process_term@?A0x7bab35e0@@YAHXZ 1002ad90 f   libboost_thread-vc110-mt-s-1_52:tss_pe.obj
 0001:00029da0       ?on_tls_callback@?A0x7bab35e0@@YGXPAUHINSTANCE__@@KPAX@Z 1002ada0 f   libboost_thread-vc110-mt-s-1_52:tss_pe.obj
 0001:0002a650       $LN110                     1002b650     libboost_system-vc110-mt-s-1_52:error_code.obj
 0001:0002a698       $LN106                     1002b698     libboost_system-vc110-mt-s-1_52:error_code.obj
 0001:0002a770       $LN111                     1002b770     libboost_system-vc110-mt-s-1_52:error_code.obj
 0001:0002a780       $LN107                     1002b780     libboost_system-vc110-mt-s-1_52:error_code.obj
 0001:0002a794       $LN112                     1002b794     libboost_system-vc110-mt-s-1_52:error_code.obj
 0001:0002a810       $LN108                     1002b810     libboost_system-vc110-mt-s-1_52:error_code.obj
 0001:0002ae38       ?CatchGuardHandler@@YA?AW4_EXCEPTION_DISPOSITION@@PAUEHExceptionRecord@@PAUCatchGuardRN@@PAX2@Z 1002be38 f   LIBCMT:_trnsctrl_.obj
 0001:0002ae69       ?TranslatorGuardHandler@@YA?AW4_EXCEPTION_DISPOSITION@@PAUEHExceptionRecord@@PAUTranslatorGuardRN@@PAX2@Z 1002be69 f   LIBCMT:_trnsctrl_.obj
 0001:0002b2b4       __callthreadstartex        1002c2b4 f   LIBCMT:threadex.obj
 0001:0002b323       __initMTAoncurrentthread   1002c323 f   LIBCMT:threadex.obj
 0001:0002b37b       __threadstartex@4          1002c37b f   LIBCMT:threadex.obj
 0001:0002b3f8       __uninitMTAoncurrentthread 1002c3f8 f   LIBCMT:threadex.obj
 0001:0002b4e0       $$000000                   1002c4e0     LIBCMT:lowhelpr.obj
 0001:0002b602       ?CallCatchBlock@@YAPAXPAUEHExceptionRecord@@PAUEHRegistrationNode@@PAU_CONTEXT@@PBU_s_FuncInfo@@PAXHK@Z 1002c602 f   LIBCMT:frame.obj
 0001:0002b7d0       ?CallUnexpected@@YAXPBU_s_ESTypeList@@@Z 1002c7d0 f   LIBCMT:frame.obj
 0001:0002b7f8       __catch$?CallUnexpected@@YAXPBU_s_ESTypeList@@@Z$0 1002c7f8 f   LIBCMT:frame.obj
 0001:0002b810       ?CatchIt@@YAXPAUEHExceptionRecord@@PAUEHRegistrationNode@@PAU_CONTEXT@@PAXPBU_s_FuncInfo@@PBU_s_HandlerType@@PBU_s_CatchableType@@PBU_s_TryBlockMapEntry@@H1E@Z 1002c810 f   LIBCMT:frame.obj
 0001:0002b88b       ?ExFilterRethrow@@YAHPAU_EXCEPTION_POINTERS@@@Z 1002c88b f   LIBCMT:frame.obj
 0001:0002b8d8       ?FindHandler@@YAXPAUEHExceptionRecord@@PAUEHRegistrationNode@@PAU_CONTEXT@@PAXPBU_s_FuncInfo@@EH1@Z 1002c8d8 f   LIBCMT:frame.obj
 0001:0002bc73       ?FindHandlerForForeignException@@YAXPAUEHExceptionRecord@@PAUEHRegistrationNode@@PAU_CONTEXT@@PAXPBU_s_FuncInfo@@HH1@Z 1002cc73 f   LIBCMT:frame.obj
 0001:0002bd8d       ?IsInExceptionSpec@@YAEPAUEHExceptionRecord@@PBU_s_ESTypeList@@@Z 1002cd8d f   LIBCMT:frame.obj
 0001:0002c2d0       $$000000                   1002d2d0     LIBCMT:ullrem.obj
 0001:0002c350       $$000000                   1002d350     LIBCMT:sqrt_sse2_precise.obj
 0001:0002c450       $$000000                   1002d450     LIBCMT:sqrt.obj
 0001:0002c510       __unwindfunclet$??$_Destroy_range@U?$_Wrap_alloc@V?$allocator@V?$intrusive_ptr@Vbasic_cv_list_entry@detail@boost@@@boost@@@std@@@std@@@std@@YAXPAV?$intrusive_ptr@Vbasic_cv_list_entry@detail@boost@@@boost@@0AAU?$_Wrap_alloc@V?$allocator@V?$intrusive_ptr@Vbasic_cv_list_entry@detail@boost@@@boost@@@std@@@0@U_Nonscalar_ptr_iterator_tag@0@@Z$0 1002d510 f   libboost_thread-vc110-mt-s-1_52:thread.obj
 0001:0002c518       __ehhandler$??$_Destroy_range@U?$_Wrap_alloc@V?$allocator@V?$intrusive_ptr@Vbasic_cv_list_entry@detail@boost@@@boost@@@std@@@std@@@std@@YAXPAV?$intrusive_ptr@Vbasic_cv_list_entry@detail@boost@@@boost@@0AAU?$_Wrap_alloc@V?$allocator@V?$intrusive_ptr@Vbasic_cv_list_entry@detail@boost@@@boost@@@std@@@0@U_Nonscalar_ptr_iterator_tag@0@@Z 1002d518 f   libboost_thread-vc110-mt-s-1_52:thread.obj
 0001:0002c540       __unwindfunclet$??$call_once@P6AXXZ@boost@@YAXAAUonce_flag@0@P6AXXZ@Z$2 1002d540 f   libboost_thread-vc110-mt-s-1_52:thread.obj
 0001:0002c548       __ehhandler$??$call_once@P6AXXZ@boost@@YAXAAUonce_flag@0@P6AXXZ@Z 1002d548 f   libboost_thread-vc110-mt-s-1_52:thread.obj
 0001:0002c570       __ehhandler$??0date@gregorian@boost@@QAE@W4special_values@date_time@2@@Z 1002d570 f   libboost_thread-vc110-mt-s-1_52:thread.obj
 0001:0002c590       __unwindfunclet$??1thread_data_base@detail@boost@@UAE@XZ$0 1002d590 f   libboost_thread-vc110-mt-s-1_52:thread.obj
 0001:0002c59b       __unwindfunclet$??1thread_data_base@detail@boost@@UAE@XZ$1 1002d59b f   libboost_thread-vc110-mt-s-1_52:thread.obj
 0001:0002c5a6       __unwindfunclet$??1thread_data_base@detail@boost@@UAE@XZ$2 1002d5a6 f   libboost_thread-vc110-mt-s-1_52:thread.obj
 0001:0002c5b1       __unwindfunclet$??1thread_data_base@detail@boost@@UAE@XZ$3 1002d5b1 f   libboost_thread-vc110-mt-s-1_52:thread.obj
 0001:0002c5bc       __ehhandler$??1thread_data_base@detail@boost@@UAE@XZ 1002d5bc f   libboost_thread-vc110-mt-s-1_52:thread.obj
 0001:0002c5e0       __unwindfunclet$?do_try_join_until@thread@boost@@AAE_N_K@Z$0 1002d5e0 f   libboost_thread-vc110-mt-s-1_52:thread.obj
 0001:0002c5e8       __unwindfunclet$?do_try_join_until@thread@boost@@AAE_N_K@Z$1 1002d5e8 f   libboost_thread-vc110-mt-s-1_52:thread.obj
 0001:0002c5f0       __unwindfunclet$?do_try_join_until@thread@boost@@AAE_N_K@Z$2 1002d5f0 f   libboost_thread-vc110-mt-s-1_52:thread.obj
 0001:0002c5f8       __ehhandler$?do_try_join_until@thread@boost@@AAE_N_K@Z 1002d5f8 f   libboost_thread-vc110-mt-s-1_52:thread.obj
 0001:0002c620       __unwindfunclet$?interruptible_wait@this_thread@boost@@YA_NPAXUtimeout@detail@2@@Z$0 1002d620 f   libboost_thread-vc110-mt-s-1_52:thread.obj
 0001:0002c628       __ehhandler$?interruptible_wait@this_thread@boost@@YA_NPAXUtimeout@detail@2@@Z 1002d628 f   libboost_thread-vc110-mt-s-1_52:thread.obj
 0001:0002c650       __unwindfunclet$?notify_all@basic_condition_variable@detail@boost@@QAEXXZ$0 1002d650 f   libboost_thread-vc110-mt-s-1_52:thread.obj
 0001:0002c658       __ehhandler$?notify_all@basic_condition_variable@detail@boost@@QAEXXZ 1002d658 f   libboost_thread-vc110-mt-s-1_52:thread.obj
 0001:0002c680       __unwindfunclet$?run_thread_exit_callbacks@?A0xad6650d6@boost@@YAXXZ$0 1002d680 f   libboost_thread-vc110-mt-s-1_52:thread.obj
 0001:0002c688       __ehhandler$?run_thread_exit_callbacks@?A0xad6650d6@boost@@YAXXZ 1002d688 f   libboost_thread-vc110-mt-s-1_52:thread.obj
 0001:0002c6b0       __unwindfunclet$?set_current_thread_data@?A0xad6650d6@boost@@YAXPAUthread_data_base@detail@2@@Z$0 1002d6b0 f   libboost_thread-vc110-mt-s-1_52:thread.obj
 0001:0002c6b8       __ehhandler$?set_current_thread_data@?A0xad6650d6@boost@@YAXPAUthread_data_base@detail@2@@Z 1002d6b8 f   libboost_thread-vc110-mt-s-1_52:thread.obj
 0001:0002c6e0       __unwindfunclet$?start_thread@thread@boost@@AAEXXZ$0 1002d6e0 f   libboost_thread-vc110-mt-s-1_52:thread.obj
 0001:0002c6e8       __ehhandler$?start_thread@thread@boost@@AAEXXZ 1002d6e8 f   libboost_thread-vc110-mt-s-1_52:thread.obj
 0001:0002c710       __ehhandler$?thread_start_function@?A0xad6650d6@boost@@YGIPAX@Z 1002d710 f   libboost_thread-vc110-mt-s-1_52:thread.obj
 0001:0002c730       __unwindfunclet$?generic_category@system@boost@@YAABVerror_category@12@XZ$0 1002d730 f   libboost_system-vc110-mt-s-1_52:error_code.obj
 0001:0002c730       __unwindfunclet$??__Eposix_category@system@boost@@YAXXZ$0 1002d730 f   libboost_system-vc110-mt-s-1_52:error_code.obj
 0001:0002c730       __unwindfunclet$??__Eerrno_ecat@system@boost@@YAXXZ$0 1002d730 f   libboost_system-vc110-mt-s-1_52:error_code.obj
 0001:0002c730       __unwindfunclet$?make_error_condition@errc@system@boost@@YA?AVerror_condition@23@W4errc_t@123@@Z$0 1002d730 f   libboost_system-vc110-mt-s-1_52:error_code.obj
 0001:0002c73e       __ehhandler$?make_error_condition@errc@system@boost@@YA?AVerror_condition@23@W4errc_t@123@@Z 1002d73e f   libboost_system-vc110-mt-s-1_52:error_code.obj
 0001:0002c73e       __ehhandler$??__Eposix_category@system@boost@@YAXXZ 1002d73e f   libboost_system-vc110-mt-s-1_52:error_code.obj
 0001:0002c73e       __ehhandler$?generic_category@system@boost@@YAABVerror_category@12@XZ 1002d73e f   libboost_system-vc110-mt-s-1_52:error_code.obj
 0001:0002c73e       __ehhandler$??__Eerrno_ecat@system@boost@@YAXXZ 1002d73e f   libboost_system-vc110-mt-s-1_52:error_code.obj
 0001:0002c760       __unwindfunclet$?system_category@system@boost@@YAABVerror_category@12@XZ$0 1002d760 f   libboost_system-vc110-mt-s-1_52:error_code.obj
 0001:0002c760       __unwindfunclet$??__Ethrows@system@boost@@YAXXZ$0 1002d760 f   libboost_system-vc110-mt-s-1_52:error_code.obj
 0001:0002c760       __unwindfunclet$??__Enative_ecat@system@boost@@YAXXZ$0 1002d760 f   libboost_system-vc110-mt-s-1_52:error_code.obj
 0001:0002c76e       __ehhandler$??__Ethrows@system@boost@@YAXXZ 1002d76e f   libboost_system-vc110-mt-s-1_52:error_code.obj
 0001:0002c76e       __ehhandler$?system_category@system@boost@@YAABVerror_category@12@XZ 1002d76e f   libboost_system-vc110-mt-s-1_52:error_code.obj
 0001:0002c76e       __ehhandler$??__Enative_ecat@system@boost@@YAXXZ 1002d76e f   libboost_system-vc110-mt-s-1_52:error_code.obj
 0001:0002c790       __unwindfunclet$?default_error_condition@system_error_category@?A0xe218785f@@UBE?AVerror_condition@system@boost@@H@Z$0 1002d790 f   libboost_system-vc110-mt-s-1_52:error_code.obj
 0001:0002c79e       __unwindfunclet$?default_error_condition@system_error_category@?A0xe218785f@@UBE?AVerror_condition@system@boost@@H@Z$1 1002d79e f   libboost_system-vc110-mt-s-1_52:error_code.obj
 0001:0002c7ac       __ehhandler$?default_error_condition@system_error_category@?A0xe218785f@@UBE?AVerror_condition@system@boost@@H@Z 1002d7ac f   libboost_system-vc110-mt-s-1_52:error_code.obj
 0001:0002c7d0       __unwindfunclet$?message@generic_error_category@?A0xe218785f@@UBE?AV?$basic_string@DU?$char_traits@D@std@@V?$allocator@D@2@@std@@H@Z$0 1002d7d0 f   libboost_system-vc110-mt-s-1_52:error_code.obj
 0001:0002c7de       __unwindfunclet$?message@generic_error_category@?A0xe218785f@@UBE?AV?$basic_string@DU?$char_traits@D@std@@V?$allocator@D@2@@std@@H@Z$1 1002d7de f   libboost_system-vc110-mt-s-1_52:error_code.obj
 0001:0002c7f7       __ehhandler$?message@generic_error_category@?A0xe218785f@@UBE?AV?$basic_string@DU?$char_traits@D@std@@V?$allocator@D@2@@std@@H@Z 1002d7f7 f   libboost_system-vc110-mt-s-1_52:error_code.obj
 0001:0002c820       __unwindfunclet$?message@system_error_category@?A0xe218785f@@UBE?AV?$basic_string@DU?$char_traits@D@std@@V?$allocator@D@2@@std@@H@Z$0 1002d820 f   libboost_system-vc110-mt-s-1_52:error_code.obj
 0001:0002c828       __unwindfunclet$?message@system_error_category@?A0xe218785f@@UBE?AV?$basic_string@DU?$char_traits@D@std@@V?$allocator@D@2@@std@@H@Z$1 1002d828 f   libboost_system-vc110-mt-s-1_52:error_code.obj
 0001:0002c841       __unwindfunclet$?message@system_error_category@?A0xe218785f@@UBE?AV?$basic_string@DU?$char_traits@D@std@@V?$allocator@D@2@@std@@H@Z$2 1002d841 f   libboost_system-vc110-mt-s-1_52:error_code.obj
 0001:0002c849       __ehhandler$?message@system_error_category@?A0xe218785f@@UBE?AV?$basic_string@DU?$char_traits@D@std@@V?$allocator@D@2@@std@@H@Z 1002d849 f   libboost_system-vc110-mt-s-1_52:error_code.obj
 0001:0002c871       __ehhandler$?CallUnexpected@@YAXPBU_s_ESTypeList@@@Z 1002d871 f   LIBCMT:frame.obj
 0001:0002c88c       __unwindfunclet$??0ILuaInterface@@QAE@PAUlua_State@@@Z$0 1002d88c f   * CIL library *:* CIL module *
 0001:0002c896       __unwindfunclet$??0ILuaInterface@@QAE@PAUlua_State@@@Z$1 1002d896 f   * CIL library *:* CIL module *
 0001:0002c8a0       __unwindfunclet$??0ILuaInterface@@QAE@PAUlua_State@@@Z$2 1002d8a0 f   * CIL library *:* CIL module *
 0001:0002c8aa       __ehhandler$??0ILuaInterface@@QAE@PAUlua_State@@@Z 1002d8aa f   * CIL library *:* CIL module *
 0001:0002c8c5       __unwindfunclet$?Nav_Generate@@YAHPAUlua_State@@@Z$0 1002d8c5 f   * CIL library *:* CIL module *
 0001:0002c8c5       __unwindfunclet$?GetMember@ILuaObject@@QAEPAV1@PBD@Z$0 1002d8c5 f   * CIL library *:* CIL module *
 0001:0002c8c5       __unwindfunclet$?GetGlobal@ILuaInterface@@QAEPAVILuaObject@@PBD@Z$0 1002d8c5 f   * CIL library *:* CIL module *
 0001:0002c8c5       __unwindfunclet$?Nav_FindPath@@YAHPAUlua_State@@@Z$0 1002d8c5 f   * CIL library *:* CIL module *
 0001:0002c8c5       __unwindfunclet$?GetMember@ILuaObject@@QAEPAV1@N@Z$0 1002d8c5 f   * CIL library *:* CIL module *
 0001:0002c8c5       __unwindfunclet$?Nav_FindPathHull@@YAHPAUlua_State@@@Z$0 1002d8c5 f   * CIL library *:* CIL module *
 0001:0002c8cf       __ehhandler$?GetMember@ILuaObject@@QAEPAV1@PBD@Z 1002d8cf f   * CIL library *:* CIL module *
 0001:0002c8cf       __ehhandler$?Nav_FindPath@@YAHPAUlua_State@@@Z 1002d8cf f   * CIL library *:* CIL module *
 0001:0002c8cf       __ehhandler$?Nav_Generate@@YAHPAUlua_State@@@Z 1002d8cf f   * CIL library *:* CIL module *
 0001:0002c8cf       __ehhandler$?Nav_FindPathHull@@YAHPAUlua_State@@@Z 1002d8cf f   * CIL library *:* CIL module *
 0001:0002c8cf       __ehhandler$?GetGlobal@ILuaInterface@@QAEPAVILuaObject@@PBD@Z 1002d8cf f   * CIL library *:* CIL module *
 0001:0002c8cf       __ehhandler$?GetMember@ILuaObject@@QAEPAV1@N@Z 1002d8cf f   * CIL library *:* CIL module *
 0001:0002c8ea       __unwindfunclet$?GetMetaTable@ILuaInterface@@QAEPAVILuaObject@@PBDH@Z$0 1002d8ea f   * CIL library *:* CIL module *
 0001:0002c8ea       __unwindfunclet$?GetNewTable@ILuaInterface@@QAEPAVILuaObject@@XZ$0 1002d8ea f   * CIL library *:* CIL module *
 0001:0002c8ea       __unwindfunclet$?GetObject@ILuaInterface@@QAEPAVILuaObject@@H@Z$0 1002d8ea f   * CIL library *:* CIL module *
 0001:0002c8f4       __ehhandler$?GetObject@ILuaInterface@@QAEPAVILuaObject@@H@Z 1002d8f4 f   * CIL library *:* CIL module *
 0001:0002c8f4       __ehhandler$?GetMetaTable@ILuaInterface@@QAEPAVILuaObject@@PBDH@Z 1002d8f4 f   * CIL library *:* CIL module *
 0001:0002c8f4       __ehhandler$?GetNewTable@ILuaInterface@@QAEPAVILuaObject@@XZ 1002d8f4 f   * CIL library *:* CIL module *
 0001:0002c90f       __ehhandler$??$_Buynode@U?$pair@PAUlua_State@@PAVILuaInterface@@@std@@@?$_Tree_buy@U?$pair@QAUlua_State@@PAVILuaInterface@@@std@@V?$allocator@U?$pair@QAUlua_State@@PAVILuaInterface@@@std@@@2@@std@@QAEPAU?$_Tree_node@U?$pair@QAUlua_State@@PAVILuaInterface@@@std@@PAX@1@$$QAU?$pair@PAUlua_State@@PAVILuaInterface@@@1@@Z 1002d90f f   * CIL library *:* CIL module *
 0001:0002c92a       __ehhandler$??$_Insert_hint@AAU?$pair@QAUlua_State@@PAVILuaInterface@@@std@@PAU?$_Tree_node@U?$pair@QAUlua_State@@PAVILuaInterface@@@std@@PAX@2@@?$_Tree@V?$_Tmap_traits@PAUlua_State@@PAVILuaInterface@@U?$less@PAUlua_State@@@std@@V?$allocator@U?$pair@QAUlua_State@@PAVILuaInterface@@@std@@@4@$0A@@std@@@std@@IAE?AV?$_Tree_iterator@V?$_Tree_val@U?$_Tree_simple_types@U?$pair@QAUlua_State@@PAVILuaInterface@@@std@@@std@@@std@@@1@V?$_Tree_const_iterator@V?$_Tree_val@U?$_Tree_simple_types@U?$pair@QAUlua_State@@PAVILuaInterface@@@std@@@std@@@std@@@1@AAU?$pair@QAUlua_State@@PAVILuaInterface@@@1@PAU?$_Tree_node@U?$pair@QAUlua_State@@PAVILuaInterface@@@std@@PAX@1@@Z 1002d92a f   * CIL library *:* CIL module *
 0001:0002c948       __ehhandler$??$_Insert_nohint@AAU?$pair@QAUlua_State@@PAVILuaInterface@@@std@@PAU?$_Tree_node@U?$pair@QAUlua_State@@PAVILuaInterface@@@std@@PAX@2@@?$_Tree@V?$_Tmap_traits@PAUlua_State@@PAVILuaInterface@@U?$less@PAUlua_State@@@std@@V?$allocator@U?$pair@QAUlua_State@@PAVILuaInterface@@@std@@@4@$0A@@std@@@std@@IAE?AU?$pair@V?$_Tree_iterator@V?$_Tree_val@U?$_Tree_simple_types@U?$pair@QAUlua_State@@PAVILuaInterface@@@std@@@std@@@std@@@std@@_N@1@_NAAU?$pair@QAUlua_State@@PAVILuaInterface@@@1@PAU?$_Tree_node@U?$pair@QAUlua_State@@PAVILuaInterface@@@std@@PAX@1@@Z 1002d948 f   * CIL library *:* CIL module *
 0001:0002c966       __unwindfunclet$??$construct@PAU?$_Tree_node@U?$pair@QAUlua_State@@PAVILuaInterface@@@std@@PAX@std@@AAPAU12@@?$allocator@U?$_Tree_node@U?$pair@QAUlua_State@@PAVILuaInterface@@@std@@PAX@std@@@std@@QAEXPAPAU?$_Tree_node@U?$pair@QAUlua_State@@PAVILuaInterface@@@std@@PAX@1@AAPAU21@@Z$0 1002d966 f   * CIL library *:* CIL module *
 0001:0002c966       __unwindfunclet$??$construct@PADAAPAD@?$allocator@D@std@@QAEXPAPADAAPAD@Z$0 1002d966 f   * CIL library *:* CIL module *
 0001:0002c966       __unwindfunclet$??$construct@U?$pair@QAUlua_State@@PAVILuaInterface@@@std@@U?$pair@PAUlua_State@@PAVILuaInterface@@@2@@?$allocator@U?$_Tree_node@U?$pair@QAUlua_State@@PAVILuaInterface@@@std@@PAX@std@@@std@@QAEXPAU?$pair@QAUlua_State@@PAVILuaInterface@@@1@$$QAU?$pair@PAUlua_State@@PAVILuaInterface@@@1@@Z$0 1002d966 f   * CIL library *:* CIL module *
 0001:0002c966       __unwindfunclet$??$construct@PAU?$_Tree_node@U?$pair@QBXUtss_data_node@detail@boost@@@std@@PAX@std@@AAPAU12@@?$allocator@U?$_Tree_node@U?$pair@QBXUtss_data_node@detail@boost@@@std@@PAX@std@@@std@@QAEXPAPAU?$_Tree_node@U?$pair@QBXUtss_data_node@detail@boost@@@std@@PAX@1@AAPAU21@@Z$0 1002d966 f   * CIL library *:* CIL module *
 0001:0002c974       __ehhandler$??$construct@PADAAPAD@?$allocator@D@std@@QAEXPAPADAAPAD@Z 1002d974 f   * CIL library *:* CIL module *
 0001:0002c974       __ehhandler$??$construct@U?$pair@QAUlua_State@@PAVILuaInterface@@@std@@U?$pair@PAUlua_State@@PAVILuaInterface@@@2@@?$allocator@U?$_Tree_node@U?$pair@QAUlua_State@@PAVILuaInterface@@@std@@PAX@std@@@std@@QAEXPAU?$pair@QAUlua_State@@PAVILuaInterface@@@1@$$QAU?$pair@PAUlua_State@@PAVILuaInterface@@@1@@Z 1002d974 f   * CIL library *:* CIL module *
 0001:0002c974       __ehhandler$??$construct@PAU?$_Tree_node@U?$pair@QAUlua_State@@PAVILuaInterface@@@std@@PAX@std@@AAPAU12@@?$allocator@U?$_Tree_node@U?$pair@QAUlua_State@@PAVILuaInterface@@@std@@PAX@std@@@std@@QAEXPAPAU?$_Tree_node@U?$pair@QAUlua_State@@PAVILuaInterface@@@std@@PAX@1@AAPAU21@@Z 1002d974 f   * CIL library *:* CIL module *
 0001:0002c974       __ehhandler$??$construct@PAU?$_Tree_node@U?$pair@QBXUtss_data_node@detail@boost@@@std@@PAX@std@@AAPAU12@@?$allocator@U?$_Tree_node@U?$pair@QBXUtss_data_node@detail@boost@@@std@@PAX@std@@@std@@QAEXPAPAU?$_Tree_node@U?$pair@QBXUtss_data_node@detail@boost@@@std@@PAX@1@AAPAU21@@Z 1002d974 f   * CIL library *:* CIL module *
 0001:0002c98f       __unwindfunclet$?CreateInterface@ILuaModuleManager@@QAEXPAUlua_State@@@Z$0 1002d98f f   * CIL library *:* CIL module *
 0001:0002c999       __ehhandler$?CreateInterface@ILuaModuleManager@@QAEXPAUlua_State@@@Z 1002d999 f   * CIL library *:* CIL module *
 0001:0002c9b4       __ehhandler$?_Buyheadnode@?$_Tree_alloc@$0A@U?$_Tree_base_types@U?$pair@QAUlua_State@@PAVILuaInterface@@@std@@V?$allocator@U?$pair@QAUlua_State@@PAVILuaInterface@@@std@@@2@@std@@@std@@QAEPAU?$_Tree_node@U?$pair@QAUlua_State@@PAVILuaInterface@@@std@@PAX@2@XZ 1002d9b4 f   * CIL library *:* CIL module *
 0001:0002c9cf       __ehhandler$?_Buynode0@?$_Tree_buy@U?$pair@QAUlua_State@@PAVILuaInterface@@@std@@V?$allocator@U?$pair@QAUlua_State@@PAVILuaInterface@@@std@@@2@@std@@QAEPAU?$_Tree_node@U?$pair@QAUlua_State@@PAVILuaInterface@@@std@@PAX@2@XZ 1002d9cf f   * CIL library *:* CIL module *
 0001:0002c9ea       __ehhandler$?_Copy@?$basic_string@DU?$char_traits@D@std@@V?$allocator@D@2@@std@@QAEXII@Z 1002d9ea f   * CIL library *:* CIL module *
 0001:0002ca05       __unwindfunclet$??$throw_exception@Ubad_day_of_month@gregorian@boost@@@boost@@YAXABUbad_day_of_month@gregorian@0@@Z$0 1002da05 f   * CIL library *:* CIL module *
 0001:0002ca0d       __ehhandler$??$throw_exception@Ubad_day_of_month@gregorian@boost@@@boost@@YAXABUbad_day_of_month@gregorian@0@@Z 1002da0d f   * CIL library *:* CIL module *
 0001:0002ca28       __unwindfunclet$??$throw_exception@Ubad_month@gregorian@boost@@@boost@@YAXABUbad_month@gregorian@0@@Z$0 1002da28 f   * CIL library *:* CIL module *
 0001:0002ca30       __ehhandler$??$throw_exception@Ubad_month@gregorian@boost@@@boost@@YAXABUbad_month@gregorian@0@@Z 1002da30 f   * CIL library *:* CIL module *
 0001:0002ca4b       __unwindfunclet$??$throw_exception@Ubad_year@gregorian@boost@@@boost@@YAXABUbad_year@gregorian@0@@Z$0 1002da4b f   * CIL library *:* CIL module *
 0001:0002ca53       __ehhandler$??$throw_exception@Ubad_year@gregorian@boost@@@boost@@YAXABUbad_year@gregorian@0@@Z 1002da53 f   * CIL library *:* CIL module *
 0001:0002ca6e       __unwindfunclet$??$throw_exception@Vruntime_error@std@@@boost@@YAXABVruntime_error@std@@@Z$0 1002da6e f   * CIL library *:* CIL module *
 0001:0002ca76       __ehhandler$??$throw_exception@Vruntime_error@std@@@boost@@YAXABVruntime_error@std@@@Z 1002da76 f   * CIL library *:* CIL module *
 0001:0002ca91       __unwindfunclet$??0?$clone_impl@U?$error_info_injector@Ubad_day_of_month@gregorian@boost@@@exception_detail@boost@@@exception_detail@boost@@AAE@ABV012@Uclone_tag@012@@Z$0 1002da91 f   * CIL library *:* CIL module *
 0001:0002ca91       __unwindfunclet$??0?$clone_impl@U?$error_info_injector@Ubad_day_of_month@gregorian@boost@@@exception_detail@boost@@@exception_detail@boost@@QAE@ABU?$error_info_injector@Ubad_day_of_month@gregorian@boost@@@12@@Z$0 1002da91 f   * CIL library *:* CIL module *
 0001:0002caad       __unwindfunclet$??0?$clone_impl@U?$error_info_injector@Ubad_day_of_month@gregorian@boost@@@exception_detail@boost@@@exception_detail@boost@@QAE@ABU?$error_info_injector@Ubad_day_of_month@gregorian@boost@@@12@@Z$1 1002daad f   * CIL library *:* CIL module *
 0001:0002caad       __unwindfunclet$??0?$clone_impl@U?$error_info_injector@Ubad_day_of_month@gregorian@boost@@@exception_detail@boost@@@exception_detail@boost@@AAE@ABV012@Uclone_tag@012@@Z$1 1002daad f   * CIL library *:* CIL module *
 0001:0002cab5       __ehhandler$??0?$clone_impl@U?$error_info_injector@Ubad_day_of_month@gregorian@boost@@@exception_detail@boost@@@exception_detail@boost@@QAE@ABU?$error_info_injector@Ubad_day_of_month@gregorian@boost@@@12@@Z 1002dab5 f   * CIL library *:* CIL module *
 0001:0002cab5       __ehhandler$??0?$clone_impl@U?$error_info_injector@Ubad_day_of_month@gregorian@boost@@@exception_detail@boost@@@exception_detail@boost@@AAE@ABV012@Uclone_tag@012@@Z 1002dab5 f   * CIL library *:* CIL module *
 0001:0002cad0       __unwindfunclet$??0?$clone_impl@U?$error_info_injector@Ubad_day_of_month@gregorian@boost@@@exception_detail@boost@@@exception_detail@boost@@QAE@ABV012@@Z$0 1002dad0 f   * CIL library *:* CIL module *
 0001:0002cad0       __unwindfunclet$??0?$clone_impl@U?$error_info_injector@Vruntime_error@std@@@exception_detail@boost@@@exception_detail@boost@@QAE@ABV012@@Z$0 1002dad0 f   * CIL library *:* CIL module *
 0001:0002cad0       __unwindfunclet$??0?$clone_impl@U?$error_info_injector@Vbad_alloc@std@@@exception_detail@boost@@@exception_detail@boost@@QAE@ABV012@@Z$0 1002dad0 f   * CIL library *:* CIL module *
 0001:0002cad0       __unwindfunclet$??0?$clone_impl@U?$error_info_injector@Ubad_month@gregorian@boost@@@exception_detail@boost@@@exception_detail@boost@@QAE@ABV012@@Z$0 1002dad0 f   * CIL library *:* CIL module *
 0001:0002cad0       __unwindfunclet$??0?$clone_impl@U?$error_info_injector@Ubad_year@gregorian@boost@@@exception_detail@boost@@@exception_detail@boost@@QAE@ABV012@@Z$0 1002dad0 f   * CIL library *:* CIL module *
 0001:0002caec       __ehhandler$??0?$clone_impl@U?$error_info_injector@Ubad_year@gregorian@boost@@@exception_detail@boost@@@exception_detail@boost@@QAE@ABV012@@Z 1002daec f   * CIL library *:* CIL module *
 0001:0002caec       __ehhandler$??0?$clone_impl@U?$error_info_injector@Vbad_alloc@std@@@exception_detail@boost@@@exception_detail@boost@@QAE@ABV012@@Z 1002daec f   * CIL library *:* CIL module *
 0001:0002caec       __ehhandler$??0?$clone_impl@U?$error_info_injector@Ubad_month@gregorian@boost@@@exception_detail@boost@@@exception_detail@boost@@QAE@ABV012@@Z 1002daec f   * CIL library *:* CIL module *
 0001:0002caec       __ehhandler$??0?$clone_impl@U?$error_info_injector@Vruntime_error@std@@@exception_detail@boost@@@exception_detail@boost@@QAE@ABV012@@Z 1002daec f   * CIL library *:* CIL module *
 0001:0002caec       __ehhandler$??0?$clone_impl@U?$error_info_injector@Ubad_day_of_month@gregorian@boost@@@exception_detail@boost@@@exception_detail@boost@@QAE@ABV012@@Z 1002daec f   * CIL library *:* CIL module *
 0001:0002cb07       __unwindfunclet$??0?$clone_impl@U?$error_info_injector@Ubad_month@gregorian@boost@@@exception_detail@boost@@@exception_detail@boost@@AAE@ABV012@Uclone_tag@012@@Z$0 1002db07 f   * CIL library *:* CIL module *
 0001:0002cb07       __unwindfunclet$??0?$clone_impl@U?$error_info_injector@Ubad_month@gregorian@boost@@@exception_detail@boost@@@exception_detail@boost@@QAE@ABU?$error_info_injector@Ubad_month@gregorian@boost@@@12@@Z$0 1002db07 f   * CIL library *:* CIL module *
 0001:0002cb23       __unwindfunclet$??0?$clone_impl@U?$error_info_injector@Ubad_month@gregorian@boost@@@exception_detail@boost@@@exception_detail@boost@@QAE@ABU?$error_info_injector@Ubad_month@gregorian@boost@@@12@@Z$1 1002db23 f   * CIL library *:* CIL module *
 0001:0002cb23       __unwindfunclet$??0?$clone_impl@U?$error_info_injector@Ubad_month@gregorian@boost@@@exception_detail@boost@@@exception_detail@boost@@AAE@ABV012@Uclone_tag@012@@Z$1 1002db23 f   * CIL library *:* CIL module *
 0001:0002cb2b       __ehhandler$??0?$clone_impl@U?$error_info_injector@Ubad_month@gregorian@boost@@@exception_detail@boost@@@exception_detail@boost@@QAE@ABU?$error_info_injector@Ubad_month@gregorian@boost@@@12@@Z 1002db2b f   * CIL library *:* CIL module *
 0001:0002cb2b       __ehhandler$??0?$clone_impl@U?$error_info_injector@Ubad_month@gregorian@boost@@@exception_detail@boost@@@exception_detail@boost@@AAE@ABV012@Uclone_tag@012@@Z 1002db2b f   * CIL library *:* CIL module *
 0001:0002cb46       __unwindfunclet$??0?$clone_impl@U?$error_info_injector@Ubad_year@gregorian@boost@@@exception_detail@boost@@@exception_detail@boost@@AAE@ABV012@Uclone_tag@012@@Z$0 1002db46 f   * CIL library *:* CIL module *
 0001:0002cb46       __unwindfunclet$??0?$clone_impl@U?$error_info_injector@Ubad_year@gregorian@boost@@@exception_detail@boost@@@exception_detail@boost@@QAE@ABU?$error_info_injector@Ubad_year@gregorian@boost@@@12@@Z$0 1002db46 f   * CIL library *:* CIL module *
 0001:0002cb62       __unwindfunclet$??0?$clone_impl@U?$error_info_injector@Ubad_year@gregorian@boost@@@exception_detail@boost@@@exception_detail@boost@@QAE@ABU?$error_info_injector@Ubad_year@gregorian@boost@@@12@@Z$1 1002db62 f   * CIL library *:* CIL module *
 0001:0002cb62       __unwindfunclet$??0?$clone_impl@U?$error_info_injector@Ubad_year@gregorian@boost@@@exception_detail@boost@@@exception_detail@boost@@AAE@ABV012@Uclone_tag@012@@Z$1 1002db62 f   * CIL library *:* CIL module *
 0001:0002cb6a       __ehhandler$??0?$clone_impl@U?$error_info_injector@Ubad_year@gregorian@boost@@@exception_detail@boost@@@exception_detail@boost@@QAE@ABU?$error_info_injector@Ubad_year@gregorian@boost@@@12@@Z 1002db6a f   * CIL library *:* CIL module *
 0001:0002cb6a       __ehhandler$??0?$clone_impl@U?$error_info_injector@Ubad_year@gregorian@boost@@@exception_detail@boost@@@exception_detail@boost@@AAE@ABV012@Uclone_tag@012@@Z 1002db6a f   * CIL library *:* CIL module *
 0001:0002cb85       __unwindfunclet$??0?$clone_impl@U?$error_info_injector@Vruntime_error@std@@@exception_detail@boost@@@exception_detail@boost@@QAE@ABU?$error_info_injector@Vruntime_error@std@@@12@@Z$0 1002db85 f   * CIL library *:* CIL module *
 0001:0002cb85       __unwindfunclet$??0?$clone_impl@U?$error_info_injector@Vruntime_error@std@@@exception_detail@boost@@@exception_detail@boost@@AAE@ABV012@Uclone_tag@012@@Z$0 1002db85 f   * CIL library *:* CIL module *
 0001:0002cba1       __unwindfunclet$??0?$clone_impl@U?$error_info_injector@Vruntime_error@std@@@exception_detail@boost@@@exception_detail@boost@@QAE@ABU?$error_info_injector@Vruntime_error@std@@@12@@Z$1 1002dba1 f   * CIL library *:* CIL module *
 0001:0002cba1       __unwindfunclet$??0?$clone_impl@U?$error_info_injector@Vruntime_error@std@@@exception_detail@boost@@@exception_detail@boost@@AAE@ABV012@Uclone_tag@012@@Z$1 1002dba1 f   * CIL library *:* CIL module *
 0001:0002cba9       __ehhandler$??0?$clone_impl@U?$error_info_injector@Vruntime_error@std@@@exception_detail@boost@@@exception_detail@boost@@QAE@ABU?$error_info_injector@Vruntime_error@std@@@12@@Z 1002dba9 f   * CIL library *:* CIL module *
 0001:0002cba9       __ehhandler$??0?$clone_impl@U?$error_info_injector@Vruntime_error@std@@@exception_detail@boost@@@exception_detail@boost@@AAE@ABV012@Uclone_tag@012@@Z 1002dba9 f   * CIL library *:* CIL module *
 0001:0002cbc4       __unwindfunclet$??0?$error_info_injector@Ubad_day_of_month@gregorian@boost@@@exception_detail@boost@@QAE@ABU012@@Z$0 1002dbc4 f   * CIL library *:* CIL module *
 0001:0002cbc4       __unwindfunclet$??0?$error_info_injector@Ubad_year@gregorian@boost@@@exception_detail@boost@@QAE@ABU012@@Z$0 1002dbc4 f   * CIL library *:* CIL module *
 0001:0002cbc4       __unwindfunclet$??0?$error_info_injector@Ubad_month@gregorian@boost@@@exception_detail@boost@@QAE@ABU012@@Z$0 1002dbc4 f   * CIL library *:* CIL module *
 0001:0002cbcc       __ehhandler$??0?$error_info_injector@Ubad_day_of_month@gregorian@boost@@@exception_detail@boost@@QAE@ABU012@@Z 1002dbcc f   * CIL library *:* CIL module *
 0001:0002cbcc       __ehhandler$??0?$error_info_injector@Ubad_month@gregorian@boost@@@exception_detail@boost@@QAE@ABU012@@Z 1002dbcc f   * CIL library *:* CIL module *
 0001:0002cbcc       __ehhandler$??0?$error_info_injector@Ubad_year@gregorian@boost@@@exception_detail@boost@@QAE@ABU012@@Z 1002dbcc f   * CIL library *:* CIL module *
 0001:0002cbe7       __unwindfunclet$??0?$error_info_injector@Ubad_month@gregorian@boost@@@exception_detail@boost@@QAE@ABUbad_month@gregorian@2@@Z$0 1002dbe7 f   * CIL library *:* CIL module *
 0001:0002cbe7       __unwindfunclet$??0?$error_info_injector@Ubad_year@gregorian@boost@@@exception_detail@boost@@QAE@ABUbad_year@gregorian@2@@Z$0 1002dbe7 f   * CIL library *:* CIL module *
 0001:0002cbe7       __unwindfunclet$??0?$error_info_injector@Ubad_day_of_month@gregorian@boost@@@exception_detail@boost@@QAE@ABUbad_day_of_month@gregorian@2@@Z$0 1002dbe7 f   * CIL library *:* CIL module *
 0001:0002cbef       __ehhandler$??0?$error_info_injector@Ubad_month@gregorian@boost@@@exception_detail@boost@@QAE@ABUbad_month@gregorian@2@@Z 1002dbef f   * CIL library *:* CIL module *
 0001:0002cbef       __ehhandler$??0?$error_info_injector@Ubad_day_of_month@gregorian@boost@@@exception_detail@boost@@QAE@ABUbad_day_of_month@gregorian@2@@Z 1002dbef f   * CIL library *:* CIL module *
 0001:0002cbef       __ehhandler$??0?$error_info_injector@Ubad_year@gregorian@boost@@@exception_detail@boost@@QAE@ABUbad_year@gregorian@2@@Z 1002dbef f   * CIL library *:* CIL module *
 0001:0002cc0a       __unwindfunclet$??0?$error_info_injector@Vruntime_error@std@@@exception_detail@boost@@QAE@ABU012@@Z$0 1002dc0a f   * CIL library *:* CIL module *
 0001:0002cc12       __ehhandler$??0?$error_info_injector@Vruntime_error@std@@@exception_detail@boost@@QAE@ABU012@@Z 1002dc12 f   * CIL library *:* CIL module *
 0001:0002cc2d       __unwindfunclet$??0bad_day_of_month@gregorian@boost@@QAE@XZ$0 1002dc2d f   * CIL library *:* CIL module *
 0001:0002cc2d       __unwindfunclet$??0bad_month@gregorian@boost@@QAE@XZ$0 1002dc2d f   * CIL library *:* CIL module *
 0001:0002cc2d       __unwindfunclet$??0bad_year@gregorian@boost@@QAE@XZ$0 1002dc2d f   * CIL library *:* CIL module *
 0001:0002cc35       __ehhandler$??0bad_year@gregorian@boost@@QAE@XZ 1002dc35 f   * CIL library *:* CIL module *
 0001:0002cc35       __ehhandler$??0bad_month@gregorian@boost@@QAE@XZ 1002dc35 f   * CIL library *:* CIL module *
 0001:0002cc35       __ehhandler$??0bad_day_of_month@gregorian@boost@@QAE@XZ 1002dc35 f   * CIL library *:* CIL module *
 0001:0002cc5a       __unwindfunclet$??0date@gregorian@boost@@QAE@Vgreg_year@12@Vgreg_month@12@Vgreg_day@12@@Z$0 1002dc5a f   * CIL library *:* CIL module *
 0001:0002cc62       __unwindfunclet$??0date@gregorian@boost@@QAE@Vgreg_year@12@Vgreg_month@12@Vgreg_day@12@@Z$1 1002dc62 f   * CIL library *:* CIL module *
 0001:0002cc6a       __ehhandler$??0date@gregorian@boost@@QAE@Vgreg_year@12@Vgreg_month@12@Vgreg_day@12@@Z 1002dc6a f   * CIL library *:* CIL module *
 0001:0002cc8f       __unwindfunclet$??0JobInfo_t@@QAE@XZ$0 1002dc8f f   * CIL library *:* CIL module *
 0001:0002cc8f       __unwindfunclet$??1JobInfo_t@@QAE@XZ$0 1002dc8f f   * CIL library *:* CIL module *
 0001:0002cc97       __ehhandler$??0JobInfo_t@@QAE@XZ 1002dc97 f   * CIL library *:* CIL module *
 0001:0002cc97       __ehhandler$??1JobInfo_t@@QAE@XZ 1002dc97 f   * CIL library *:* CIL module *
 0001:0002ccb2       __unwindfunclet$??1thread@boost@@QAE@XZ$0 1002dcb2 f   * CIL library *:* CIL module *
 0001:0002ccba       __ehhandler$??1thread@boost@@QAE@XZ 1002dcba f   * CIL library *:* CIL module *
 0001:0002ccd5       __unwindfunclet$?Nav_FindPathImmediate@@YAHPAUlua_State@@@Z$0 1002dcd5 f   * CIL library *:* CIL module *
 0001:0002ccdf       __ehhandler$?Nav_FindPathImmediate@@YAHPAUlua_State@@@Z 1002dcdf f   * CIL library *:* CIL module *
 0001:0002ccfa       __unwindfunclet$?GetAllTableMembers@ILuaInterface@@QAEPAV?$CUtlVector@ULuaKeyValue@@V?$CUtlMemory@ULuaKeyValue@@H@@@@H@Z$0 1002dcfa f   * CIL library *:* CIL module *
 0001:0002ccfa       __unwindfunclet$?clone@?$clone_impl@U?$error_info_injector@Ubad_year@gregorian@boost@@@exception_detail@boost@@@exception_detail@boost@@EBEPBVclone_base@23@XZ$0 1002dcfa f   * CIL library *:* CIL module *
 0001:0002ccfa       __unwindfunclet$?clone@?$clone_impl@U?$error_info_injector@Vthread_resource_error@boost@@@exception_detail@boost@@@exception_detail@boost@@EBEPBVclone_base@23@XZ$0 1002dcfa f   * CIL library *:* CIL module *
 0001:0002ccfa       __unwindfunclet$?clone@?$clone_impl@U?$error_info_injector@Vbad_alloc@std@@@exception_detail@boost@@@exception_detail@boost@@EBEPBVclone_base@23@XZ$0 1002dcfa f   * CIL library *:* CIL module *
 0001:0002ccfa       __unwindfunclet$?clone@?$clone_impl@U?$error_info_injector@Vruntime_error@std@@@exception_detail@boost@@@exception_detail@boost@@EBEPBVclone_base@23@XZ$0 1002dcfa f   * CIL library *:* CIL module *
 0001:0002ccfa       __unwindfunclet$?clone@?$clone_impl@U?$error_info_injector@Ubad_day_of_month@gregorian@boost@@@exception_detail@boost@@@exception_detail@boost@@EBEPBVclone_base@23@XZ$0 1002dcfa f   * CIL library *:* CIL module *
 0001:0002ccfa       __unwindfunclet$?clone@?$clone_impl@U?$error_info_injector@Ubad_month@gregorian@boost@@@exception_detail@boost@@@exception_detail@boost@@EBEPBVclone_base@23@XZ$0 1002dcfa f   * CIL library *:* CIL module *
 0001:0002cd04       __ehhandler$?clone@?$clone_impl@U?$error_info_injector@Vruntime_error@std@@@exception_detail@boost@@@exception_detail@boost@@EBEPBVclone_base@23@XZ 1002dd04 f   * CIL library *:* CIL module *
 0001:0002cd04       __ehhandler$?clone@?$clone_impl@U?$error_info_injector@Ubad_year@gregorian@boost@@@exception_detail@boost@@@exception_detail@boost@@EBEPBVclone_base@23@XZ 1002dd04 f   * CIL library *:* CIL module *
 0001:0002cd04       __ehhandler$?GetAllTableMembers@ILuaInterface@@QAEPAV?$CUtlVector@ULuaKeyValue@@V?$CUtlMemory@ULuaKeyValue@@H@@@@H@Z 1002dd04 f   * CIL library *:* CIL module *
 0001:0002cd04       __ehhandler$?clone@?$clone_impl@U?$error_info_injector@Ubad_month@gregorian@boost@@@exception_detail@boost@@@exception_detail@boost@@EBEPBVclone_base@23@XZ 1002dd04 f   * CIL library *:* CIL module *
 0001:0002cd04       __ehhandler$?clone@?$clone_impl@U?$error_info_injector@Vbad_alloc@std@@@exception_detail@boost@@@exception_detail@boost@@EBEPBVclone_base@23@XZ 1002dd04 f   * CIL library *:* CIL module *
 0001:0002cd04       __ehhandler$?clone@?$clone_impl@U?$error_info_injector@Ubad_day_of_month@gregorian@boost@@@exception_detail@boost@@@exception_detail@boost@@EBEPBVclone_base@23@XZ 1002dd04 f   * CIL library *:* CIL module *
 0001:0002cd04       __ehhandler$?clone@?$clone_impl@U?$error_info_injector@Vthread_resource_error@boost@@@exception_detail@boost@@@exception_detail@boost@@EBEPBVclone_base@23@XZ 1002dd04 f   * CIL library *:* CIL module *
 0001:0002cd1f       __unwindfunclet$?copy_boost_exception@exception_detail@boost@@YAXPAVexception@2@PBV32@@Z$0 1002dd1f f   * CIL library *:* CIL module *
 0001:0002cd27       __unwindfunclet$?copy_boost_exception@exception_detail@boost@@YAXPAVexception@2@PBV32@@Z$1 1002dd27 f   * CIL library *:* CIL module *
 0001:0002cd2f       __ehhandler$?copy_boost_exception@exception_detail@boost@@YAXPAVexception@2@PBV32@@Z 1002dd2f f   * CIL library *:* CIL module *
 0001:0002cd4a       __unwindfunclet$?gmtime@c_time@date_time@boost@@SAPAUtm@@PB_JPAU4@@Z$0 1002dd4a f   * CIL library *:* CIL module *
 0001:0002cd52       __ehhandler$?gmtime@c_time@date_time@boost@@SAPAUtm@@PB_JPAU4@@Z 1002dd52 f   * CIL library *:* CIL module *
 0001:0002cd6d       __unwindfunclet$??__Emodulemanager@@YAXXZ$0 1002dd6d f   * CIL library *:* CIL module *
 0001:0002cd6d       __unwindfunclet$?nav_Create@@YAHPAUlua_State@@@Z$0 1002dd6d f   * CIL library *:* CIL module *
 0001:0002cd77       __ehhandler$?nav_Create@@YAHPAUlua_State@@@Z 1002dd77 f   * CIL library *:* CIL module *
 0001:0002cd77       __ehhandler$??__Emodulemanager@@YAXXZ 1002dd77 f   * CIL library *:* CIL module *
 0001:0002cd92       __unwindfunclet$?on_error@?$simple_exception_policy@G$0FHI@$0CHBA@Ubad_year@gregorian@boost@@@CV@boost@@SAXGGW4violation_enum@23@@Z$0 1002dd92 f   * CIL library *:* CIL module *
 0001:0002cd92       __unwindfunclet$?on_error@?$simple_exception_policy@G$00$0M@Ubad_month@gregorian@boost@@@CV@boost@@SAXGGW4violation_enum@23@@Z$0 1002dd92 f   * CIL library *:* CIL module *
 0001:0002cd92       __unwindfunclet$?on_error@?$simple_exception_policy@G$00$0BP@Ubad_day_of_month@gregorian@boost@@@CV@boost@@SAXGGW4violation_enum@23@@Z$0 1002dd92 f   * CIL library *:* CIL module *
 0001:0002cd9a       __ehhandler$?on_error@?$simple_exception_policy@G$00$0M@Ubad_month@gregorian@boost@@@CV@boost@@SAXGGW4violation_enum@23@@Z 1002dd9a f   * CIL library *:* CIL module *
 0001:0002cd9a       __ehhandler$?on_error@?$simple_exception_policy@G$0FHI@$0CHBA@Ubad_year@gregorian@boost@@@CV@boost@@SAXGGW4violation_enum@23@@Z 1002dd9a f   * CIL library *:* CIL module *
 0001:0002cd9a       __ehhandler$?on_error@?$simple_exception_policy@G$00$0BP@Ubad_day_of_month@gregorian@boost@@@CV@boost@@SAXGGW4violation_enum@23@@Z 1002dd9a f   * CIL library *:* CIL module *
 0001:0002cdb5       __unwindfunclet$??$?0P8Nav@@AEXPAUJobInfo_t@@PAVNode@@1@ZPAV0@PAU1@PAV2@PAV2@@thread@boost@@QAE@P8Nav@@AEXPAUJobInfo_t@@PAVNode@@1@ZPAV2@011@Z$0 1002ddb5 f   * CIL library *:* CIL module *
 0001:0002cdbd       __ehhandler$??$?0P8Nav@@AEXPAUJobInfo_t@@PAVNode@@1@ZPAV0@PAU1@PAV2@PAV2@@thread@boost@@QAE@P8Nav@@AEXPAUJobInfo_t@@PAVNode@@1@ZPAV2@011@Z 1002ddbd f   * CIL library *:* CIL module *
 0001:0002cdd8       __unwindfunclet$??$?0P8Nav@@AEXPA_N@ZPAV0@PA_N@thread@boost@@QAE@P8Nav@@AEXPA_N@ZPAV2@0@Z$0 1002ddd8 f   * CIL library *:* CIL module *
 0001:0002cde0       __ehhandler$??$?0P8Nav@@AEXPA_N@ZPAV0@PA_N@thread@boost@@QAE@P8Nav@@AEXPA_N@ZPAV2@0@Z 1002dde0 f   * CIL library *:* CIL module *
 0001:0002cdfb       __unwindfunclet$??$heap_new@V?$thread_data@V?$bind_t@XV?$mf1@XVNav@@PA_N@_mfi@boost@@V?$list2@V?$value@PAVNav@@@_bi@boost@@V?$value@PA_N@23@@_bi@3@@_bi@boost@@@detail@boost@@V?$bind_t@XV?$mf1@XVNav@@PA_N@_mfi@boost@@V?$list2@V?$value@PAVNav@@@_bi@boost@@V?$value@PA_N@23@@_bi@3@@_bi@3@@detail@boost@@YAPAV?$thread_data@V?$bind_t@XV?$mf1@XVNav@@PA_N@_mfi@boost@@V?$list2@V?$value@PAVNav@@@_bi@boost@@V?$value@PA_N@23@@_bi@3@@_bi@boost@@@01@$$QAV?$bind_t@XV?$mf1@XVNav@@PA_N@_mfi@boost@@V?$list2@V?$value@PAVNav@@@_bi@boost@@V?$value@PA_N@23@@_bi@3@@_bi@1@@Z$2 1002ddfb f   * CIL library *:* CIL module *
 0001:0002ce09       __ehhandler$??$heap_new@V?$thread_data@V?$bind_t@XV?$mf1@XVNav@@PA_N@_mfi@boost@@V?$list2@V?$value@PAVNav@@@_bi@boost@@V?$value@PA_N@23@@_bi@3@@_bi@boost@@@detail@boost@@V?$bind_t@XV?$mf1@XVNav@@PA_N@_mfi@boost@@V?$list2@V?$value@PAVNav@@@_bi@boost@@V?$value@PA_N@23@@_bi@3@@_bi@3@@detail@boost@@YAPAV?$thread_data@V?$bind_t@XV?$mf1@XVNav@@PA_N@_mfi@boost@@V?$list2@V?$value@PAVNav@@@_bi@boost@@V?$value@PA_N@23@@_bi@3@@_bi@boost@@@01@$$QAV?$bind_t@XV?$mf1@XVNav@@PA_N@_mfi@boost@@V?$list2@V?$value@PAVNav@@@_bi@boost@@V?$value@PA_N@23@@_bi@3@@_bi@1@@Z 1002de09 f   * CIL library *:* CIL module *
 0001:0002ce24       __unwindfunclet$??$heap_new@V?$thread_data@V?$bind_t@XV?$mf3@XVNav@@PAUJobInfo_t@@PAVNode@@PAV3@@_mfi@boost@@V?$list4@V?$value@PAVNav@@@_bi@boost@@V?$value@PAUJobInfo_t@@@23@V?$value@PAVNode@@@23@V523@@_bi@3@@_bi@boost@@@detail@boost@@V?$bind_t@XV?$mf3@XVNav@@PAUJobInfo_t@@PAVNode@@PAV3@@_mfi@boost@@V?$list4@V?$value@PAVNav@@@_bi@boost@@V?$value@PAUJobInfo_t@@@23@V?$value@PAVNode@@@23@V523@@_bi@3@@_bi@3@@detail@boost@@YAPAV?$thread_data@V?$bind_t@XV?$mf3@XVNav@@PAUJobInfo_t@@PAVNode@@PAV3@@_mfi@boost@@V?$list4@V?$value@PAVNav@@@_bi@boost@@V?$value@PAUJobInfo_t@@@23@V?$value@PAVNode@@@23@V523@@_bi@3@@_bi@boost@@@01@$$QAV?$bind_t@XV?$mf3@XVNav@@PAUJobInfo_t@@PAVNode@@PAV3@@_mfi@boost@@V?$list4@V?$value@PAVNav@@@_bi@boost@@V?$value@PAUJobInfo_t@@@23@V?$value@PAVNode@@@23@V523@@_bi@3@@_bi@1@@Z$2 1002de24 f   * CIL library *:* CIL module *
 0001:0002ce32       __ehhandler$??$heap_new@V?$thread_data@V?$bind_t@XV?$mf3@XVNav@@PAUJobInfo_t@@PAVNode@@PAV3@@_mfi@boost@@V?$list4@V?$value@PAVNav@@@_bi@boost@@V?$value@PAUJobInfo_t@@@23@V?$value@PAVNode@@@23@V523@@_bi@3@@_bi@boost@@@detail@boost@@V?$bind_t@XV?$mf3@XVNav@@PAUJobInfo_t@@PAVNode@@PAV3@@_mfi@boost@@V?$list4@V?$value@PAVNav@@@_bi@boost@@V?$value@PAUJobInfo_t@@@23@V?$value@PAVNode@@@23@V523@@_bi@3@@_bi@3@@detail@boost@@YAPAV?$thread_data@V?$bind_t@XV?$mf3@XVNav@@PAUJobInfo_t@@PAVNode@@PAV3@@_mfi@boost@@V?$list4@V?$value@PAVNav@@@_bi@boost@@V?$value@PAUJobInfo_t@@@23@V?$value@PAVNode@@@23@V523@@_bi@3@@_bi@boost@@@01@$$QAV?$bind_t@XV?$mf3@XVNav@@PAUJobInfo_t@@PAVNode@@PAV3@@_mfi@boost@@V?$list4@V?$value@PAVNav@@@_bi@boost@@V?$value@PAUJobInfo_t@@@23@V?$value@PAVNode@@@23@V523@@_bi@3@@_bi@1@@Z 1002de32 f   * CIL library *:* CIL module *
 0001:0002ce4d       __unwindfunclet$??$throw_exception@Vbad_alloc@std@@@boost@@YAXABVbad_alloc@std@@@Z$0 1002de4d f   * CIL library *:* CIL module *
 0001:0002ce55       __ehhandler$??$throw_exception@Vbad_alloc@std@@@boost@@YAXABVbad_alloc@std@@@Z 1002de55 f   * CIL library *:* CIL module *
 0001:0002ce70       __unwindfunclet$??$throw_exception@Vthread_resource_error@boost@@@boost@@YAXABVthread_resource_error@0@@Z$0 1002de70 f   * CIL library *:* CIL module *
 0001:0002ce78       __ehhandler$??$throw_exception@Vthread_resource_error@boost@@@boost@@YAXABVthread_resource_error@0@@Z 1002de78 f   * CIL library *:* CIL module *
 0001:0002ce96       __unwindfunclet$??0?$clone_impl@U?$error_info_injector@Vbad_alloc@std@@@exception_detail@boost@@@exception_detail@boost@@QAE@ABU?$error_info_injector@Vbad_alloc@std@@@12@@Z$0 1002de96 f   * CIL library *:* CIL module *
 0001:0002ce96       __unwindfunclet$??0?$clone_impl@U?$error_info_injector@Vbad_alloc@std@@@exception_detail@boost@@@exception_detail@boost@@AAE@ABV012@Uclone_tag@012@@Z$0 1002de96 f   * CIL library *:* CIL module *
 0001:0002ceb2       __unwindfunclet$??0?$clone_impl@U?$error_info_injector@Vbad_alloc@std@@@exception_detail@boost@@@exception_detail@boost@@QAE@ABU?$error_info_injector@Vbad_alloc@std@@@12@@Z$1 1002deb2 f   * CIL library *:* CIL module *
 0001:0002ceb2       __unwindfunclet$??0?$clone_impl@U?$error_info_injector@Vbad_alloc@std@@@exception_detail@boost@@@exception_detail@boost@@AAE@ABV012@Uclone_tag@012@@Z$1 1002deb2 f   * CIL library *:* CIL module *
 0001:0002ceba       __ehhandler$??0?$clone_impl@U?$error_info_injector@Vbad_alloc@std@@@exception_detail@boost@@@exception_detail@boost@@AAE@ABV012@Uclone_tag@012@@Z 1002deba f   * CIL library *:* CIL module *
 0001:0002ceba       __ehhandler$??0?$clone_impl@U?$error_info_injector@Vbad_alloc@std@@@exception_detail@boost@@@exception_detail@boost@@QAE@ABU?$error_info_injector@Vbad_alloc@std@@@12@@Z 1002deba f   * CIL library *:* CIL module *
 0001:0002ced5       __unwindfunclet$??0?$clone_impl@U?$error_info_injector@Vthread_resource_error@boost@@@exception_detail@boost@@@exception_detail@boost@@QAE@ABU?$error_info_injector@Vthread_resource_error@boost@@@12@@Z$0 1002ded5 f   * CIL library *:* CIL module *
 0001:0002ced5       __unwindfunclet$??0?$clone_impl@U?$error_info_injector@Vthread_resource_error@boost@@@exception_detail@boost@@@exception_detail@boost@@AAE@ABV012@Uclone_tag@012@@Z$0 1002ded5 f   * CIL library *:* CIL module *
 0001:0002cef1       __unwindfunclet$??0?$clone_impl@U?$error_info_injector@Vthread_resource_error@boost@@@exception_detail@boost@@@exception_detail@boost@@AAE@ABV012@Uclone_tag@012@@Z$1 1002def1 f   * CIL library *:* CIL module *
 0001:0002cef1       __unwindfunclet$??0?$clone_impl@U?$error_info_injector@Vthread_resource_error@boost@@@exception_detail@boost@@@exception_detail@boost@@QAE@ABU?$error_info_injector@Vthread_resource_error@boost@@@12@@Z$1 1002def1 f   * CIL library *:* CIL module *
 0001:0002cef9       __ehhandler$??0?$clone_impl@U?$error_info_injector@Vthread_resource_error@boost@@@exception_detail@boost@@@exception_detail@boost@@AAE@ABV012@Uclone_tag@012@@Z 1002def9 f   * CIL library *:* CIL module *
 0001:0002cef9       __ehhandler$??0?$clone_impl@U?$error_info_injector@Vthread_resource_error@boost@@@exception_detail@boost@@@exception_detail@boost@@QAE@ABU?$error_info_injector@Vthread_resource_error@boost@@@12@@Z 1002def9 f   * CIL library *:* CIL module *
 0001:0002cf14       __unwindfunclet$??0?$clone_impl@U?$error_info_injector@Vthread_resource_error@boost@@@exception_detail@boost@@@exception_detail@boost@@QAE@ABV012@@Z$0 1002df14 f   * CIL library *:* CIL module *
 0001:0002cf30       __ehhandler$??0?$clone_impl@U?$error_info_injector@Vthread_resource_error@boost@@@exception_detail@boost@@@exception_detail@boost@@QAE@ABV012@@Z 1002df30 f   * CIL library *:* CIL module *
 0001:0002cf4b       __unwindfunclet$??0?$error_info_injector@Vbad_alloc@std@@@exception_detail@boost@@QAE@ABU012@@Z$0 1002df4b f   * CIL library *:* CIL module *
 0001:0002cf53       __ehhandler$??0?$error_info_injector@Vbad_alloc@std@@@exception_detail@boost@@QAE@ABU012@@Z 1002df53 f   * CIL library *:* CIL module *
 0001:0002cf6e       __unwindfunclet$??0?$error_info_injector@Vbad_alloc@std@@@exception_detail@boost@@QAE@ABVbad_alloc@std@@@Z$0 1002df6e f   * CIL library *:* CIL module *
 0001:0002cf76       __ehhandler$??0?$error_info_injector@Vbad_alloc@std@@@exception_detail@boost@@QAE@ABVbad_alloc@std@@@Z 1002df76 f   * CIL library *:* CIL module *
 0001:0002cf91       __unwindfunclet$??0?$error_info_injector@Vthread_resource_error@boost@@@exception_detail@boost@@QAE@ABU012@@Z$0 1002df91 f   * CIL library *:* CIL module *
 0001:0002cf99       __ehhandler$??0?$error_info_injector@Vthread_resource_error@boost@@@exception_detail@boost@@QAE@ABU012@@Z 1002df99 f   * CIL library *:* CIL module *
 0001:0002cfb4       __unwindfunclet$??0?$error_info_injector@Vthread_resource_error@boost@@@exception_detail@boost@@QAE@ABVthread_resource_error@2@@Z$0 1002dfb4 f   * CIL library *:* CIL module *
 0001:0002cfbc       __ehhandler$??0?$error_info_injector@Vthread_resource_error@boost@@@exception_detail@boost@@QAE@ABVthread_resource_error@2@@Z 1002dfbc f   * CIL library *:* CIL module *
 0001:0002cfd7       __unwindfunclet$??0?$thread_data@V?$bind_t@XV?$mf3@XVNav@@PAUJobInfo_t@@PAVNode@@PAV3@@_mfi@boost@@V?$list4@V?$value@PAVNav@@@_bi@boost@@V?$value@PAUJobInfo_t@@@23@V?$value@PAVNode@@@23@V523@@_bi@3@@_bi@boost@@@detail@boost@@QAE@$$QAV?$bind_t@XV?$mf3@XVNav@@PAUJobInfo_t@@PAVNode@@PAV3@@_mfi@boost@@V?$list4@V?$value@PAVNav@@@_bi@boost@@V?$value@PAUJobInfo_t@@@23@V?$value@PAVNode@@@23@V523@@_bi@3@@_bi@2@@Z$0 1002dfd7 f   * CIL library *:* CIL module *
 0001:0002cfd7       __unwindfunclet$??0?$thread_data@V?$bind_t@XV?$mf1@XVNav@@PA_N@_mfi@boost@@V?$list2@V?$value@PAVNav@@@_bi@boost@@V?$value@PA_N@23@@_bi@3@@_bi@boost@@@detail@boost@@QAE@$$QAV?$bind_t@XV?$mf1@XVNav@@PA_N@_mfi@boost@@V?$list2@V?$value@PAVNav@@@_bi@boost@@V?$value@PA_N@23@@_bi@3@@_bi@2@@Z$0 1002dfd7 f   * CIL library *:* CIL module *
 0001:0002cfdf       __ehhandler$??0?$thread_data@V?$bind_t@XV?$mf3@XVNav@@PAUJobInfo_t@@PAVNode@@PAV3@@_mfi@boost@@V?$list4@V?$value@PAVNav@@@_bi@boost@@V?$value@PAUJobInfo_t@@@23@V?$value@PAVNode@@@23@V523@@_bi@3@@_bi@boost@@@detail@boost@@QAE@$$QAV?$bind_t@XV?$mf3@XVNav@@PAUJobInfo_t@@PAVNode@@PAV3@@_mfi@boost@@V?$list4@V?$value@PAVNav@@@_bi@boost@@V?$value@PAUJobInfo_t@@@23@V?$value@PAVNode@@@23@V523@@_bi@3@@_bi@2@@Z 1002dfdf f   * CIL library *:* CIL module *
 0001:0002cfdf       __ehhandler$??0?$thread_data@V?$bind_t@XV?$mf1@XVNav@@PA_N@_mfi@boost@@V?$list2@V?$value@PAVNav@@@_bi@boost@@V?$value@PA_N@23@@_bi@3@@_bi@boost@@@detail@boost@@QAE@$$QAV?$bind_t@XV?$mf1@XVNav@@PA_N@_mfi@boost@@V?$list2@V?$value@PAVNav@@@_bi@boost@@V?$value@PA_N@23@@_bi@3@@_bi@2@@Z 1002dfdf f   * CIL library *:* CIL module *
 0001:0002cffa       __unwindfunclet$??0Nav@@QAE@H@Z$0 1002dffa f   * CIL library *:* CIL module *
 0001:0002d006       __unwindfunclet$??0Nav@@QAE@H@Z$1 1002e006 f   * CIL library *:* CIL module *
 0001:0002d011       __unwindfunclet$??0Nav@@QAE@H@Z$2 1002e011 f   * CIL library *:* CIL module *
 0001:0002d01c       __unwindfunclet$??0Nav@@QAE@H@Z$3 1002e01c f   * CIL library *:* CIL module *
 0001:0002d02a       __unwindfunclet$??0Nav@@QAE@H@Z$4 1002e02a f   * CIL library *:* CIL module *
 0001:0002d038       __unwindfunclet$??0Nav@@QAE@H@Z$5 1002e038 f   * CIL library *:* CIL module *
 0001:0002d046       __ehhandler$??0Nav@@QAE@H@Z 1002e046 f   * CIL library *:* CIL module *
 0001:0002d061       __unwindfunclet$??0system_error@system@boost@@QAE@Verror_code@12@PBD@Z$0 1002e061 f   * CIL library *:* CIL module *
 0001:0002d061       __unwindfunclet$??0system_error@system@boost@@QAE@ABV012@@Z$0 1002e061 f   * CIL library *:* CIL module *
 0001:0002d061       __unwindfunclet$??0?$error_info_injector@Vruntime_error@std@@@exception_detail@boost@@QAE@ABVruntime_error@std@@@Z$0 1002e061 f   * CIL library *:* CIL module *
 0001:0002d069       __ehhandler$??0system_error@system@boost@@QAE@Verror_code@12@PBD@Z 1002e069 f   * CIL library *:* CIL module *
 0001:0002d069       __ehhandler$??0system_error@system@boost@@QAE@ABV012@@Z 1002e069 f   * CIL library *:* CIL module *
 0001:0002d069       __ehhandler$??0?$error_info_injector@Vruntime_error@std@@@exception_detail@boost@@QAE@ABVruntime_error@std@@@Z 1002e069 f   * CIL library *:* CIL module *
 0001:0002d084       __unwindfunclet$??0thread_data_base@detail@boost@@QAE@XZ$0 1002e084 f   * CIL library *:* CIL module *
 0001:0002d08f       __unwindfunclet$??0thread_data_base@detail@boost@@QAE@XZ$1 1002e08f f   * CIL library *:* CIL module *
 0001:0002d09a       __unwindfunclet$??0thread_data_base@detail@boost@@QAE@XZ$2 1002e09a f   * CIL library *:* CIL module *
 0001:0002d0a5       __ehhandler$??0thread_data_base@detail@boost@@QAE@XZ 1002e0a5 f   * CIL library *:* CIL module *
 0001:0002d0c0       __unwindfunclet$??0?$CUtlVector@PAUBorder@@V?$CUtlMemory@PAUBorder@@H@@@@QAE@HH@Z$0 1002e0c0 f   * CIL library *:* CIL module *
 0001:0002d0c0       __unwindfunclet$??0?$CUtlVector@ULuaKeyValue@@V?$CUtlMemory@ULuaKeyValue@@H@@@@QAE@HH@Z$0 1002e0c0 f   * CIL library *:* CIL module *
 0001:0002d0c0       __unwindfunclet$??1?$CUtlVector@PAVNode@@V?$CUtlMemory@PAVNode@@H@@@@QAE@XZ$0 1002e0c0 f   * CIL library *:* CIL module *
 0001:0002d0c0       __unwindfunclet$??1?$CUtlVector@PAUJobInfo_t@@V?$CUtlMemory@PAUJobInfo_t@@H@@@@QAE@XZ$0 1002e0c0 f   * CIL library *:* CIL module *
 0001:0002d0c0       __unwindfunclet$??1?$CUtlVector@ULuaKeyValue@@V?$CUtlMemory@ULuaKeyValue@@H@@@@QAE@XZ$0 1002e0c0 f   * CIL library *:* CIL module *
 0001:0002d0c0       __unwindfunclet$??0?$CUtlVector@PAVNode@@V?$CUtlMemory@PAVNode@@H@@@@QAE@HH@Z$0 1002e0c0 f   * CIL library *:* CIL module *
 0001:0002d0c0       __unwindfunclet$??1?$CUtlLinkedList@UGroundSeedSpot@@H$0A@HV?$CUtlMemory@U?$UtlLinkedListElem_t@UGroundSeedSpot@@H@@H@@@@QAE@XZ$0 1002e0c0 f   * CIL library *:* CIL module *
 0001:0002d0c0       __unwindfunclet$??0?$CUtlLinkedList@UGroundSeedSpot@@H$0A@HV?$CUtlMemory@U?$UtlLinkedListElem_t@UGroundSeedSpot@@H@@H@@@@QAE@HH@Z$0 1002e0c0 f   * CIL library *:* CIL module *
 0001:0002d0c0       __unwindfunclet$??0?$CUtlLinkedList@UAirSeedSpot@@H$0A@HV?$CUtlMemory@U?$UtlLinkedListElem_t@UAirSeedSpot@@H@@H@@@@QAE@HH@Z$0 1002e0c0 f   * CIL library *:* CIL module *
 0001:0002d0c0       __unwindfunclet$??1?$CUtlLinkedList@UAirSeedSpot@@H$0A@HV?$CUtlMemory@U?$UtlLinkedListElem_t@UAirSeedSpot@@H@@H@@@@QAE@XZ$0 1002e0c0 f   * CIL library *:* CIL module *
 0001:0002d0c0       __unwindfunclet$??1?$CUtlVector@PAUBorder@@V?$CUtlMemory@PAUBorder@@H@@@@QAE@XZ$0 1002e0c0 f   * CIL library *:* CIL module *
 0001:0002d0c0       __unwindfunclet$??0?$CUtlVector@PAUJobInfo_t@@V?$CUtlMemory@PAUJobInfo_t@@H@@@@QAE@HH@Z$0 1002e0c0 f   * CIL library *:* CIL module *
 0001:0002d0c8       __ehhandler$??1?$CUtlLinkedList@UGroundSeedSpot@@H$0A@HV?$CUtlMemory@U?$UtlLinkedListElem_t@UGroundSeedSpot@@H@@H@@@@QAE@XZ 1002e0c8 f   * CIL library *:* CIL module *
 0001:0002d0c8       __ehhandler$??0?$CUtlVector@PAVNode@@V?$CUtlMemory@PAVNode@@H@@@@QAE@HH@Z 1002e0c8 f   * CIL library *:* CIL module *
 0001:0002d0c8       __ehhandler$??0?$CUtlLinkedList@UAirSeedSpot@@H$0A@HV?$CUtlMemory@U?$UtlLinkedListElem_t@UAirSeedSpot@@H@@H@@@@QAE@HH@Z 1002e0c8 f   * CIL library *:* CIL module *
 0001:0002d0c8       __ehhandler$??1?$CUtlVector@ULuaKeyValue@@V?$CUtlMemory@ULuaKeyValue@@H@@@@QAE@XZ 1002e0c8 f   * CIL library *:* CIL module *
 0001:0002d0c8       __ehhandler$??1?$CUtlLinkedList@UAirSeedSpot@@H$0A@HV?$CUtlMemory@U?$UtlLinkedListElem_t@UAirSeedSpot@@H@@H@@@@QAE@XZ 1002e0c8 f   * CIL library *:* CIL module *
 0001:0002d0c8       __ehhandler$??0?$CUtlLinkedList@UGroundSeedSpot@@H$0A@HV?$CUtlMemory@U?$UtlLinkedListElem_t@UGroundSeedSpot@@H@@H@@@@QAE@HH@Z 1002e0c8 f   * CIL library *:* CIL module *
 0001:0002d0c8       __ehhandler$??0?$CUtlVector@PAUBorder@@V?$CUtlMemory@PAUBorder@@H@@@@QAE@HH@Z 1002e0c8 f   * CIL library *:* CIL module *
 0001:0002d0c8       __ehhandler$??0?$CUtlVector@ULuaKeyValue@@V?$CUtlMemory@ULuaKeyValue@@H@@@@QAE@HH@Z 1002e0c8 f   * CIL library *:* CIL module *
 0001:0002d0c8       __ehhandler$??1?$CUtlVector@PAUBorder@@V?$CUtlMemory@PAUBorder@@H@@@@QAE@XZ 1002e0c8 f   * CIL library *:* CIL module *
 0001:0002d0c8       __ehhandler$??0?$CUtlVector@PAUJobInfo_t@@V?$CUtlMemory@PAUJobInfo_t@@H@@@@QAE@HH@Z 1002e0c8 f   * CIL library *:* CIL module *
 0001:0002d0c8       __ehhandler$??1?$CUtlVector@PAVNode@@V?$CUtlMemory@PAVNode@@H@@@@QAE@XZ 1002e0c8 f   * CIL library *:* CIL module *
 0001:0002d0c8       __ehhandler$??1?$CUtlVector@PAUJobInfo_t@@V?$CUtlMemory@PAUJobInfo_t@@H@@@@QAE@XZ 1002e0c8 f   * CIL library *:* CIL module *
 0001:0002d0e3       __unwindfunclet$?AddNode@Nav@@QAEPAVNode@@ABVVector@@0W4NavDirType@@PAV2@@Z$0 1002e0e3 f   * CIL library *:* CIL module *
 0001:0002d0ed       __ehhandler$?AddNode@Nav@@QAEPAVNode@@ABVVector@@0W4NavDirType@@PAV2@@Z 1002e0ed f   * CIL library *:* CIL module *
 0001:0002d108       __unwindfunclet$?GenerateQueue@Nav@@QAEXPAUJobInfo_t@@@Z$0 1002e108 f   * CIL library *:* CIL module *
 0001:0002d108       __unwindfunclet$?FindPathQueue@Nav@@QAEXPAUJobInfo_t@@@Z$0 1002e108 f   * CIL library *:* CIL module *
 0001:0002d110       __ehhandler$?FindPathQueue@Nav@@QAEXPAUJobInfo_t@@@Z 1002e110 f   * CIL library *:* CIL module *
 0001:0002d110       __ehhandler$?GenerateQueue@Nav@@QAEXPAUJobInfo_t@@@Z 1002e110 f   * CIL library *:* CIL module *
 0001:0002d12b       __unwindfunclet$?Flood@Nav@@QAEXPAUlua_State@@PAV?$CUtlVector@ULuaKeyValue@@V?$CUtlMemory@ULuaKeyValue@@H@@@@@Z$0 1002e12b f   * CIL library *:* CIL module *
 0001:0002d136       __unwindfunclet$?Flood@Nav@@QAEXPAUlua_State@@PAV?$CUtlVector@ULuaKeyValue@@V?$CUtlMemory@ULuaKeyValue@@H@@@@@Z$1 1002e136 f   * CIL library *:* CIL module *
 0001:0002d13e       __ehhandler$?Flood@Nav@@QAEXPAUlua_State@@PAV?$CUtlVector@ULuaKeyValue@@V?$CUtlMemory@ULuaKeyValue@@H@@@@@Z 1002e13e f   * CIL library *:* CIL module *
 0001:0002d15c       __unwindfunclet$?GetNextAirSeedNode@Nav@@QAEPAVNode@@XZ$0 1002e15c f   * CIL library *:* CIL module *
 0001:0002d15c       __unwindfunclet$?GetNextGroundSeedNode@Nav@@QAEPAVNode@@XZ$0 1002e15c f   * CIL library *:* CIL module *
 0001:0002d166       __ehhandler$?GetNextGroundSeedNode@Nav@@QAEPAVNode@@XZ 1002e166 f   * CIL library *:* CIL module *
 0001:0002d166       __ehhandler$?GetNextAirSeedNode@Nav@@QAEPAVNode@@XZ 1002e166 f   * CIL library *:* CIL module *
 0001:0002d181       __unwindfunclet$?Load@Nav@@QAE_NPBD@Z$0 1002e181 f   * CIL library *:* CIL module *
 0001:0002d18c       __unwindfunclet$?Load@Nav@@QAE_NPBD@Z$1 1002e18c f   * CIL library *:* CIL module *
 0001:0002d197       __unwindfunclet$?Load@Nav@@QAE_NPBD@Z$2 1002e197 f   * CIL library *:* CIL module *
 0001:0002d1a4       __ehhandler$?Load@Nav@@QAE_NPBD@Z 1002e1a4 f   * CIL library *:* CIL module *
 0001:0002d1cc       __unwindfunclet$?Save@Nav@@QAE_NPBD@Z$0 1002e1cc f   * CIL library *:* CIL module *
 0001:0002d1d4       __ehhandler$?Save@Nav@@QAE_NPBD@Z 1002e1d4 f   * CIL library *:* CIL module *
 0001:0002d1ef       __ehhandler$?_Buyheadnode@?$_Tree_alloc@$0A@U?$_Tree_base_types@U?$pair@QBXUtss_data_node@detail@boost@@@std@@V?$allocator@U?$pair@QBXUtss_data_node@detail@boost@@@std@@@2@@std@@@std@@QAEPAU?$_Tree_node@U?$pair@QBXUtss_data_node@detail@boost@@@std@@PAX@2@XZ 1002e1ef f   * CIL library *:* CIL module *
 0001:0002d20a       __unwindfunclet$?allocate_raw_heap_memory@detail@boost@@YAPAXI@Z$0 1002e20a f   * CIL library *:* CIL module *
 0001:0002d212       __ehhandler$?allocate_raw_heap_memory@detail@boost@@YAPAXI@Z 1002e212 f   * CIL library *:* CIL module *
 0001:0002d22d       __unwindfunclet$?create_anonymous_event@win32@detail@boost@@YAPAXW4event_type@123@W4initial_event_state@123@@Z$0 1002e22d f   * CIL library *:* CIL module *
 0001:0002d235       __ehhandler$?create_anonymous_event@win32@detail@boost@@YAPAXW4event_type@123@W4initial_event_state@123@@Z 1002e235 f   * CIL library *:* CIL module *
 0001:0002d25a       __unwindfunclet$??4?$intrusive_ptr@Uthread_data_base@detail@boost@@@boost@@QAEAAV01@ABV01@@Z$0 1002e25a f   * CIL library *:* CIL module *
 0001:0002d25a       __unwindfunclet$?reset@?$intrusive_ptr@Uthread_data_base@detail@boost@@@boost@@QAEXXZ$0 1002e25a f   * CIL library *:* CIL module *
 0001:0002d262       __ehhandler$?reset@?$intrusive_ptr@Uthread_data_base@detail@boost@@@boost@@QAEXXZ 1002e262 f   * CIL library *:* CIL module *
 0001:0002d262       __ehhandler$??4?$intrusive_ptr@Uthread_data_base@detail@boost@@@boost@@QAEAAV01@ABV01@@Z 1002e262 f   * CIL library *:* CIL module *
 0001:0002d27d       __unwindfunclet$?what@system_error@system@boost@@UBEPBDXZ$2 1002e27d f   * CIL library *:* CIL module *
 0001:0002d285       __ehhandler$?what@system_error@system@boost@@UBEPBDXZ 1002e285 f   * CIL library *:* CIL module *
 0001:0002d2b0       ??__Evec2_origin@@YAXXZ    1002e2b0 f   * CIL library *:* CIL module *
 0001:0002d2db       ??__Evec2_invalid@@YAXXZ   1002e2db f   * CIL library *:* CIL module *
 0001:0002d306       ??__Evec2_origin@@YAXXZ    1002e306 f   * CIL library *:* CIL module *
 0001:0002d331       ??__Evec2_invalid@@YAXXZ   1002e331 f   * CIL library *:* CIL module *
 0001:0002d35c       ??__Epiecewise_construct@std@@YAXXZ 1002e35c f   * CIL library *:* CIL module *
 0001:0002d367       ??__Eallocator_arg@std@@YAXXZ 1002e367 f   * CIL library *:* CIL module *
 0001:0002d372       ??__Emodulemanager@@YAXXZ  1002e372 f   * CIL library *:* CIL module *
 0001:0002d3dc       ??__Evec2_origin@@YAXXZ    1002e3dc f   * CIL library *:* CIL module *
 0001:0002d407       ??__Evec2_invalid@@YAXXZ   1002e407 f   * CIL library *:* CIL module *
 0001:0002d432       ??__Epiecewise_construct@std@@YAXXZ 1002e432 f   * CIL library *:* CIL module *
 0001:0002d43d       ??__Eallocator_arg@std@@YAXXZ 1002e43d f   * CIL library *:* CIL module *
 0001:0002d448       ??__E?_Generic_object@?$_Error_objects@H@std@@2V_Generic_error_category@2@A@@YAXXZ 1002e448 f   * CIL library *:* CIL module *
 0001:0002d462       ??__E?_Iostream_object@?$_Error_objects@H@std@@2V_Iostream_error_category@2@A@@YAXXZ 1002e462 f   * CIL library *:* CIL module *
 0001:0002d47c       ??__E?_System_object@?$_Error_objects@H@std@@2V_System_error_category@2@A@@YAXXZ 1002e47c f   * CIL library *:* CIL module *
 0001:0002d496       ??__E?id@?$num_put@DV?$back_insert_iterator@V?$basic_string@DU?$char_traits@D@std@@V?$allocator@D@2@@std@@@std@@@std@@2V0locale@2@A@@YAXXZ 1002e496 f   * CIL library *:* CIL module *
 0001:0002d4a7       ??__E?id@?$num_put@_WV?$back_insert_iterator@V?$basic_string@_WU?$char_traits@_W@std@@V?$allocator@_W@2@@std@@@std@@@std@@2V0locale@2@A@@YAXXZ 1002e4a7 f   * CIL library *:* CIL module *
 0001:0002d4b8       ??__E?id@?$numpunct@D@std@@2V0locale@2@A@@YAXXZ 1002e4b8 f   * CIL library *:* CIL module *
 0001:0002d4c9       ??__E?id@?$numpunct@_W@std@@2V0locale@2@A@@YAXXZ 1002e4c9 f   * CIL library *:* CIL module *
 0001:0002d4da       ??__Evec2_origin@@YAXXZ    1002e4da f   * CIL library *:* CIL module *
 0001:0002d505       ??__Evec2_invalid@@YAXXZ   1002e505 f   * CIL library *:* CIL module *
 0001:0002d530       ??__Evec4_origin@@YAXXZ    1002e530 f   * CIL library *:* CIL module *
 0001:0002d577       ??__Evec4_invalid@@YAXXZ   1002e577 f   * CIL library *:* CIL module *
 0001:0002d5be       ??__Epiecewise_construct@std@@YAXXZ 1002e5be f   * CIL library *:* CIL module *
 0001:0002d5c9       ??__Eallocator_arg@std@@YAXXZ 1002e5c9 f   * CIL library *:* CIL module *
 0001:0002d5d4       ??__Eignore@std@@YAXXZ     1002e5d4 f   * CIL library *:* CIL module *
 0001:0002d5e3       ??__E_Tuple_alloc@std@@YAXXZ 1002e5e3 f   * CIL library *:* CIL module *
 0001:0002d5ee       ??__Eposix_category@system@boost@@YAXXZ 1002e5ee f   * CIL library *:* CIL module *
 0001:0002d5fd       ??__Eerrno_ecat@system@boost@@YAXXZ 1002e5fd f   * CIL library *:* CIL module *
 0001:0002d60c       ??__Enative_ecat@system@boost@@YAXXZ 1002e60c f   * CIL library *:* CIL module *
 0001:0002d61b       ??__E_1@?A0x365863d8@@YAXXZ 1002e61b f   * CIL library *:* CIL module *
 0001:0002d62a       ??__E_2@?A0x365863d8@@YAXXZ 1002e62a f   * CIL library *:* CIL module *
 0001:0002d639       ??__E_3@?A0x365863d8@@YAXXZ 1002e639 f   * CIL library *:* CIL module *
 0001:0002d648       ??__E_4@?A0x365863d8@@YAXXZ 1002e648 f   * CIL library *:* CIL module *
 0001:0002d657       ??__E_5@?A0x365863d8@@YAXXZ 1002e657 f   * CIL library *:* CIL module *
 0001:0002d666       ??__E_6@?A0x365863d8@@YAXXZ 1002e666 f   * CIL library *:* CIL module *
 0001:0002d675       ??__E_7@?A0x365863d8@@YAXXZ 1002e675 f   * CIL library *:* CIL module *
 0001:0002d684       ??__E_8@?A0x365863d8@@YAXXZ 1002e684 f   * CIL library *:* CIL module *
 0001:0002d693       ??__E_9@?A0x365863d8@@YAXXZ 1002e693 f   * CIL library *:* CIL module *
 0001:0002d6a2       ??__Evector_origin@@YAXXZ  1002e6a2 f   * CIL library *:* CIL module *
 0001:0002d6db       ??__EJobQueue@@YAXXZ       1002e6db f   * CIL library *:* CIL module *
 0001:0002d6f9       ??__Etimeout@@YAXXZ        1002e6f9 f   * CIL library *:* CIL module *
 0001:0002d717       ??__Esleep_time@@YAXXZ     1002e717 f   * CIL library *:* CIL module *
 0001:0002d735       ??__Evec2_origin@@YAXXZ    1002e735 f   * CIL library *:* CIL module *
 0001:0002d760       ??__Evec2_invalid@@YAXXZ   1002e760 f   * CIL library *:* CIL module *
 0001:0002d78b       ??__Epiecewise_construct@std@@YAXXZ 1002e78b f   * CIL library *:* CIL module *
 0001:0002d796       ??__Eallocator_arg@std@@YAXXZ 1002e796 f   * CIL library *:* CIL module *
 0001:0002d7a1       ??__Eignore@std@@YAXXZ     1002e7a1 f   * CIL library *:* CIL module *
 0001:0002d7b0       ??__E_Tuple_alloc@std@@YAXXZ 1002e7b0 f   * CIL library *:* CIL module *
 0001:0002d7bb       ??__Eposix_category@system@boost@@YAXXZ 1002e7bb f   * CIL library *:* CIL module *
 0001:0002d7ca       ??__Eerrno_ecat@system@boost@@YAXXZ 1002e7ca f   * CIL library *:* CIL module *
 0001:0002d7d9       ??__Enative_ecat@system@boost@@YAXXZ 1002e7d9 f   * CIL library *:* CIL module *
 0001:0002d7e8       ??__E_1@?A0x58ce2dbb@@YAXXZ 1002e7e8 f   * CIL library *:* CIL module *
 0001:0002d7f7       ??__E_2@?A0x58ce2dbb@@YAXXZ 1002e7f7 f   * CIL library *:* CIL module *
 0001:0002d806       ??__E_3@?A0x58ce2dbb@@YAXXZ 1002e806 f   * CIL library *:* CIL module *
 0001:0002d815       ??__E_4@?A0x58ce2dbb@@YAXXZ 1002e815 f   * CIL library *:* CIL module *
 0001:0002d824       ??__E_5@?A0x58ce2dbb@@YAXXZ 1002e824 f   * CIL library *:* CIL module *
 0001:0002d833       ??__E_6@?A0x58ce2dbb@@YAXXZ 1002e833 f   * CIL library *:* CIL module *
 0001:0002d842       ??__E_7@?A0x58ce2dbb@@YAXXZ 1002e842 f   * CIL library *:* CIL module *
 0001:0002d851       ??__E_8@?A0x58ce2dbb@@YAXXZ 1002e851 f   * CIL library *:* CIL module *
 0001:0002d860       ??__E_9@?A0x58ce2dbb@@YAXXZ 1002e860 f   * CIL library *:* CIL module *
 0001:0002d86f       ??__Evec4_origin@@YAXXZ    1002e86f f   * CIL library *:* CIL module *
 0001:0002d8b6       ??__Evec4_invalid@@YAXXZ   1002e8b6 f   * CIL library *:* CIL module *
 0001:0002d8fd       ??__Evector_origin@@YAXXZ  1002e8fd f   * CIL library *:* CIL module *
 0001:0002d936       ??__Evec2_origin@@YAXXZ    1002e936 f   * CIL library *:* CIL module *
 0001:0002d961       ??__Evec2_invalid@@YAXXZ   1002e961 f   * CIL library *:* CIL module *
 0001:0002d98c       ??__Epiecewise_construct@std@@YAXXZ 1002e98c f   * CIL library *:* CIL module *
 0001:0002d997       ??__Eallocator_arg@std@@YAXXZ 1002e997 f   * CIL library *:* CIL module *
 0001:0002d9a2       ??__Eignore@std@@YAXXZ     1002e9a2 f   * CIL library *:* CIL module *
 0001:0002d9b1       ??__E_Tuple_alloc@std@@YAXXZ 1002e9b1 f   * CIL library *:* CIL module *
 0001:0002d9bc       ??__Eposix_category@system@boost@@YAXXZ 1002e9bc f   * CIL library *:* CIL module *
 0001:0002d9cb       ??__Eerrno_ecat@system@boost@@YAXXZ 1002e9cb f   * CIL library *:* CIL module *
 0001:0002d9da       ??__Enative_ecat@system@boost@@YAXXZ 1002e9da f   * CIL library *:* CIL module *
 0001:0002d9e9       ??__E_1@?A0x114fdc2c@@YAXXZ 1002e9e9 f   * CIL library *:* CIL module *
 0001:0002d9f8       ??__E_2@?A0x114fdc2c@@YAXXZ 1002e9f8 f   * CIL library *:* CIL module *
 0001:0002da07       ??__E_3@?A0x114fdc2c@@YAXXZ 1002ea07 f   * CIL library *:* CIL module *
 0001:0002da16       ??__E_4@?A0x114fdc2c@@YAXXZ 1002ea16 f   * CIL library *:* CIL module *
 0001:0002da25       ??__E_5@?A0x114fdc2c@@YAXXZ 1002ea25 f   * CIL library *:* CIL module *
 0001:0002da34       ??__E_6@?A0x114fdc2c@@YAXXZ 1002ea34 f   * CIL library *:* CIL module *
 0001:0002da43       ??__E_7@?A0x114fdc2c@@YAXXZ 1002ea43 f   * CIL library *:* CIL module *
 0001:0002da52       ??__E_8@?A0x114fdc2c@@YAXXZ 1002ea52 f   * CIL library *:* CIL module *
 0001:0002da61       ??__E_9@?A0x114fdc2c@@YAXXZ 1002ea61 f   * CIL library *:* CIL module *
 0001:0002da70       ??__Es_StringCharConversion@@YAXXZ 1002ea70 f   tier1:utlbuffer.obj
 0001:0002dad0       ??__Es_NoEscConversion@@YAXXZ 1002ead0 f   tier1:utlbuffer.obj
 0001:0002db00       ??__Epiecewise_construct@std@@YAXXZ 1002eb00 f   libboost_thread-vc110-mt-s-1_52:tss_pe.obj
 0001:0002db10       ??__Eerrno_ecat@system@boost@@YAXXZ 1002eb10 f   libboost_system-vc110-mt-s-1_52:error_code.obj
 0001:0002db80       ??__Enative_ecat@system@boost@@YAXXZ 1002eb80 f   libboost_system-vc110-mt-s-1_52:error_code.obj
 0001:0002dbf0       ??__Eposix_category@system@boost@@YAXXZ 1002ebf0 f   libboost_system-vc110-mt-s-1_52:error_code.obj
 0001:0002dc60       ??__Ethrows@system@boost@@YAXXZ 1002ec60 f   libboost_system-vc110-mt-s-1_52:error_code.obj
 0001:0002dcd0       ??__F?_System_object@?$_Error_objects@H@std@@2V_System_error_category@2@A@@YAXXZ 1002ecd0 f   * CIL library *:* CIL module *
 0001:0002dcdf       ??__F?_Iostream_object@?$_Error_objects@H@std@@2V_Iostream_error_category@2@A@@YAXXZ 1002ecdf f   * CIL library *:* CIL module *
 0001:0002dcee       ??__F?_Generic_object@?$_Error_objects@H@std@@2V_Generic_error_category@2@A@@YAXXZ 1002ecee f   * CIL library *:* CIL module *
 0001:0002dcfd       ??__FJobQueue@@YAXXZ       1002ecfd f   * CIL library *:* CIL module *
 0001:0002dd10       ??__Fgeneric_category_const@?1??generic_category@system@boost@@YAABVerror_category@12@XZ@YAXXZ 1002ed10 f   libboost_system-vc110-mt-s-1_52:error_code.obj
 0001:0002dd20       ??__Fsystem_category_const@?1??system_category@system@boost@@YAABVerror_category@12@XZ@YAXXZ 1002ed20 f   libboost_system-vc110-mt-s-1_52:error_code.obj
 0001:0002dd30       ??__Funknown_err@?1??message@generic_error_category@?A0xe218785f@@UBE?AV?$basic_string@DU?$char_traits@D@std@@V?$allocator@D@2@@std@@H@Z@YAXXZ 1002ed30 f   libboost_system-vc110-mt-s-1_52:error_code.obj
 0002:00000188       _s_StringCharConversion$initializer$ 1002f188     tier1:utlbuffer.obj
 0002:0000018c       _s_NoEscConversion$initializer$ 1002f18c     tier1:utlbuffer.obj
 0002:00000190       _piecewise_construct$initializer$ 1002f190     libboost_thread-vc110-mt-s-1_52:tss_pe.obj
 0002:00000198       _posix_category$initializer$ 1002f198     libboost_system-vc110-mt-s-1_52:error_code.obj
 0002:0000019c       _errno_ecat$initializer$   1002f19c     libboost_system-vc110-mt-s-1_52:error_code.obj
 0002:000001a0       _native_ecat$initializer$  1002f1a0     libboost_system-vc110-mt-s-1_52:error_code.obj
 0002:000001a4       _throws$initializer$       1002f1a4     libboost_system-vc110-mt-s-1_52:error_code.obj
 0002:000001a8       _vec2_origin$initializer$  1002f1a8     * CIL library *:* CIL module *
 0002:000001ac       _vec2_invalid$initializer$ 1002f1ac     * CIL library *:* CIL module *
 0002:000001b0       _vec2_origin$initializer$  1002f1b0     * CIL library *:* CIL module *
 0002:000001b4       _vec2_invalid$initializer$ 1002f1b4     * CIL library *:* CIL module *
 0002:000001b8       _piecewise_construct$initializer$ 1002f1b8     * CIL library *:* CIL module *
 0002:000001bc       _allocator_arg$initializer$ 1002f1bc     * CIL library *:* CIL module *
 0002:000001c0       _modulemanager$initializer$ 1002f1c0     * CIL library *:* CIL module *
 0002:000001c4       _vec2_origin$initializer$  1002f1c4     * CIL library *:* CIL module *
 0002:000001c8       _vec2_invalid$initializer$ 1002f1c8     * CIL library *:* CIL module *
 0002:000001cc       _piecewise_construct$initializer$ 1002f1cc     * CIL library *:* CIL module *
 0002:000001d0       _allocator_arg$initializer$ 1002f1d0     * CIL library *:* CIL module *
 0002:000001d4       ?_Generic_object$initializer$@?$_Error_objects@H@std@@2P6AXXZA 1002f1d4     * CIL library *:* CIL module *
 0002:000001d8       ?_Iostream_object$initializer$@?$_Error_objects@H@std@@2P6AXXZA 1002f1d8     * CIL library *:* CIL module *
 0002:000001dc       ?_System_object$initializer$@?$_Error_objects@H@std@@2P6AXXZA 1002f1dc     * CIL library *:* CIL module *
 0002:000001e0       ?id$initializer$@?$num_put@DV?$back_insert_iterator@V?$basic_string@DU?$char_traits@D@std@@V?$allocator@D@2@@std@@@std@@@std@@2P6AXXZA 1002f1e0     * CIL library *:* CIL module *
 0002:000001e4       ?id$initializer$@?$num_put@_WV?$back_insert_iterator@V?$basic_string@_WU?$char_traits@_W@std@@V?$allocator@_W@2@@std@@@std@@@std@@2P6AXXZA 1002f1e4     * CIL library *:* CIL module *
 0002:000001e8       ?id$initializer$@?$numpunct@D@std@@2P6AXXZA 1002f1e8     * CIL library *:* CIL module *
 0002:000001ec       ?id$initializer$@?$numpunct@_W@std@@2P6AXXZA 1002f1ec     * CIL library *:* CIL module *
 0002:000001f0       _vec2_origin$initializer$  1002f1f0     * CIL library *:* CIL module *
 0002:000001f4       _vec2_invalid$initializer$ 1002f1f4     * CIL library *:* CIL module *
 0002:000001f8       _vec4_origin$initializer$  1002f1f8     * CIL library *:* CIL module *
 0002:000001fc       _vec4_invalid$initializer$ 1002f1fc     * CIL library *:* CIL module *
 0002:00000200       _piecewise_construct$initializer$ 1002f200     * CIL library *:* CIL module *
 0002:00000204       _allocator_arg$initializer$ 1002f204     * CIL library *:* CIL module *
 0002:00000208       _ignore$initializer$       1002f208     * CIL library *:* CIL module *
 0002:0000020c       __Tuple_alloc$initializer$ 1002f20c     * CIL library *:* CIL module *
 0002:00000210       _posix_category$initializer$ 1002f210     * CIL library *:* CIL module *
 0002:00000214       _errno_ecat$initializer$   1002f214     * CIL library *:* CIL module *
 0002:00000218       _native_ecat$initializer$  1002f218     * CIL library *:* CIL module *
 0002:0000021c       __1$initializer$           1002f21c     * CIL library *:* CIL module *
 0002:00000220       __2$initializer$           1002f220     * CIL library *:* CIL module *
 0002:00000224       __3$initializer$           1002f224     * CIL library *:* CIL module *
 0002:00000228       __4$initializer$           1002f228     * CIL library *:* CIL module *
 0002:0000022c       __5$initializer$           1002f22c     * CIL library *:* CIL module *
 0002:00000230       __6$initializer$           1002f230     * CIL library *:* CIL module *
 0002:00000234       __7$initializer$           1002f234     * CIL library *:* CIL module *
 0002:00000238       __8$initializer$           1002f238     * CIL library *:* CIL module *
 0002:0000023c       __9$initializer$           1002f23c     * CIL library *:* CIL module *
 0002:00000240       _vector_origin$initializer$ 1002f240     * CIL library *:* CIL module *
 0002:00000244       _JobQueue$initializer$     1002f244     * CIL library *:* CIL module *
 0002:00000248       _timeout$initializer$      1002f248     * CIL library *:* CIL module *
 0002:0000024c       _sleep_time$initializer$   1002f24c     * CIL library *:* CIL module *
 0002:00000250       _vec2_origin$initializer$  1002f250     * CIL library *:* CIL module *
 0002:00000254       _vec2_invalid$initializer$ 1002f254     * CIL library *:* CIL module *
 0002:00000258       _piecewise_construct$initializer$ 1002f258     * CIL library *:* CIL module *
 0002:0000025c       _allocator_arg$initializer$ 1002f25c     * CIL library *:* CIL module *
 0002:00000260       _ignore$initializer$       1002f260     * CIL library *:* CIL module *
 0002:00000264       __Tuple_alloc$initializer$ 1002f264     * CIL library *:* CIL module *
 0002:00000268       _posix_category$initializer$ 1002f268     * CIL library *:* CIL module *
 0002:0000026c       _errno_ecat$initializer$   1002f26c     * CIL library *:* CIL module *
 0002:00000270       _native_ecat$initializer$  1002f270     * CIL library *:* CIL module *
 0002:00000274       __1$initializer$           1002f274     * CIL library *:* CIL module *
 0002:00000278       __2$initializer$           1002f278     * CIL library *:* CIL module *
 0002:0000027c       __3$initializer$           1002f27c     * CIL library *:* CIL module *
 0002:00000280       __4$initializer$           1002f280     * CIL library *:* CIL module *
 0002:00000284       __5$initializer$           1002f284     * CIL library *:* CIL module *
 0002:00000288       __6$initializer$           1002f288     * CIL library *:* CIL module *
 0002:0000028c       __7$initializer$           1002f28c     * CIL library *:* CIL module *
 0002:00000290       __8$initializer$           1002f290     * CIL library *:* CIL module *
 0002:00000294       __9$initializer$           1002f294     * CIL library *:* CIL module *
 0002:00000298       _vec4_origin$initializer$  1002f298     * CIL library *:* CIL module *
 0002:0000029c       _vec4_invalid$initializer$ 1002f29c     * CIL library *:* CIL module *
 0002:000002a0       _vector_origin$initializer$ 1002f2a0     * CIL library *:* CIL module *
 0002:000002a4       _vec2_origin$initializer$  1002f2a4     * CIL library *:* CIL module *
 0002:000002a8       _vec2_invalid$initializer$ 1002f2a8     * CIL library *:* CIL module *
 0002:000002ac       _piecewise_construct$initializer$ 1002f2ac     * CIL library *:* CIL module *
 0002:000002b0       _allocator_arg$initializer$ 1002f2b0     * CIL library *:* CIL module *
 0002:000002b4       _ignore$initializer$       1002f2b4     * CIL library *:* CIL module *
 0002:000002b8       __Tuple_alloc$initializer$ 1002f2b8     * CIL library *:* CIL module *
 0002:000002bc       _posix_category$initializer$ 1002f2bc     * CIL library *:* CIL module *
 0002:000002c0       _errno_ecat$initializer$   1002f2c0     * CIL library *:* CIL module *
 0002:000002c4       _native_ecat$initializer$  1002f2c4     * CIL library *:* CIL module *
 0002:000002c8       __1$initializer$           1002f2c8     * CIL library *:* CIL module *
 0002:000002cc       __2$initializer$           1002f2cc     * CIL library *:* CIL module *
 0002:000002d0       __3$initializer$           1002f2d0     * CIL library *:* CIL module *
 0002:000002d4       __4$initializer$           1002f2d4     * CIL library *:* CIL module *
 0002:000002d8       __5$initializer$           1002f2d8     * CIL library *:* CIL module *
 0002:000002dc       __6$initializer$           1002f2dc     * CIL library *:* CIL module *
 0002:000002e0       __7$initializer$           1002f2e0     * CIL library *:* CIL module *
 0002:000002e4       __8$initializer$           1002f2e4     * CIL library *:* CIL module *
 0002:000002e8       __9$initializer$           1002f2e8     * CIL library *:* CIL module *
 0002:000002f4       _pinit                     1002f2f4     LIBCMT:onexit.obj
 0002:000002f8       _pinit                     1002f2f8     LIBCMT:cpu_disp.obj
 0002:000002fc       _pinit                     1002f2fc     LIBCMT:_file.obj
 0002:00000300       _pinit                     1002f300     LIBCMT:mathfcns.obj
 0002:00000304       _pinit                     1002f304     LIBCMT:mbctype.obj
 0002:00000320       _pterm                     1002f320     LIBCMT:wsetloca.obj
 0002:00000324       _pterm                     1002f324     LIBCMT:initcon.obj
 0002:00000328       _pterm                     1002f328     LIBCMT:_file.obj
 0002:00000390       __sincos_masks             1002f390     mathlib:sse.obj
 0002:00000398       __sincos_inv_masks         1002f398     mathlib:sse.obj
 0002:000003a0       __ps_am_1                  1002f3a0     mathlib:sse.obj
 0002:000003b0       __ps_am_pi_o_2             1002f3b0     mathlib:sse.obj
 0002:000003c0       __ps_am_2_o_pi             1002f3c0     mathlib:sse.obj
 0002:000003d0       __ps_am_sign_mask          1002f3d0     mathlib:sse.obj
 0002:000003e0       __ps_am_inv_sign_mask      1002f3e0     mathlib:sse.obj
 0002:000003f0       __epi32_1                  1002f3f0     mathlib:sse.obj
 0002:00000400       __epi32_2                  1002f400     mathlib:sse.obj
 0002:00000410       __ps_sincos_p0             1002f410     mathlib:sse.obj
 0002:00000420       __ps_sincos_p1             1002f420     mathlib:sse.obj
 0002:00000430       __ps_sincos_p2             1002f430     mathlib:sse.obj
 0002:00000440       __ps_sincos_p3             1002f440     mathlib:sse.obj
 0002:00000540       _One                       1002f540     LIBCMT:floor_pentium4.obj
 0002:00000550       _Bns                       1002f550     LIBCMT:floor_pentium4.obj
 0002:00000560       _NegOne                    1002f560     LIBCMT:floor_pentium4.obj
 0002:00000570       _NegZero                   1002f570     LIBCMT:floor_pentium4.obj
 0002:00000580       _S                         1002f580     LIBCMT:floor_pentium4.obj
 0002:00000590       _GS_ExceptionPointers      1002f590     LIBCMT:gs_report.obj
 0002:0000066c       ?ExceptionTemplate@?1??_CxxThrowException@@9@8@4UEHExceptionRecord@@B 1002f66c     LIBCMT:throw.obj
 0002:00000f40       _rterrs                    1002ff40     LIBCMT:crt0msg.obj
 0002:00001114       ?ccsField@?P@??_openfile@@9@9 10030114     LIBCMT:_open.obj
 0002:00001118       ?utf8encoding@?P@??_openfile@@9@9 10030118     LIBCMT:_open.obj
 0002:00001120       ?utf16encoding@?P@??_openfile@@9@9 10030120     LIBCMT:_open.obj
 0002:0000112c       ?unicodeencoding@?P@??_openfile@@9@9 1003012c     LIBCMT:_open.obj
 0002:00001470       Shifter                    10030470     LIBCMT:acos_pentium4.obj
 0002:00001480       Tbl_addr                   10030480     LIBCMT:acos_pentium4.obj
 0002:00002380       T_table                    10031380     LIBCMT:acos_pentium4.obj
 0002:00002b80       PI_BY_2                    10031b80     LIBCMT:acos_pentium4.obj
 0002:00002b90       NEG_PI                     10031b90     LIBCMT:acos_pentium4.obj
 0002:00002ba0       PI                         10031ba0     LIBCMT:acos_pentium4.obj
 0002:00002bb0       SIGNMASK                   10031bb0     LIBCMT:acos_pentium4.obj
 0002:00002bc0       HALFMASK                   10031bc0     LIBCMT:acos_pentium4.obj
 0002:00002bd0       HALFMASK2                  10031bd0     LIBCMT:acos_pentium4.obj
 0002:00002be0       cv                         10031be0     LIBCMT:acos_pentium4.obj
 0002:00002c00       cv2                        10031c00     LIBCMT:acos_pentium4.obj
 0002:00002c40       ABSVALMASK                 10031c40     LIBCMT:acos_pentium4.obj
 0002:00002c48       TMASK                      10031c48     LIBCMT:acos_pentium4.obj
 0002:00002c50       ONEMASK                    10031c50     LIBCMT:acos_pentium4.obj
 0002:00002c58       ONE_BY_2                   10031c58     LIBCMT:acos_pentium4.obj
 0002:00002c60       EMIN                       10031c60     LIBCMT:acos_pentium4.obj
 0002:00002c68       MAX_ARG                    10031c68     LIBCMT:acos_pentium4.obj
 0002:00002c70       MIN_ARG                    10031c70     LIBCMT:acos_pentium4.obj
 0002:00002c78       INF                        10031c78     LIBCMT:acos_pentium4.obj
 0002:00002c80       ZERO                       10031c80     LIBCMT:acos_pentium4.obj
 0002:00002c88       ALPHA                      10031c88     LIBCMT:acos_pentium4.obj
 0002:00002ca4       One                        10031ca4     LIBCMT:87disp.obj
 0002:00002cac       XAMtoTagTab                10031cac     LIBCMT:87disp.obj
 0002:00002cc0       One                        10031cc0     LIBCMT:common.obj
 0002:00002cd4       DblMax                     10031cd4     LIBCMT:common.obj
 0002:00002cdc       DblMin                     10031cdc     LIBCMT:common.obj
 0002:00002ce4       IeeeAdjO                   10031ce4     LIBCMT:common.obj
 0002:00002cec       IeeeAdjU                   10031cec     LIBCMT:common.obj
 0002:00002cf4       _infinity                  10031cf4     LIBCMT:common.obj
 0002:00002cfc       _zero                      10031cfc     LIBCMT:common.obj
 0002:00002d10       Shifter                    10031d10     LIBCMT:asin_pentium4.obj
 0002:00002d20       Tbl_addr                   10031d20     LIBCMT:asin_pentium4.obj
 0002:00003c20       T_table                    10032c20     LIBCMT:asin_pentium4.obj
 0002:00004420       PI_BY_2                    10033420     LIBCMT:asin_pentium4.obj
 0002:00004430       SIGNMASK                   10033430     LIBCMT:asin_pentium4.obj
 0002:00004440       HALFMASK                   10033440     LIBCMT:asin_pentium4.obj
 0002:00004450       HALFMASK2                  10033450     LIBCMT:asin_pentium4.obj
 0002:00004458       cv                         10033458     LIBCMT:asin_pentium4.obj
 0002:00004470       cv2                        10033470     LIBCMT:asin_pentium4.obj
 0002:000044b0       ABSVALMASK                 100334b0     LIBCMT:asin_pentium4.obj
 0002:000044b8       TMASK                      100334b8     LIBCMT:asin_pentium4.obj
 0002:000044c0       ONEMASK                    100334c0     LIBCMT:asin_pentium4.obj
 0002:000044c8       EMIN                       100334c8     LIBCMT:asin_pentium4.obj
 0002:000044d0       MAX_ARG                    100334d0     LIBCMT:asin_pentium4.obj
 0002:000044d8       MIN_ARG                    100334d8     LIBCMT:asin_pentium4.obj
 0002:000044e0       INF                        100334e0     LIBCMT:asin_pentium4.obj
 0002:000044e8       ZERO                       100334e8     LIBCMT:asin_pentium4.obj
 0002:000044f0       DblMax                     100334f0     LIBCMT:87cdisp.obj
 0002:000044f8       DblMin                     100334f8     LIBCMT:87cdisp.obj
 0002:00004500       IeeeAdjO                   10033500     LIBCMT:87cdisp.obj
 0002:00004508       IeeeAdjU                   10033508     LIBCMT:87cdisp.obj
 0002:00004510       _infinity                  10033510     LIBCMT:87cdisp.obj
 0002:00004518       _zero                      10033518     LIBCMT:87cdisp.obj
 0002:00004520       rcp_t1                     10033520     LIBCMT:pow_pentium4.obj
 0002:00004930       log2_t1                    10033930     LIBCMT:pow_pentium4.obj
 0002:00005140       rcp_t2                     10034140     LIBCMT:pow_pentium4.obj
