 gmcl_navigation_win32

 Timestamp is 50c6b069 (Mon Dec 10 23:02:49 2012)

 Preferred load address is 10000000

 Start         Length     Name                   Class
 0001:00000000 0002a29aH .text                   CODE
 0001:0002a2a0 00000d69H .text$x                 CODE
 0001:0002b010 00000a1aH .text$yc                CODE
 0001:0002ba30 000000b8H .text$yd                CODE
 0002:00000000 00000184H .idata$5                DATA
 0002:00000184 00000004H .CRT$XCA                DATA
 0002:00000188 00000164H .CRT$XCU                DATA
 0002:000002ec 00000004H .CRT$XCZ                DATA
 0002:000002f0 00000004H .CRT$XIA                DATA
 0002:000002f4 00000014H .CRT$XIC                DATA
 0002:00000308 00000004H .CRT$XIU                DATA
 0002:0000030c 00000004H .CRT$XIZ                DATA
 0002:00000310 00000004H .CRT$XLA                DATA
 0002:00000314 00000004H .CRT$XLC                DATA
 0002:00000318 00000004H .CRT$XLZ                DATA
 0002:0000031c 00000004H .CRT$XPA                DATA
 0002:00000320 00000008H .CRT$XPX                DATA
 0002:00000328 00000004H .CRT$XPXA               DATA
 0002:0000032c 00000004H .CRT$XPZ                DATA
 0002:00000330 00000004H .CRT$XTA                DATA
 0002:00000334 00000004H .CRT$XTU                DATA
 0002:00000338 00000004H .CRT$XTZ                DATA
 0002:00000340 0000d858H .rdata                  DATA
 0002:0000db98 00000018H .rdata$T                DATA
 0002:0000dbb0 0000008cH .rdata$debug            DATA
 0002:0000dc3c 00001039H .rdata$r                DATA
 0002:0000ec80 0000014cH .rdata$sxdata           DATA
 0002:0000edcc 00000004H .rtc$IAA                DATA
 0002:0000edd0 00000004H .rtc$IZZ                DATA
 0002:0000edd4 00000004H .rtc$TAA                DATA
 0002:0000edd8 00000004H .rtc$TZZ                DATA
 0002:0000ede0 00001b84H .xdata$x                DATA
 0002:00010964 00000028H .idata$2                DATA
 0002:0001098c 00000014H .idata$3                DATA
 0002:000109a0 00000184H .idata$4                DATA
 0002:00010b24 000006fcH .idata$6                DATA
 0002:00011220 00000089H .edata                  DATA
 0003:00000000 00002748H .data                   DATA
 0003:00002760 0000b4d8H .bss                    DATA
 0004:00000000 00000001H .tls                    DATA
 0004:00000001 00000001H .tls$ZZZ                DATA
 0005:00000000 00000058H .rsrc$01                DATA
 0005:00000060 00000180H .rsrc$02                DATA

  Address         Publics by Value              Rva+Base       Lib:Object

 0000:00000000       __except_list              00000000     <absolute>
 0000:00000053       ___safe_se_handler_count   00000053     <absolute>
 0000:00000000       ___ImageBase               10000000     <linker-defined>
 0001:00000000       ??2@YAPAXIPAX@Z            10001000 f i ILuaInterface.obj
 0001:00000008       ?UtlMemory_CalcNewAllocationCount@@YAHHHHH@Z 10001008 f i ILuaInterface.obj
 0001:0000004d       ??0Vector2D@@QAE@MM@Z      1000104d f i ILuaInterface.obj
 0001:00000074       ??_H@YGXPAXIHP6EPAX0@Z@Z   10001074 f i ILuaInterface.obj
 0001:00000095       ?V_memmove@@YAXPAXPBXH@Z   10001095 f i ILuaInterface.obj
 0001:000000ab       ??0ILuaInterface@@QAE@PAUlua_State@@@Z 100010ab f   ILuaInterface.obj
 0001:00000250       ??1ILuaInterface@@QAE@XZ   10001250 f   ILuaInterface.obj
 0001:00000285       ?GetNewTable@ILuaInterface@@QAEPAVILuaObject@@XZ 10001285 f   ILuaInterface.obj
 0001:00000310       ?NewTable@ILuaInterface@@QAEXXZ 10001310 f   ILuaInterface.obj
 0001:0000032a       ?PushUserData@ILuaInterface@@QAEXPAVILuaObject@@PAXE@Z 1000132a f   ILuaInterface.obj
 0001:000003d3       ?Error@ILuaInterface@@QAAXPBDZZ 100013d3 f   ILuaInterface.obj
 0001:00000432       ?ErrorNoHalt@ILuaInterface@@QAAXPBDZZ 10001432 f   ILuaInterface.obj
 0001:000004af       ?GetGlobal@ILuaInterface@@QAEPAVILuaObject@@PBD@Z 100014af f   ILuaInterface.obj
 0001:00000579       ?SetGlobal@ILuaInterface@@QAEXPBDPAVILuaObject@@@Z 10001579 f   ILuaInterface.obj
 0001:000005de       ?GetObject@ILuaInterface@@QAEPAVILuaObject@@H@Z 100015de f   ILuaInterface.obj
 0001:0000067d       ?GetString@ILuaInterface@@QAEPBDHPAI@Z 1000167d f   ILuaInterface.obj
 0001:0000069f       ?GetInteger@ILuaInterface@@QAEHH@Z 1000169f f   ILuaInterface.obj
 0001:000006c3       ?GetNumber@ILuaInterface@@QAENH@Z 100016c3 f   ILuaInterface.obj
 0001:000006e2       ?GetBool@ILuaInterface@@QAE_NH@Z 100016e2 f   ILuaInterface.obj
 0001:00000701       ?GetUserData@ILuaInterface@@QAEPAXH@Z 10001701 f   ILuaInterface.obj
 0001:00000729       ?GetReference@ILuaInterface@@QAEHH@Z 10001729 f   ILuaInterface.obj
 0001:00000762       ?FreeReference@ILuaInterface@@QAEXH@Z 10001762 f   ILuaInterface.obj
 0001:00000784       ?PushReference@ILuaInterface@@QAEXH@Z 10001784 f   ILuaInterface.obj
 0001:000007a6       ?Pop@ILuaInterface@@QAEXH@Z 100017a6 f   ILuaInterface.obj
 0001:000007c5       ?Push@ILuaInterface@@QAEXPAVILuaObject@@@Z 100017c5 f   ILuaInterface.obj
 0001:000007d8       ?Push@ILuaInterface@@QAEXPBDI@Z 100017d8 f   ILuaInterface.obj
 0001:000007fa       ?Push@ILuaInterface@@QAEX_N@Z 100017fa f   ILuaInterface.obj
 0001:00000819       ?Push@ILuaInterface@@QAEXP6AHPAUlua_State@@@Z@Z 10001819 f   ILuaInterface.obj
 0001:0000083b       ?Push@ILuaInterface@@QAEXM@Z 1000183b f   ILuaInterface.obj
 0001:00000863       ?CheckType@ILuaInterface@@QAEXHH@Z 10001863 f   ILuaInterface.obj
 0001:00000885       ?GetType@ILuaInterface@@QAEHH@Z 10001885 f   ILuaInterface.obj
 0001:000008a7       ?GetReturn@ILuaInterface@@QAEPAVILuaObject@@H@Z 100018a7 f   ILuaInterface.obj
 0001:000008bd       ?Call@ILuaInterface@@QAEXHH@Z 100018bd f   ILuaInterface.obj
 0001:000008df       ?GetMetaTable@ILuaInterface@@QAEPAVILuaObject@@PBDH@Z 100018df f   ILuaInterface.obj
 0001:0000097e       ??$vsprintf_s@$0EAA@@@YAHAAY0EAA@DPBDPAD@Z 1000197e f i ILuaInterface.obj
 0001:00000999       ??$unused_var@W4dst_flags@date_time@boost@@@?$counted_time_system@U?$counted_time_rep@Vmillisec_posix_time_system_config@posix_time@boost@@@date_time@boost@@@date_time@boost@@SAXABW4dst_flags@12@@Z 10001999 f i main.obj
 0001:00000999       ??3@YAXPAX0@Z              10001999 f i ILuaModuleManager.obj
 0001:00000999       ??$Destruct@UGroundSeedSpot@@@@YAXPAUGroundSeedSpot@@@Z 10001999 f i nav.obj
 0001:00000999       ??$Destruct@PAUJobInfo_t@@@@YAXPAPAUJobInfo_t@@@Z 10001999 f i main.obj
 0001:00000999       ??$Destruct@PAVNode@@@@YAXPAPAVNode@@@Z 10001999 f i main.obj
 0001:00000999       ??$Destruct@UAirSeedSpot@@@@YAXPAUAirSeedSpot@@@Z 10001999 f i nav.obj
 0001:00000999       ?throw_exception_assert_compatibility@boost@@YAXABVexception@std@@@Z 10001999 f i main.obj
 0001:0000099e       ??$destroy@PAU?$_Tree_node@U?$pair@QAUlua_State@@PAVILuaInterface@@@std@@PAX@std@@@?$allocator@U?$_Tree_node@U?$pair@QAUlua_State@@PAVILuaInterface@@@std@@PAX@std@@@std@@QAEXPAPAU?$_Tree_node@U?$pair@QAUlua_State@@PAVILuaInterface@@@std@@PAX@1@@Z 1000199e f i ILuaModuleManager.obj
 0001:0000099e       ??$destroy@PAD@?$allocator@D@std@@QAEXPAPAD@Z 1000199e f i ILuaObject.obj
 0001:0000099e       ?_Adopt@_Iterator_base0@std@@QAEXPBX@Z 1000199e f i ILuaModuleManager.obj
 0001:0000099e       ??$destroy@U?$pair@QAUlua_State@@PAVILuaInterface@@@std@@@?$allocator@U?$_Tree_node@U?$pair@QAUlua_State@@PAVILuaInterface@@@std@@PAX@std@@@std@@QAEXPAU?$pair@QAUlua_State@@PAVILuaInterface@@@1@@Z 1000199e f i ILuaModuleManager.obj
 0001:0000099e       ??$destroy@PAU?$_Tree_node@U?$pair@QBXUtss_data_node@detail@boost@@@std@@PAX@std@@@?$allocator@U?$_Tree_node@U?$pair@QBXUtss_data_node@detail@boost@@@std@@PAX@std@@@std@@QAEXPAPAU?$_Tree_node@U?$pair@QBXUtss_data_node@detail@boost@@@std@@PAX@1@@Z 1000199e f i nav.obj
 0001:0000099e       ??$destroy@U?$pair@PAVcondition_variable@boost@@PAVmutex@2@@std@@@?$allocator@U?$pair@PAVcondition_variable@boost@@PAVmutex@2@@std@@@std@@QAEXPAU?$pair@PAVcondition_variable@boost@@PAVmutex@2@@1@@Z 1000199e f i nav.obj
 0001:000009a9       ?CreateInterface@ILuaModuleManager@@QAEXPAUlua_State@@@Z 100019a9 f   ILuaModuleManager.obj
 0001:00000a24       ?DestroyInterface@ILuaModuleManager@@QAEXPAUlua_State@@@Z 10001a24 f   ILuaModuleManager.obj
 0001:00000a70       ??_GILuaInterface@@QAEPAXI@Z 10001a70 f i ILuaModuleManager.obj
 0001:00000a97       ?GetLuaInterface@ILuaModuleManager@@QAEPAVILuaInterface@@PAUlua_State@@@Z 10001a97 f   ILuaModuleManager.obj
 0001:00000ab0       ??0ILuaModuleManager@@QAE@XZ 10001ab0 f i ILuaModuleManager.obj
 0001:00000ac4       ??0?$map@PAUlua_State@@PAVILuaInterface@@U?$less@PAUlua_State@@@std@@V?$allocator@U?$pair@QAUlua_State@@PAVILuaInterface@@@std@@@4@@std@@QAE@XZ 10001ac4 f i ILuaModuleManager.obj
 0001:00000ae6       ??A?$map@PAUlua_State@@PAVILuaInterface@@U?$less@PAUlua_State@@@std@@V?$allocator@U?$pair@QAUlua_State@@PAVILuaInterface@@@std@@@4@@std@@QAEAAPAVILuaInterface@@ABQAUlua_State@@@Z 10001ae6 f i ILuaModuleManager.obj
 0001:00000b88       ?erase@?$_Tree@V?$_Tmap_traits@PAUlua_State@@PAVILuaInterface@@U?$less@PAUlua_State@@@std@@V?$allocator@U?$pair@QAUlua_State@@PAVILuaInterface@@@std@@@4@$0A@@std@@@std@@QAEIABQAUlua_State@@@Z 10001b88 f i ILuaModuleManager.obj
 0001:00000be6       ??0?$_Tree@V?$_Tmap_traits@PAUlua_State@@PAVILuaInterface@@U?$less@PAUlua_State@@@std@@V?$allocator@U?$pair@QAUlua_State@@PAVILuaInterface@@@std@@@4@$0A@@std@@@std@@QAE@ABU?$less@PAUlua_State@@@1@ABV?$allocator@U?$pair@QAUlua_State@@PAVILuaInterface@@@std@@@1@@Z 10001be6 f i ILuaModuleManager.obj
 0001:00000c02       ?end@?$_Tree@V?$_Tmap_traits@PBXUtss_data_node@detail@boost@@U?$less@PBX@std@@V?$allocator@U?$pair@QBXUtss_data_node@detail@boost@@@std@@@5@$0A@@std@@@std@@QAE?AV?$_Tree_iterator@V?$_Tree_val@U?$_Tree_simple_types@U?$pair@QBXUtss_data_node@detail@boost@@@std@@@std@@@std@@@2@XZ 10001c02 f i nav.obj
 0001:00000c02       ?end@?$_Tree@V?$_Tmap_traits@PAUlua_State@@PAVILuaInterface@@U?$less@PAUlua_State@@@std@@V?$allocator@U?$pair@QAUlua_State@@PAVILuaInterface@@@std@@@4@$0A@@std@@@std@@QAE?AV?$_Tree_iterator@V?$_Tree_val@U?$_Tree_simple_types@U?$pair@QAUlua_State@@PAVILuaInterface@@@std@@@std@@@std@@@2@XZ 10001c02 f i ILuaModuleManager.obj
 0001:00000c20       ?erase@?$_Tree@V?$_Tmap_traits@PAUlua_State@@PAVILuaInterface@@U?$less@PAUlua_State@@@std@@V?$allocator@U?$pair@QAUlua_State@@PAVILuaInterface@@@std@@@4@$0A@@std@@@std@@QAE?AV?$_Tree_iterator@V?$_Tree_val@U?$_Tree_simple_types@U?$pair@QAUlua_State@@PAVILuaInterface@@@std@@@std@@@std@@@2@V?$_Tree_const_iterator@V?$_Tree_val@U?$_Tree_simple_types@U?$pair@QAUlua_State@@PAVILuaInterface@@@std@@@std@@@std@@@2@0@Z 10001c20 f i ILuaModuleManager.obj
 0001:00000cc1       ?lower_bound@?$_Tree@V?$_Tmap_traits@PAUlua_State@@PAVILuaInterface@@U?$less@PAUlua_State@@@std@@V?$allocator@U?$pair@QAUlua_State@@PAVILuaInterface@@@std@@@4@$0A@@std@@@std@@QAE?AV?$_Tree_iterator@V?$_Tree_val@U?$_Tree_simple_types@U?$pair@QAUlua_State@@PAVILuaInterface@@@std@@@std@@@std@@@2@ABQAUlua_State@@@Z 10001cc1 f i ILuaModuleManager.obj
 0001:00000ce6       ?equal_range@?$_Tree@V?$_Tmap_traits@PAUlua_State@@PAVILuaInterface@@U?$less@PAUlua_State@@@std@@V?$allocator@U?$pair@QAUlua_State@@PAVILuaInterface@@@std@@@4@$0A@@std@@@std@@QAE?AU?$pair@V?$_Tree_iterator@V?$_Tree_val@U?$_Tree_simple_types@U?$pair@QAUlua_State@@PAVILuaInterface@@@std@@@std@@@std@@@std@@V12@@2@ABQAUlua_State@@@Z 10001ce6 f i ILuaModuleManager.obj
 0001:00000d10       ?_Key@?$_Tree@V?$_Tmap_traits@PAUlua_State@@PAVILuaInterface@@U?$less@PAUlua_State@@@std@@V?$allocator@U?$pair@QAUlua_State@@PAVILuaInterface@@@std@@@4@$0A@@std@@@std@@IBEABQAUlua_State@@PAU?$_Tree_node@U?$pair@QAUlua_State@@PAVILuaInterface@@@std@@PAX@2@@Z 10001d10 f i ILuaModuleManager.obj
 0001:00000d2d       ??R?$less@PAUlua_State@@@std@@QBE_NABQAUlua_State@@0@Z 10001d2d f i ILuaModuleManager.obj
 0001:00000d55       ?_Getcomp@?$_Tree_comp@$0A@V?$_Tmap_traits@PAUlua_State@@PAVILuaInterface@@U?$less@PAUlua_State@@@std@@V?$allocator@U?$pair@QAUlua_State@@PAVILuaInterface@@@std@@@4@$0A@@std@@@std@@QBE?AU?$less@PAUlua_State@@@2@XZ 10001d55 f i ILuaModuleManager.obj
 0001:00000d63       ??0?$arg@$07@boost@@QAE@XZ 10001d63 f i main.obj
 0001:00000d63       ??0?$arg@$06@boost@@QAE@XZ 10001d63 f i main.obj
 0001:00000d63       ??0?$arg@$05@boost@@QAE@XZ 10001d63 f i main.obj
 0001:00000d63       ??0?$allocator@U?$_Tree_node@U?$pair@QAUlua_State@@PAVILuaInterface@@@std@@PAX@std@@@std@@QAE@XZ 10001d63 f i ILuaModuleManager.obj
 0001:00000d63       ??0?$arg@$01@boost@@QAE@XZ 10001d63 f i main.obj
 0001:00000d63       ??0?$allocator@U?$pair@QBXUtss_data_node@detail@boost@@@std@@@std@@QAE@XZ 10001d63 f i nav.obj
 0001:00000d63       ??0list0@_bi@boost@@QAE@XZ 10001d63 f i nav.obj
 0001:00000d63       ??0?$arg@$03@boost@@QAE@XZ 10001d63 f i main.obj
 0001:00000d63       ??0?$arg@$02@boost@@QAE@XZ 10001d63 f i main.obj
 0001:00000d63       ??0?$allocator@U?$pair@QAUlua_State@@PAVILuaInterface@@@std@@@std@@QAE@XZ 10001d63 f i ILuaModuleManager.obj
 0001:00000d63       ??0?$allocator@U?$_Tree_node@U?$pair@QBXUtss_data_node@detail@boost@@@std@@PAX@std@@@std@@QAE@XZ 10001d63 f i nav.obj
 0001:00000d63       ??0_Ignore@std@@QAE@XZ     10001d63 f i main.obj
 0001:00000d63       ??0?$arg@$00@boost@@QAE@XZ 10001d63 f i main.obj
 0001:00000d63       ??0Vector@@QAE@XZ          10001d63 f i main.obj
 0001:00000d63       ??0?$allocator@D@std@@QAE@XZ 10001d63 f i ILuaObject.obj
 0001:00000d63       ??0?$arg@$08@boost@@QAE@XZ 10001d63 f i main.obj
 0001:00000d63       ??0?$arg@$04@boost@@QAE@XZ 10001d63 f i main.obj
 0001:00000d63       ??0?$allocator@U?$pair@PAVcondition_variable@boost@@PAVmutex@2@@std@@@std@@QAE@XZ 10001d63 f i nav.obj
 0001:00000d63       ?GetPosition@Node@@QAEPBVVector@@XZ 10001d63 f i node.obj
 0001:00000d63       ?get@?$value@PAVNode@@@_bi@boost@@QAEAAPAVNode@@XZ 10001d63 f i nav.obj
 0001:00000d63       ?get@?$value@PA_N@_bi@boost@@QAEAAPA_NXZ 10001d63 f i nav.obj
 0001:00000d63       ?get@?$value@PAVNav@@@_bi@boost@@QAEAAPAVNav@@XZ 10001d63 f i nav.obj
 0001:00000d63       ?get@?$value@PAUJobInfo_t@@@_bi@boost@@QAEAAPAUJobInfo_t@@XZ 10001d63 f i nav.obj
 0001:00000d6f       ??8?$_Tree_const_iterator@V?$_Tree_val@U?$_Tree_simple_types@U?$pair@QAUlua_State@@PAVILuaInterface@@@std@@@std@@@std@@@std@@QBE_NABV01@@Z 10001d6f f i ILuaModuleManager.obj
 0001:00000d6f       ??8?$_Tree_const_iterator@V?$_Tree_val@U?$_Tree_simple_types@U?$pair@QBXUtss_data_node@detail@boost@@@std@@@std@@@std@@@std@@QBE_NABV01@@Z 10001d6f f i nav.obj
 0001:00000d97       ?Base@?$CUtlMemory@PAVNode@@H@@QAEPAPAVNode@@XZ 10001d97 f i main.obj
 0001:00000d97       ?_Mynode@?$_Tree_unchecked_const_iterator@V?$_Tree_val@U?$_Tree_simple_types@U?$pair@QAUlua_State@@PAVILuaInterface@@@std@@@std@@@std@@U_Iterator_base0@2@@std@@QBEPAU?$_Tree_node@U?$pair@QAUlua_State@@PAVILuaInterface@@@std@@PAX@2@XZ 10001d97 f i ILuaModuleManager.obj
 0001:00000d97       ?Base@?$CUtlMemory@PAUJobInfo_t@@H@@QAEPAPAUJobInfo_t@@XZ 10001d97 f i main.obj
 0001:00000d97       ?Base@?$CUtlMemory@U?$UtlLinkedListElem_t@UAirSeedSpot@@H@@H@@QAEPAU?$UtlLinkedListElem_t@UAirSeedSpot@@H@@XZ 10001d97 f i nav.obj
 0001:00000d97       ?Base@?$CUtlMemory@EH@@QAEPAEXZ 10001d97 f i nav.obj
 0001:00000d97       ?as_number@?$int_adapter@I@date_time@boost@@QBEIXZ 10001d97 f i main.obj
 0001:00000d97       ?value@error_code@std@@QBEHXZ 10001d97 f i ILuaObject.obj
 0001:00000d97       ?get@?$refcount_ptr@Uerror_info_container@exception_detail@boost@@@exception_detail@boost@@QBEPAUerror_info_container@23@XZ 10001d97 f i main.obj
 0001:00000d97       ?Base@?$CUtlMemory@U?$UtlLinkedListElem_t@UGroundSeedSpot@@H@@H@@QAEPAU?$UtlLinkedListElem_t@UGroundSeedSpot@@H@@XZ 10001d97 f i nav.obj
 0001:00000d97       ?value@error_condition@std@@QBEHXZ 10001d97 f i ILuaObject.obj
 0001:00000d97       ?day_number@date@gregorian@boost@@QBEIXZ 10001d97 f i main.obj
 0001:00000d97       ?value@error_code@system@boost@@QBEHXZ 10001d97 f i nav.obj
 0001:00000d97       ?_Mynode@?$_Tree_unchecked_const_iterator@V?$_Tree_val@U?$_Tree_simple_types@U?$pair@QBXUtss_data_node@detail@boost@@@std@@@std@@@std@@U_Iterator_base0@2@@std@@QBEPAU?$_Tree_node@U?$pair@QBXUtss_data_node@detail@boost@@@std@@PAX@2@XZ 10001d97 f i nav.obj
 0001:00000da5       ??C?$_Tree_iterator@V?$_Tree_val@U?$_Tree_simple_types@U?$pair@QAUlua_State@@PAVILuaInterface@@@std@@@std@@@std@@@std@@QBEPAU?$pair@QAUlua_State@@PAVILuaInterface@@@1@XZ 10001da5 f i ILuaModuleManager.obj
 0001:00000dbd       ?begin@?$_Tree@V?$_Tmap_traits@PBXUtss_data_node@detail@boost@@U?$less@PBX@std@@V?$allocator@U?$pair@QBXUtss_data_node@detail@boost@@@std@@@5@$0A@@std@@@std@@QAE?AV?$_Tree_iterator@V?$_Tree_val@U?$_Tree_simple_types@U?$pair@QBXUtss_data_node@detail@boost@@@std@@@std@@@std@@@2@XZ 10001dbd f i nav.obj
 0001:00000dbd       ?begin@?$_Tree@V?$_Tmap_traits@PAUlua_State@@PAVILuaInterface@@U?$less@PAUlua_State@@@std@@V?$allocator@U?$pair@QAUlua_State@@PAVILuaInterface@@@std@@@4@$0A@@std@@@std@@QAE?AV?$_Tree_iterator@V?$_Tree_val@U?$_Tree_simple_types@U?$pair@QAUlua_State@@PAVILuaInterface@@@std@@@std@@@std@@@2@XZ 10001dbd f i ILuaModuleManager.obj
 0001:00000de0       ?erase@?$_Tree@V?$_Tmap_traits@PAUlua_State@@PAVILuaInterface@@U?$less@PAUlua_State@@@std@@V?$allocator@U?$pair@QAUlua_State@@PAVILuaInterface@@@std@@@4@$0A@@std@@@std@@QAE?AV?$_Tree_iterator@V?$_Tree_val@U?$_Tree_simple_types@U?$pair@QAUlua_State@@PAVILuaInterface@@@std@@@std@@@std@@@2@V?$_Tree_const_iterator@V?$_Tree_val@U?$_Tree_simple_types@U?$pair@QAUlua_State@@PAVILuaInterface@@@std@@@std@@@std@@@2@@Z 10001de0 f i ILuaModuleManager.obj
 0001:00001450       ?clear@?$_Tree@V?$_Tmap_traits@PAUlua_State@@PAVILuaInterface@@U?$less@PAUlua_State@@@std@@V?$allocator@U?$pair@QAUlua_State@@PAVILuaInterface@@@std@@@4@$0A@@std@@@std@@QAEXXZ 10002450 f i ILuaModuleManager.obj
 0001:0000149f       ?_Eqrange@?$_Tree@V?$_Tmap_traits@PAUlua_State@@PAVILuaInterface@@U?$less@PAUlua_State@@@std@@V?$allocator@U?$pair@QAUlua_State@@PAVILuaInterface@@@std@@@4@$0A@@std@@@std@@IAE?AU?$pair@V?$_Tree_iterator@V?$_Tree_val@U?$_Tree_simple_types@U?$pair@QAUlua_State@@PAVILuaInterface@@@std@@@std@@@std@@@std@@V12@@2@ABQAUlua_State@@@Z 1000249f f i ILuaModuleManager.obj
 0001:0000163c       ?_Lbound@?$_Tree@V?$_Tmap_traits@PAUlua_State@@PAVILuaInterface@@U?$less@PAUlua_State@@@std@@V?$allocator@U?$pair@QAUlua_State@@PAVILuaInterface@@@std@@@4@$0A@@std@@@std@@IAEPAU?$_Tree_node@U?$pair@QAUlua_State@@PAVILuaInterface@@@std@@PAX@2@ABQAUlua_State@@@Z 1000263c f i ILuaModuleManager.obj
 0001:000016c0       ?_Kfn@?$_Tree@V?$_Tmap_traits@PAUlua_State@@PAVILuaInterface@@U?$less@PAUlua_State@@@std@@V?$allocator@U?$pair@QAUlua_State@@PAVILuaInterface@@@std@@@4@$0A@@std@@@std@@IBEABQAUlua_State@@ABU?$pair@QAUlua_State@@PAVILuaInterface@@@2@@Z 100026c0 f i ILuaModuleManager.obj
 0001:000016d4       ??0?$_Tree_comp@$0A@V?$_Tmap_traits@PAUlua_State@@PAVILuaInterface@@U?$less@PAUlua_State@@@std@@V?$allocator@U?$pair@QAUlua_State@@PAVILuaInterface@@@std@@@4@$0A@@std@@@std@@QAE@ABU?$less@PAUlua_State@@@1@ABV?$allocator@U?$pair@QAUlua_State@@PAVILuaInterface@@@std@@@1@@Z 100026d4 f i ILuaModuleManager.obj
 0001:000016ed       ?_Myval@?$_Tree_val@U?$_Tree_simple_types@U?$pair@QBXUtss_data_node@detail@boost@@@std@@@std@@@std@@SAAAU?$pair@QBXUtss_data_node@detail@boost@@@2@PAU?$_Tree_node@U?$pair@QBXUtss_data_node@detail@boost@@@std@@PAX@2@@Z 100026ed f i nav.obj
 0001:000016ed       ?_Myval@?$_Tree_val@U?$_Tree_simple_types@U?$pair@QAUlua_State@@PAVILuaInterface@@@std@@@std@@@std@@SAAAU?$pair@QAUlua_State@@PAVILuaInterface@@@2@PAU?$_Tree_node@U?$pair@QAUlua_State@@PAVILuaInterface@@@std@@PAX@2@@Z 100026ed f i ILuaModuleManager.obj
 0001:000016f8       ??E?$_Tree_const_iterator@V?$_Tree_val@U?$_Tree_simple_types@U?$pair@QBXUtss_data_node@detail@boost@@@std@@@std@@@std@@@std@@QAE?AV01@H@Z 100026f8 f i nav.obj
 0001:000016f8       ??E?$_Tree_const_iterator@V?$_Tree_val@U?$_Tree_simple_types@U?$pair@QAUlua_State@@PAVILuaInterface@@@std@@@std@@@std@@@std@@QAE?AV01@H@Z 100026f8 f i ILuaModuleManager.obj
 0001:0000171f       ??9?$_Tree_const_iterator@V?$_Tree_val@U?$_Tree_simple_types@U?$pair@QAUlua_State@@PAVILuaInterface@@@std@@@std@@@std@@@std@@QBE_NABV01@@Z 1000271f f i ILuaModuleManager.obj
 0001:0000171f       ??9?$_Tree_const_iterator@V?$_Tree_val@U?$_Tree_simple_types@U?$pair@QBXUtss_data_node@detail@boost@@@std@@@std@@@std@@@std@@QBE_NABV01@@Z 1000271f f i nav.obj
 0001:0000174d       ??0?$_Tree_iterator@V?$_Tree_val@U?$_Tree_simple_types@U?$pair@QBXUtss_data_node@detail@boost@@@std@@@std@@@std@@@std@@QAE@PAU?$_Tree_node@U?$pair@QBXUtss_data_node@detail@boost@@@std@@PAX@1@PBV?$_Tree_val@U?$_Tree_simple_types@U?$pair@QBXUtss_data_node@detail@boost@@@std@@@std@@@1@@Z 1000274d f i nav.obj
 0001:0000174d       ??0?$_Tree_iterator@V?$_Tree_val@U?$_Tree_simple_types@U?$pair@QAUlua_State@@PAVILuaInterface@@@std@@@std@@@std@@@std@@QAE@PAU?$_Tree_node@U?$pair@QAUlua_State@@PAVILuaInterface@@@std@@PAX@1@PBV?$_Tree_val@U?$_Tree_simple_types@U?$pair@QAUlua_State@@PAVILuaInterface@@@std@@@std@@@1@@Z 1000274d f i ILuaModuleManager.obj
 0001:00001769       ??D?$_Tree_iterator@V?$_Tree_val@U?$_Tree_simple_types@U?$pair@QAUlua_State@@PAVILuaInterface@@@std@@@std@@@std@@@std@@QBEAAU?$pair@QAUlua_State@@PAVILuaInterface@@@1@XZ 10002769 f i ILuaModuleManager.obj
 0001:0000177a       ?pointer_to@?$pointer_traits@PAU?$pair@QAUlua_State@@PAVILuaInterface@@@std@@@std@@SAPAU?$pair@QAUlua_State@@PAVILuaInterface@@@2@AAU32@@Z 1000277a f i ILuaModuleManager.obj
 0001:00001788       ?_Erase@?$_Tree@V?$_Tmap_traits@PAUlua_State@@PAVILuaInterface@@U?$less@PAUlua_State@@@std@@V?$allocator@U?$pair@QAUlua_State@@PAVILuaInterface@@@std@@@4@$0A@@std@@@std@@IAEXPAU?$_Tree_node@U?$pair@QAUlua_State@@PAVILuaInterface@@@std@@PAX@2@@Z 10002788 f i ILuaModuleManager.obj
 0001:00001812       ?_Lmost@?$_Tree@V?$_Tmap_traits@PAUlua_State@@PAVILuaInterface@@U?$less@PAUlua_State@@@std@@V?$allocator@U?$pair@QAUlua_State@@PAVILuaInterface@@@std@@@4@$0A@@std@@@std@@IBEAAPAU?$_Tree_node@U?$pair@QAUlua_State@@PAVILuaInterface@@@std@@PAX@2@XZ 10002812 f i ILuaModuleManager.obj
 0001:00001812       ?_Lmost@?$_Tree@V?$_Tmap_traits@PBXUtss_data_node@detail@boost@@U?$less@PBX@std@@V?$allocator@U?$pair@QBXUtss_data_node@detail@boost@@@std@@@5@$0A@@std@@@std@@IBEAAPAU?$_Tree_node@U?$pair@QBXUtss_data_node@detail@boost@@@std@@PAX@2@XZ 10002812 f i nav.obj
 0001:00001826       ?_Lrotate@?$_Tree@V?$_Tmap_traits@PBXUtss_data_node@detail@boost@@U?$less@PBX@std@@V?$allocator@U?$pair@QBXUtss_data_node@detail@boost@@@std@@@5@$0A@@std@@@std@@IAEXPAU?$_Tree_node@U?$pair@QBXUtss_data_node@detail@boost@@@std@@PAX@2@@Z 10002826 f i nav.obj
 0001:00001826       ?_Lrotate@?$_Tree@V?$_Tmap_traits@PAUlua_State@@PAVILuaInterface@@U?$less@PAUlua_State@@@std@@V?$allocator@U?$pair@QAUlua_State@@PAVILuaInterface@@@std@@@4@$0A@@std@@@std@@IAEXPAU?$_Tree_node@U?$pair@QAUlua_State@@PAVILuaInterface@@@std@@PAX@2@@Z 10002826 f i ILuaModuleManager.obj
 0001:00001920       ?_Rmost@?$_Tree@V?$_Tmap_traits@PAUlua_State@@PAVILuaInterface@@U?$less@PAUlua_State@@@std@@V?$allocator@U?$pair@QAUlua_State@@PAVILuaInterface@@@std@@@4@$0A@@std@@@std@@IBEAAPAU?$_Tree_node@U?$pair@QAUlua_State@@PAVILuaInterface@@@std@@PAX@2@XZ 10002920 f i ILuaModuleManager.obj
 0001:00001920       ?_Rmost@?$_Tree@V?$_Tmap_traits@PBXUtss_data_node@detail@boost@@U?$less@PBX@std@@V?$allocator@U?$pair@QBXUtss_data_node@detail@boost@@@std@@@5@$0A@@std@@@std@@IBEAAPAU?$_Tree_node@U?$pair@QBXUtss_data_node@detail@boost@@@std@@PAX@2@XZ 10002920 f i nav.obj
 0001:00001934       ?_Root@?$_Tree@V?$_Tmap_traits@PAUlua_State@@PAVILuaInterface@@U?$less@PAUlua_State@@@std@@V?$allocator@U?$pair@QAUlua_State@@PAVILuaInterface@@@std@@@4@$0A@@std@@@std@@IBEAAPAU?$_Tree_node@U?$pair@QAUlua_State@@PAVILuaInterface@@@std@@PAX@2@XZ 10002934 f i ILuaModuleManager.obj
 0001:00001934       ?_Root@?$_Tree@V?$_Tmap_traits@PBXUtss_data_node@detail@boost@@U?$less@PBX@std@@V?$allocator@U?$pair@QBXUtss_data_node@detail@boost@@@std@@@5@$0A@@std@@@std@@IBEAAPAU?$_Tree_node@U?$pair@QBXUtss_data_node@detail@boost@@@std@@PAX@2@XZ 10002934 f i nav.obj
 0001:00001948       ?_Rrotate@?$_Tree@V?$_Tmap_traits@PBXUtss_data_node@detail@boost@@U?$less@PBX@std@@V?$allocator@U?$pair@QBXUtss_data_node@detail@boost@@@std@@@5@$0A@@std@@@std@@IAEXPAU?$_Tree_node@U?$pair@QBXUtss_data_node@detail@boost@@@std@@PAX@2@@Z 10002948 f i nav.obj
 0001:00001948       ?_Rrotate@?$_Tree@V?$_Tmap_traits@PAUlua_State@@PAVILuaInterface@@U?$less@PAUlua_State@@@std@@V?$allocator@U?$pair@QAUlua_State@@PAVILuaInterface@@@std@@@4@$0A@@std@@@std@@IAEXPAU?$_Tree_node@U?$pair@QAUlua_State@@PAVILuaInterface@@@std@@PAX@2@@Z 10002948 f i ILuaModuleManager.obj
 0001:00001a42       ??0?$_Tree_buy@U?$pair@QAUlua_State@@PAVILuaInterface@@@std@@V?$allocator@U?$pair@QAUlua_State@@PAVILuaInterface@@@std@@@2@@std@@QAE@ABV?$allocator@U?$pair@QAUlua_State@@PAVILuaInterface@@@std@@@1@@Z 10002a42 f i ILuaModuleManager.obj
 0001:00001a5b       ?_Getal@?$_Tree_alloc@$0A@U?$_Tree_base_types@U?$pair@QBXUtss_data_node@detail@boost@@@std@@V?$allocator@U?$pair@QBXUtss_data_node@detail@boost@@@std@@@2@@std@@@std@@QBE?AU?$_Wrap_alloc@V?$allocator@U?$_Tree_node@U?$pair@QBXUtss_data_node@detail@boost@@@std@@PAX@std@@@std@@@2@XZ 10002a5b f i nav.obj
 0001:00001a5b       ?_Getal@?$_Tree_alloc@$0A@U?$_Tree_base_types@U?$pair@QAUlua_State@@PAVILuaInterface@@@std@@V?$allocator@U?$pair@QAUlua_State@@PAVILuaInterface@@@std@@@2@@std@@@std@@QBE?AU?$_Wrap_alloc@V?$allocator@U?$_Tree_node@U?$pair@QAUlua_State@@PAVILuaInterface@@@std@@PAX@std@@@std@@@2@XZ 10002a5b f i ILuaModuleManager.obj
 0001:00001a5b       ?_Getal@?$_String_alloc@$0A@U?$_String_base_types@DV?$allocator@D@std@@@std@@@std@@QBE?AU?$_Wrap_alloc@V?$allocator@D@std@@@2@XZ 10002a5b f i ILuaObject.obj
 0001:00001a5b       ?_Getal@?$_Vector_alloc@$0A@U?$_Vec_base_types@U?$pair@PAVcondition_variable@boost@@PAVmutex@2@@std@@V?$allocator@U?$pair@PAVcondition_variable@boost@@PAVmutex@2@@std@@@2@@std@@@std@@QBE?AU?$_Wrap_alloc@V?$allocator@U?$pair@PAVcondition_variable@boost@@PAVmutex@2@@std@@@std@@@2@XZ 10002a5b f i nav.obj
 0001:00001a71       ?deallocate@?$_Wrap_alloc@V?$allocator@U?$_Tree_node@U?$pair@QAUlua_State@@PAVILuaInterface@@@std@@PAX@std@@@std@@@std@@QAEXPAU?$_Tree_node@U?$pair@QAUlua_State@@PAVILuaInterface@@@std@@PAX@2@I@Z 10002a71 f i ILuaModuleManager.obj
 0001:00001a71       ?deallocate@?$_Wrap_alloc@V?$allocator@D@std@@@std@@QAEXPADI@Z 10002a71 f i ILuaObject.obj
 0001:00001a71       ?deallocate@?$_Wrap_alloc@V?$allocator@U?$pair@PAVcondition_variable@boost@@PAVmutex@2@@std@@@std@@@std@@QAEXPAU?$pair@PAVcondition_variable@boost@@PAVmutex@2@@2@I@Z 10002a71 f i nav.obj
 0001:00001a71       ?deallocate@?$_Wrap_alloc@V?$allocator@U?$_Tree_node@U?$pair@QBXUtss_data_node@detail@boost@@@std@@PAX@std@@@std@@@std@@QAEXPAU?$_Tree_node@U?$pair@QBXUtss_data_node@detail@boost@@@std@@PAX@2@I@Z 10002a71 f i nav.obj
 0001:00001a8a       ?_Color@?$_Tree_val@U?$_Tree_simple_types@U?$pair@QAUlua_State@@PAVILuaInterface@@@std@@@std@@@std@@SAAADPAU?$_Tree_node@U?$pair@QAUlua_State@@PAVILuaInterface@@@std@@PAX@2@@Z 10002a8a f i ILuaModuleManager.obj
 0001:00001a8a       ?_Color@?$_Tree_val@U?$_Tree_simple_types@U?$pair@QBXUtss_data_node@detail@boost@@@std@@@std@@@std@@SAAADPAU?$_Tree_node@U?$pair@QBXUtss_data_node@detail@boost@@@std@@PAX@2@@Z 10002a8a f i nav.obj
 0001:00001a95       ?_Isnil@?$_Tree_val@U?$_Tree_simple_types@U?$pair@QBXUtss_data_node@detail@boost@@@std@@@std@@@std@@SAAADPAU?$_Tree_node@U?$pair@QBXUtss_data_node@detail@boost@@@std@@PAX@2@@Z 10002a95 f i nav.obj
 0001:00001a95       ?_Isnil@?$_Tree_val@U?$_Tree_simple_types@U?$pair@QAUlua_State@@PAVILuaInterface@@@std@@@std@@@std@@SAAADPAU?$_Tree_node@U?$pair@QAUlua_State@@PAVILuaInterface@@@std@@PAX@2@@Z 10002a95 f i ILuaModuleManager.obj
 0001:00001aa0       ??$forward@V?$_Tree_iterator@V?$_Tree_val@U?$_Tree_simple_types@U?$pair@QAUlua_State@@PAVILuaInterface@@@std@@@std@@@std@@@std@@@std@@YA$$QAV?$_Tree_iterator@V?$_Tree_val@U?$_Tree_simple_types@U?$pair@QAUlua_State@@PAVILuaInterface@@@std@@@std@@@std@@@0@AAV10@@Z 10002aa0 f i ILuaModuleManager.obj
 0001:00001aa0       ?_Left@?$_Tree_val@U?$_Tree_simple_types@U?$pair@QAUlua_State@@PAVILuaInterface@@@std@@@std@@@std@@SAAAPAU?$_Tree_node@U?$pair@QAUlua_State@@PAVILuaInterface@@@std@@PAX@2@PAU32@@Z 10002aa0 f i ILuaModuleManager.obj
 0001:00001aa0       ?_Left@?$_Tree_val@U?$_Tree_simple_types@U?$pair@QBXUtss_data_node@detail@boost@@@std@@@std@@@std@@SAAAPAU?$_Tree_node@U?$pair@QBXUtss_data_node@detail@boost@@@std@@PAX@2@PAU32@@Z 10002aa0 f i nav.obj
 0001:00001aa0       ?unwrap@?$unwrapper@V?$mf1@XVNav@@PA_N@_mfi@boost@@@_bi@boost@@SAAAV?$mf1@XVNav@@PA_N@_mfi@3@AAV453@J@Z 10002aa0 f i nav.obj
 0001:00001aa0       ??$forward@AAPAD@std@@YAAAPADAAPAD@Z 10002aa0 f i ILuaObject.obj
 0001:00001aa0       ??$forward@PAUlua_State@@@std@@YA$$QAPAUlua_State@@AAPAU1@@Z 10002aa0 f i ILuaModuleManager.obj
 0001:00001aa0       ??$forward@V?$bind_t@XV?$mf1@XVNav@@PA_N@_mfi@boost@@V?$list2@V?$value@PAVNav@@@_bi@boost@@V?$value@PA_N@23@@_bi@3@@_bi@boost@@AAV123@@boost@@YA$$QAV?$bind_t@XV?$mf1@XVNav@@PA_N@_mfi@boost@@V?$list2@V?$value@PAVNav@@@_bi@boost@@V?$value@PA_N@23@@_bi@3@@_bi@0@AAV120@PAX@Z 10002aa0 f i nav.obj
 0001:00001aa0       ??$forward@V?$bind_t@XV?$mf3@XVNav@@PAUJobInfo_t@@PAVNode@@PAV3@@_mfi@boost@@V?$list4@V?$value@PAVNav@@@_bi@boost@@V?$value@PAUJobInfo_t@@@23@V?$value@PAVNode@@@23@V523@@_bi@3@@_bi@boost@@AAV123@@boost@@YA$$QAV?$bind_t@XV?$mf3@XVNav@@PAUJobInfo_t@@PAVNode@@PAV3@@_mfi@boost@@V?$list4@V?$value@PAVNav@@@_bi@boost@@V?$value@PAUJobInfo_t@@@23@V?$value@PAVNode@@@23@V523@@_bi@3@@_bi@0@AAV120@PAX@Z 10002aa0 f i nav.obj
 0001:00001aa0       ??$forward@_N@std@@YA$$QA_NAA_N@Z 10002aa0 f i ILuaModuleManager.obj
 0001:00001aa0       ??$forward@ABQAUlua_State@@@std@@YAABQAUlua_State@@ABQAU1@@Z 10002aa0 f i ILuaModuleManager.obj
 0001:00001aa0       ??$addressof@PAU?$_Tree_node@U?$pair@QBXUtss_data_node@detail@boost@@@std@@PAX@std@@@std@@YAPAPAU?$_Tree_node@U?$pair@QBXUtss_data_node@detail@boost@@@std@@PAX@0@AAPAU10@@Z 10002aa0 f i nav.obj
 0001:00001aa0       ??$_Move@AAD@std@@YA$$QADAAD@Z 10002aa0 f i ILuaModuleManager.obj
 0001:00001aa0       ??$addressof@U?$pair@QBXUtss_data_node@detail@boost@@@std@@@std@@YAPAU?$pair@QBXUtss_data_node@detail@boost@@@0@AAU10@@Z 10002aa0 f i nav.obj
 0001:00001aa0       ??$addressof@U?$pair@QAUlua_State@@PAVILuaInterface@@@std@@@std@@YAPAU?$pair@QAUlua_State@@PAVILuaInterface@@@0@AAU10@@Z 10002aa0 f i ILuaModuleManager.obj
 0001:00001aa0       ??$forward@U?$pair@PAUlua_State@@PAVILuaInterface@@@std@@@std@@YA$$QAU?$pair@PAUlua_State@@PAVILuaInterface@@@0@AAU10@@Z 10002aa0 f i ILuaModuleManager.obj
 0001:00001aa0       ??$forward@AAV?$_Tree_iterator@V?$_Tree_val@U?$_Tree_simple_types@U?$pair@QAUlua_State@@PAVILuaInterface@@@std@@@std@@@std@@@std@@@std@@YAAAV?$_Tree_iterator@V?$_Tree_val@U?$_Tree_simple_types@U?$pair@QAUlua_State@@PAVILuaInterface@@@std@@@std@@@std@@@0@AAV10@@Z 10002aa0 f i ILuaModuleManager.obj
 0001:00001aa0       ??$addressof@D@std@@YAPADAAD@Z 10002aa0 f i ILuaObject.obj
 0001:00001aa0       ??$forward@AAPAU?$_Tree_node@U?$pair@QBXUtss_data_node@detail@boost@@@std@@PAX@std@@@std@@YAAAPAU?$_Tree_node@U?$pair@QBXUtss_data_node@detail@boost@@@std@@PAX@0@AAPAU10@@Z 10002aa0 f i nav.obj
 0001:00001aa0       ??$forward@PAVILuaInterface@@@std@@YA$$QAPAVILuaInterface@@AAPAV1@@Z 10002aa0 f i ILuaModuleManager.obj
 0001:00001aa0       ??$addressof@PAU?$_Tree_node@U?$pair@QAUlua_State@@PAVILuaInterface@@@std@@PAX@std@@@std@@YAPAPAU?$_Tree_node@U?$pair@QAUlua_State@@PAVILuaInterface@@@std@@PAX@0@AAPAU10@@Z 10002aa0 f i ILuaModuleManager.obj
 0001:00001aa0       ??$forward@AAPAU?$_Tree_node@U?$pair@QAUlua_State@@PAVILuaInterface@@@std@@PAX@std@@@std@@YAAAPAU?$_Tree_node@U?$pair@QAUlua_State@@PAVILuaInterface@@@std@@PAX@0@AAPAU10@@Z 10002aa0 f i ILuaModuleManager.obj
 0001:00001aa0       ??$_Kfn@QAUlua_State@@PAVILuaInterface@@@?$_Tmap_traits@PAUlua_State@@PAVILuaInterface@@U?$less@PAUlua_State@@@std@@V?$allocator@U?$pair@QAUlua_State@@PAVILuaInterface@@@std@@@4@$0A@@std@@SAABQAUlua_State@@ABU?$pair@QAUlua_State@@PAVILuaInterface@@@1@@Z 10002aa0 f i ILuaModuleManager.obj
 0001:00001aa0       ?unwrap@?$unwrapper@V?$mf3@XVNav@@PAUJobInfo_t@@PAVNode@@PAV3@@_mfi@boost@@@_bi@boost@@SAAAV?$mf3@XVNav@@PAUJobInfo_t@@PAVNode@@PAV3@@_mfi@3@AAV453@J@Z 10002aa0 f i nav.obj
 0001:00001aa0       ??$forward@AAU?$pair@QAUlua_State@@PAVILuaInterface@@@std@@@std@@YAAAU?$pair@QAUlua_State@@PAVILuaInterface@@@0@AAU10@@Z 10002aa0 f i ILuaModuleManager.obj
 0001:00001aa8       ?_Parent@?$_Tree_val@U?$_Tree_simple_types@U?$pair@QBXUtss_data_node@detail@boost@@@std@@@std@@@std@@SAAAPAU?$_Tree_node@U?$pair@QBXUtss_data_node@detail@boost@@@std@@PAX@2@PAU32@@Z 10002aa8 f i nav.obj
 0001:00001aa8       ?_Parent@?$_Tree_val@U?$_Tree_simple_types@U?$pair@QAUlua_State@@PAVILuaInterface@@@std@@@std@@@std@@SAAAPAU?$_Tree_node@U?$pair@QAUlua_State@@PAVILuaInterface@@@std@@PAX@2@PAU32@@Z 10002aa8 f i ILuaModuleManager.obj
 0001:00001ab3       ?_Right@?$_Tree_val@U?$_Tree_simple_types@U?$pair@QAUlua_State@@PAVILuaInterface@@@std@@@std@@@std@@SAAAPAU?$_Tree_node@U?$pair@QAUlua_State@@PAVILuaInterface@@@std@@PAX@2@PAU32@@Z 10002ab3 f i ILuaModuleManager.obj
 0001:00001ab3       ?_Right@?$_Tree_val@U?$_Tree_simple_types@U?$pair@QBXUtss_data_node@detail@boost@@@std@@@std@@@std@@SAAAPAU?$_Tree_node@U?$pair@QBXUtss_data_node@detail@boost@@@std@@PAX@2@PAU32@@Z 10002ab3 f i nav.obj
 0001:00001abe       ?_Max@?$_Tree_val@U?$_Tree_simple_types@U?$pair@QAUlua_State@@PAVILuaInterface@@@std@@@std@@@std@@SAPAU?$_Tree_node@U?$pair@QAUlua_State@@PAVILuaInterface@@@std@@PAX@2@PAU32@@Z 10002abe f i ILuaModuleManager.obj
 0001:00001abe       ?_Max@?$_Tree_val@U?$_Tree_simple_types@U?$pair@QBXUtss_data_node@detail@boost@@@std@@@std@@@std@@SAPAU?$_Tree_node@U?$pair@QBXUtss_data_node@detail@boost@@@std@@PAX@2@PAU32@@Z 10002abe f i nav.obj
 0001:00001aee       ?_Min@?$_Tree_val@U?$_Tree_simple_types@U?$pair@QBXUtss_data_node@detail@boost@@@std@@@std@@@std@@SAPAU?$_Tree_node@U?$pair@QBXUtss_data_node@detail@boost@@@std@@PAX@2@PAU32@@Z 10002aee f i nav.obj
 0001:00001aee       ?_Min@?$_Tree_val@U?$_Tree_simple_types@U?$pair@QAUlua_State@@PAVILuaInterface@@@std@@@std@@@std@@SAPAU?$_Tree_node@U?$pair@QAUlua_State@@PAVILuaInterface@@@std@@PAX@2@PAU32@@Z 10002aee f i ILuaModuleManager.obj
 0001:00001b1e       ??0?$_Tree_const_iterator@V?$_Tree_val@U?$_Tree_simple_types@U?$pair@QAUlua_State@@PAVILuaInterface@@@std@@@std@@@std@@@std@@QAE@PAU?$_Tree_node@U?$pair@QAUlua_State@@PAVILuaInterface@@@std@@PAX@1@PBV?$_Tree_val@U?$_Tree_simple_types@U?$pair@QAUlua_State@@PAVILuaInterface@@@std@@@std@@@1@@Z 10002b1e f i ILuaModuleManager.obj
 0001:00001b1e       ??0?$_Tree_const_iterator@V?$_Tree_val@U?$_Tree_simple_types@U?$pair@QBXUtss_data_node@detail@boost@@@std@@@std@@@std@@@std@@QAE@PAU?$_Tree_node@U?$pair@QBXUtss_data_node@detail@boost@@@std@@PAX@1@PBV?$_Tree_val@U?$_Tree_simple_types@U?$pair@QBXUtss_data_node@detail@boost@@@std@@@std@@@1@@Z 10002b1e f i nav.obj
 0001:00001b3a       ??D?$_Tree_const_iterator@V?$_Tree_val@U?$_Tree_simple_types@U?$pair@QAUlua_State@@PAVILuaInterface@@@std@@@std@@@std@@@std@@QBEABU?$pair@QAUlua_State@@PAVILuaInterface@@@1@XZ 10002b3a f i ILuaModuleManager.obj
 0001:00001b4e       ??E?$_Tree_const_iterator@V?$_Tree_val@U?$_Tree_simple_types@U?$pair@QBXUtss_data_node@detail@boost@@@std@@@std@@@std@@@std@@QAEAAV01@XZ 10002b4e f i nav.obj
 0001:00001b4e       ??E?$_Tree_const_iterator@V?$_Tree_val@U?$_Tree_simple_types@U?$pair@QAUlua_State@@PAVILuaInterface@@@std@@@std@@@std@@@std@@QAEAAV01@XZ 10002b4e f i ILuaModuleManager.obj
 0001:00001b62       ??0?$_Tree_alloc@$0A@U?$_Tree_base_types@U?$pair@QAUlua_State@@PAVILuaInterface@@@std@@V?$allocator@U?$pair@QAUlua_State@@PAVILuaInterface@@@std@@@2@@std@@@std@@QAE@ABV?$allocator@U?$pair@QAUlua_State@@PAVILuaInterface@@@std@@@1@@Z 10002b62 f i ILuaModuleManager.obj
 0001:00001b85       ??0?$_Wrap_alloc@V?$allocator@U?$_Tree_node@U?$pair@QAUlua_State@@PAVILuaInterface@@@std@@PAX@std@@@std@@@std@@QAE@XZ 10002b85 f i ILuaModuleManager.obj
 0001:00001b85       ??0?$_Wrap_alloc@V?$allocator@D@std@@@std@@QAE@XZ 10002b85 f i ILuaObject.obj
 0001:00001b85       ??0?$_Wrap_alloc@V?$allocator@U?$_Tree_node@U?$pair@QBXUtss_data_node@detail@boost@@@std@@PAX@std@@@std@@@std@@QAE@XZ 10002b85 f i nav.obj
 0001:00001b85       ??0VectorAligned@@QAE@XZ   10002b85 f i nav.obj
 0001:00001b85       ??0cplane_t@@QAE@XZ        10002b85 f i nav.obj
 0001:00001b85       ??0?$_Wrap_alloc@V?$allocator@U?$pair@PAVcondition_variable@boost@@PAVmutex@2@@std@@@std@@@std@@QAE@XZ 10002b85 f i nav.obj
 0001:00001b99       ?deallocate@?$allocator@U?$pair@PAVcondition_variable@boost@@PAVmutex@2@@std@@@std@@QAEXPAU?$pair@PAVcondition_variable@boost@@PAVmutex@2@@2@I@Z 10002b99 f i nav.obj
 0001:00001b99       ?deallocate@?$allocator@D@std@@QAEXPADI@Z 10002b99 f i ILuaObject.obj
 0001:00001b99       ?deallocate@?$allocator@U?$_Tree_node@U?$pair@QBXUtss_data_node@detail@boost@@@std@@PAX@std@@@std@@QAEXPAU?$_Tree_node@U?$pair@QBXUtss_data_node@detail@boost@@@std@@PAX@2@I@Z 10002b99 f i nav.obj
 0001:00001b99       ?deallocate@?$allocator@U?$_Tree_node@U?$pair@QAUlua_State@@PAVILuaInterface@@@std@@PAX@std@@@std@@QAEXPAU?$_Tree_node@U?$pair@QAUlua_State@@PAVILuaInterface@@@std@@PAX@2@I@Z 10002b99 f i ILuaModuleManager.obj
 0001:00001bad       ??0?$_Tree_unchecked_const_iterator@V?$_Tree_val@U?$_Tree_simple_types@U?$pair@QAUlua_State@@PAVILuaInterface@@@std@@@std@@@std@@U_Iterator_base0@2@@std@@QAE@PAU?$_Tree_node@U?$pair@QAUlua_State@@PAVILuaInterface@@@std@@PAX@1@PBV?$_Tree_val@U?$_Tree_simple_types@U?$pair@QAUlua_State@@PAVILuaInterface@@@std@@@std@@@1@@Z 10002bad f i ILuaModuleManager.obj
 0001:00001bad       ??0?$_Tree_unchecked_const_iterator@V?$_Tree_val@U?$_Tree_simple_types@U?$pair@QBXUtss_data_node@detail@boost@@@std@@@std@@@std@@U_Iterator_base0@2@@std@@QAE@PAU?$_Tree_node@U?$pair@QBXUtss_data_node@detail@boost@@@std@@PAX@1@PBV?$_Tree_val@U?$_Tree_simple_types@U?$pair@QBXUtss_data_node@detail@boost@@@std@@@std@@@1@@Z 10002bad f i nav.obj
 0001:00001bce       ??E?$_Tree_unchecked_const_iterator@V?$_Tree_val@U?$_Tree_simple_types@U?$pair@QBXUtss_data_node@detail@boost@@@std@@@std@@@std@@U_Iterator_base0@2@@std@@QAEAAV01@XZ 10002bce f i nav.obj
 0001:00001bce       ??E?$_Tree_unchecked_const_iterator@V?$_Tree_val@U?$_Tree_simple_types@U?$pair@QAUlua_State@@PAVILuaInterface@@@std@@@std@@@std@@U_Iterator_base0@2@@std@@QAEAAV01@XZ 10002bce f i ILuaModuleManager.obj
 0001:00001c67       ?_Buyheadnode@?$_Tree_alloc@$0A@U?$_Tree_base_types@U?$pair@QAUlua_State@@PAVILuaInterface@@@std@@V?$allocator@U?$pair@QAUlua_State@@PAVILuaInterface@@@std@@@2@@std@@@std@@QAEPAU?$_Tree_node@U?$pair@QAUlua_State@@PAVILuaInterface@@@std@@PAX@2@XZ 10002c67 f i ILuaModuleManager.obj
 0001:00001da3       ??0?$_Tree_val@U?$_Tree_simple_types@U?$pair@QBXUtss_data_node@detail@boost@@@std@@@std@@@std@@QAE@XZ 10002da3 f i nav.obj
 0001:00001da3       ??0?$_Tree_val@U?$_Tree_simple_types@U?$pair@QAUlua_State@@PAVILuaInterface@@@std@@@std@@@std@@QAE@XZ 10002da3 f i ILuaModuleManager.obj
 0001:00001dbc       ?allocate@?$_Wrap_alloc@V?$allocator@U?$_Tree_node@U?$pair@QAUlua_State@@PAVILuaInterface@@@std@@PAX@std@@@std@@@std@@QAEPAU?$_Tree_node@U?$pair@QAUlua_State@@PAVILuaInterface@@@std@@PAX@2@I@Z 10002dbc f i ILuaModuleManager.obj
 0001:00001dd2       ?allocate@?$allocator@U?$_Tree_node@U?$pair@QAUlua_State@@PAVILuaInterface@@@std@@PAX@std@@@std@@QAEPAU?$_Tree_node@U?$pair@QAUlua_State@@PAVILuaInterface@@@std@@PAX@2@I@Z 10002dd2 f i ILuaModuleManager.obj
 0001:00001de9       ??$?0ABQAUlua_State@@PAVILuaInterface@@@?$pair@PAUlua_State@@PAVILuaInterface@@@std@@QAE@ABQAUlua_State@@$$QAPAVILuaInterface@@PAPAX@Z 10002de9 f i ILuaModuleManager.obj
 0001:00001e18       ??$insert@U?$pair@PAUlua_State@@PAVILuaInterface@@@std@@@?$_Tree@V?$_Tmap_traits@PAUlua_State@@PAVILuaInterface@@U?$less@PAUlua_State@@@std@@V?$allocator@U?$pair@QAUlua_State@@PAVILuaInterface@@@std@@@4@$0A@@std@@@std@@QAE?AV?$_Tree_iterator@V?$_Tree_val@U?$_Tree_simple_types@U?$pair@QAUlua_State@@PAVILuaInterface@@@std@@@std@@@std@@@1@V?$_Tree_const_iterator@V?$_Tree_val@U?$_Tree_simple_types@U?$pair@QAUlua_State@@PAVILuaInterface@@@std@@@std@@@std@@@1@$$QAU?$pair@PAUlua_State@@PAVILuaInterface@@@1@@Z 10002e18 f i ILuaModuleManager.obj
 0001:00001e57       ??$?0V?$_Tree_iterator@V?$_Tree_val@U?$_Tree_simple_types@U?$pair@QAUlua_State@@PAVILuaInterface@@@std@@@std@@@std@@@std@@V01@@?$pair@V?$_Tree_iterator@V?$_Tree_val@U?$_Tree_simple_types@U?$pair@QAUlua_State@@PAVILuaInterface@@@std@@@std@@@std@@@std@@V12@@std@@QAE@$$QAU01@PAPAX@Z 10002e57 f i ILuaModuleManager.obj
 0001:00001e8a       ??$_Distance@V?$_Tree_iterator@V?$_Tree_val@U?$_Tree_simple_types@U?$pair@QAUlua_State@@PAVILuaInterface@@@std@@@std@@@std@@@std@@I@std@@YAXV?$_Tree_iterator@V?$_Tree_val@U?$_Tree_simple_types@U?$pair@QAUlua_State@@PAVILuaInterface@@@std@@@std@@@std@@@0@0AAI@Z 10002e8a f i ILuaModuleManager.obj
 0001:00001eb6       ??$swap@D@std@@YAXAAD0@Z   10002eb6 f i ILuaModuleManager.obj
 0001:00001eeb       ??$destroy@U?$pair@QAUlua_State@@PAVILuaInterface@@@std@@@?$_Wrap_alloc@V?$allocator@U?$_Tree_node@U?$pair@QAUlua_State@@PAVILuaInterface@@@std@@PAX@std@@@std@@@std@@QAEXPAU?$pair@QAUlua_State@@PAVILuaInterface@@@1@@Z 10002eeb f i ILuaModuleManager.obj
 0001:00001eeb       ??$destroy@PAU?$_Tree_node@U?$pair@QAUlua_State@@PAVILuaInterface@@@std@@PAX@std@@@?$_Wrap_alloc@V?$allocator@U?$_Tree_node@U?$pair@QAUlua_State@@PAVILuaInterface@@@std@@PAX@std@@@std@@@std@@QAEXPAPAU?$_Tree_node@U?$pair@QAUlua_State@@PAVILuaInterface@@@std@@PAX@1@@Z 10002eeb f i ILuaModuleManager.obj
 0001:00001eeb       ??$destroy@U?$pair@PAVcondition_variable@boost@@PAVmutex@2@@std@@@?$_Wrap_alloc@V?$allocator@U?$pair@PAVcondition_variable@boost@@PAVmutex@2@@std@@@std@@@std@@QAEXPAU?$pair@PAVcondition_variable@boost@@PAVmutex@2@@1@@Z 10002eeb f i nav.obj
 0001:00001eeb       ??$destroy@PAD@?$_Wrap_alloc@V?$allocator@D@std@@@std@@QAEXPAPAD@Z 10002eeb f i ILuaObject.obj
 0001:00001eeb       ??$destroy@PAU?$_Tree_node@U?$pair@QBXUtss_data_node@detail@boost@@@std@@PAX@std@@@?$_Wrap_alloc@V?$allocator@U?$_Tree_node@U?$pair@QBXUtss_data_node@detail@boost@@@std@@PAX@std@@@std@@@std@@QAEXPAPAU?$_Tree_node@U?$pair@QBXUtss_data_node@detail@boost@@@std@@PAX@1@@Z 10002eeb f i nav.obj
 0001:00001f03       ??$?0AAV?$_Tree_iterator@V?$_Tree_val@U?$_Tree_simple_types@U?$pair@QAUlua_State@@PAVILuaInterface@@@std@@@std@@@std@@@std@@AAV01@@?$pair@V?$_Tree_iterator@V?$_Tree_val@U?$_Tree_simple_types@U?$pair@QAUlua_State@@PAVILuaInterface@@@std@@@std@@@std@@@std@@V12@@std@@QAE@AAV?$_Tree_iterator@V?$_Tree_val@U?$_Tree_simple_types@U?$pair@QAUlua_State@@PAVILuaInterface@@@std@@@std@@@std@@@1@0PAPAX@Z 10002f03 f i ILuaModuleManager.obj
 0001:00001f32       ??$construct@PAU?$_Tree_node@U?$pair@QAUlua_State@@PAVILuaInterface@@@std@@PAX@std@@AAPAU12@@?$_Wrap_alloc@V?$allocator@U?$_Tree_node@U?$pair@QAUlua_State@@PAVILuaInterface@@@std@@PAX@std@@@std@@@std@@QAEXPAPAU?$_Tree_node@U?$pair@QAUlua_State@@PAVILuaInterface@@@std@@PAX@1@AAPAU21@@Z 10002f32 f i ILuaModuleManager.obj
 0001:00001f32       ??$construct@PAU?$_Tree_node@U?$pair@QBXUtss_data_node@detail@boost@@@std@@PAX@std@@AAPAU12@@?$_Wrap_alloc@V?$allocator@U?$_Tree_node@U?$pair@QBXUtss_data_node@detail@boost@@@std@@PAX@std@@@std@@@std@@QAEXPAPAU?$_Tree_node@U?$pair@QBXUtss_data_node@detail@boost@@@std@@PAX@1@AAPAU21@@Z 10002f32 f i nav.obj
 0001:00001f32       ??$construct@PADAAPAD@?$_Wrap_alloc@V?$allocator@D@std@@@std@@QAEXPAPADAAPAD@Z 10002f32 f i ILuaObject.obj
 0001:00001f55       ??$_Allocate@U?$_Tree_node@U?$pair@QAUlua_State@@PAVILuaInterface@@@std@@PAX@std@@@std@@YAPAU?$_Tree_node@U?$pair@QAUlua_State@@PAVILuaInterface@@@std@@PAX@0@IPAU10@@Z 10002f55 f i ILuaModuleManager.obj
 0001:00001f8e       ??$_Buynode@U?$pair@PAUlua_State@@PAVILuaInterface@@@std@@@?$_Tree_buy@U?$pair@QAUlua_State@@PAVILuaInterface@@@std@@V?$allocator@U?$pair@QAUlua_State@@PAVILuaInterface@@@std@@@2@@std@@QAEPAU?$_Tree_node@U?$pair@QAUlua_State@@PAVILuaInterface@@@std@@PAX@1@$$QAU?$pair@PAUlua_State@@PAVILuaInterface@@@1@@Z 10002f8e f i ILuaModuleManager.obj
 0001:0000205b       ??$_Insert_hint@AAU?$pair@QAUlua_State@@PAVILuaInterface@@@std@@PAU?$_Tree_node@U?$pair@QAUlua_State@@PAVILuaInterface@@@std@@PAX@2@@?$_Tree@V?$_Tmap_traits@PAUlua_State@@PAVILuaInterface@@U?$less@PAUlua_State@@@std@@V?$allocator@U?$pair@QAUlua_State@@PAVILuaInterface@@@std@@@4@$0A@@std@@@std@@IAE?AV?$_Tree_iterator@V?$_Tree_val@U?$_Tree_simple_types@U?$pair@QAUlua_State@@PAVILuaInterface@@@std@@@std@@@std@@@1@V?$_Tree_const_iterator@V?$_Tree_val@U?$_Tree_simple_types@U?$pair@QAUlua_State@@PAVILuaInterface@@@std@@@std@@@std@@@1@AAU?$pair@QAUlua_State@@PAVILuaInterface@@@1@PAU?$_Tree_node@U?$pair@QAUlua_State@@PAVILuaInterface@@@std@@PAX@1@@Z 1000305b f i ILuaModuleManager.obj
 0001:00002b5f       ??$_Iter_cat@V?$_Tree_iterator@V?$_Tree_val@U?$_Tree_simple_types@U?$pair@QAUlua_State@@PAVILuaInterface@@@std@@@std@@@std@@@std@@@std@@YA?AUbidirectional_iterator_tag@0@ABV?$_Tree_iterator@V?$_Tree_val@U?$_Tree_simple_types@U?$pair@QAUlua_State@@PAVILuaInterface@@@std@@@std@@@std@@@0@@Z 10003b5f f i ILuaModuleManager.obj
 0001:00002b70       ??$_Distance2@V?$_Tree_iterator@V?$_Tree_val@U?$_Tree_simple_types@U?$pair@QAUlua_State@@PAVILuaInterface@@@std@@@std@@@std@@@std@@I@std@@YAXV?$_Tree_iterator@V?$_Tree_val@U?$_Tree_simple_types@U?$pair@QAUlua_State@@PAVILuaInterface@@@std@@@std@@@std@@@0@0AAIUbidirectional_iterator_tag@0@@Z 10003b70 f i ILuaModuleManager.obj
 0001:00002b9f       ??$destroy@PAU?$_Tree_node@U?$pair@QAUlua_State@@PAVILuaInterface@@@std@@PAX@std@@@?$allocator_traits@V?$allocator@U?$_Tree_node@U?$pair@QAUlua_State@@PAVILuaInterface@@@std@@PAX@std@@@std@@@std@@SAXAAV?$allocator@U?$_Tree_node@U?$pair@QAUlua_State@@PAVILuaInterface@@@std@@PAX@std@@@1@PAPAU?$_Tree_node@U?$pair@QAUlua_State@@PAVILuaInterface@@@std@@PAX@1@@Z 10003b9f f i ILuaModuleManager.obj
 0001:00002b9f       ??$destroy@PAD@?$allocator_traits@V?$allocator@D@std@@@std@@SAXAAV?$allocator@D@1@PAPAD@Z 10003b9f f i ILuaObject.obj
 0001:00002b9f       ??$destroy@U?$pair@PAVcondition_variable@boost@@PAVmutex@2@@std@@@?$allocator_traits@V?$allocator@U?$pair@PAVcondition_variable@boost@@PAVmutex@2@@std@@@std@@@std@@SAXAAV?$allocator@U?$pair@PAVcondition_variable@boost@@PAVmutex@2@@std@@@1@PAU?$pair@PAVcondition_variable@boost@@PAVmutex@2@@1@@Z 10003b9f f i nav.obj
 0001:00002b9f       ??$destroy@PAU?$_Tree_node@U?$pair@QBXUtss_data_node@detail@boost@@@std@@PAX@std@@@?$allocator_traits@V?$allocator@U?$_Tree_node@U?$pair@QBXUtss_data_node@detail@boost@@@std@@PAX@std@@@std@@@std@@SAXAAV?$allocator@U?$_Tree_node@U?$pair@QBXUtss_data_node@detail@boost@@@std@@PAX@std@@@1@PAPAU?$_Tree_node@U?$pair@QBXUtss_data_node@detail@boost@@@std@@PAX@1@@Z 10003b9f f i nav.obj
 0001:00002b9f       ??$destroy@U?$pair@QAUlua_State@@PAVILuaInterface@@@std@@@?$allocator_traits@V?$allocator@U?$_Tree_node@U?$pair@QAUlua_State@@PAVILuaInterface@@@std@@PAX@std@@@std@@@std@@SAXAAV?$allocator@U?$_Tree_node@U?$pair@QAUlua_State@@PAVILuaInterface@@@std@@PAX@std@@@1@PAU?$pair@QAUlua_State@@PAVILuaInterface@@@1@@Z 10003b9f f i ILuaModuleManager.obj
 0001:00002baf       ??$construct@PAU?$_Tree_node@U?$pair@QBXUtss_data_node@detail@boost@@@std@@PAX@std@@AAPAU12@@?$allocator_traits@V?$allocator@U?$_Tree_node@U?$pair@QBXUtss_data_node@detail@boost@@@std@@PAX@std@@@std@@@std@@SAXAAV?$allocator@U?$_Tree_node@U?$pair@QBXUtss_data_node@detail@boost@@@std@@PAX@std@@@1@PAPAU?$_Tree_node@U?$pair@QBXUtss_data_node@detail@boost@@@std@@PAX@1@AAPAU31@@Z 10003baf f i nav.obj
 0001:00002baf       ??$construct@PAU?$_Tree_node@U?$pair@QAUlua_State@@PAVILuaInterface@@@std@@PAX@std@@AAPAU12@@?$allocator_traits@V?$allocator@U?$_Tree_node@U?$pair@QAUlua_State@@PAVILuaInterface@@@std@@PAX@std@@@std@@@std@@SAXAAV?$allocator@U?$_Tree_node@U?$pair@QAUlua_State@@PAVILuaInterface@@@std@@PAX@std@@@1@PAPAU?$_Tree_node@U?$pair@QAUlua_State@@PAVILuaInterface@@@std@@PAX@1@AAPAU31@@Z 10003baf f i ILuaModuleManager.obj
 0001:00002baf       ??$construct@PADAAPAD@?$allocator_traits@V?$allocator@D@std@@@std@@SAXAAV?$allocator@D@1@PAPADAAPAD@Z 10003baf f i ILuaObject.obj
 0001:00002bc9       ?NumAllocated@?$CUtlMemory@PAUJobInfo_t@@H@@QBEHXZ 10003bc9 f i main.obj
 0001:00002bc9       ?category@error_code@std@@QBEABVerror_category@2@XZ 10003bc9 f i ILuaObject.obj
 0001:00002bc9       ?size@?$_Tree@V?$_Tmap_traits@PAUlua_State@@PAVILuaInterface@@U?$less@PAUlua_State@@@std@@V?$allocator@U?$pair@QAUlua_State@@PAVILuaInterface@@@std@@@4@$0A@@std@@@std@@QBEIXZ 10003bc9 f i ILuaModuleManager.obj
 0001:00002bc9       ?NumAllocated@?$CUtlMemory@PAVNode@@H@@QBEHXZ 10003bc9 f i nav.obj
 0001:00002bc9       ?category@error_condition@std@@QBEABVerror_category@2@XZ 10003bc9 f i ILuaObject.obj
 0001:00002bd8       ?_Destroy_if_not_nil@?$_Tree@V?$_Tmap_traits@PAUlua_State@@PAVILuaInterface@@U?$less@PAUlua_State@@@std@@V?$allocator@U?$pair@QAUlua_State@@PAVILuaInterface@@@std@@@4@$0A@@std@@@std@@IAEXPAU?$_Tree_node@U?$pair@QAUlua_State@@PAVILuaInterface@@@std@@PAX@2@@Z 10003bd8 f i ILuaModuleManager.obj
 0001:00002c20       ?_Buynode0@?$_Tree_buy@U?$pair@QAUlua_State@@PAVILuaInterface@@@std@@V?$allocator@U?$pair@QAUlua_State@@PAVILuaInterface@@@std@@@2@@std@@QAEPAU?$_Tree_node@U?$pair@QAUlua_State@@PAVILuaInterface@@@std@@PAX@2@XZ 10003c20 f i ILuaModuleManager.obj
 0001:00002d41       ?_Freeheadnode@?$_Tree_alloc@$0A@U?$_Tree_base_types@U?$pair@QBXUtss_data_node@detail@boost@@@std@@V?$allocator@U?$pair@QBXUtss_data_node@detail@boost@@@std@@@2@@std@@@std@@QAEXPAU?$_Tree_node@U?$pair@QBXUtss_data_node@detail@boost@@@std@@PAX@2@@Z 10003d41 f i nav.obj
 0001:00002d41       ?_Freenode0@?$_Tree_buy@U?$pair@QAUlua_State@@PAVILuaInterface@@@std@@V?$allocator@U?$pair@QAUlua_State@@PAVILuaInterface@@@std@@@2@@std@@QAEXPAU?$_Tree_node@U?$pair@QAUlua_State@@PAVILuaInterface@@@std@@PAX@2@@Z 10003d41 f i ILuaModuleManager.obj
 0001:00002dd1       ??0?$_Tree_const_iterator@V?$_Tree_val@U?$_Tree_simple_types@U?$pair@QAUlua_State@@PAVILuaInterface@@@std@@@std@@@std@@@std@@QAE@XZ 10003dd1 f i ILuaModuleManager.obj
 0001:00002de5       ??F?$_Tree_const_iterator@V?$_Tree_val@U?$_Tree_simple_types@U?$pair@QAUlua_State@@PAVILuaInterface@@@std@@@std@@@std@@@std@@QAEAAV01@XZ 10003de5 f i ILuaModuleManager.obj
 0001:00002df9       ??E?$_Tree_iterator@V?$_Tree_val@U?$_Tree_simple_types@U?$pair@QAUlua_State@@PAVILuaInterface@@@std@@@std@@@std@@@std@@QAEAAV01@XZ 10003df9 f i ILuaModuleManager.obj
 0001:00002e0d       ??0?$intrusive_ptr@Uthread_data_base@detail@boost@@@boost@@QAE@XZ 10003e0d f i nav.obj
 0001:00002e0d       ??0?$_Tree_unchecked_const_iterator@V?$_Tree_val@U?$_Tree_simple_types@U?$pair@QAUlua_State@@PAVILuaInterface@@@std@@@std@@@std@@U_Iterator_base0@2@@std@@QAE@XZ 10003e0d f i ILuaModuleManager.obj
 0001:00002e0d       ??0?$refcount_ptr@Uerror_info_container@exception_detail@boost@@@exception_detail@boost@@QAE@XZ 10003e0d f i main.obj
 0001:00002e1f       ??F?$_Tree_unchecked_const_iterator@V?$_Tree_val@U?$_Tree_simple_types@U?$pair@QAUlua_State@@PAVILuaInterface@@@std@@@std@@@std@@U_Iterator_base0@2@@std@@QAEAAV01@XZ 10003e1f f i ILuaModuleManager.obj
 0001:00002ee1       ??$construct@U?$pair@QAUlua_State@@PAVILuaInterface@@@std@@U?$pair@PAUlua_State@@PAVILuaInterface@@@2@@?$_Wrap_alloc@V?$allocator@U?$_Tree_node@U?$pair@QAUlua_State@@PAVILuaInterface@@@std@@PAX@std@@@std@@@std@@QAEXPAU?$pair@QAUlua_State@@PAVILuaInterface@@@1@$$QAU?$pair@PAUlua_State@@PAVILuaInterface@@@1@@Z 10003ee1 f i ILuaModuleManager.obj
 0001:00002f04       ??$_Insert_at@AAU?$pair@QAUlua_State@@PAVILuaInterface@@@std@@PAU?$_Tree_node@U?$pair@QAUlua_State@@PAVILuaInterface@@@std@@PAX@2@@?$_Tree@V?$_Tmap_traits@PAUlua_State@@PAVILuaInterface@@U?$less@PAUlua_State@@@std@@V?$allocator@U?$pair@QAUlua_State@@PAVILuaInterface@@@std@@@4@$0A@@std@@@std@@IAE?AV?$_Tree_iterator@V?$_Tree_val@U?$_Tree_simple_types@U?$pair@QAUlua_State@@PAVILuaInterface@@@std@@@std@@@std@@@1@_NPAU?$_Tree_node@U?$pair@QAUlua_State@@PAVILuaInterface@@@std@@PAX@1@AAU?$pair@QAUlua_State@@PAVILuaInterface@@@1@1@Z 10003f04 f i ILuaModuleManager.obj
 0001:00003272       ??$_Insert_nohint@AAU?$pair@QAUlua_State@@PAVILuaInterface@@@std@@PAU?$_Tree_node@U?$pair@QAUlua_State@@PAVILuaInterface@@@std@@PAX@2@@?$_Tree@V?$_Tmap_traits@PAUlua_State@@PAVILuaInterface@@U?$less@PAUlua_State@@@std@@V?$allocator@U?$pair@QAUlua_State@@PAVILuaInterface@@@std@@@4@$0A@@std@@@std@@IAE?AU?$pair@V?$_Tree_iterator@V?$_Tree_val@U?$_Tree_simple_types@U?$pair@QAUlua_State@@PAVILuaInterface@@@std@@@std@@@std@@@std@@_N@1@_NAAU?$pair@QAUlua_State@@PAVILuaInterface@@@1@PAU?$_Tree_node@U?$pair@QAUlua_State@@PAVILuaInterface@@@std@@PAX@1@@Z 10004272 f i ILuaModuleManager.obj
 0001:00003608       ??$construct@PAU?$_Tree_node@U?$pair@QAUlua_State@@PAVILuaInterface@@@std@@PAX@std@@AAPAU12@@?$allocator@U?$_Tree_node@U?$pair@QAUlua_State@@PAVILuaInterface@@@std@@PAX@std@@@std@@QAEXPAPAU?$_Tree_node@U?$pair@QAUlua_State@@PAVILuaInterface@@@std@@PAX@1@AAPAU21@@Z 10004608 f i ILuaModuleManager.obj
 0001:00003608       ??$construct@PAU?$_Tree_node@U?$pair@QBXUtss_data_node@detail@boost@@@std@@PAX@std@@AAPAU12@@?$allocator@U?$_Tree_node@U?$pair@QBXUtss_data_node@detail@boost@@@std@@PAX@std@@@std@@QAEXPAPAU?$_Tree_node@U?$pair@QBXUtss_data_node@detail@boost@@@std@@PAX@1@AAPAU21@@Z 10004608 f i nav.obj
 0001:00003608       ??$construct@PADAAPAD@?$allocator@D@std@@QAEXPAPADAAPAD@Z 10004608 f i ILuaObject.obj
 0001:0000367e       ?max_size@?$_Tree@V?$_Tmap_traits@PAUlua_State@@PAVILuaInterface@@U?$less@PAUlua_State@@@std@@V?$allocator@U?$pair@QAUlua_State@@PAVILuaInterface@@@std@@@4@$0A@@std@@@std@@QBEIXZ 1000467e f i ILuaModuleManager.obj
 0001:0000369b       ??F?$_Tree_iterator@V?$_Tree_val@U?$_Tree_simple_types@U?$pair@QAUlua_State@@PAVILuaInterface@@@std@@@std@@@std@@@std@@QAEAAV01@XZ 1000469b f i ILuaModuleManager.obj
 0001:000036af       ?max_size@?$_Wrap_alloc@V?$allocator@U?$_Tree_node@U?$pair@QAUlua_State@@PAVILuaInterface@@@std@@PAX@std@@@std@@@std@@QBEIXZ 100046af f i ILuaModuleManager.obj
 0001:000036c1       ?max_size@?$allocator_traits@V?$allocator@U?$_Tree_node@U?$pair@QAUlua_State@@PAVILuaInterface@@@std@@PAX@std@@@std@@@std@@SAIABV?$allocator@U?$_Tree_node@U?$pair@QAUlua_State@@PAVILuaInterface@@@std@@PAX@std@@@2@@Z 100046c1 f i ILuaModuleManager.obj
 0001:000036ce       ?max_size@?$allocator@U?$_Tree_node@U?$pair@QAUlua_State@@PAVILuaInterface@@@std@@PAX@std@@@std@@QBEIXZ 100046ce f i ILuaModuleManager.obj
 0001:000036dc       ??$construct@U?$pair@QAUlua_State@@PAVILuaInterface@@@std@@U?$pair@PAUlua_State@@PAVILuaInterface@@@2@@?$allocator_traits@V?$allocator@U?$_Tree_node@U?$pair@QAUlua_State@@PAVILuaInterface@@@std@@PAX@std@@@std@@@std@@SAXAAV?$allocator@U?$_Tree_node@U?$pair@QAUlua_State@@PAVILuaInterface@@@std@@PAX@std@@@1@PAU?$pair@QAUlua_State@@PAVILuaInterface@@@1@$$QAU?$pair@PAUlua_State@@PAVILuaInterface@@@1@@Z 100046dc f i ILuaModuleManager.obj
 0001:000036f6       ??$_Buynode_if_nil@AAU?$pair@QAUlua_State@@PAVILuaInterface@@@std@@@?$_Tree@V?$_Tmap_traits@PAUlua_State@@PAVILuaInterface@@U?$less@PAUlua_State@@@std@@V?$allocator@U?$pair@QAUlua_State@@PAVILuaInterface@@@std@@@4@$0A@@std@@@std@@IAEPAU?$_Tree_node@U?$pair@QAUlua_State@@PAVILuaInterface@@@std@@PAX@1@PAU21@AAU?$pair@QAUlua_State@@PAVILuaInterface@@@1@@Z 100046f6 f i ILuaModuleManager.obj
 0001:00003704       ??$?0AAV?$_Tree_iterator@V?$_Tree_val@U?$_Tree_simple_types@U?$pair@QAUlua_State@@PAVILuaInterface@@@std@@@std@@@std@@@std@@_N@?$pair@V?$_Tree_iterator@V?$_Tree_val@U?$_Tree_simple_types@U?$pair@QAUlua_State@@PAVILuaInterface@@@std@@@std@@@std@@@std@@_N@std@@QAE@AAV?$_Tree_iterator@V?$_Tree_val@U?$_Tree_simple_types@U?$pair@QAUlua_State@@PAVILuaInterface@@@std@@@std@@@std@@@1@$$QA_NPAPAX@Z 10004704 f i ILuaModuleManager.obj
 0001:00003704       ??$?0V?$_Tree_iterator@V?$_Tree_val@U?$_Tree_simple_types@U?$pair@QAUlua_State@@PAVILuaInterface@@@std@@@std@@@std@@@std@@_N@?$pair@V?$_Tree_iterator@V?$_Tree_val@U?$_Tree_simple_types@U?$pair@QAUlua_State@@PAVILuaInterface@@@std@@@std@@@std@@@std@@_N@std@@QAE@$$QAV?$_Tree_iterator@V?$_Tree_val@U?$_Tree_simple_types@U?$pair@QAUlua_State@@PAVILuaInterface@@@std@@@std@@@std@@@1@$$QA_NPAPAX@Z 10004704 f i ILuaModuleManager.obj
 0001:00003733       ??$?0V?$_Tree_iterator@V?$_Tree_val@U?$_Tree_simple_types@U?$pair@QAUlua_State@@PAVILuaInterface@@@std@@@std@@@std@@@std@@_N@?$pair@V?$_Tree_iterator@V?$_Tree_val@U?$_Tree_simple_types@U?$pair@QAUlua_State@@PAVILuaInterface@@@std@@@std@@@std@@@std@@_N@std@@QAE@$$QAU01@PAPAX@Z 10004733 f i ILuaModuleManager.obj
 0001:00003766       ??$construct@U?$pair@QAUlua_State@@PAVILuaInterface@@@std@@U?$pair@PAUlua_State@@PAVILuaInterface@@@2@@?$allocator@U?$_Tree_node@U?$pair@QAUlua_State@@PAVILuaInterface@@@std@@PAX@std@@@std@@QAEXPAU?$pair@QAUlua_State@@PAVILuaInterface@@@1@$$QAU?$pair@PAUlua_State@@PAVILuaInterface@@@1@@Z 10004766 f i ILuaModuleManager.obj
 0001:000037dd       ??$?0PAUlua_State@@PAVILuaInterface@@@?$pair@QAUlua_State@@PAVILuaInterface@@@std@@QAE@$$QAU?$pair@PAUlua_State@@PAVILuaInterface@@@1@PAPAX@Z 100047dd f i ILuaModuleManager.obj
 0001:00003810       ?length@?$char_traits@D@std@@SAIPBD@Z 10004810 f i ILuaObject.obj
 0001:00003858       ?copy@?$char_traits@D@std@@SAPADPADPBDI@Z 10004858 f i ILuaObject.obj
 0001:00003883       ?move@?$char_traits@D@std@@SAPADPADPBDI@Z 10004883 f i ILuaObject.obj
 0001:000038ae       ?assign@?$char_traits@D@std@@SAXAADABD@Z 100048ae f i ILuaObject.obj
 0001:000038bd       ??0handle_manager@win32@detail@boost@@QAE@PAX@Z 100048bd f i nav.obj
 0001:000038bd       ??0Iterator_t@?$CUtlMemory@U?$UtlLinkedListElem_t@UGroundSeedSpot@@H@@H@@QAE@H@Z 100048bd f i nav.obj
 0001:000038bd       ??0id@locale@std@@QAE@I@Z  100048bd f i ILuaObject.obj
 0001:000038bd       ??0?$mf3@XVNav@@PAUJobInfo_t@@PAVNode@@PAV3@@_mfi@boost@@QAE@P8Nav@@AEXPAUJobInfo_t@@PAVNode@@1@Z@Z 100048bd f i nav.obj
 0001:000038bd       ??0?$mf1@XVNav@@PA_N@_mfi@boost@@QAE@P8Nav@@AEXPA_N@Z@Z 100048bd f i nav.obj
 0001:000038bd       ??0?$int_adapter@I@date_time@boost@@QAE@I@Z 100048bd f i main.obj
 0001:000038bd       ??0Iterator_t@?$CUtlMemory@U?$UtlLinkedListElem_t@UAirSeedSpot@@H@@H@@QAE@H@Z 100048bd f i nav.obj
 0001:000038bd       ??0?$storage1@V?$value@PAVNav@@@_bi@boost@@@_bi@boost@@QAE@V?$value@PAVNav@@@12@@Z 100048bd f i nav.obj
 0001:000038d3       ??0error_category@std@@QAE@XZ 100048d3 f i ILuaObject.obj
 0001:000038e8       ??1error_category@std@@UAE@XZ 100048e8 f i ILuaObject.obj
 0001:000038fa       ??8error_category@std@@QBE_NABV01@@Z 100048fa f i ILuaObject.obj
 0001:0000391e       ??_Eerror_category@std@@UAEPAXI@Z 1000491e f i * CIL library *:* CIL module *
 0001:0000391e       ??_Gerror_category@std@@UAEPAXI@Z 1000491e f i ILuaObject.obj
 0001:00003945       ??0ILuaObject@@QAE@PAVILuaBase@Lua@GarrysMod@@H@Z 10004945 f i ILuaObject.obj
 0001:00003945       ??0error_condition@std@@QAE@HABVerror_category@1@@Z 10004945 f i ILuaObject.obj
 0001:00003945       ??0error_code@system@boost@@QAE@HABVerror_category@12@@Z 10004945 f i nav.obj
 0001:00003964       ??8error_condition@std@@QBE_NABV01@@Z 10004964 f i ILuaObject.obj
 0001:000039b7       ?default_error_condition@error_category@std@@UBE?AVerror_condition@2@H@Z 100049b7 f i ILuaObject.obj
 0001:000039d3       ?equivalent@error_category@std@@UBE_NHABVerror_condition@2@@Z 100049d3 f i ILuaObject.obj
 0001:000039fc       ?equivalent@error_category@std@@UBE_NABVerror_code@2@H@Z 100049fc f i ILuaObject.obj
 0001:00003a3d       ??0_Generic_error_category@std@@QAE@XZ 10004a3d f i ILuaObject.obj
 0001:00003a5a       ?name@_Generic_error_category@std@@UBEPBDXZ 10004a5a f i ILuaObject.obj
 0001:00003a68       ?message@_Generic_error_category@std@@UBE?AV?$basic_string@DU?$char_traits@D@std@@V?$allocator@D@2@@2@H@Z 10004a68 f i ILuaObject.obj
 0001:00003ab1       ??_E_Generic_error_category@std@@UAEPAXI@Z 10004ab1 f i * CIL library *:* CIL module *
 0001:00003ab1       ??_G_Generic_error_category@std@@UAEPAXI@Z 10004ab1 f i ILuaObject.obj
 0001:00003ad8       ??1_Generic_error_category@std@@UAE@XZ 10004ad8 f i ILuaObject.obj
 0001:00003ae9       ??0_Iostream_error_category@std@@QAE@XZ 10004ae9 f i ILuaObject.obj
 0001:00003b06       ?name@_Iostream_error_category@std@@UBEPBDXZ 10004b06 f i ILuaObject.obj
 0001:00003b14       ?message@_Iostream_error_category@std@@UBE?AV?$basic_string@DU?$char_traits@D@std@@V?$allocator@D@2@@2@H@Z 10004b14 f i ILuaObject.obj
 0001:00003b61       ??_E_System_error_category@std@@UAEPAXI@Z 10004b61 f i * CIL library *:* CIL module *
 0001:00003b61       ??_G_Iostream_error_category@std@@UAEPAXI@Z 10004b61 f i ILuaObject.obj
 0001:00003b61       ??_G_System_error_category@std@@UAEPAXI@Z 10004b61 f i ILuaObject.obj
 0001:00003b61       ??_E_Iostream_error_category@std@@UAEPAXI@Z 10004b61 f i * CIL library *:* CIL module *
 0001:00003b88       ??1_Iostream_error_category@std@@UAE@XZ 10004b88 f i ILuaObject.obj
 0001:00003b88       ??1_System_error_category@std@@UAE@XZ 10004b88 f i ILuaObject.obj
 0001:00003b99       ??0_System_error_category@std@@QAE@XZ 10004b99 f i ILuaObject.obj
 0001:00003bb6       ?name@_System_error_category@std@@UBEPBDXZ 10004bb6 f i ILuaObject.obj
 0001:00003bc4       ?message@_System_error_category@std@@UBE?AV?$basic_string@DU?$char_traits@D@std@@V?$allocator@D@2@@2@H@Z 10004bc4 f i ILuaObject.obj
 0001:00003c0d       ?default_error_condition@_System_error_category@std@@UBE?AVerror_condition@2@H@Z 10004c0d f i ILuaObject.obj
 0001:00003c51       ?generic_category@std@@YAABVerror_category@1@XZ 10004c51 f i ILuaObject.obj
 0001:00003c5b       ?system_category@std@@YAABVerror_category@1@XZ 10004c5b f i ILuaObject.obj
 0001:00003c65       ?ValidateGrowSize@?$CUtlMemory@PAUJobInfo_t@@H@@IAEXXZ 10004c65 f   main.obj
 0001:00003c65       ?ValidateGrowSize@?$CUtlMemory@U?$UtlLinkedListElem_t@UGroundSeedSpot@@H@@H@@IAEXXZ 10004c65 f   nav.obj
 0001:00003c65       ?ValidateGrowSize@?$CUtlMemory@PAVNode@@H@@IAEXXZ 10004c65 f   main.obj
 0001:00003c65       ??1ILuaObject@@QAE@XZ      10004c65 f   ILuaObject.obj
 0001:00003c65       ?_Orphan_all@_Container_base0@std@@QAEXXZ 10004c65 f   nav.obj
 0001:00003c65       ?ValidateGrowSize@?$CUtlMemory@U?$UtlLinkedListElem_t@UAirSeedSpot@@H@@H@@IAEXXZ 10004c65 f   nav.obj
 0001:00003c6e       ?UnReference@ILuaObject@@QAEXXZ 10004c6e f   ILuaObject.obj
 0001:00003cb6       ??_GILuaObject@@QAEPAXI@Z  10004cb6 f i ILuaObject.obj
 0001:00003cdd       ?SetMember@ILuaObject@@QAEXPBDPAV1@@Z 10004cdd f   ILuaObject.obj
 0001:00003d2e       ?SetMember@ILuaObject@@QAEXPBDN@Z 10004d2e f   ILuaObject.obj
 0001:00003d92       ?SetMember@ILuaObject@@QAEXPBDP6AHPAUlua_State@@@Z@Z 10004d92 f   ILuaObject.obj
 0001:00003df0       ?SetMember@ILuaObject@@QAEXNPAV1@@Z 10004df0 f   ILuaObject.obj
 0001:00003e48       ?SetMember@ILuaObject@@QAEXMPAV1@@Z 10004e48 f   ILuaObject.obj
 0001:00003e6a       ?GetMember@ILuaObject@@QAEPAV1@PBD@Z 10004e6a f   ILuaObject.obj
 0001:00003f1f       ?Push@ILuaObject@@QAEXXZ   10004f1f f   ILuaObject.obj
 0001:00003f40       ??0?$basic_string@DU?$char_traits@D@std@@V?$allocator@D@2@@std@@QAE@PBD@Z 10004f40 f i ILuaObject.obj
 0001:00003f77       ??1?$basic_string@DU?$char_traits@D@std@@V?$allocator@D@2@@std@@QAE@XZ 10004f77 f i ILuaObject.obj
 0001:00003f8c       ?assign@?$basic_string@DU?$char_traits@D@std@@V?$allocator@D@2@@std@@QAEAAV12@PBD@Z 10004f8c f i ILuaObject.obj
 0001:00003fac       ?size@?$basic_string@DU?$char_traits@D@std@@V?$allocator@D@2@@std@@QBEIXZ 10004fac f i ILuaObject.obj
 0001:00003fac       ?TellPut@CUtlBuffer@@QBEHXZ 10004fac f i nav.obj
 0001:00003fbb       ?_Tidy@?$basic_string@DU?$char_traits@D@std@@V?$allocator@D@2@@std@@QAEX_NI@Z 10004fbb f i ILuaObject.obj
 0001:0000404a       ??0?$_String_alloc@$0A@U?$_String_base_types@DV?$allocator@D@std@@@std@@@std@@QAE@ABV?$allocator@D@1@@Z 1000504a f i ILuaObject.obj
 0001:00004060       ?_Myptr@?$_String_val@U?$_Simple_types@D@std@@@std@@QBEPBDXZ 10005060 f i ILuaObject.obj
 0001:00004060       ?_Myptr@?$_String_val@U?$_Simple_types@D@std@@@std@@QAEPADXZ 10005060 f i ILuaObject.obj
 0001:0000408c       ?assign@?$basic_string@DU?$char_traits@D@std@@V?$allocator@D@2@@std@@QAEAAV12@PBDI@Z 1000508c f i ILuaObject.obj
 0001:00004100       ?_Eos@?$basic_string@DU?$char_traits@D@std@@V?$allocator@D@2@@std@@QAEXI@Z 10005100 f i ILuaObject.obj
 0001:00004130       ?_Xran@?$basic_string@DU?$char_traits@D@std@@V?$allocator@D@2@@std@@QBEXXZ 10005130 f i ILuaObject.obj
 0001:00004143       ??0?$_String_val@U?$_Simple_types@D@std@@@std@@QAE@XZ 10005143 f i ILuaObject.obj
 0001:0000415d       ?assign@?$basic_string@DU?$char_traits@D@std@@V?$allocator@D@2@@std@@QAEAAV12@ABV12@II@Z 1000515d f i ILuaObject.obj
 0001:00004202       ?_Grow@?$basic_string@DU?$char_traits@D@std@@V?$allocator@D@2@@std@@QAE_NI_N@Z 10005202 f i ILuaObject.obj
 0001:000042a1       ?_Inside@?$basic_string@DU?$char_traits@D@std@@V?$allocator@D@2@@std@@QAE_NPBD@Z 100052a1 f i ILuaObject.obj
 0001:000042da       ?_Xlen@?$basic_string@DU?$char_traits@D@std@@V?$allocator@D@2@@std@@QBEXXZ 100052da f i ILuaObject.obj
 0001:000042ed       ?erase@?$basic_string@DU?$char_traits@D@std@@V?$allocator@D@2@@std@@QAEAAV12@I@Z 100052ed f i ILuaObject.obj
 0001:00004319       ?erase@?$basic_string@DU?$char_traits@D@std@@V?$allocator@D@2@@std@@QAEAAV12@II@Z 10005319 f i ILuaObject.obj
 0001:0000439b       ?max_size@?$basic_string@DU?$char_traits@D@std@@V?$allocator@D@2@@std@@QBEIXZ 1000539b f i ILuaObject.obj
 0001:000043d5       ?_Copy@?$basic_string@DU?$char_traits@D@std@@V?$allocator@D@2@@std@@QAEXII@Z 100053d5 f i ILuaObject.obj
 0001:00004575       ?allocate@?$_Wrap_alloc@V?$allocator@D@std@@@std@@QAEPADI@Z 10005575 f i ILuaObject.obj
 0001:0000458b       ?max_size@?$_Wrap_alloc@V?$allocator@D@std@@@std@@QBEIXZ 1000558b f i ILuaObject.obj
 0001:0000459d       ?allocate@?$allocator@D@std@@QAEPADI@Z 1000559d f i ILuaObject.obj
 0001:000045b4       ?max_size@?$allocator_traits@V?$allocator@D@std@@@std@@SAIABV?$allocator@D@2@@Z 100055b4 f i ILuaObject.obj
 0001:000045c1       ?max_size@?$allocator@D@std@@QBEIXZ 100055c1 f i ILuaObject.obj
 0001:000045cd       ??$_Allocate@D@std@@YAPADIPAD@Z 100055cd f i ILuaObject.obj
 0001:000045ff       ??0Vector@@QAE@MMM@Z       100055ff f i main.obj
 0001:00004633       ??4Vector@@QAEAAV0@ABV0@@Z 10005633 f i main.obj
 0001:00004663       ?VectorSubtract@@YAXABVVector@@0AAV1@@Z 10005663 f i main.obj
 0001:000046ad       ?VectorLength@@YAMABVVector@@@Z 100056ad f i main.obj
 0001:000046f5       ?Length@Vector@@QBEMXZ     100056f5 f i main.obj
 0001:00004707       ?DistTo@Vector@@QBEMABV1@@Z 10005707 f i main.obj
 0001:00004736       ??0Vector4D@@QAE@MMMM@Z    10005736 f i main.obj
 0001:000047ac       ?min@?$numeric_limits@I@std@@SAIXZ 100057ac f i main.obj
 0001:000047b3       ?max@?$numeric_limits@I@std@@SAIXZ 100057b3 f i main.obj
 0001:000047b3       ?InvalidIndex@?$CUtlMemory@U?$UtlLinkedListElem_t@UAirSeedSpot@@H@@H@@SAHXZ 100057b3 f i nav.obj
 0001:000047b3       ?InvalidIndex@?$CUtlMemory@U?$UtlLinkedListElem_t@UGroundSeedSpot@@H@@H@@SAHXZ 100057b3 f i nav.obj
 0001:000047bb       ?min@?$numeric_limits@_J@std@@SA_JXZ 100057bb f i main.obj
 0001:000047c7       ?max@?$numeric_limits@_J@std@@SA_JXZ 100057c7 f i main.obj
 0001:000047d4       ??0logic_error@std@@QAE@PBD@Z 100057d4 f i main.obj
 0001:000047f7       ??_Glogic_error@std@@UAEPAXI@Z 100057f7 f i main.obj
 0001:000047f7       ??_Gruntime_error@std@@UAEPAXI@Z 100057f7 f i main.obj
 0001:000047f7       ??_Elogic_error@std@@UAEPAXI@Z 100057f7 f i * CIL library *:* CIL module *
 0001:000047f7       ??_Eruntime_error@std@@UAEPAXI@Z 100057f7 f i * CIL library *:* CIL module *
 0001:0000481e       ??1runtime_error@std@@UAE@XZ 1000581e f i main.obj
 0001:0000481e       ??1logic_error@std@@UAE@XZ 1000581e f i main.obj
 0001:0000482f       ??0out_of_range@std@@QAE@ABV?$basic_string@DU?$char_traits@D@std@@V?$allocator@D@2@@1@@Z 1000582f f i main.obj
 0001:00004857       ??_Gout_of_range@std@@UAEPAXI@Z 10005857 f i main.obj
 0001:00004857       ??_Eout_of_range@std@@UAEPAXI@Z 10005857 f i * CIL library *:* CIL module *
 0001:0000487e       ??1out_of_range@std@@UAE@XZ 1000587e f i main.obj
 0001:0000488f       ??0runtime_error@std@@QAE@PBD@Z 1000588f f i main.obj
 0001:000048b2       ??0runtime_error@std@@QAE@ABV01@@Z 100058b2 f i main.obj
 0001:000048d4       ??0exception@boost@@IAE@XZ 100058d4 f i main.obj
 0001:00004909       ??1exception@boost@@MAE@XZ 10005909 f i main.obj
 0001:00004926       ??1clone_base@exception_detail@boost@@UAE@XZ 10005926 f i main.obj
 0001:00004938       ??_Eclone_base@exception_detail@boost@@UAEPAXI@Z 10005938 f i * CIL library *:* CIL module *
 0001:00004938       ??_Gclone_base@exception_detail@boost@@UAEPAXI@Z 10005938 f i main.obj
 0001:0000495f       ?copy_boost_exception@exception_detail@boost@@YAXPAVexception@2@PBV32@@Z 1000595f f i main.obj
 0001:00004a23       ?gmtime@c_time@date_time@boost@@SAPAUtm@@PB_JPAU4@@Z 10005a23 f i main.obj
 0001:00004a98       ?get_system_time_as_file_time@winapi@date_time@boost@@YAXAAUFILETIME@123@@Z 10005a98 f i main.obj
 0001:00004aa6       ?as_number@time_resolution_traits_adapted64_impl@date_time@boost@@SA_JV?$int_adapter@_J@23@@Z 10005aa6 f i main.obj
 0001:00004ab3       ?is_adapted@time_resolution_traits_adapted64_impl@date_time@boost@@SA_NXZ 10005ab3 f i main.obj
 0001:00004aba       ??0bad_day_of_month@gregorian@boost@@QAE@XZ 10005aba f i main.obj
 0001:00004b39       ??0bad_day_of_month@gregorian@boost@@QAE@ABV?$basic_string@DU?$char_traits@D@std@@V?$allocator@D@2@@std@@@Z 10005b39 f i main.obj
 0001:00004b5b       ??_Gbad_month@gregorian@boost@@UAEPAXI@Z 10005b5b f i main.obj
 0001:00004b5b       ??_Gbad_year@gregorian@boost@@UAEPAXI@Z 10005b5b f i main.obj
 0001:00004b5b       ??_Ebad_year@gregorian@boost@@UAEPAXI@Z 10005b5b f i * CIL library *:* CIL module *
 0001:00004b5b       ??_Ebad_month@gregorian@boost@@UAEPAXI@Z 10005b5b f i * CIL library *:* CIL module *
 0001:00004b5b       ??_Gbad_day_of_month@gregorian@boost@@UAEPAXI@Z 10005b5b f i main.obj
 0001:00004b5b       ??_Ebad_day_of_month@gregorian@boost@@UAEPAXI@Z 10005b5b f i * CIL library *:* CIL module *
 0001:00004b82       ??1bad_month@gregorian@boost@@UAE@XZ 10005b82 f i main.obj
 0001:00004b82       ??1bad_year@gregorian@boost@@UAE@XZ 10005b82 f i main.obj
 0001:00004b82       ??1bad_day_of_month@gregorian@boost@@UAE@XZ 10005b82 f i main.obj
 0001:00004b93       ??0greg_day@gregorian@boost@@QAE@G@Z 10005b93 f i main.obj
 0001:00004bac       ??Bgreg_day@gregorian@boost@@QBEGXZ 10005bac f i main.obj
 0001:00004bac       ??Bgreg_month@gregorian@boost@@QBEGXZ 10005bac f i main.obj
 0001:00004bac       ??Bgreg_year@gregorian@boost@@QBEGXZ 10005bac f i main.obj
 0001:00004bbb       ??0bad_year@gregorian@boost@@QAE@XZ 10005bbb f i main.obj
 0001:00004c3a       ??0greg_year@gregorian@boost@@QAE@G@Z 10005c3a f i main.obj
 0001:00004c53       ??0bad_month@gregorian@boost@@QAE@XZ 10005c53 f i main.obj
 0001:00004cd2       ??0greg_month@gregorian@boost@@QAE@G@Z 10005cd2 f i main.obj
 0001:00004ceb       ??0date@gregorian@boost@@QAE@Vgreg_year@12@Vgreg_month@12@Vgreg_day@12@@Z 10005ceb f i main.obj
 0001:00004db6       ??0time_duration@posix_time@boost@@QAE@HHH_J@Z 10005db6 f i main.obj
 0001:00004ddb       ??0?$counted_time_rep@Vmillisec_posix_time_system_config@posix_time@boost@@@date_time@boost@@QAE@_J@Z 10005ddb f i main.obj
 0001:00004ddb       ??0time_duration@posix_time@boost@@IAE@V?$int_adapter@_J@date_time@2@@Z 10005ddb f i main.obj
 0001:00004df7       ??0ptime@posix_time@boost@@QAE@Vdate@gregorian@2@Vtime_duration@12@@Z 10005df7 f i main.obj
 0001:00004e17       ??0time_duration@posix_time@boost@@QAE@ABV012@@Z 10005e17 f i main.obj
 0001:00004e17       ??0ptime@posix_time@boost@@QAE@ABU?$counted_time_rep@Vmillisec_posix_time_system_config@posix_time@boost@@@date_time@2@@Z 10005e17 f i main.obj
 0001:00004e30       ?get_system_time@boost@@YA?AVptime@posix_time@1@XZ 10005e30 f i main.obj
 0001:00004e41       ?free_raw_heap_memory@detail@boost@@YAXPAX@Z 10005e41 f i main.obj
 0001:00004e58       ?intrusive_ptr_release@detail@boost@@YAXPAUthread_data_base@12@@Z 10005e58 f i main.obj
 0001:00004e76       ??0timeout@detail@boost@@QAE@_K@Z 10005e76 f i main.obj
 0001:00004eb2       ?pin_to_zero@detail@boost@@YA_K_J@Z 10005eb2 f i main.obj
 0001:00004ee4       ?interruptible_wait@this_thread@boost@@YAX_K@Z 10005ee4 f i main.obj
 0001:00004f03       ??1thread@boost@@QAE@XZ    10005f03 f i main.obj
 0001:00004f4e       _gmod13_open               10005f4e f   main.obj
 0001:00004f6a       _gmod13_close              10005f6a f   main.obj
 0001:00004f8d       ?NewVectorObject@@YAPAVILuaObject@@PAUlua_State@@AAVVector@@@Z 10005f8d f   main.obj
 0001:000050e4       ?GMOD_PushVector@@YAXPAUlua_State@@AAVVector@@@Z 100060e4 f   main.obj
 0001:0000511a       ?GMOD_GetVector@@YAAAVVector@@PAUlua_State@@H@Z 1000611a f   main.obj
 0001:0000511a       ?GetNode@@YAPAVNode@@PAUlua_State@@H@Z 1000611a f   main.obj
 0001:00005137       ?GetNav@@YAPAVNav@@PAUlua_State@@H@Z 10006137 f   main.obj
 0001:0000517c       ?PushNav@@YAXPAUlua_State@@PAVNav@@@Z 1000617c f   main.obj
 0001:000051eb       ?PushNode@@YAXPAUlua_State@@PAVNode@@@Z 100061eb f   main.obj
 0001:0000525a       ?nav_Create@@YAHPAUlua_State@@@Z 1000625a f   main.obj
 0001:00005305       ?nav_Poll@@YAHPAUlua_State@@@Z 10006305 f   main.obj
 0001:0000566f       ??_GJobInfo_t@@QAEPAXI@Z   1000666f f i main.obj
 0001:00005696       ??1JobInfo_t@@QAE@XZ       10006696 f i main.obj
 0001:000056e4       ?Nav_GetNodeByID@@YAHPAUlua_State@@@Z 100066e4 f   main.obj
 0001:00005766       ?Nav_GetNodeTotal@@YAHPAUlua_State@@@Z 10006766 f   main.obj
 0001:000057c3       ?Nav_GetNodes@@YAHPAUlua_State@@@Z 100067c3 f   main.obj
 0001:000058db       ?Nav_SetupMaxDistance@@YAHPAUlua_State@@@Z 100068db f   main.obj
 0001:0000596d       ?Nav_AddGroundSeed@@YAHPAUlua_State@@@Z 1000696d f   main.obj
 0001:000059ef       ?Nav_AddAirSeed@@YAHPAUlua_State@@@Z 100069ef f   main.obj
 0001:00005a4b       ?Nav_ClearGroundSeeds@@YAHPAUlua_State@@@Z 10006a4b f   main.obj
 0001:00005a81       ?Nav_ClearAirSeeds@@YAHPAUlua_State@@@Z 10006a81 f   main.obj
 0001:00005ab7       ?Nav_Generate@@YAHPAUlua_State@@@Z 10006ab7 f   main.obj
 0001:00005c28       ??0JobInfo_t@@QAE@XZ       10006c28 f i main.obj
 0001:00005c93       ?Nav_FullGeneration@@YAHPAUlua_State@@@Z 10006c93 f   main.obj
 0001:00005d2c       ?Nav_IsGenerated@@YAHPAUlua_State@@@Z 10006d2c f   main.obj
 0001:00005d7c       ?Nav_FindPath@@YAHPAUlua_State@@@Z 10006d7c f   main.obj
 0001:00005e96       ?Nav_FindPathImmediate@@YAHPAUlua_State@@@Z 10006e96 f   main.obj
 0001:00006095       ?Nav_FindPathHull@@YAHPAUlua_State@@@Z 10007095 f   main.obj
 0001:00006211       ?Nav_GetHeuristic@@YAHPAUlua_State@@@Z 10007211 f   main.obj
 0001:00006267       ?Nav_GetStart@@YAHPAUlua_State@@@Z 10007267 f   main.obj
 0001:000062a9       ?Nav_GetEnd@@YAHPAUlua_State@@@Z 100072a9 f   main.obj
 0001:000062eb       ?Nav_SetHeuristic@@YAHPAUlua_State@@@Z 100072eb f   main.obj
 0001:00006357       ?Nav_SetStart@@YAHPAUlua_State@@@Z 10007357 f   main.obj
 0001:000063b6       ?Nav_SetEnd@@YAHPAUlua_State@@@Z 100073b6 f   main.obj
 0001:00006415       ?Nav_GetNode@@YAHPAUlua_State@@@Z 10007415 f   main.obj
 0001:0000647d       ?Nav_GetClosestNode@@YAHPAUlua_State@@@Z 1000747d f   main.obj
 0001:000064e5       ?Nav_GetNodesInSphere@@YAHPAUlua_State@@@Z 100074e5 f   main.obj
 0001:00006691       ?Nav_Save@@YAHPAUlua_State@@@Z 10007691 f   main.obj
 0001:00006714       ?Nav_Load@@YAHPAUlua_State@@@Z 10007714 f   main.obj
 0001:00006797       ?Nav_GetDiagonal@@YAHPAUlua_State@@@Z 10007797 f   main.obj
 0001:000067e7       ?Nav_SetDiagonal@@YAHPAUlua_State@@@Z 100077e7 f   main.obj
 0001:00006838       ?Nav_GetGridSize@@YAHPAUlua_State@@@Z 10007838 f   main.obj
 0001:0000688e       ?Nav_SetGridSize@@YAHPAUlua_State@@@Z 1000788e f   main.obj
 0001:000068f5       ?Nav_GetMask@@YAHPAUlua_State@@@Z 100078f5 f   main.obj
 0001:0000694b       ?Nav_SetMask@@YAHPAUlua_State@@@Z 1000794b f   main.obj
 0001:000069b2       ?Nav_CreateNode@@YAHPAUlua_State@@@Z 100079b2 f   main.obj
 0001:00006a44       ?Nav_RemoveNode@@YAHPAUlua_State@@@Z 10007a44 f   main.obj
 0001:00006aa3       ?Node__eq@@YAHPAUlua_State@@@Z 10007aa3 f   main.obj
 0001:00006b34       ?Node_GetID@@YAHPAUlua_State@@@Z 10007b34 f   main.obj
 0001:00006b92       ?Node_GetPosition@@YAHPAUlua_State@@@Z 10007b92 f   main.obj
 0001:00006bcd       ?Node_GetNormal@@YAHPAUlua_State@@@Z 10007bcd f   main.obj
 0001:00006c0b       ?Node_IsDisabled@@YAHPAUlua_State@@@Z 10007c0b f   main.obj
 0001:00006c5b       ?Node_SetDisabled@@YAHPAUlua_State@@@Z 10007c5b f   main.obj
 0001:00006cc5       ?Node_GetConnections@@YAHPAUlua_State@@@Z 10007cc5 f   main.obj
 0001:00006dd1       ?Node_IsConnected@@YAHPAUlua_State@@@Z 10007dd1 f   main.obj
 0001:00006e96       ?Node_SetNormal@@YAHPAUlua_State@@@Z 10007e96 f   main.obj
 0001:00006ef2       ?Node_SetPosition@@YAHPAUlua_State@@@Z 10007ef2 f   main.obj
 0001:00006f4e       ?Node_ConnectTo@@YAHPAUlua_State@@@Z 10007f4e f   main.obj
 0001:0000702c       ?Node_RemoveConnection@@YAHPAUlua_State@@@Z 1000802c f   main.obj
 0001:000070c9       ?Init@@YAHPAUlua_State@@@Z 100080c9 f   main.obj
 0001:00007912       ?Shutdown@@YAHPAUlua_State@@@Z 10008912 f   main.obj
 0001:000079c7       ?c_str@?$basic_string@DU?$char_traits@D@std@@V?$allocator@D@2@@std@@QBEPBDXZ 100089c7 f i main.obj
 0001:000079d8       ??1?$refcount_ptr@Uerror_info_container@exception_detail@boost@@@exception_detail@boost@@QAE@XZ 100089d8 f i main.obj
 0001:000079e9       ??4?$refcount_ptr@Uerror_info_container@exception_detail@boost@@@exception_detail@boost@@QAEAAV012@ABV012@@Z 100089e9 f i main.obj
 0001:00007a04       ?as_number@?$int_adapter@_J@date_time@boost@@QBE_JXZ 10008a04 f i main.obj
 0001:00007a15       ??0?$constrained_value@V?$simple_exception_policy@G$00$0BP@Ubad_day_of_month@gregorian@boost@@@CV@boost@@@CV@boost@@QAE@G@Z 10008a15 f i main.obj
 0001:00007a39       ??0?$constrained_value@V?$simple_exception_policy@G$0FHI@$0CHBA@Ubad_year@gregorian@boost@@@CV@boost@@@CV@boost@@QAE@G@Z 10008a39 f i main.obj
 0001:00007a5d       ??0?$constrained_value@V?$simple_exception_policy@G$00$0M@Ubad_month@gregorian@boost@@@CV@boost@@@CV@boost@@QAE@G@Z 10008a5d f i main.obj
 0001:00007a81       ??0?$date@V0gregorian@boost@@Vgregorian_calendar@12@Vdate_duration@12@@date_time@boost@@QAE@Vgreg_year@gregorian@2@Vgreg_month@42@Vgreg_day@42@@Z 10008a81 f i main.obj
 0001:00007aae       ??0?$time_duration@V0posix_time@boost@@V?$time_resolution_traits@Utime_resolution_traits_adapted64_impl@date_time@boost@@$04$0PECEA@$05H@date_time@2@@date_time@boost@@QAE@HHH_J@Z 10008aae f i main.obj
 0001:00007add       ??0?$base_time@Vptime@posix_time@boost@@V?$counted_time_system@U?$counted_time_rep@Vmillisec_posix_time_system_config@posix_time@boost@@@date_time@boost@@@date_time@3@@date_time@boost@@QAE@ABU?$counted_time_rep@Vmillisec_posix_time_system_config@posix_time@boost@@@12@@Z 10008add f i main.obj
 0001:00007add       ??0?$time_duration@V0posix_time@boost@@V?$time_resolution_traits@Utime_resolution_traits_adapted64_impl@date_time@boost@@$04$0PECEA@$05H@date_time@2@@date_time@boost@@QAE@ABV012@@Z 10008add f i main.obj
 0001:00007afb       ?ticks_per_second@?$time_duration@V0posix_time@boost@@V?$time_resolution_traits@Utime_resolution_traits_adapted64_impl@date_time@boost@@$04$0PECEA@$05H@date_time@2@@date_time@boost@@SA_JXZ 10008afb f i main.obj
 0001:00007b05       ?total_milliseconds@?$time_duration@V0posix_time@boost@@V?$time_resolution_traits@Utime_resolution_traits_adapted64_impl@date_time@boost@@$04$0PECEA@$05H@date_time@2@@date_time@boost@@QBE_JXZ 10008b05 f i main.obj
 0001:00007b82       ??0?$int_adapter@_J@date_time@boost@@QAE@_J@Z 10008b82 f i main.obj
 0001:00007b82       ??0?$counted_time_rep@Vmillisec_posix_time_system_config@posix_time@boost@@@date_time@boost@@QAE@V?$int_adapter@_J@12@@Z 10008b82 f i main.obj
 0001:00007b82       ??0?$time_duration@V0posix_time@boost@@V?$time_resolution_traits@Utime_resolution_traits_adapted64_impl@date_time@boost@@$04$0PECEA@$05H@date_time@2@@date_time@boost@@IAE@V?$int_adapter@_J@12@@Z 10008b82 f i main.obj
 0001:00007b9e       ??0?$base_time@Vptime@posix_time@boost@@V?$counted_time_system@U?$counted_time_rep@Vmillisec_posix_time_system_config@posix_time@boost@@@date_time@boost@@@date_time@3@@date_time@boost@@QAE@ABVdate@gregorian@2@ABVtime_duration@posix_time@2@W4dst_flags@12@@Z 10008b9e f i main.obj
 0001:00007bc0       ??H?$base_time@Vptime@posix_time@boost@@V?$counted_time_system@U?$counted_time_rep@Vmillisec_posix_time_system_config@posix_time@boost@@@date_time@boost@@@date_time@3@@date_time@boost@@QBE?AVptime@posix_time@2@ABVtime_duration@42@@Z 10008bc0 f i main.obj
 0001:00007bf4       ?universal_time@?$microsec_clock@Vptime@posix_time@boost@@@date_time@boost@@SA?AVptime@posix_time@3@XZ 10008bf4 f i main.obj
 0001:00007c0b       ??1?$intrusive_ptr@Uthread_data_base@detail@boost@@@boost@@QAE@XZ 10008c0b f i main.obj
 0001:00007c27       ??0?$subsecond_duration@Vtime_duration@posix_time@boost@@$0DOI@@date_time@boost@@QAE@_J@Z 10008c27 f i main.obj
 0001:00007c89       ?adopt@?$refcount_ptr@Uerror_info_container@exception_detail@boost@@@exception_detail@boost@@QAEXPAUerror_info_container@23@@Z 10008c89 f i main.obj
 0001:00007cac       ?release@?$refcount_ptr@Uerror_info_container@exception_detail@boost@@@exception_detail@boost@@AAEXXZ 10008cac f i main.obj
 0001:00007cd9       ?min@?$constrained_value@V?$simple_exception_policy@G$00$0M@Ubad_month@gregorian@boost@@@CV@boost@@@CV@boost@@SAGXZ 10008cd9 f i main.obj
 0001:00007cd9       ?min@?$constrained_value@V?$simple_exception_policy@G$00$0BP@Ubad_day_of_month@gregorian@boost@@@CV@boost@@@CV@boost@@SAGXZ 10008cd9 f i main.obj
 0001:00007ce3       ?assign@?$constrained_value@V?$simple_exception_policy@G$00$0BP@Ubad_day_of_month@gregorian@boost@@@CV@boost@@@CV@boost@@AAEXG@Z 10008ce3 f i main.obj
 0001:00007d48       ?min@?$constrained_value@V?$simple_exception_policy@G$0FHI@$0CHBA@Ubad_year@gregorian@boost@@@CV@boost@@@CV@boost@@SAGXZ 10008d48 f i main.obj
 0001:00007d52       ?assign@?$constrained_value@V?$simple_exception_policy@G$0FHI@$0CHBA@Ubad_year@gregorian@boost@@@CV@boost@@@CV@boost@@AAEXG@Z 10008d52 f i main.obj
 0001:00007db7       ?assign@?$constrained_value@V?$simple_exception_policy@G$00$0M@Ubad_month@gregorian@boost@@@CV@boost@@@CV@boost@@AAEXG@Z 10008db7 f i main.obj
 0001:00007e1c       ?pos_infinity@?$int_adapter@I@date_time@boost@@SA?BV123@XZ 10008e1c f i main.obj
 0001:00007e32       ?neg_infinity@?$int_adapter@I@date_time@boost@@SA?BV123@XZ 10008e32 f i main.obj
 0001:00007e48       ?not_a_number@?$int_adapter@I@date_time@boost@@SA?BV123@XZ 10008e48 f i main.obj
 0001:00007e5f       ?is_not_a_date@?$date@V0gregorian@boost@@Vgregorian_calendar@12@Vdate_duration@12@@date_time@boost@@QBE_NXZ 10008e5f f i main.obj
 0001:00007e73       ?is_infinity@?$date@V0gregorian@boost@@Vgregorian_calendar@12@Vdate_duration@12@@date_time@boost@@QBE_NXZ 10008e73 f i main.obj
 0001:00007e87       ?time_count@?$counted_time_rep@Vmillisec_posix_time_system_config@posix_time@boost@@@date_time@boost@@QBE_JXZ 10008e87 f i main.obj
 0001:00007e87       ?ticks@?$time_duration@V0posix_time@boost@@V?$time_resolution_traits@Utime_resolution_traits_adapted64_impl@date_time@boost@@$04$0PECEA@$05H@date_time@2@@date_time@boost@@QBE_JXZ 10008e87 f i main.obj
 0001:00007e9f       ?res_adjust@?$time_resolution_traits@Utime_resolution_traits_adapted64_impl@date_time@boost@@$04$0PECEA@$05H@date_time@boost@@SA_JXZ 10008e9f f i main.obj
 0001:00007eab       ?to_tick_count@?$time_resolution_traits@Utime_resolution_traits_adapted64_impl@date_time@boost@@$04$0PECEA@$05H@date_time@boost@@SA_JHHH_J@Z 10008eab f i main.obj
 0001:00007faa       ?get_time_rep@?$counted_time_system@U?$counted_time_rep@Vmillisec_posix_time_system_config@posix_time@boost@@@date_time@boost@@@date_time@boost@@SA?AU?$counted_time_rep@Vmillisec_posix_time_system_config@posix_time@boost@@@23@ABVdate@gregorian@3@ABVtime_duration@posix_time@3@W4dst_flags@23@@Z 10008faa f i main.obj
 0001:00007fca       ?add_time_duration@?$counted_time_system@U?$counted_time_rep@Vmillisec_posix_time_system_config@posix_time@boost@@@date_time@boost@@@date_time@boost@@SA?AU?$counted_time_rep@Vmillisec_posix_time_system_config@posix_time@boost@@@23@ABU423@Vtime_duration@posix_time@3@@Z 10008fca f i main.obj
 0001:00008051       ?create_time@?$microsec_clock@Vptime@posix_time@boost@@@date_time@boost@@CA?AVptime@posix_time@3@P6APAUtm@@PB_JPAU6@@Z@Z 10009051 f i main.obj
 0001:00008155       ?add_ref@?$refcount_ptr@Uerror_info_container@exception_detail@boost@@@exception_detail@boost@@AAEXXZ 10009155 f i main.obj
 0001:00008175       ?pos_infinity@?$int_adapter@_J@date_time@boost@@SA?BV123@XZ 10009175 f i main.obj
 0001:0000818c       ?neg_infinity@?$int_adapter@_J@date_time@boost@@SA?BV123@XZ 1000918c f i main.obj
 0001:000081a3       ?not_a_number@?$int_adapter@_J@date_time@boost@@SA?BV123@XZ 100091a3 f i main.obj
 0001:000081c0       ?is_pos_inf@?$int_adapter@_J@date_time@boost@@SA_N_J@Z 100091c0 f i main.obj
 0001:000081ff       ?max@?$constrained_value@V?$simple_exception_policy@G$00$0BP@Ubad_day_of_month@gregorian@boost@@@CV@boost@@@CV@boost@@SAGXZ 100091ff f i main.obj
 0001:00008209       ?min@?$simple_exception_policy@G$00$0M@Ubad_month@gregorian@boost@@@CV@boost@@SAGXZ 10009209 f i main.obj
 0001:00008209       ?min@?$simple_exception_policy@G$00$0BP@Ubad_day_of_month@gregorian@boost@@@CV@boost@@SAGXZ 10009209 f i main.obj
 0001:00008211       ?on_error@?$simple_exception_policy@G$00$0BP@Ubad_day_of_month@gregorian@boost@@@CV@boost@@SAXGGW4violation_enum@23@@Z 10009211 f i main.obj
 0001:0000826c       ?max@?$constrained_value@V?$simple_exception_policy@G$0FHI@$0CHBA@Ubad_year@gregorian@boost@@@CV@boost@@@CV@boost@@SAGXZ 1000926c f i main.obj
 0001:00008276       ?min@?$simple_exception_policy@G$0FHI@$0CHBA@Ubad_year@gregorian@boost@@@CV@boost@@SAGXZ 10009276 f i main.obj
 0001:00008280       ?on_error@?$simple_exception_policy@G$0FHI@$0CHBA@Ubad_year@gregorian@boost@@@CV@boost@@SAXGGW4violation_enum@23@@Z 10009280 f i main.obj
 0001:000082db       ?max@?$constrained_value@V?$simple_exception_policy@G$00$0M@Ubad_month@gregorian@boost@@@CV@boost@@@CV@boost@@SAGXZ 100092db f i main.obj
 0001:000082e5       ?on_error@?$simple_exception_policy@G$00$0M@Ubad_month@gregorian@boost@@@CV@boost@@SAXGGW4violation_enum@23@@Z 100092e5 f i main.obj
 0001:00008340       ?is_inf@?$int_adapter@I@date_time@boost@@SA_NI@Z 10009340 f i main.obj
 0001:00008384       ?is_neg_inf@?$int_adapter@I@date_time@boost@@SA_NI@Z 10009384 f i main.obj
 0001:000083b1       ?is_pos_inf@?$int_adapter@I@date_time@boost@@SA_NI@Z 100093b1 f i main.obj
 0001:000083de       ?is_not_a_number@?$int_adapter@I@date_time@boost@@SA_NI@Z 100093de f i main.obj
 0001:0000840b       ?is_special@?$time_duration@V0posix_time@boost@@V?$time_resolution_traits@Utime_resolution_traits_adapted64_impl@date_time@boost@@$04$0PECEA@$05H@date_time@2@@date_time@boost@@QBE_NXZ 1000940b f i main.obj
 0001:0000842e       ?get_rep@?$counted_time_rep@Vmillisec_posix_time_system_config@posix_time@boost@@@date_time@boost@@QBE?AV?$int_adapter@_J@23@XZ 1000942e f i main.obj
 0001:0000842e       ?get_rep@?$time_duration@V0posix_time@boost@@V?$time_resolution_traits@Utime_resolution_traits_adapted64_impl@date_time@boost@@$04$0PECEA@$05H@date_time@2@@date_time@boost@@QBE?AV?$int_adapter@_J@23@XZ 1000942e f i main.obj
 0001:0000844c       ?as_number@?$time_resolution_traits@Utime_resolution_traits_adapted64_impl@date_time@boost@@$04$0PECEA@$05H@date_time@boost@@SA_JV?$int_adapter@_J@23@@Z 1000944c f i main.obj
 0001:0000845e       ??0?$counted_time_rep@Vmillisec_posix_time_system_config@posix_time@boost@@@date_time@boost@@QAE@ABVdate@gregorian@2@ABVtime_duration@posix_time@2@@Z 1000945e f i main.obj
 0001:00008520       ?frac_sec_per_day@?$counted_time_rep@Vmillisec_posix_time_system_config@posix_time@boost@@@date_time@boost@@SA_JXZ 10009520 f i main.obj
 0001:0000854f       ?is_special@?$counted_time_rep@Vmillisec_posix_time_system_config@posix_time@boost@@@date_time@boost@@QBE_NXZ 1000954f f i main.obj
 0001:00008560       ?is_neg_inf@?$int_adapter@_J@date_time@boost@@SA_N_J@Z 10009560 f i main.obj
 0001:0000859f       ?is_special@?$int_adapter@_J@date_time@boost@@QBE_NXZ 1000959f f i main.obj
 0001:000085d7       ?max@?$simple_exception_policy@G$00$0BP@Ubad_day_of_month@gregorian@boost@@@CV@boost@@SAGXZ 100095d7 f i main.obj
 0001:000085df       ?max@?$simple_exception_policy@G$0FHI@$0CHBA@Ubad_year@gregorian@boost@@@CV@boost@@SAGXZ 100095df f i main.obj
 0001:000085e9       ?max@?$simple_exception_policy@G$00$0M@Ubad_month@gregorian@boost@@@CV@boost@@SAGXZ 100095e9 f i main.obj
 0001:000085f1       ?is_infinity@?$int_adapter@I@date_time@boost@@QBE_NXZ 100095f1 f i main.obj
 0001:0000863c       ?is_nan@?$int_adapter@I@date_time@boost@@QBE_NXZ 1000963c f i main.obj
 0001:0000866f       ?is_special@?$int_adapter@I@date_time@boost@@QBE_NXZ 1000966f f i main.obj
 0001:000086a7       ?day_count@?$date@V0gregorian@boost@@Vgregorian_calendar@12@Vdate_duration@12@@date_time@boost@@QBE?AV?$int_adapter@I@23@XZ 100096a7 f i main.obj
 0001:000086c2       ?is_adapted@?$time_resolution_traits@Utime_resolution_traits_adapted64_impl@date_time@boost@@$04$0PECEA@$05H@date_time@boost@@SA_NXZ 100096c2 f i main.obj
 0001:000086cc       ?is_infinity@?$int_adapter@_J@date_time@boost@@QBE_NXZ 100096cc f i main.obj
 0001:0000874b       ?is_nan@?$int_adapter@_J@date_time@boost@@QBE_NXZ 1000974b f i main.obj
 0001:00008798       ??$throw_exception@Vruntime_error@std@@@boost@@YAXABVruntime_error@std@@@Z 10009798 f i main.obj
 0001:00008816       ??0?$year_month_day_base@Vgreg_year@gregorian@boost@@Vgreg_month@23@Vgreg_day@23@@date_time@boost@@QAE@Vgreg_year@gregorian@2@Vgreg_month@42@Vgreg_day@42@@Z 10009816 f i main.obj
 0001:00008844       ?day_number@?$gregorian_calendar_base@U?$year_month_day_base@Vgreg_year@gregorian@boost@@Vgreg_month@23@Vgreg_day@23@@date_time@boost@@I@date_time@boost@@SAIABU?$year_month_day_base@Vgreg_year@gregorian@boost@@Vgreg_month@23@Vgreg_day@23@@23@@Z 10009844 f i main.obj
 0001:00008904       ?end_of_month_day@?$gregorian_calendar_base@U?$year_month_day_base@Vgreg_year@gregorian@boost@@Vgreg_month@23@Vgreg_day@23@@date_time@boost@@I@date_time@boost@@SAGVgreg_year@gregorian@3@Vgreg_month@53@@Z 10009904 f i main.obj
 0001:0000895c       ??$throw_exception@Ubad_day_of_month@gregorian@boost@@@boost@@YAXABUbad_day_of_month@gregorian@0@@Z 1000995c f i main.obj
 0001:000089da       ??$heap_delete@Uthread_data_base@detail@boost@@@detail@boost@@YAXPAUthread_data_base@01@@Z 100099da f i main.obj
 0001:000089f4       ??$absolute_value@H@date_time@boost@@YAHH@Z 100099f4 f i main.obj
 0001:00008a13       ??0?$CUtlVector@PAVNode@@V?$CUtlMemory@PAVNode@@H@@@@QAE@HH@Z 10009a13 f i main.obj
 0001:00008a13       ??0?$CUtlVector@PAUJobInfo_t@@V?$CUtlMemory@PAUJobInfo_t@@H@@@@QAE@HH@Z 10009a13 f i main.obj
 0001:00008a70       ??1?$CUtlVector@PAUJobInfo_t@@V?$CUtlMemory@PAUJobInfo_t@@H@@@@QAE@XZ 10009a70 f i main.obj
 0001:00008a70       ??1?$CUtlVector@PAVNode@@V?$CUtlMemory@PAVNode@@H@@@@QAE@XZ 10009a70 f i main.obj
 0001:00008abb       ?Element@?$CUtlVector@PAUJobInfo_t@@V?$CUtlMemory@PAUJobInfo_t@@H@@@@QAEAAPAUJobInfo_t@@H@Z 10009abb f i main.obj
 0001:00008abb       ?Element@?$CUtlVector@PAVNode@@V?$CUtlMemory@PAVNode@@H@@@@QAEAAPAVNode@@H@Z 10009abb f i main.obj
 0001:00008abb       ??A?$CUtlVector@PAUJobInfo_t@@V?$CUtlMemory@PAUJobInfo_t@@H@@@@QAEAAPAUJobInfo_t@@H@Z 10009abb f i main.obj
 0001:00008abb       ??A?$CUtlVector@PAVNode@@V?$CUtlMemory@PAVNode@@H@@@@QAEAAPAVNode@@H@Z 10009abb f i main.obj
 0001:00008abb       ?Element@?$CUtlVector@PAVNode@@V?$CUtlMemory@PAVNode@@H@@@@QBEABQAVNode@@H@Z 10009abb f i nav.obj
 0001:00008ad1       ?Size@?$CUtlVector@PAUJobInfo_t@@V?$CUtlMemory@PAUJobInfo_t@@H@@@@QBEHXZ 10009ad1 f i main.obj
 0001:00008ad1       ?Head@?$CUtlLinkedList@UGroundSeedSpot@@H$0A@HV?$CUtlMemory@U?$UtlLinkedListElem_t@UGroundSeedSpot@@H@@H@@@@QBEHXZ 10009ad1 f i nav.obj
 0001:00008ad1       ?Head@?$CUtlLinkedList@UAirSeedSpot@@H$0A@HV?$CUtlMemory@U?$UtlLinkedListElem_t@UAirSeedSpot@@H@@H@@@@QBEHXZ 10009ad1 f i nav.obj
 0001:00008ad1       ?Count@?$CUtlVector@PAVNode@@V?$CUtlMemory@PAVNode@@H@@@@QBEHXZ 10009ad1 f i main.obj
 0001:00008ad1       ?Size@?$CUtlVector@PAVNode@@V?$CUtlMemory@PAVNode@@H@@@@QBEHXZ 10009ad1 f i main.obj
 0001:00008ae0       ?AddToTail@?$CUtlVector@PAUJobInfo_t@@V?$CUtlMemory@PAUJobInfo_t@@H@@@@QAEHABQAUJobInfo_t@@@Z 10009ae0 f i main.obj
 0001:00008ae0       ?AddToTail@?$CUtlVector@PAVNode@@V?$CUtlMemory@PAVNode@@H@@@@QAEHABQAVNode@@@Z 10009ae0 f i nav.obj
 0001:00008afc       ?Remove@?$CUtlVector@PAUJobInfo_t@@V?$CUtlMemory@PAUJobInfo_t@@H@@@@QAEXH@Z 10009afc f i main.obj
 0001:00008afc       ?Remove@?$CUtlVector@PAVNode@@V?$CUtlMemory@PAVNode@@H@@@@QAEXH@Z 10009afc f i nav.obj
 0001:00008b33       ??$timed_join@Vtime_duration@posix_time@boost@@@thread@boost@@QAE_NABVtime_duration@posix_time@1@@Z 10009b33 f i main.obj
 0001:00008b61       ??$sleep@Vtime_duration@posix_time@boost@@@this_thread@boost@@YAXABVtime_duration@posix_time@1@@Z 10009b61 f i main.obj
 0001:00008b80       ??$absolute_value@_J@date_time@boost@@YA_J_J@Z 10009b80 f i main.obj
 0001:00008bbc       ??$?H_J@?$int_adapter@_J@date_time@boost@@QBE?AV012@ABV012@@Z 10009bbc f i main.obj
 0001:00008d12       ??$file_time_to_microseconds@UFILETIME@winapi@date_time@boost@@@winapi@date_time@boost@@YA_KABUFILETIME@012@@Z 10009d12 f i main.obj
 0001:00008d5c       ??$throw_exception@Ubad_year@gregorian@boost@@@boost@@YAXABUbad_year@gregorian@0@@Z 10009d5c f i main.obj
 0001:00008dda       ??$throw_exception@Ubad_month@gregorian@boost@@@boost@@YAXABUbad_month@gregorian@0@@Z 10009dda f i main.obj
 0001:00008e58       ??$?HI@?$int_adapter@_J@date_time@boost@@QBE?AV012@ABV?$int_adapter@I@12@@Z 10009e58 f i main.obj
 0001:00008fa8       ??_D?$clone_impl@U?$error_info_injector@Vruntime_error@std@@@exception_detail@boost@@@exception_detail@boost@@QAEXXZ 10009fa8 f i main.obj
 0001:00008fc4       ??0?$clone_impl@U?$error_info_injector@Vruntime_error@std@@@exception_detail@boost@@@exception_detail@boost@@QAE@ABV012@@Z 10009fc4 f i main.obj
 0001:00009093       ??0?$error_info_injector@Vruntime_error@std@@@exception_detail@boost@@QAE@ABU012@@Z 1000a093 f i main.obj
 0001:00009115       ??0exception@boost@@QAE@ABV01@@Z 1000a115 f i main.obj
 0001:00009162       ??0clone_base@exception_detail@boost@@QAE@ABV012@@Z 1000a162 f i main.obj
 0001:00009179       ??_D?$clone_impl@U?$error_info_injector@Ubad_day_of_month@gregorian@boost@@@exception_detail@boost@@@exception_detail@boost@@QAEXXZ 1000a179 f i main.obj
 0001:00009195       ??0?$clone_impl@U?$error_info_injector@Ubad_day_of_month@gregorian@boost@@@exception_detail@boost@@@exception_detail@boost@@QAE@ABV012@@Z 1000a195 f i main.obj
 0001:00009264       ??0?$error_info_injector@Ubad_day_of_month@gregorian@boost@@@exception_detail@boost@@QAE@ABU012@@Z 1000a264 f i main.obj
 0001:000092e6       ??0bad_day_of_month@gregorian@boost@@QAE@ABU012@@Z 1000a2e6 f i main.obj
 0001:00009308       ??0out_of_range@std@@QAE@ABV01@@Z 1000a308 f i main.obj
 0001:0000932a       ??0logic_error@std@@QAE@ABV01@@Z 1000a32a f i main.obj
 0001:0000934c       ??_D?$clone_impl@U?$error_info_injector@Ubad_year@gregorian@boost@@@exception_detail@boost@@@exception_detail@boost@@QAEXXZ 1000a34c f i main.obj
 0001:00009368       ??0?$clone_impl@U?$error_info_injector@Ubad_year@gregorian@boost@@@exception_detail@boost@@@exception_detail@boost@@QAE@ABV012@@Z 1000a368 f i main.obj
 0001:00009437       ??0?$error_info_injector@Ubad_year@gregorian@boost@@@exception_detail@boost@@QAE@ABU012@@Z 1000a437 f i main.obj
 0001:000094b9       ??0bad_year@gregorian@boost@@QAE@ABU012@@Z 1000a4b9 f i main.obj
 0001:000094db       ??_D?$clone_impl@U?$error_info_injector@Ubad_month@gregorian@boost@@@exception_detail@boost@@@exception_detail@boost@@QAEXXZ 1000a4db f i main.obj
 0001:000094f7       ??0?$clone_impl@U?$error_info_injector@Ubad_month@gregorian@boost@@@exception_detail@boost@@@exception_detail@boost@@QAE@ABV012@@Z 1000a4f7 f i main.obj
 0001:000095c6       ??0?$error_info_injector@Ubad_month@gregorian@boost@@@exception_detail@boost@@QAE@ABU012@@Z 1000a5c6 f i main.obj
 0001:00009648       ??0bad_month@gregorian@boost@@QAE@ABU012@@Z 1000a648 f i main.obj
 0001:0000966a       ??_G?$clone_impl@U?$error_info_injector@Vruntime_error@std@@@exception_detail@boost@@@exception_detail@boost@@UAEPAXI@Z 1000a66a f i main.obj
 0001:0000966a       ??_E?$clone_impl@U?$error_info_injector@Vruntime_error@std@@@exception_detail@boost@@@exception_detail@boost@@UAEPAXI@Z 1000a66a f i * CIL library *:* CIL module *
 0001:00009691       ??_E?$error_info_injector@Vruntime_error@std@@@exception_detail@boost@@UAEPAXI@Z 1000a691 f i * CIL library *:* CIL module *
 0001:00009691       ??_G?$error_info_injector@Vruntime_error@std@@@exception_detail@boost@@UAEPAXI@Z 1000a691 f i main.obj
 0001:000096b8       ??_G?$clone_impl@U?$error_info_injector@Ubad_day_of_month@gregorian@boost@@@exception_detail@boost@@@exception_detail@boost@@UAEPAXI@Z 1000a6b8 f i main.obj
 0001:000096b8       ??_E?$clone_impl@U?$error_info_injector@Ubad_day_of_month@gregorian@boost@@@exception_detail@boost@@@exception_detail@boost@@UAEPAXI@Z 1000a6b8 f i * CIL library *:* CIL module *
 0001:000096df       ??_G?$error_info_injector@Ubad_day_of_month@gregorian@boost@@@exception_detail@boost@@UAEPAXI@Z 1000a6df f i main.obj
 0001:000096df       ??_E?$error_info_injector@Ubad_day_of_month@gregorian@boost@@@exception_detail@boost@@UAEPAXI@Z 1000a6df f i * CIL library *:* CIL module *
 0001:00009706       ??_E?$clone_impl@U?$error_info_injector@Ubad_year@gregorian@boost@@@exception_detail@boost@@@exception_detail@boost@@UAEPAXI@Z 1000a706 f i * CIL library *:* CIL module *
 0001:00009706       ??_G?$clone_impl@U?$error_info_injector@Ubad_year@gregorian@boost@@@exception_detail@boost@@@exception_detail@boost@@UAEPAXI@Z 1000a706 f i main.obj
 0001:0000972d       ??_E?$error_info_injector@Ubad_year@gregorian@boost@@@exception_detail@boost@@UAEPAXI@Z 1000a72d f i * CIL library *:* CIL module *
 0001:0000972d       ??_G?$error_info_injector@Ubad_year@gregorian@boost@@@exception_detail@boost@@UAEPAXI@Z 1000a72d f i main.obj
 0001:00009754       ??_G?$clone_impl@U?$error_info_injector@Ubad_month@gregorian@boost@@@exception_detail@boost@@@exception_detail@boost@@UAEPAXI@Z 1000a754 f i main.obj
 0001:00009754       ??_E?$clone_impl@U?$error_info_injector@Ubad_month@gregorian@boost@@@exception_detail@boost@@@exception_detail@boost@@UAEPAXI@Z 1000a754 f i * CIL library *:* CIL module *
 0001:0000977b       ??_G?$error_info_injector@Ubad_month@gregorian@boost@@@exception_detail@boost@@UAEPAXI@Z 1000a77b f i main.obj
 0001:0000977b       ??_E?$error_info_injector@Ubad_month@gregorian@boost@@@exception_detail@boost@@UAEPAXI@Z 1000a77b f i * CIL library *:* CIL module *
 0001:000097a2       ??0?$refcount_ptr@Uerror_info_container@exception_detail@boost@@@exception_detail@boost@@QAE@ABV012@@Z 1000a7a2 f i main.obj
 0001:000097c2       ?ResetDbgInfo@?$CUtlVector@PAVNode@@V?$CUtlMemory@PAVNode@@H@@@@IAEXXZ 1000a7c2 f i main.obj
 0001:000097c2       ?ResetDbgInfo@?$CUtlVector@PAUJobInfo_t@@V?$CUtlMemory@PAUJobInfo_t@@H@@@@IAEXXZ 1000a7c2 f i main.obj
 0001:000097d9       ??1?$error_info_injector@Vruntime_error@std@@@exception_detail@boost@@UAE@XZ 1000a7d9 f i main.obj
 0001:00009808       ??1?$clone_impl@U?$error_info_injector@Vruntime_error@std@@@exception_detail@boost@@@exception_detail@boost@@UAE@XZ 1000a808 f i main.obj
 0001:0000985c       ?clone@?$clone_impl@U?$error_info_injector@Vruntime_error@std@@@exception_detail@boost@@@exception_detail@boost@@EBEPBVclone_base@23@XZ 1000a85c f i main.obj
 0001:000098fa       ?rethrow@?$clone_impl@U?$error_info_injector@Vruntime_error@std@@@exception_detail@boost@@@exception_detail@boost@@EBEXXZ 1000a8fa f i main.obj
 0001:00009924       ??1?$error_info_injector@Ubad_day_of_month@gregorian@boost@@@exception_detail@boost@@UAE@XZ 1000a924 f i main.obj
 0001:00009953       ??1?$clone_impl@U?$error_info_injector@Ubad_day_of_month@gregorian@boost@@@exception_detail@boost@@@exception_detail@boost@@UAE@XZ 1000a953 f i main.obj
 0001:000099a7       ?clone@?$clone_impl@U?$error_info_injector@Ubad_day_of_month@gregorian@boost@@@exception_detail@boost@@@exception_detail@boost@@EBEPBVclone_base@23@XZ 1000a9a7 f i main.obj
 0001:00009a45       ?rethrow@?$clone_impl@U?$error_info_injector@Ubad_day_of_month@gregorian@boost@@@exception_detail@boost@@@exception_detail@boost@@EBEXXZ 1000aa45 f i main.obj
 0001:00009a6f       ??1?$error_info_injector@Ubad_year@gregorian@boost@@@exception_detail@boost@@UAE@XZ 1000aa6f f i main.obj
 0001:00009a9e       ??1?$clone_impl@U?$error_info_injector@Ubad_year@gregorian@boost@@@exception_detail@boost@@@exception_detail@boost@@UAE@XZ 1000aa9e f i main.obj
 0001:00009af2       ?clone@?$clone_impl@U?$error_info_injector@Ubad_year@gregorian@boost@@@exception_detail@boost@@@exception_detail@boost@@EBEPBVclone_base@23@XZ 1000aaf2 f i main.obj
 0001:00009b90       ?rethrow@?$clone_impl@U?$error_info_injector@Ubad_year@gregorian@boost@@@exception_detail@boost@@@exception_detail@boost@@EBEXXZ 1000ab90 f i main.obj
 0001:00009bba       ??1?$error_info_injector@Ubad_month@gregorian@boost@@@exception_detail@boost@@UAE@XZ 1000abba f i main.obj
 0001:00009be9       ??1?$clone_impl@U?$error_info_injector@Ubad_month@gregorian@boost@@@exception_detail@boost@@@exception_detail@boost@@UAE@XZ 1000abe9 f i main.obj
 0001:00009c3d       ?clone@?$clone_impl@U?$error_info_injector@Ubad_month@gregorian@boost@@@exception_detail@boost@@@exception_detail@boost@@EBEPBVclone_base@23@XZ 1000ac3d f i main.obj
 0001:00009cdb       ?rethrow@?$clone_impl@U?$error_info_injector@Ubad_month@gregorian@boost@@@exception_detail@boost@@@exception_detail@boost@@EBEXXZ 1000acdb f i main.obj
 0001:00009d05       ?Base@?$CUtlVector@PAUJobInfo_t@@V?$CUtlMemory@PAUJobInfo_t@@H@@@@QAEPAPAUJobInfo_t@@XZ 1000ad05 f i main.obj
 0001:00009d05       ?Base@CUtlBuffer@@QAEPAXXZ 1000ad05 f i nav.obj
 0001:00009d05       ?Base@?$CUtlVector@PAVNode@@V?$CUtlMemory@PAVNode@@H@@@@QAEPAPAVNode@@XZ 1000ad05 f i main.obj
 0001:00009d16       ??0?$clone_impl@U?$error_info_injector@Vruntime_error@std@@@exception_detail@boost@@@exception_detail@boost@@AAE@ABV012@Uclone_tag@012@@Z 1000ad16 f i main.obj
 0001:00009e0c       ??0?$clone_impl@U?$error_info_injector@Ubad_day_of_month@gregorian@boost@@@exception_detail@boost@@@exception_detail@boost@@AAE@ABV012@Uclone_tag@012@@Z 1000ae0c f i main.obj
 0001:00009f02       ??0?$clone_impl@U?$error_info_injector@Ubad_year@gregorian@boost@@@exception_detail@boost@@@exception_detail@boost@@AAE@ABV012@Uclone_tag@012@@Z 1000af02 f i main.obj
 0001:00009ffa       ??0?$clone_impl@U?$error_info_injector@Ubad_month@gregorian@boost@@@exception_detail@boost@@@exception_detail@boost@@AAE@ABV012@Uclone_tag@012@@Z 1000affa f i main.obj
 0001:0000a0f0       ??0clone_base@exception_detail@boost@@QAE@XZ 1000b0f0 f i main.obj
 0001:0000a105       ??$enable_error_info@Vruntime_error@std@@@boost@@YA?AU?$error_info_injector@Vruntime_error@std@@@exception_detail@0@ABVruntime_error@std@@@Z 1000b105 f i main.obj
 0001:0000a126       ??$enable_current_exception@U?$error_info_injector@Vruntime_error@std@@@exception_detail@boost@@@boost@@YA?AV?$clone_impl@U?$error_info_injector@Vruntime_error@std@@@exception_detail@boost@@@exception_detail@0@ABU?$error_info_injector@Vruntime_error@std@@@20@@Z 1000b126 f i main.obj
 0001:0000a149       ?is_leap_year@?$gregorian_calendar_base@U?$year_month_day_base@Vgreg_year@gregorian@boost@@Vgreg_month@23@Vgreg_day@23@@date_time@boost@@I@date_time@boost@@SA_NVgreg_year@gregorian@3@@Z 1000b149 f i main.obj
 0001:0000a1a6       ??$enable_error_info@Ubad_day_of_month@gregorian@boost@@@boost@@YA?AU?$error_info_injector@Ubad_day_of_month@gregorian@boost@@@exception_detail@0@ABUbad_day_of_month@gregorian@0@@Z 1000b1a6 f i main.obj
 0001:0000a1c7       ??$enable_current_exception@U?$error_info_injector@Ubad_day_of_month@gregorian@boost@@@exception_detail@boost@@@boost@@YA?AV?$clone_impl@U?$error_info_injector@Ubad_day_of_month@gregorian@boost@@@exception_detail@boost@@@exception_detail@0@ABU?$error_info_injector@Ubad_day_of_month@gregorian@boost@@@20@@Z 1000b1c7 f i main.obj
 0001:0000a1ea       ?Purge@?$CUtlVector@PAUJobInfo_t@@V?$CUtlMemory@PAUJobInfo_t@@H@@@@QAEXXZ 1000b1ea f i main.obj
 0001:0000a1ea       ?Purge@?$CUtlVector@PAVNode@@V?$CUtlMemory@PAVNode@@H@@@@QAEXXZ 1000b1ea f i main.obj
 0001:0000a20b       ??0?$CUtlMemory@PAVNode@@H@@QAE@HH@Z 1000b20b f i main.obj
 0001:0000a20b       ??0?$CUtlMemory@PAUJobInfo_t@@H@@QAE@HH@Z 1000b20b f i main.obj
 0001:0000a265       ??1?$CUtlMemory@EH@@QAE@XZ 1000b265 f i nav.obj
 0001:0000a265       ??1?$CUtlMemory@U?$UtlLinkedListElem_t@UAirSeedSpot@@H@@H@@QAE@XZ 1000b265 f i nav.obj
 0001:0000a265       ??1?$CUtlMemory@PAVNode@@H@@QAE@XZ 1000b265 f i main.obj
 0001:0000a265       ??1?$CUtlMemory@U?$UtlLinkedListElem_t@UGroundSeedSpot@@H@@H@@QAE@XZ 1000b265 f i nav.obj
 0001:0000a265       ??1?$CUtlMemory@PAUJobInfo_t@@H@@QAE@XZ 1000b265 f i main.obj
 0001:0000a276       ??A?$CUtlMemory@PAVNode@@H@@QBEABQAVNode@@H@Z 1000b276 f i nav.obj
 0001:0000a276       ??A?$CUtlMemory@PAVNode@@H@@QAEAAPAVNode@@H@Z 1000b276 f i main.obj
 0001:0000a276       ??A?$CUtlMemory@PAUJobInfo_t@@H@@QAEAAPAUJobInfo_t@@H@Z 1000b276 f i main.obj
 0001:0000a28c       ?InsertBefore@?$CUtlVector@PAVNode@@V?$CUtlMemory@PAVNode@@H@@@@QAEHHABQAVNode@@@Z 1000b28c f i nav.obj
 0001:0000a28c       ?InsertBefore@?$CUtlVector@PAUJobInfo_t@@V?$CUtlMemory@PAUJobInfo_t@@H@@@@QAEHHABQAUJobInfo_t@@@Z 1000b28c f i main.obj
 0001:0000a2c7       ?ShiftElementsLeft@?$CUtlVector@PAVNode@@V?$CUtlMemory@PAVNode@@H@@@@IAEXHH@Z 1000b2c7 f i nav.obj
 0001:0000a2c7       ?ShiftElementsLeft@?$CUtlVector@PAUJobInfo_t@@V?$CUtlMemory@PAUJobInfo_t@@H@@@@IAEXHH@Z 1000b2c7 f i main.obj
 0001:0000a319       ??$enable_error_info@Ubad_year@gregorian@boost@@@boost@@YA?AU?$error_info_injector@Ubad_year@gregorian@boost@@@exception_detail@0@ABUbad_year@gregorian@0@@Z 1000b319 f i main.obj
 0001:0000a33a       ??$enable_current_exception@U?$error_info_injector@Ubad_year@gregorian@boost@@@exception_detail@boost@@@boost@@YA?AV?$clone_impl@U?$error_info_injector@Ubad_year@gregorian@boost@@@exception_detail@boost@@@exception_detail@0@ABU?$error_info_injector@Ubad_year@gregorian@boost@@@20@@Z 1000b33a f i main.obj
 0001:0000a35d       ??$enable_error_info@Ubad_month@gregorian@boost@@@boost@@YA?AU?$error_info_injector@Ubad_month@gregorian@boost@@@exception_detail@0@ABUbad_month@gregorian@0@@Z 1000b35d f i main.obj
 0001:0000a37e       ??$enable_current_exception@U?$error_info_injector@Ubad_month@gregorian@boost@@@exception_detail@boost@@@boost@@YA?AV?$clone_impl@U?$error_info_injector@Ubad_month@gregorian@boost@@@exception_detail@boost@@@exception_detail@0@ABU?$error_info_injector@Ubad_month@gregorian@boost@@@20@@Z 1000b37e f i main.obj
 0001:0000a3a1       ??0?$error_info_injector@Vruntime_error@std@@@exception_detail@boost@@QAE@ABVruntime_error@std@@@Z 1000b3a1 f i main.obj
 0001:0000a40a       ??0?$clone_impl@U?$error_info_injector@Vruntime_error@std@@@exception_detail@boost@@@exception_detail@boost@@QAE@ABU?$error_info_injector@Vruntime_error@std@@@12@@Z 1000b40a f i main.obj
 0001:0000a500       ??0?$error_info_injector@Ubad_day_of_month@gregorian@boost@@@exception_detail@boost@@QAE@ABUbad_day_of_month@gregorian@2@@Z 1000b500 f i main.obj
 0001:0000a569       ??0?$clone_impl@U?$error_info_injector@Ubad_day_of_month@gregorian@boost@@@exception_detail@boost@@@exception_detail@boost@@QAE@ABU?$error_info_injector@Ubad_day_of_month@gregorian@boost@@@12@@Z 1000b569 f i main.obj
 0001:0000a65f       ??0?$error_info_injector@Ubad_year@gregorian@boost@@@exception_detail@boost@@QAE@ABUbad_year@gregorian@2@@Z 1000b65f f i main.obj
 0001:0000a6c8       ??0?$clone_impl@U?$error_info_injector@Ubad_year@gregorian@boost@@@exception_detail@boost@@@exception_detail@boost@@QAE@ABU?$error_info_injector@Ubad_year@gregorian@boost@@@12@@Z 1000b6c8 f i main.obj
 0001:0000a7be       ??0?$error_info_injector@Ubad_month@gregorian@boost@@@exception_detail@boost@@QAE@ABUbad_month@gregorian@2@@Z 1000b7be f i main.obj
 0001:0000a827       ??0?$clone_impl@U?$error_info_injector@Ubad_month@gregorian@boost@@@exception_detail@boost@@@exception_detail@boost@@QAE@ABU?$error_info_injector@Ubad_month@gregorian@boost@@@12@@Z 1000b827 f i main.obj
 0001:0000a91d       ?RemoveAll@?$CUtlVector@PAUJobInfo_t@@V?$CUtlMemory@PAUJobInfo_t@@H@@@@QAEXXZ 1000b91d f i main.obj
 0001:0000a91d       ?RemoveAll@?$CUtlVector@PAVNode@@V?$CUtlMemory@PAVNode@@H@@@@QAEXXZ 1000b91d f i main.obj
 0001:0000a954       ?Purge@?$CUtlMemory@U?$UtlLinkedListElem_t@UAirSeedSpot@@H@@H@@QAEXXZ 1000b954 f i nav.obj
 0001:0000a954       ?Purge@?$CUtlMemory@PAUJobInfo_t@@H@@QAEXXZ 1000b954 f i main.obj
 0001:0000a954       ?Purge@?$CUtlMemory@EH@@QAEXXZ 1000b954 f i nav.obj
 0001:0000a954       ?Purge@?$CUtlMemory@PAVNode@@H@@QAEXXZ 1000b954 f i main.obj
 0001:0000a954       ?Purge@?$CUtlMemory@U?$UtlLinkedListElem_t@UGroundSeedSpot@@H@@H@@QAEXXZ 1000b954 f i nav.obj
 0001:0000a99a       ?GrowVector@?$CUtlVector@PAVNode@@V?$CUtlMemory@PAVNode@@H@@@@IAEXH@Z 1000b99a f i nav.obj
 0001:0000a99a       ?GrowVector@?$CUtlVector@PAUJobInfo_t@@V?$CUtlMemory@PAUJobInfo_t@@H@@@@IAEXH@Z 1000b99a f i main.obj
 0001:0000a9ef       ?ShiftElementsRight@?$CUtlVector@PAUJobInfo_t@@V?$CUtlMemory@PAUJobInfo_t@@H@@@@IAEXHH@Z 1000b9ef f i main.obj
 0001:0000a9ef       ?ShiftElementsRight@?$CUtlVector@PAVNode@@V?$CUtlMemory@PAVNode@@H@@@@IAEXHH@Z 1000b9ef f i nav.obj
 0001:0000aa41       ??$CopyConstruct@PAUJobInfo_t@@@@YAXPAPAUJobInfo_t@@ABQAU0@@Z 1000ba41 f i main.obj
 0001:0000aa41       ??$CopyConstruct@PAVNode@@@@YAXPAPAVNode@@ABQAV0@@Z 1000ba41 f i nav.obj
 0001:0000aa73       ?IsExternallyAllocated@?$CUtlMemory@PAUJobInfo_t@@H@@QBE_NXZ 1000ba73 f i main.obj
 0001:0000aa73       ?IsExternallyAllocated@?$CUtlMemory@PAVNode@@H@@QBE_NXZ 1000ba73 f i main.obj
 0001:0000aa73       ?IsExternallyAllocated@?$CUtlMemory@U?$UtlLinkedListElem_t@UAirSeedSpot@@H@@H@@QBE_NXZ 1000ba73 f i nav.obj
 0001:0000aa73       ?IsExternallyAllocated@?$CUtlMemory@EH@@QBE_NXZ 1000ba73 f i nav.obj
 0001:0000aa73       ?IsExternallyAllocated@?$CUtlMemory@U?$UtlLinkedListElem_t@UGroundSeedSpot@@H@@H@@QBE_NXZ 1000ba73 f i nav.obj
 0001:0000aa96       ?Grow@?$CUtlMemory@PAUJobInfo_t@@H@@QAEXH@Z 1000ba96 f i main.obj
 0001:0000aa96       ?Grow@?$CUtlMemory@PAVNode@@H@@QAEXH@Z 1000ba96 f i nav.obj
 0001:0000ab90       ??_E?$clone_impl@U?$error_info_injector@Ubad_day_of_month@gregorian@boost@@@exception_detail@boost@@@exception_detail@boost@@WM@AEPAXI@Z 1000bb90 f i main.obj
 0001:0000ab98       ?rethrow@?$clone_impl@U?$error_info_injector@Vruntime_error@std@@@exception_detail@boost@@@exception_detail@boost@@$0PPPPPPPM@A@BEXXZ 1000bb98 f i main.obj
 0001:0000aba0       ?rethrow@?$clone_impl@U?$error_info_injector@Ubad_day_of_month@gregorian@boost@@@exception_detail@boost@@@exception_detail@boost@@$0PPPPPPPM@A@BEXXZ 1000bba0 f i main.obj
 0001:0000aba8       ?clone@?$clone_impl@U?$error_info_injector@Ubad_month@gregorian@boost@@@exception_detail@boost@@@exception_detail@boost@@$0PPPPPPPM@A@BEPBVclone_base@23@XZ 1000bba8 f i main.obj
 0001:0000abb0       ?clone@?$clone_impl@U?$error_info_injector@Ubad_year@gregorian@boost@@@exception_detail@boost@@@exception_detail@boost@@$0PPPPPPPM@A@BEPBVclone_base@23@XZ 1000bbb0 f i main.obj
 0001:0000abb8       ??_E?$error_info_injector@Vruntime_error@std@@@exception_detail@boost@@WM@AEPAXI@Z 1000bbb8 f i main.obj
 0001:0000abc0       ?clone@?$clone_impl@U?$error_info_injector@Vruntime_error@std@@@exception_detail@boost@@@exception_detail@boost@@$0PPPPPPPM@A@BEPBVclone_base@23@XZ 1000bbc0 f i main.obj
 0001:0000abc8       ??_E?$clone_impl@U?$error_info_injector@Ubad_month@gregorian@boost@@@exception_detail@boost@@@exception_detail@boost@@$4PPPPPPPM@CI@AEPAXI@Z 1000bbc8 f i main.obj
 0001:0000abd3       ?clone@?$clone_impl@U?$error_info_injector@Ubad_day_of_month@gregorian@boost@@@exception_detail@boost@@@exception_detail@boost@@$0PPPPPPPM@A@BEPBVclone_base@23@XZ 1000bbd3 f i main.obj
 0001:0000abdb       ??_E?$clone_impl@U?$error_info_injector@Ubad_year@gregorian@boost@@@exception_detail@boost@@@exception_detail@boost@@$4PPPPPPPM@CI@AEPAXI@Z 1000bbdb f i main.obj
 0001:0000abe6       ??_E?$error_info_injector@Ubad_day_of_month@gregorian@boost@@@exception_detail@boost@@WM@AEPAXI@Z 1000bbe6 f i main.obj
 0001:0000abee       ??_E?$clone_impl@U?$error_info_injector@Ubad_month@gregorian@boost@@@exception_detail@boost@@@exception_detail@boost@@WM@AEPAXI@Z 1000bbee f i main.obj
 0001:0000abf6       ??_E?$clone_impl@U?$error_info_injector@Ubad_year@gregorian@boost@@@exception_detail@boost@@@exception_detail@boost@@WM@AEPAXI@Z 1000bbf6 f i main.obj
 0001:0000abfe       ??_E?$clone_impl@U?$error_info_injector@Vruntime_error@std@@@exception_detail@boost@@@exception_detail@boost@@$4PPPPPPPM@CI@AEPAXI@Z 1000bbfe f i main.obj
 0001:0000ac09       ??_E?$error_info_injector@Ubad_month@gregorian@boost@@@exception_detail@boost@@WM@AEPAXI@Z 1000bc09 f i main.obj
 0001:0000ac11       ?rethrow@?$clone_impl@U?$error_info_injector@Ubad_year@gregorian@boost@@@exception_detail@boost@@@exception_detail@boost@@$0PPPPPPPM@A@BEXXZ 1000bc11 f i main.obj
 0001:0000ac19       ??_E?$error_info_injector@Ubad_year@gregorian@boost@@@exception_detail@boost@@WM@AEPAXI@Z 1000bc19 f i main.obj
 0001:0000ac21       ??_E?$clone_impl@U?$error_info_injector@Ubad_day_of_month@gregorian@boost@@@exception_detail@boost@@@exception_detail@boost@@$4PPPPPPPM@CI@AEPAXI@Z 1000bc21 f i main.obj
 0001:0000ac2c       ?rethrow@?$clone_impl@U?$error_info_injector@Ubad_month@gregorian@boost@@@exception_detail@boost@@@exception_detail@boost@@$0PPPPPPPM@A@BEXXZ 1000bc2c f i main.obj
 0001:0000ac34       ??_E?$clone_impl@U?$error_info_injector@Vruntime_error@std@@@exception_detail@boost@@@exception_detail@boost@@WM@AEPAXI@Z 1000bc34 f i main.obj
 0001:0000ac3c       _fabsf                     1000bc3c f i nav.obj
 0001:0000ac5b       _sqrtf                     1000bc5b f i nav.obj
 0001:0000ac77       ?abs@@YAMM@Z               1000bc77 f i nav.obj
 0001:0000ac77       ?fabs@@YAMM@Z              1000bc77 f i nav.obj
 0001:0000ac8d       ?pow@@YAMMH@Z              1000bc8d f i nav.obj
 0001:0000aca7       ?sqrt@@YAMM@Z              1000bca7 f i nav.obj
 0001:0000acbd       ?V_memcpy@@YAXPAXPBXH@Z    1000bcbd f i nav.obj
 0001:0000acd3       ?LengthSqr@Vector@@QBEMXZ  1000bcd3 f i nav.obj
 0001:0000ad1b       ?IsZero@Vector@@QBE_NM@Z   1000bd1b f i nav.obj
 0001:0000adaa       ?VectorClear@@YAXAAVVector@@@Z 1000bdaa f i nav.obj
 0001:0000adde       ?VectorCopy@@YAXABVVector@@AAV1@@Z 1000bdde f i nav.obj
 0001:0000ae05       ??XVector@@QAEAAV0@M@Z     1000be05 f i nav.obj
 0001:0000ae50       ?VectorAdd@@YAXABVVector@@0AAV1@@Z 1000be50 f i nav.obj
 0001:0000ae9a       ?VectorMultiply@@YAXABVVector@@MAAV1@@Z 1000be9a f i nav.obj
 0001:0000aedc       ??HVector@@QBE?AV0@ABV0@@Z 1000bedc f i nav.obj
 0001:0000af13       ??GVector@@QBE?AV0@ABV0@@Z 1000bf13 f i nav.obj
 0001:0000af4a       ??DVector@@QBE?AV0@M@Z     1000bf4a f i nav.obj
 0001:0000af89       ??0CBaseTrace@@QAE@XZ      1000bf89 f i nav.obj
 0001:0000afb3       ?Init@Ray_t@@QAEXABVVector@@0@Z 1000bfb3 f i nav.obj
 0001:0000b039       ?Init@Ray_t@@QAEXABVVector@@000@Z 1000c039 f i nav.obj
 0001:0000b153       ??0CGameTrace@@QAE@XZ      1000c153 f i nav.obj
 0001:0000b167       ?DidHit@CGameTrace@@QBE_NXZ 1000c167 f i nav.obj
 0001:0000b1a8       ??0bad_alloc@std@@QAE@XZ   1000c1a8 f i nav.obj
 0001:0000b1d3       ??1bad_alloc@std@@UAE@XZ   1000c1d3 f i nav.obj
 0001:0000b1ed       ??_Gbad_alloc@std@@UAEPAXI@Z 1000c1ed f i nav.obj
 0001:0000b1ed       ??_Ebad_alloc@std@@UAEPAXI@Z 1000c1ed f i * CIL library *:* CIL module *
 0001:0000b214       ?release@sp_counted_base@detail@boost@@QAEXXZ 1000c214 f i nav.obj
 0001:0000b240       ?weak_release@sp_counted_base@detail@boost@@QAEXXZ 1000c240 f i nav.obj
 0001:0000b264       ??1shared_count@detail@boost@@QAE@XZ 1000c264 f i nav.obj
 0001:0000b27f       ?message@error_code@system@boost@@QBE?AV?$basic_string@DU?$char_traits@D@std@@V?$allocator@D@2@@std@@XZ 1000c27f f i nav.obj
 0001:0000b2b8       ??0system_error@system@boost@@QAE@Verror_code@12@PBD@Z 1000c2b8 f i nav.obj
 0001:0000b326       ??1system_error@system@boost@@UAE@XZ 1000c326 f i nav.obj
 0001:0000b34b       ??_Esystem_error@system@boost@@UAEPAXI@Z 1000c34b f i * CIL library *:* CIL module *
 0001:0000b34b       ??_Gsystem_error@system@boost@@UAEPAXI@Z 1000c34b f i nav.obj
 0001:0000b372       ?what@system_error@system@boost@@UBEPBDXZ 1000c372 f i nav.obj
 0001:0000b47c       ??0thread_exception@boost@@QAE@HPBD@Z 1000c47c f i nav.obj
 0001:0000b4b6       ??1thread_exception@boost@@UAE@XZ 1000c4b6 f i nav.obj
 0001:0000b4d0       ??_Ethread_exception@boost@@UAEPAXI@Z 1000c4d0 f i * CIL library *:* CIL module *
 0001:0000b4d0       ??_Gthread_exception@boost@@UAEPAXI@Z 1000c4d0 f i nav.obj
 0001:0000b4f7       ??0thread_resource_error@boost@@QAE@XZ 1000c4f7 f i nav.obj
 0001:0000b51b       ??1thread_resource_error@boost@@UAE@XZ 1000c51b f i nav.obj
 0001:0000b535       ??_Ethread_resource_error@boost@@UAEPAXI@Z 1000c535 f i * CIL library *:* CIL module *
 0001:0000b535       ??_Gthread_resource_error@boost@@UAEPAXI@Z 1000c535 f i nav.obj
 0001:0000b55c       ?create_anonymous_event@win32@detail@boost@@YAPAXW4event_type@123@W4initial_event_state@123@@Z 1000c55c f i nav.obj
 0001:0000b5e0       ?cleanup@handle_manager@win32@detail@boost@@AAEXXZ 1000c5e0 f i nav.obj
 0001:0000b604       ??1handle_manager@win32@detail@boost@@QAE@XZ 1000c604 f i nav.obj
 0001:0000b615       ?allocate_raw_heap_memory@detail@boost@@YAPAXI@Z 1000c615 f i nav.obj
 0001:0000b68e       ??1?$shared_ptr@Utss_cleanup_function@detail@boost@@@boost@@QAE@XZ 1000c68e f i nav.obj
 0001:0000b6a2       ??0thread_data_base@detail@boost@@QAE@XZ 1000c6a2 f i nav.obj
 0001:0000b747       ?intrusive_ptr_add_ref@detail@boost@@YAXPAUthread_data_base@12@@Z 1000c747 f i nav.obj
 0001:0000b759       ??_Ethread_data_base@detail@boost@@UAEPAXI@Z 1000c759 f i * CIL library *:* CIL module *
 0001:0000b759       ??_Gthread_data_base@detail@boost@@UAEPAXI@Z 1000c759 f i nav.obj
 0001:0000b780       ??1?$map@PBXUtss_data_node@detail@boost@@U?$less@PBX@std@@V?$allocator@U?$pair@QBXUtss_data_node@detail@boost@@@std@@@5@@std@@QAE@XZ 1000c780 f i nav.obj
 0001:0000b791       ??4thread@boost@@QAEAAV01@$$QAV01@@Z 1000c791 f i nav.obj
 0001:0000b7b2       ?IsSwappingBytes@CByteswap@@QAE_NXZ 1000c7b2 f i nav.obj
 0001:0000b7c3       ?PeekGet@CUtlBuffer@@QBEPBXH@Z 1000c7c3 f i nav.obj
 0001:0000b7e6       ??$GetTypeBin@M@CUtlBuffer@@IAEXAAM@Z 1000c7e6 f i nav.obj
 0001:0000b8c9       ?GetInt@CUtlBuffer@@QAEHXZ 1000c8c9 f i nav.obj
 0001:0000b8e7       ?GetFloat@CUtlBuffer@@QAEMXZ 1000c8e7 f i nav.obj
 0001:0000b905       ?PeekPut@CUtlBuffer@@QAEPAXH@Z 1000c905 f i nav.obj
 0001:0000b928       ?PutInt@CUtlBuffer@@QAEXH@Z 1000c928 f i nav.obj
 0001:0000b943       ?PutFloat@CUtlBuffer@@QAEXM@Z 1000c943 f i nav.obj
 0001:0000b966       ?IsText@CUtlBuffer@@QBE_NXZ 1000c966 f i nav.obj
 0001:0000b98c       ?GetTraceType@CTraceFilter@@UBE?AW4TraceType_t@@XZ 1000c98c f i nav.obj
 0001:0000b997       ??0GMOD_TraceFilter@@QAE@XZ 1000c997 f i nav.obj
 0001:0000b9b4       ?ShouldHitEntity@GMOD_TraceFilter@@UAE_NPAVIHandleEntity@@H@Z 1000c9b4 f i nav.obj
 0001:0000b9f1       ?CheckCollisionGroup@GMOD_TraceFilter@@QAE_NH@Z 1000c9f1 f i nav.obj
 0001:0000ba08       ??0CTraceFilter@@QAE@XZ    1000ca08 f i nav.obj
 0001:0000ba25       ??0ITraceFilter@@QAE@XZ    1000ca25 f i nav.obj
 0001:0000ba3a       ?UTIL_TraceLine_GMOD@@YAXABVVector@@0IPAVCGameTrace@@@Z 1000ca3a f i nav.obj
 0001:0000baa0       ??0Ray_t@@QAE@XZ           1000caa0 f i nav.obj
 0001:0000bad5       ?UTIL_TraceHull_GMOD@@YAXABVVector@@000IPAVCGameTrace@@@Z 1000cad5 f i nav.obj
 0001:0000bb41       ??0Nav@@QAE@H@Z            1000cb41 f   nav.obj
 0001:0000bc97       ?OppositeDirection@Nav@@SA?AW4NavDirType@@W42@@Z 1000cc97 f   nav.obj
 0001:0000bd33       ?SetGridSize@Nav@@QAEXH@Z  1000cd33 f   nav.obj
 0001:0000bd8b       ?GetNode@Nav@@QAEPAVNode@@ABVVector@@@Z 1000cd8b f   nav.obj
 0001:0000be69       ?GetNodeByID@Nav@@QAEPAVNode@@H@Z 1000ce69 f   nav.obj
 0001:0000be9d       ?AddNode@Nav@@QAEPAVNode@@ABVVector@@0W4NavDirType@@PAV2@@Z 1000ce9d f   nav.obj
 0001:0000bfc9       ?RemoveNode@Nav@@QAEXPAVNode@@@Z 1000cfc9 f   nav.obj
 0001:0000c05e       ?GetGridSize@Nav@@QAEHXZ   1000d05e f   nav.obj
 0001:0000c06d       ?IsGenerated@Nav@@QAE_NXZ  1000d06d f   nav.obj
 0001:0000c07b       ?SnapToGrid@Nav@@QAE?AVVector@@ABV2@_N1@Z 1000d07b f   nav.obj
 0001:0000c103       ?Round@Nav@@QAEMMM@Z       1000d103 f   nav.obj
 0001:0000c17d       ?GetGroundHeight@Nav@@QAE_NABVVector@@PAMPAV2@@Z 1000d17d f   nav.obj
 0001:0000c483       ??0GroundLayerInfo@?1??GetGroundHeight@Nav@@QAE_NABVVector@@PAMPAV3@@Z@QAE@XZ 1000d483 f i nav.obj
 0001:0000c49a       ?GenerateQueue@Nav@@QAEXPAUJobInfo_t@@@Z 1000d49a f   nav.obj
 0001:0000c521       ?FullGeneration@Nav@@QAEXPA_N@Z 1000d521 f   nav.obj
 0001:0000c54d       ?ResetGeneration@Nav@@QAEXXZ 1000d54d f   nav.obj
 0001:0000c590       ?SetupMaxDistance@Nav@@QAEXABVVector@@H@Z 1000d590 f   nav.obj
 0001:0000c5b2       ?AddGroundSeed@Nav@@QAEXABVVector@@0@Z 1000d5b2 f   nav.obj
 0001:0000c600       ??0AirSeedSpot@@QAE@XZ     1000d600 f i nav.obj
 0001:0000c600       ??0GroundSeedSpot@@QAE@XZ  1000d600 f i nav.obj
 0001:0000c61f       ?AddAirSeed@Nav@@QAEXABVVector@@@Z 1000d61f f   nav.obj
 0001:0000c662       ?ClearGroundSeeds@Nav@@QAEXXZ 1000d662 f   nav.obj
 0001:0000c679       ?ClearAirSeeds@Nav@@QAEXXZ 1000d679 f   nav.obj
 0001:0000c690       ?GetNextGroundSeedNode@Nav@@QAEPAVNode@@XZ 1000d690 f   nav.obj
 0001:0000c7f2       ?GetNextAirSeedNode@Nav@@QAEPAVNode@@XZ 1000d7f2 f   nav.obj
 0001:0000c955       ?SampleStep@Nav@@QAE_NXZ   1000d955 f   nav.obj
 0001:0000d1fd       ?Save@Nav@@QAE_NPBD@Z      1000e1fd f   nav.obj
 0001:0000d491       ??1CUtlBuffer@@QAE@XZ      1000e491 f i nav.obj
 0001:0000d4a2       ?Load@Nav@@QAE_NPBD@Z      1000e4a2 f   nav.obj
 0001:0000d8f2       ?GetNodes@Nav@@QAEAAV?$CUtlVector@PAVNode@@V?$CUtlMemory@PAVNode@@H@@@@XZ 1000e8f2 f   nav.obj
 0001:0000d901       ?GetClosestNode@Nav@@QAEPAVNode@@ABVVector@@@Z 1000e901 f   nav.obj
 0001:0000d98b       ?Reset@Nav@@QAEXXZ         1000e98b f   nav.obj
 0001:0000d9f5       ?AddOpenedNode@Nav@@QAEXPAVNode@@@Z 1000e9f5 f   nav.obj
 0001:0000da19       ?AddClosedNode@Nav@@QAEXPAVNode@@@Z 1000ea19 f   nav.obj
 0001:0000da55       ?HeuristicDistance@Nav@@QAEMPBVVector@@0@Z 1000ea55 f   nav.obj
 0001:0000da9c       ?ManhattanDistance@Nav@@QAEMPBVVector@@0@Z 1000ea9c f   nav.obj
 0001:0000db2f       ?EuclideanDistance@Nav@@QAEMPBVVector@@0@Z 1000eb2f f   nav.obj
 0001:0000dbcf       ?FindLowestF@Nav@@QAEPAVNode@@XZ 1000ebcf f   nav.obj
 0001:0000dc59       ?FindPathQueue@Nav@@QAEXPAUJobInfo_t@@@Z 1000ec59 f   nav.obj
 0001:0000dcd9       ?ExecuteFindPath@Nav@@QAEXPAUJobInfo_t@@PAVNode@@1@Z 1000ecd9 f   nav.obj
 0001:0000df5f       ?GetMask@Nav@@QAEHXZ       1000ef5f f   nav.obj
 0001:0000df6e       ?SetMask@Nav@@QAEXH@Z      1000ef6e f   nav.obj
 0001:0000df82       ?GetDiagonal@Nav@@QAE_NXZ  1000ef82 f   nav.obj
 0001:0000df91       ?SetDiagonal@Nav@@QAEX_N@Z 1000ef91 f   nav.obj
 0001:0000dfc6       ?GetHeuristic@Nav@@QAEHXZ  1000efc6 f   nav.obj
 0001:0000dfd8       ?GetStart@Nav@@QAEPAVNode@@XZ 1000efd8 f   nav.obj
 0001:0000dfea       ?GetEnd@Nav@@QAEPAVNode@@XZ 1000efea f   nav.obj
 0001:0000dffc       ?SetHeuristic@Nav@@QAEXH@Z 1000effc f   nav.obj
 0001:0000e013       ?SetStart@Nav@@QAEXPAVNode@@@Z 1000f013 f   nav.obj
 0001:0000e02a       ?SetEnd@Nav@@QAEXPAVNode@@@Z 1000f02a f   nav.obj
 0001:0000e041       ??0?$basic_string@DU?$char_traits@D@std@@V?$allocator@D@2@@std@@QAE@XZ 1000f041 f i nav.obj
 0001:0000e06b       ??4?$basic_string@DU?$char_traits@D@std@@V?$allocator@D@2@@std@@QAEAAV01@PBD@Z 1000f06b f i nav.obj
 0001:0000e081       ??Y?$basic_string@DU?$char_traits@D@std@@V?$allocator@D@2@@std@@QAEAAV01@ABV01@@Z 1000f081 f i nav.obj
 0001:0000e097       ??Y?$basic_string@DU?$char_traits@D@std@@V?$allocator@D@2@@std@@QAEAAV01@PBD@Z 1000f097 f i nav.obj
 0001:0000e0ad       ?empty@?$basic_string@DU?$char_traits@D@std@@V?$allocator@D@2@@std@@QBE_NXZ 1000f0ad f i nav.obj
 0001:0000e0d0       ??0?$map@PBXUtss_data_node@detail@boost@@U?$less@PBX@std@@V?$allocator@U?$pair@QBXUtss_data_node@detail@boost@@@std@@@5@@std@@QAE@XZ 1000f0d0 f i nav.obj
 0001:0000e0f2       ??1?$_Tree@V?$_Tmap_traits@PBXUtss_data_node@detail@boost@@U?$less@PBX@std@@V?$allocator@U?$pair@QBXUtss_data_node@detail@boost@@@std@@@5@$0A@@std@@@std@@QAE@XZ 1000f0f2 f i nav.obj
 0001:0000e10b       ??0?$vector@U?$pair@PAVcondition_variable@boost@@PAVmutex@2@@std@@V?$allocator@U?$pair@PAVcondition_variable@boost@@PAVmutex@2@@std@@@2@@std@@QAE@XZ 1000f10b f i nav.obj
 0001:0000e129       ??1?$vector@U?$pair@PAVcondition_variable@boost@@PAVmutex@2@@std@@V?$allocator@U?$pair@PAVcondition_variable@boost@@PAVmutex@2@@std@@@2@@std@@QAE@XZ 1000f129 f i nav.obj
 0001:0000e13a       ??0?$intrusive_ptr@Uthread_data_base@detail@boost@@@boost@@QAE@PAUthread_data_base@detail@1@_N@Z 1000f13a f i nav.obj
 0001:0000e16b       ??4?$intrusive_ptr@Uthread_data_base@detail@boost@@@boost@@QAEAAV01@ABV01@@Z 1000f16b f i nav.obj
 0001:0000e1d4       ?reset@?$intrusive_ptr@Uthread_data_base@detail@boost@@@boost@@QAEXXZ 1000f1d4 f i nav.obj
 0001:0000e235       ?swap@?$intrusive_ptr@Uthread_data_base@detail@boost@@@boost@@QAEXAAV12@@Z 1000f235 f i nav.obj
 0001:0000e25b       ??1?$_Tree_comp@$0A@V?$_Tmap_traits@PBXUtss_data_node@detail@boost@@U?$less@PBX@std@@V?$allocator@U?$pair@QBXUtss_data_node@detail@boost@@@std@@@5@$0A@@std@@@std@@QAE@XZ 1000f25b f i nav.obj
 0001:0000e26c       ??1?$_Tree_buy@U?$pair@QBXUtss_data_node@detail@boost@@@std@@V?$allocator@U?$pair@QBXUtss_data_node@detail@boost@@@std@@@2@@std@@QAE@XZ 1000f26c f i nav.obj
 0001:0000e27d       ?append@?$basic_string@DU?$char_traits@D@std@@V?$allocator@D@2@@std@@QAEAAV12@ABV12@@Z 1000f27d f i nav.obj
 0001:0000e29b       ?append@?$basic_string@DU?$char_traits@D@std@@V?$allocator@D@2@@std@@QAEAAV12@PBD@Z 1000f29b f i nav.obj
 0001:0000e2bb       ??0?$_Tree@V?$_Tmap_traits@PBXUtss_data_node@detail@boost@@U?$less@PBX@std@@V?$allocator@U?$pair@QBXUtss_data_node@detail@boost@@@std@@@5@$0A@@std@@@std@@QAE@ABU?$less@PBX@1@ABV?$allocator@U?$pair@QBXUtss_data_node@detail@boost@@@std@@@1@@Z 1000f2bb f i nav.obj
 0001:0000e2d7       ?_Tidy@?$_Tree@V?$_Tmap_traits@PBXUtss_data_node@detail@boost@@U?$less@PBX@std@@V?$allocator@U?$pair@QBXUtss_data_node@detail@boost@@@std@@@5@$0A@@std@@@std@@IAEXXZ 1000f2d7 f i nav.obj
 0001:0000e316       ??1?$_Tree_alloc@$0A@U?$_Tree_base_types@U?$pair@QBXUtss_data_node@detail@boost@@@std@@V?$allocator@U?$pair@QBXUtss_data_node@detail@boost@@@std@@@2@@std@@@std@@QAE@XZ 1000f316 f i nav.obj
 0001:0000e32c       ?_Tidy@?$vector@U?$pair@PAVcondition_variable@boost@@PAVmutex@2@@std@@V?$allocator@U?$pair@PAVcondition_variable@boost@@PAVmutex@2@@std@@@2@@std@@IAEXXZ 1000f32c f i nav.obj
 0001:0000e394       ??0?$_Vector_alloc@$0A@U?$_Vec_base_types@U?$pair@PAVcondition_variable@boost@@PAVmutex@2@@std@@V?$allocator@U?$pair@PAVcondition_variable@boost@@PAVmutex@2@@std@@@2@@std@@@std@@QAE@ABV?$allocator@U?$pair@PAVcondition_variable@boost@@PAVmutex@2@@std@@@1@@Z 1000f394 f i nav.obj
 0001:0000e3aa       ??0?$intrusive_ptr@Uthread_data_base@detail@boost@@@boost@@QAE@ABV01@@Z 1000f3aa f i nav.obj
 0001:0000e3d5       ?append@?$basic_string@DU?$char_traits@D@std@@V?$allocator@D@2@@std@@QAEAAV12@ABV12@II@Z 1000f3d5 f i nav.obj
 0001:0000e485       ?append@?$basic_string@DU?$char_traits@D@std@@V?$allocator@D@2@@std@@QAEAAV12@PBDI@Z 1000f485 f i nav.obj
 0001:0000e52b       ?erase@?$_Tree@V?$_Tmap_traits@PBXUtss_data_node@detail@boost@@U?$less@PBX@std@@V?$allocator@U?$pair@QBXUtss_data_node@detail@boost@@@std@@@5@$0A@@std@@@std@@QAE?AV?$_Tree_iterator@V?$_Tree_val@U?$_Tree_simple_types@U?$pair@QBXUtss_data_node@detail@boost@@@std@@@std@@@std@@@2@V?$_Tree_const_iterator@V?$_Tree_val@U?$_Tree_simple_types@U?$pair@QBXUtss_data_node@detail@boost@@@std@@@std@@@std@@@2@0@Z 1000f52b f i nav.obj
 0001:0000e5cc       ??0?$_Tree_comp@$0A@V?$_Tmap_traits@PBXUtss_data_node@detail@boost@@U?$less@PBX@std@@V?$allocator@U?$pair@QBXUtss_data_node@detail@boost@@@std@@@5@$0A@@std@@@std@@QAE@ABU?$less@PBX@1@ABV?$allocator@U?$pair@QBXUtss_data_node@detail@boost@@@std@@@1@@Z 1000f5cc f i nav.obj
 0001:0000e5e5       ?_Destroy@?$vector@U?$pair@PAVcondition_variable@boost@@PAVmutex@2@@std@@V?$allocator@U?$pair@PAVcondition_variable@boost@@PAVmutex@2@@std@@@2@@std@@IAEXPAU?$pair@PAVcondition_variable@boost@@PAVmutex@2@@2@0@Z 1000f5e5 f i nav.obj
 0001:0000e60f       ??0?$_Vector_val@U?$_Simple_types@U?$pair@PAVcondition_variable@boost@@PAVmutex@2@@std@@@std@@@std@@QAE@XZ 1000f60f f i nav.obj
 0001:0000e62f       ??0?$allocator@D@std@@QAE@ABV01@@Z 1000f62f f i nav.obj
 0001:0000e63d       ?erase@?$_Tree@V?$_Tmap_traits@PBXUtss_data_node@detail@boost@@U?$less@PBX@std@@V?$allocator@U?$pair@QBXUtss_data_node@detail@boost@@@std@@@5@$0A@@std@@@std@@QAE?AV?$_Tree_iterator@V?$_Tree_val@U?$_Tree_simple_types@U?$pair@QBXUtss_data_node@detail@boost@@@std@@@std@@@std@@@2@V?$_Tree_const_iterator@V?$_Tree_val@U?$_Tree_simple_types@U?$pair@QBXUtss_data_node@detail@boost@@@std@@@std@@@std@@@2@@Z 1000f63d f i nav.obj
 0001:0000ecad       ?clear@?$_Tree@V?$_Tmap_traits@PBXUtss_data_node@detail@boost@@U?$less@PBX@std@@V?$allocator@U?$pair@QBXUtss_data_node@detail@boost@@@std@@@5@$0A@@std@@@std@@QAEXXZ 1000fcad f i nav.obj
 0001:0000ecfc       ??0?$_Tree_buy@U?$pair@QBXUtss_data_node@detail@boost@@@std@@V?$allocator@U?$pair@QBXUtss_data_node@detail@boost@@@std@@@2@@std@@QAE@ABV?$allocator@U?$pair@QBXUtss_data_node@detail@boost@@@std@@@1@@Z 1000fcfc f i nav.obj
 0001:0000ed15       ?_Erase@?$_Tree@V?$_Tmap_traits@PBXUtss_data_node@detail@boost@@U?$less@PBX@std@@V?$allocator@U?$pair@QBXUtss_data_node@detail@boost@@@std@@@5@$0A@@std@@@std@@IAEXPAU?$_Tree_node@U?$pair@QBXUtss_data_node@detail@boost@@@std@@PAX@2@@Z 1000fd15 f i nav.obj
 0001:0000ed9f       ??0?$_Tree_alloc@$0A@U?$_Tree_base_types@U?$pair@QBXUtss_data_node@detail@boost@@@std@@V?$allocator@U?$pair@QBXUtss_data_node@detail@boost@@@std@@@2@@std@@@std@@QAE@ABV?$allocator@U?$pair@QBXUtss_data_node@detail@boost@@@std@@@1@@Z 1000fd9f f i nav.obj
 0001:0000edc2       ?_Buyheadnode@?$_Tree_alloc@$0A@U?$_Tree_base_types@U?$pair@QBXUtss_data_node@detail@boost@@@std@@V?$allocator@U?$pair@QBXUtss_data_node@detail@boost@@@std@@@2@@std@@@std@@QAEPAU?$_Tree_node@U?$pair@QBXUtss_data_node@detail@boost@@@std@@PAX@2@XZ 1000fdc2 f i nav.obj
 0001:0000eefe       ?allocate@?$_Wrap_alloc@V?$allocator@U?$_Tree_node@U?$pair@QBXUtss_data_node@detail@boost@@@std@@PAX@std@@@std@@@std@@QAEPAU?$_Tree_node@U?$pair@QBXUtss_data_node@detail@boost@@@std@@PAX@2@I@Z 1000fefe f i nav.obj
 0001:0000ef14       ?allocate@?$allocator@U?$_Tree_node@U?$pair@QBXUtss_data_node@detail@boost@@@std@@PAX@std@@@std@@QAEPAU?$_Tree_node@U?$pair@QBXUtss_data_node@detail@boost@@@std@@PAX@2@I@Z 1000ff14 f i nav.obj
 0001:0000ef2b       ??$_Pow_int@M@@YAMMH@Z     1000ff2b f i nav.obj
 0001:0000efb3       ??A?$CUtlMemory@EH@@QAEAAEH@Z 1000ffb3 f i nav.obj
 0001:0000efb3       ??A?$CUtlMemory@EH@@QBEABEH@Z 1000ffb3 f i nav.obj
 0001:0000efc6       ??$throw_exception@Vthread_resource_error@boost@@@boost@@YAXABVthread_resource_error@0@@Z 1000ffc6 f i nav.obj
 0001:0000f04d       ??$throw_exception@Vbad_alloc@std@@@boost@@YAXABVbad_alloc@std@@@Z 1001004d f i nav.obj
 0001:0000f0cb       ?IsValidIndex@?$CUtlVector@PAVNode@@V?$CUtlMemory@PAVNode@@H@@@@QBE_NH@Z 100100cb f i nav.obj
 0001:0000f0f8       ?AddToHead@?$CUtlVector@PAVNode@@V?$CUtlMemory@PAVNode@@H@@@@QAEHABQAVNode@@@Z 100100f8 f i nav.obj
 0001:0000f110       ?EnsureCapacity@?$CUtlVector@PAVNode@@V?$CUtlMemory@PAVNode@@H@@@@QAEXH@Z 10010110 f i nav.obj
 0001:0000f12e       ?FindAndRemove@?$CUtlVector@PAVNode@@V?$CUtlMemory@PAVNode@@H@@@@QAE_NABQAVNode@@@Z 1001012e f i nav.obj
 0001:0000f15f       ??$SwapBufferToTargetEndian@M@CByteswap@@QAEXPAM0H@Z 1001015f f i nav.obj
 0001:0000f1e4       ??$GetType@H@CUtlBuffer@@IAEXAAHPBD@Z 100101e4 f i nav.obj
 0001:0000f222       ??$GetType@M@CUtlBuffer@@IAEXAAMPBD@Z 10010222 f i nav.obj
 0001:0000f269       ??$PutType@H@CUtlBuffer@@IAEXHPBD@Z 10010269 f i nav.obj
 0001:0000f2a1       ??$PutType@M@CUtlBuffer@@IAEXMPBD@Z 100102a1 f i nav.obj
 0001:0000f2ea       ??0?$CUtlLinkedList@UGroundSeedSpot@@H$0A@HV?$CUtlMemory@U?$UtlLinkedListElem_t@UGroundSeedSpot@@H@@H@@@@QAE@HH@Z 100102ea f i nav.obj
 0001:0000f2ea       ??0?$CUtlLinkedList@UAirSeedSpot@@H$0A@HV?$CUtlMemory@U?$UtlLinkedListElem_t@UAirSeedSpot@@H@@H@@@@QAE@HH@Z 100102ea f i nav.obj
 0001:0000f357       ??1?$CUtlLinkedList@UGroundSeedSpot@@H$0A@HV?$CUtlMemory@U?$UtlLinkedListElem_t@UGroundSeedSpot@@H@@H@@@@QAE@XZ 10010357 f i nav.obj
 0001:0000f357       ??1?$CUtlLinkedList@UAirSeedSpot@@H$0A@HV?$CUtlMemory@U?$UtlLinkedListElem_t@UAirSeedSpot@@H@@H@@@@QAE@XZ 10010357 f i nav.obj
 0001:0000f3a2       ?InternalElement@?$CUtlLinkedList@UGroundSeedSpot@@H$0A@HV?$CUtlMemory@U?$UtlLinkedListElem_t@UGroundSeedSpot@@H@@H@@@@IBEABU?$UtlLinkedListElem_t@UGroundSeedSpot@@H@@H@Z 100103a2 f i nav.obj
 0001:0000f3a2       ?InternalElement@?$CUtlLinkedList@UAirSeedSpot@@H$0A@HV?$CUtlMemory@U?$UtlLinkedListElem_t@UAirSeedSpot@@H@@H@@@@IBEABU?$UtlLinkedListElem_t@UAirSeedSpot@@H@@H@Z 100103a2 f i nav.obj
 0001:0000f3a2       ?InternalElement@?$CUtlLinkedList@UAirSeedSpot@@H$0A@HV?$CUtlMemory@U?$UtlLinkedListElem_t@UAirSeedSpot@@H@@H@@@@IAEAAU?$UtlLinkedListElem_t@UAirSeedSpot@@H@@H@Z 100103a2 f i nav.obj
 0001:0000f3a2       ?InternalElement@?$CUtlLinkedList@UGroundSeedSpot@@H$0A@HV?$CUtlMemory@U?$UtlLinkedListElem_t@UGroundSeedSpot@@H@@H@@@@IAEAAU?$UtlLinkedListElem_t@UGroundSeedSpot@@H@@H@Z 100103a2 f i nav.obj
 0001:0000f3a2       ?Element@?$CUtlLinkedList@UAirSeedSpot@@H$0A@HV?$CUtlMemory@U?$UtlLinkedListElem_t@UAirSeedSpot@@H@@H@@@@QAEAAUAirSeedSpot@@H@Z 100103a2 f i nav.obj
 0001:0000f3a2       ?Element@?$CUtlLinkedList@UGroundSeedSpot@@H$0A@HV?$CUtlMemory@U?$UtlLinkedListElem_t@UGroundSeedSpot@@H@@H@@@@QAEAAUGroundSeedSpot@@H@Z 100103a2 f i nav.obj
 0001:0000f3b8       ?EnsureCapacity@?$CUtlLinkedList@UAirSeedSpot@@H$0A@HV?$CUtlMemory@U?$UtlLinkedListElem_t@UAirSeedSpot@@H@@H@@@@QAEXH@Z 100103b8 f i nav.obj
 0001:0000f3b8       ?EnsureCapacity@?$CUtlLinkedList@UGroundSeedSpot@@H$0A@HV?$CUtlMemory@U?$UtlLinkedListElem_t@UGroundSeedSpot@@H@@H@@@@QAEXH@Z 100103b8 f i nav.obj
 0001:0000f3d6       ?AddToTail@?$CUtlLinkedList@UGroundSeedSpot@@H$0A@HV?$CUtlMemory@U?$UtlLinkedListElem_t@UGroundSeedSpot@@H@@H@@@@QAEHABUGroundSeedSpot@@@Z 100103d6 f i nav.obj
 0001:0000f3f2       ?RemoveAll@?$CUtlLinkedList@UGroundSeedSpot@@H$0A@HV?$CUtlMemory@U?$UtlLinkedListElem_t@UGroundSeedSpot@@H@@H@@@@QAEXXZ 100103f2 f i nav.obj
 0001:0000f3f2       ?RemoveAll@?$CUtlLinkedList@UAirSeedSpot@@H$0A@HV?$CUtlMemory@U?$UtlLinkedListElem_t@UAirSeedSpot@@H@@H@@@@QAEXXZ 100103f2 f i nav.obj
 0001:0000f590       ?Next@?$CUtlLinkedList@UGroundSeedSpot@@H$0A@HV?$CUtlMemory@U?$UtlLinkedListElem_t@UGroundSeedSpot@@H@@H@@@@QBEHH@Z 10010590 f i nav.obj
 0001:0000f590       ?Next@?$CUtlLinkedList@UAirSeedSpot@@H$0A@HV?$CUtlMemory@U?$UtlLinkedListElem_t@UAirSeedSpot@@H@@H@@@@QBEHH@Z 10010590 f i nav.obj
 0001:0000f5a9       ?IsValidIndex@?$CUtlLinkedList@UGroundSeedSpot@@H$0A@HV?$CUtlMemory@U?$UtlLinkedListElem_t@UGroundSeedSpot@@H@@H@@@@QBE_NH@Z 100105a9 f i nav.obj
 0001:0000f5a9       ?IsValidIndex@?$CUtlLinkedList@UAirSeedSpot@@H$0A@HV?$CUtlMemory@U?$UtlLinkedListElem_t@UAirSeedSpot@@H@@H@@@@QBE_NH@Z 100105a9 f i nav.obj
 0001:0000f61e       ?AddToTail@?$CUtlLinkedList@UAirSeedSpot@@H$0A@HV?$CUtlMemory@U?$UtlLinkedListElem_t@UAirSeedSpot@@H@@H@@@@QAEHABUAirSeedSpot@@@Z 1001061e f i nav.obj
 0001:0000f63a       ??$?0P8Nav@@AEXPA_N@ZPAV0@PA_N@thread@boost@@QAE@P8Nav@@AEXPA_N@ZPAV2@0@Z 1001063a f i nav.obj
 0001:0000f6ac       ??$?0P8Nav@@AEXPAUJobInfo_t@@PAVNode@@1@ZPAV0@PAU1@PAV2@PAV2@@thread@boost@@QAE@P8Nav@@AEXPAUJobInfo_t@@PAVNode@@1@ZPAV2@011@Z 100106ac f i nav.obj
 0001:0000f724       ??$_Destroy_range@U?$_Wrap_alloc@V?$allocator@U?$pair@PAVcondition_variable@boost@@PAVmutex@2@@std@@@std@@@std@@@std@@YAXPAU?$pair@PAVcondition_variable@boost@@PAVmutex@2@@0@0AAU?$_Wrap_alloc@V?$allocator@U?$pair@PAVcondition_variable@boost@@PAVmutex@2@@std@@@std@@@0@@Z 10010724 f i nav.obj
 0001:0000f74e       ??$destroy@U?$pair@QBXUtss_data_node@detail@boost@@@std@@@?$_Wrap_alloc@V?$allocator@U?$_Tree_node@U?$pair@QBXUtss_data_node@detail@boost@@@std@@PAX@std@@@std@@@std@@QAEXPAU?$pair@QBXUtss_data_node@detail@boost@@@1@@Z 1001074e f i nav.obj
 0001:0000f766       ??$_Allocate@U?$_Tree_node@U?$pair@QBXUtss_data_node@detail@boost@@@std@@PAX@std@@@std@@YAPAU?$_Tree_node@U?$pair@QBXUtss_data_node@detail@boost@@@std@@PAX@0@IPAU10@@Z 10010766 f i nav.obj
 0001:0000f79f       ??_D?$clone_impl@U?$error_info_injector@Vthread_resource_error@boost@@@exception_detail@boost@@@exception_detail@boost@@QAEXXZ 1001079f f i nav.obj
 0001:0000f7bb       ??0?$clone_impl@U?$error_info_injector@Vthread_resource_error@boost@@@exception_detail@boost@@@exception_detail@boost@@QAE@ABV012@@Z 100107bb f i nav.obj
 0001:0000f88a       ??0?$error_info_injector@Vthread_resource_error@boost@@@exception_detail@boost@@QAE@ABU012@@Z 1001088a f i nav.obj
 0001:0000f90c       ??0thread_resource_error@boost@@QAE@ABV01@@Z 1001090c f i nav.obj
 0001:0000f92e       ??0thread_exception@boost@@QAE@ABV01@@Z 1001092e f i nav.obj
 0001:0000f950       ??0system_error@system@boost@@QAE@ABV012@@Z 10010950 f i nav.obj
 0001:0000f9c8       ??_D?$clone_impl@U?$error_info_injector@Vbad_alloc@std@@@exception_detail@boost@@@exception_detail@boost@@QAEXXZ 100109c8 f i nav.obj
 0001:0000f9e4       ??0?$clone_impl@U?$error_info_injector@Vbad_alloc@std@@@exception_detail@boost@@@exception_detail@boost@@QAE@ABV012@@Z 100109e4 f i nav.obj
 0001:0000fab3       ??0?$error_info_injector@Vbad_alloc@std@@@exception_detail@boost@@QAE@ABU012@@Z 10010ab3 f i nav.obj
 0001:0000fb35       ??0bad_alloc@std@@QAE@ABV01@@Z 10010b35 f i nav.obj
 0001:0000fb57       ??_G?$clone_impl@U?$error_info_injector@Vthread_resource_error@boost@@@exception_detail@boost@@@exception_detail@boost@@UAEPAXI@Z 10010b57 f i nav.obj
 0001:0000fb57       ??_E?$clone_impl@U?$error_info_injector@Vthread_resource_error@boost@@@exception_detail@boost@@@exception_detail@boost@@UAEPAXI@Z 10010b57 f i * CIL library *:* CIL module *
 0001:0000fb7e       ??_G?$error_info_injector@Vthread_resource_error@boost@@@exception_detail@boost@@UAEPAXI@Z 10010b7e f i nav.obj
 0001:0000fb7e       ??_E?$error_info_injector@Vthread_resource_error@boost@@@exception_detail@boost@@UAEPAXI@Z 10010b7e f i * CIL library *:* CIL module *
 0001:0000fba5       ??_E?$clone_impl@U?$error_info_injector@Vbad_alloc@std@@@exception_detail@boost@@@exception_detail@boost@@UAEPAXI@Z 10010ba5 f i * CIL library *:* CIL module *
 0001:0000fba5       ??_G?$clone_impl@U?$error_info_injector@Vbad_alloc@std@@@exception_detail@boost@@@exception_detail@boost@@UAEPAXI@Z 10010ba5 f i nav.obj
 0001:0000fbcc       ??_G?$error_info_injector@Vbad_alloc@std@@@exception_detail@boost@@UAEPAXI@Z 10010bcc f i nav.obj
 0001:0000fbcc       ??_E?$error_info_injector@Vbad_alloc@std@@@exception_detail@boost@@UAEPAXI@Z 10010bcc f i * CIL library *:* CIL module *
 0001:0000fbf3       ??0?$basic_string@DU?$char_traits@D@std@@V?$allocator@D@2@@std@@QAE@ABV01@@Z 10010bf3 f i nav.obj
 0001:0000fc3d       ?InvalidIndex@?$CUtlLinkedList@UGroundSeedSpot@@H$0A@HV?$CUtlMemory@U?$UtlLinkedListElem_t@UGroundSeedSpot@@H@@H@@@@SAHXZ 10010c3d f i nav.obj
 0001:0000fc3d       ?InvalidIndex@?$CUtlLinkedList@UAirSeedSpot@@H$0A@HV?$CUtlMemory@U?$UtlLinkedListElem_t@UAirSeedSpot@@H@@H@@@@SAHXZ 10010c3d f i nav.obj
 0001:0000fc47       ?ResetDbgInfo@?$CUtlLinkedList@UGroundSeedSpot@@H$0A@HV?$CUtlMemory@U?$UtlLinkedListElem_t@UGroundSeedSpot@@H@@H@@@@IAEXXZ 10010c47 f i nav.obj
 0001:0000fc47       ?ResetDbgInfo@?$CUtlLinkedList@UAirSeedSpot@@H$0A@HV?$CUtlMemory@U?$UtlLinkedListElem_t@UAirSeedSpot@@H@@H@@@@IAEXXZ 10010c47 f i nav.obj
 0001:0000fc5e       ?First@?$CUtlMemory@U?$UtlLinkedListElem_t@UGroundSeedSpot@@H@@H@@QBE?AVIterator_t@1@XZ 10010c5e f i nav.obj
 0001:0000fc5e       ?First@?$CUtlMemory@U?$UtlLinkedListElem_t@UAirSeedSpot@@H@@H@@QBE?AVIterator_t@1@XZ 10010c5e f i nav.obj
 0001:0000fc97       ?Next@?$CUtlMemory@U?$UtlLinkedListElem_t@UAirSeedSpot@@H@@H@@QBE?AVIterator_t@1@ABV21@@Z 10010c97 f i nav.obj
 0001:0000fc97       ?Next@?$CUtlMemory@U?$UtlLinkedListElem_t@UGroundSeedSpot@@H@@H@@QBE?AVIterator_t@1@ABV21@@Z 10010c97 f i nav.obj
 0001:0000fcda       ?GetIndex@?$CUtlMemory@U?$UtlLinkedListElem_t@UGroundSeedSpot@@H@@H@@QBEHABVIterator_t@1@@Z 10010cda f i nav.obj
 0001:0000fcda       ?GetIndex@?$CUtlMemory@U?$UtlLinkedListElem_t@UAirSeedSpot@@H@@H@@QBEHABVIterator_t@1@@Z 10010cda f i nav.obj
 0001:0000fcea       ?IsIdxAfter@?$CUtlMemory@U?$UtlLinkedListElem_t@UAirSeedSpot@@H@@H@@QBE_NHABVIterator_t@1@@Z 10010cea f i nav.obj
 0001:0000fcea       ?IsIdxAfter@?$CUtlMemory@U?$UtlLinkedListElem_t@UGroundSeedSpot@@H@@H@@QBE_NHABVIterator_t@1@@Z 10010cea f i nav.obj
 0001:0000fd10       ?InvalidIterator@?$CUtlMemory@U?$UtlLinkedListElem_t@UAirSeedSpot@@H@@H@@QBE?AVIterator_t@1@XZ 10010d10 f i nav.obj
 0001:0000fd10       ?InvalidIterator@?$CUtlMemory@U?$UtlLinkedListElem_t@UGroundSeedSpot@@H@@H@@QBE?AVIterator_t@1@XZ 10010d10 f i nav.obj
 0001:0000fd2c       ??8Iterator_t@?$CUtlMemory@U?$UtlLinkedListElem_t@UGroundSeedSpot@@H@@H@@QBE_NV01@@Z 10010d2c f i nav.obj
 0001:0000fd2c       ??8Iterator_t@?$CUtlMemory@U?$UtlLinkedListElem_t@UAirSeedSpot@@H@@H@@QBE_NV01@@Z 10010d2c f i nav.obj
 0001:0000fd52       ??9Iterator_t@?$CUtlMemory@U?$UtlLinkedListElem_t@UGroundSeedSpot@@H@@H@@QBE_NV01@@Z 10010d52 f i nav.obj
 0001:0000fd52       ??9Iterator_t@?$CUtlMemory@U?$UtlLinkedListElem_t@UAirSeedSpot@@H@@H@@QBE_NV01@@Z 10010d52 f i nav.obj
 0001:0000fd78       ??1?$error_info_injector@Vthread_resource_error@boost@@@exception_detail@boost@@UAE@XZ 10010d78 f i nav.obj
 0001:0000fda7       ??1?$clone_impl@U?$error_info_injector@Vthread_resource_error@boost@@@exception_detail@boost@@@exception_detail@boost@@UAE@XZ 10010da7 f i nav.obj
 0001:0000fdfb       ?clone@?$clone_impl@U?$error_info_injector@Vthread_resource_error@boost@@@exception_detail@boost@@@exception_detail@boost@@EBEPBVclone_base@23@XZ 10010dfb f i nav.obj
 0001:0000fe99       ?rethrow@?$clone_impl@U?$error_info_injector@Vthread_resource_error@boost@@@exception_detail@boost@@@exception_detail@boost@@EBEXXZ 10010e99 f i nav.obj
 0001:0000fed7       ??1?$error_info_injector@Vbad_alloc@std@@@exception_detail@boost@@UAE@XZ 10010ed7 f i nav.obj
 0001:0000ff06       ??1?$clone_impl@U?$error_info_injector@Vbad_alloc@std@@@exception_detail@boost@@@exception_detail@boost@@UAE@XZ 10010f06 f i nav.obj
 0001:0000ff5a       ?clone@?$clone_impl@U?$error_info_injector@Vbad_alloc@std@@@exception_detail@boost@@@exception_detail@boost@@EBEPBVclone_base@23@XZ 10010f5a f i nav.obj
 0001:0000fff8       ?rethrow@?$clone_impl@U?$error_info_injector@Vbad_alloc@std@@@exception_detail@boost@@@exception_detail@boost@@EBEXXZ 10010ff8 f i nav.obj
 0001:00010022       ?select_on_container_copy_construction@?$_Wrap_alloc@V?$allocator@D@std@@@std@@QBE?AU12@XZ 10011022 f i nav.obj
 0001:00010048       ??0?$clone_impl@U?$error_info_injector@Vthread_resource_error@boost@@@exception_detail@boost@@@exception_detail@boost@@AAE@ABV012@Uclone_tag@012@@Z 10011048 f i nav.obj
 0001:0001013e       ??0?$clone_impl@U?$error_info_injector@Vbad_alloc@std@@@exception_detail@boost@@@exception_detail@boost@@AAE@ABV012@Uclone_tag@012@@Z 1001113e f i nav.obj
 0001:00010234       ??0?$_Wrap_alloc@V?$allocator@D@std@@@std@@QAE@ABV?$allocator@D@1@@Z 10011234 f i nav.obj
 0001:0001024d       ?select_on_container_copy_construction@?$allocator_traits@V?$allocator@D@std@@@std@@SA?AV?$allocator@D@2@ABV32@@Z 1001124d f i nav.obj
 0001:00010260       ?select_on_container_copy_construction@?$allocator@D@std@@QBE?AV12@XZ 10011260 f i nav.obj
 0001:00010279       ??$enable_error_info@Vthread_resource_error@boost@@@boost@@YA?AU?$error_info_injector@Vthread_resource_error@boost@@@exception_detail@0@ABVthread_resource_error@0@@Z 10011279 f i nav.obj
 0001:0001029a       ??$enable_current_exception@U?$error_info_injector@Vthread_resource_error@boost@@@exception_detail@boost@@@boost@@YA?AV?$clone_impl@U?$error_info_injector@Vthread_resource_error@boost@@@exception_detail@boost@@@exception_detail@0@ABU?$error_info_injector@Vthread_resource_error@boost@@@20@@Z 1001129a f i nav.obj
 0001:000102bd       ??$enable_error_info@Vbad_alloc@std@@@boost@@YA?AU?$error_info_injector@Vbad_alloc@std@@@exception_detail@0@ABVbad_alloc@std@@@Z 100112bd f i nav.obj
 0001:000102de       ??$enable_current_exception@U?$error_info_injector@Vbad_alloc@std@@@exception_detail@boost@@@boost@@YA?AV?$clone_impl@U?$error_info_injector@Vbad_alloc@std@@@exception_detail@boost@@@exception_detail@0@ABU?$error_info_injector@Vbad_alloc@std@@@20@@Z 100112de f i nav.obj
 0001:00010301       ?Find@?$CUtlVector@PAVNode@@V?$CUtlMemory@PAVNode@@H@@@@QBEHABQAVNode@@@Z 10011301 f i nav.obj
 0001:00010345       ?EnsureCapacity@?$CUtlMemory@PAVNode@@H@@QAEXH@Z 10011345 f i nav.obj
 0001:000103cc       ??$LowLevelByteSwap@M@CByteswap@@CAXPAM0@Z 100113cc f i nav.obj
 0001:0001041b       ??$GetTypeBin@H@CUtlBuffer@@IAEXAAH@Z 1001141b f i nav.obj
 0001:00010492       ??$PutTypeBin@H@CUtlBuffer@@IAEXH@Z 10011492 f i nav.obj
 0001:00010508       ??$PutTypeBin@M@CUtlBuffer@@IAEXM@Z 10011508 f i nav.obj
 0001:00010582       ?InsertBefore@?$CUtlLinkedList@UGroundSeedSpot@@H$0A@HV?$CUtlMemory@U?$UtlLinkedListElem_t@UGroundSeedSpot@@H@@H@@@@QAEHHABUGroundSeedSpot@@@Z 10011582 f i nav.obj
 0001:000105c2       ?ConstructList@?$CUtlLinkedList@UGroundSeedSpot@@H$0A@HV?$CUtlMemory@U?$UtlLinkedListElem_t@UGroundSeedSpot@@H@@H@@@@IAEXXZ 100115c2 f i nav.obj
 0001:000105c2       ?ConstructList@?$CUtlLinkedList@UAirSeedSpot@@H$0A@HV?$CUtlMemory@U?$UtlLinkedListElem_t@UAirSeedSpot@@H@@H@@@@IAEXXZ 100115c2 f i nav.obj
 0001:000105f3       ??0?$CUtlMemory@U?$UtlLinkedListElem_t@UAirSeedSpot@@H@@H@@QAE@HH@Z 100115f3 f i nav.obj
 0001:000105f3       ??0?$CUtlMemory@U?$UtlLinkedListElem_t@UGroundSeedSpot@@H@@H@@QAE@HH@Z 100115f3 f i nav.obj
 0001:0001064d       ??A?$CUtlMemory@U?$UtlLinkedListElem_t@UAirSeedSpot@@H@@H@@QBEABU?$UtlLinkedListElem_t@UAirSeedSpot@@H@@H@Z 1001164d f i nav.obj
 0001:0001064d       ??A?$CUtlMemory@U?$UtlLinkedListElem_t@UGroundSeedSpot@@H@@H@@QAEAAU?$UtlLinkedListElem_t@UGroundSeedSpot@@H@@H@Z 1001164d f i nav.obj
 0001:0001064d       ??A?$CUtlMemory@U?$UtlLinkedListElem_t@UAirSeedSpot@@H@@H@@QAEAAU?$UtlLinkedListElem_t@UAirSeedSpot@@H@@H@Z 1001164d f i nav.obj
 0001:0001064d       ??A?$CUtlMemory@U?$UtlLinkedListElem_t@UGroundSeedSpot@@H@@H@@QBEABU?$UtlLinkedListElem_t@UGroundSeedSpot@@H@@H@Z 1001164d f i nav.obj
 0001:00010663       ?IsIdxValid@?$CUtlMemory@U?$UtlLinkedListElem_t@UAirSeedSpot@@H@@H@@QBE_NH@Z 10011663 f i nav.obj
 0001:00010663       ?IsIdxValid@?$CUtlMemory@U?$UtlLinkedListElem_t@UGroundSeedSpot@@H@@H@@QBE_NH@Z 10011663 f i nav.obj
 0001:00010697       ?EnsureCapacity@?$CUtlMemory@U?$UtlLinkedListElem_t@UAirSeedSpot@@H@@H@@QAEXH@Z 10011697 f i nav.obj
 0001:00010697       ?EnsureCapacity@?$CUtlMemory@U?$UtlLinkedListElem_t@UGroundSeedSpot@@H@@H@@QAEXH@Z 10011697 f i nav.obj
 0001:0001071e       ?InsertBefore@?$CUtlLinkedList@UAirSeedSpot@@H$0A@HV?$CUtlMemory@U?$UtlLinkedListElem_t@UAirSeedSpot@@H@@H@@@@QAEHHABUAirSeedSpot@@@Z 1001171e f i nav.obj
 0001:0001075e       ??$bind@XXVNav@@PA_NPAV1@PA_N@boost@@YA?AV?$bind_t@XV?$mf1@XVNav@@PA_N@_mfi@boost@@V?$list2@V?$value@PAVNav@@@_bi@boost@@V?$value@PA_N@23@@_bi@3@@_bi@0@U?$type@X@0@P8Nav@@AEXPA_N@ZPAV4@1@Z 1001175e f i nav.obj
 0001:0001079f       ??$make_thread_info@V?$bind_t@XV?$mf1@XVNav@@PA_N@_mfi@boost@@V?$list2@V?$value@PAVNav@@@_bi@boost@@V?$value@PA_N@23@@_bi@3@@_bi@boost@@@thread@boost@@CA?AV?$intrusive_ptr@Uthread_data_base@detail@boost@@@1@$$QAV?$bind_t@XV?$mf1@XVNav@@PA_N@_mfi@boost@@V?$list2@V?$value@PAVNav@@@_bi@boost@@V?$value@PA_N@23@@_bi@3@@_bi@1@@Z 1001179f f i nav.obj
 0001:000107d3       ??$bind@XXVNav@@PAUJobInfo_t@@PAVNode@@PAV3@PAV1@PAU2@PAV3@PAV3@@boost@@YA?AV?$bind_t@XV?$mf3@XVNav@@PAUJobInfo_t@@PAVNode@@PAV3@@_mfi@boost@@V?$list4@V?$value@PAVNav@@@_bi@boost@@V?$value@PAUJobInfo_t@@@23@V?$value@PAVNode@@@23@V523@@_bi@3@@_bi@0@U?$type@X@0@P8Nav@@AEXPAUJobInfo_t@@PAVNode@@2@ZPAV4@122@Z 100117d3 f i nav.obj
 0001:0001082c       ??$make_thread_info@V?$bind_t@XV?$mf3@XVNav@@PAUJobInfo_t@@PAVNode@@PAV3@@_mfi@boost@@V?$list4@V?$value@PAVNav@@@_bi@boost@@V?$value@PAUJobInfo_t@@@23@V?$value@PAVNode@@@23@V523@@_bi@3@@_bi@boost@@@thread@boost@@CA?AV?$intrusive_ptr@Uthread_data_base@detail@boost@@@1@$$QAV?$bind_t@XV?$mf3@XVNav@@PAUJobInfo_t@@PAVNode@@PAV3@@_mfi@boost@@V?$list4@V?$value@PAVNav@@@_bi@boost@@V?$value@PAUJobInfo_t@@@23@V?$value@PAVNode@@@23@V523@@_bi@3@@_bi@1@@Z 1001182c f i nav.obj
 0001:00010860       ??$_Ptr_cat@U?$pair@PAVcondition_variable@boost@@PAVmutex@2@@std@@U12@@std@@YA?AU_Nonscalar_ptr_iterator_tag@0@PAU?$pair@PAVcondition_variable@boost@@PAVmutex@2@@0@0@Z 10011860 f i nav.obj
 0001:00010869       ??$_Destroy_range@U?$_Wrap_alloc@V?$allocator@U?$pair@PAVcondition_variable@boost@@PAVmutex@2@@std@@@std@@@std@@@std@@YAXPAU?$pair@PAVcondition_variable@boost@@PAVmutex@2@@0@0AAU?$_Wrap_alloc@V?$allocator@U?$pair@PAVcondition_variable@boost@@PAVmutex@2@@std@@@std@@@0@U_Nonscalar_ptr_iterator_tag@0@@Z 10011869 f i nav.obj
 0001:0001088e       ??$destroy@U?$pair@QBXUtss_data_node@detail@boost@@@std@@@?$allocator_traits@V?$allocator@U?$_Tree_node@U?$pair@QBXUtss_data_node@detail@boost@@@std@@PAX@std@@@std@@@std@@SAXAAV?$allocator@U?$_Tree_node@U?$pair@QBXUtss_data_node@detail@boost@@@std@@PAX@std@@@1@PAU?$pair@QBXUtss_data_node@detail@boost@@@1@@Z 1001188e f i nav.obj
 0001:0001089e       ??0?$error_info_injector@Vthread_resource_error@boost@@@exception_detail@boost@@QAE@ABVthread_resource_error@2@@Z 1001189e f i nav.obj
 0001:00010907       ??0?$clone_impl@U?$error_info_injector@Vthread_resource_error@boost@@@exception_detail@boost@@@exception_detail@boost@@QAE@ABU?$error_info_injector@Vthread_resource_error@boost@@@12@@Z 10011907 f i nav.obj
 0001:000109fd       ??0?$error_info_injector@Vbad_alloc@std@@@exception_detail@boost@@QAE@ABVbad_alloc@std@@@Z 100119fd f i nav.obj
 0001:00010a66       ??0?$clone_impl@U?$error_info_injector@Vbad_alloc@std@@@exception_detail@boost@@@exception_detail@boost@@QAE@ABU?$error_info_injector@Vbad_alloc@std@@@12@@Z 10011a66 f i nav.obj
 0001:00010b5c       ??0?$bind_t@XV?$mf1@XVNav@@PA_N@_mfi@boost@@V?$list2@V?$value@PAVNav@@@_bi@boost@@V?$value@PA_N@23@@_bi@3@@_bi@boost@@QAE@V?$mf1@XVNav@@PA_N@_mfi@2@ABV?$list2@V?$value@PAVNav@@@_bi@boost@@V?$value@PA_N@23@@12@@Z 10011b5c f i nav.obj
 0001:00010b83       ??0?$list2@V?$value@PAVNav@@@_bi@boost@@V?$value@PA_N@23@@_bi@boost@@QAE@V?$value@PAVNav@@@12@V?$value@PA_N@12@@Z 10011b83 f i nav.obj
 0001:00010b9f       ??0?$value@PAUJobInfo_t@@@_bi@boost@@QAE@ABQAUJobInfo_t@@@Z 10011b9f f i nav.obj
 0001:00010b9f       ??0?$value@PAVNode@@@_bi@boost@@QAE@ABQAVNode@@@Z 10011b9f f i nav.obj
 0001:00010b9f       ??0?$value@PA_N@_bi@boost@@QAE@ABQA_N@Z 10011b9f f i nav.obj
 0001:00010b9f       ??0?$value@PAVNav@@@_bi@boost@@QAE@ABQAVNav@@@Z 10011b9f f i nav.obj
 0001:00010bb7       ??0?$bind_t@XV?$mf3@XVNav@@PAUJobInfo_t@@PAVNode@@PAV3@@_mfi@boost@@V?$list4@V?$value@PAVNav@@@_bi@boost@@V?$value@PAUJobInfo_t@@@23@V?$value@PAVNode@@@23@V523@@_bi@3@@_bi@boost@@QAE@V?$mf3@XVNav@@PAUJobInfo_t@@PAVNode@@PAV3@@_mfi@2@ABV?$list4@V?$value@PAVNav@@@_bi@boost@@V?$value@PAUJobInfo_t@@@23@V?$value@PAVNode@@@23@V523@@12@@Z 10011bb7 f i nav.obj
 0001:00010bde       ??0?$list4@V?$value@PAVNav@@@_bi@boost@@V?$value@PAUJobInfo_t@@@23@V?$value@PAVNode@@@23@V523@@_bi@boost@@QAE@V?$value@PAVNav@@@12@V?$value@PAUJobInfo_t@@@12@V?$value@PAVNode@@@12@2@Z 10011bde f i nav.obj
 0001:00010c00       ?run@?$thread_data@V?$bind_t@XV?$mf1@XVNav@@PA_N@_mfi@boost@@V?$list2@V?$value@PAVNav@@@_bi@boost@@V?$value@PA_N@23@@_bi@3@@_bi@boost@@@detail@boost@@UAEXXZ 10011c00 f i nav.obj
 0001:00010c14       ?run@?$thread_data@V?$bind_t@XV?$mf3@XVNav@@PAUJobInfo_t@@PAVNode@@PAV3@@_mfi@boost@@V?$list4@V?$value@PAVNav@@@_bi@boost@@V?$value@PAUJobInfo_t@@@23@V?$value@PAVNode@@@23@V523@@_bi@3@@_bi@boost@@@detail@boost@@UAEXXZ 10011c14 f i nav.obj
 0001:00010c28       ??R?$bind_t@XV?$mf1@XVNav@@PA_N@_mfi@boost@@V?$list2@V?$value@PAVNav@@@_bi@boost@@V?$value@PA_N@23@@_bi@3@@_bi@boost@@QAEXXZ 10011c28 f i nav.obj
 0001:00010c57       ??0?$storage2@V?$value@PAVNav@@@_bi@boost@@V?$value@PAUJobInfo_t@@@23@@_bi@boost@@QAE@V?$value@PAVNav@@@12@V?$value@PAUJobInfo_t@@@12@@Z 10011c57 f i nav.obj
 0001:00010c57       ??0?$storage2@V?$value@PAVNav@@@_bi@boost@@V?$value@PA_N@23@@_bi@boost@@QAE@V?$value@PAVNav@@@12@V?$value@PA_N@12@@Z 10011c57 f i nav.obj
 0001:00010c79       ??R?$bind_t@XV?$mf3@XVNav@@PAUJobInfo_t@@PAVNode@@PAV3@@_mfi@boost@@V?$list4@V?$value@PAVNav@@@_bi@boost@@V?$value@PAUJobInfo_t@@@23@V?$value@PAVNode@@@23@V523@@_bi@3@@_bi@boost@@QAEXXZ 10011c79 f i nav.obj
 0001:00010ca8       ??0?$storage4@V?$value@PAVNav@@@_bi@boost@@V?$value@PAUJobInfo_t@@@23@V?$value@PAVNode@@@23@V523@@_bi@boost@@QAE@V?$value@PAVNav@@@12@V?$value@PAUJobInfo_t@@@12@V?$value@PAVNode@@@12@2@Z 10011ca8 f i nav.obj
 0001:00010cd0       ??0?$storage3@V?$value@PAVNav@@@_bi@boost@@V?$value@PAUJobInfo_t@@@23@V?$value@PAVNode@@@23@@_bi@boost@@QAE@V?$value@PAVNav@@@12@V?$value@PAUJobInfo_t@@@12@V?$value@PAVNode@@@12@@Z 10011cd0 f i nav.obj
 0001:00010cf5       ??$SwapBufferToTargetEndian@H@CByteswap@@QAEXPAH0H@Z 10011cf5 f i nav.obj
 0001:00010d7a       ?LinkBefore@?$CUtlLinkedList@UAirSeedSpot@@H$0A@HV?$CUtlMemory@U?$UtlLinkedListElem_t@UAirSeedSpot@@H@@H@@@@QAEXHH@Z 10011d7a f i nav.obj
 0001:00010d7a       ?LinkBefore@?$CUtlLinkedList@UGroundSeedSpot@@H$0A@HV?$CUtlMemory@U?$UtlLinkedListElem_t@UGroundSeedSpot@@H@@H@@@@QAEXHH@Z 10011d7a f i nav.obj
 0001:00010e2f       ?AllocInternal@?$CUtlLinkedList@UGroundSeedSpot@@H$0A@HV?$CUtlMemory@U?$UtlLinkedListElem_t@UGroundSeedSpot@@H@@H@@@@IAEH_N@Z 10011e2f f i nav.obj
 0001:00010fbf       ??$CopyConstruct@UAirSeedSpot@@@@YAXPAUAirSeedSpot@@ABU0@@Z 10011fbf f i nav.obj
 0001:00010fbf       ??$CopyConstruct@UGroundSeedSpot@@@@YAXPAUGroundSeedSpot@@ABU0@@Z 10011fbf f i nav.obj
 0001:00010ff6       ?AllocInternal@?$CUtlLinkedList@UAirSeedSpot@@H$0A@HV?$CUtlMemory@U?$UtlLinkedListElem_t@UAirSeedSpot@@H@@H@@@@IAEH_N@Z 10011ff6 f i nav.obj
 0001:00011186       ??$heap_new@V?$thread_data@V?$bind_t@XV?$mf1@XVNav@@PA_N@_mfi@boost@@V?$list2@V?$value@PAVNav@@@_bi@boost@@V?$value@PA_N@23@@_bi@3@@_bi@boost@@@detail@boost@@V?$bind_t@XV?$mf1@XVNav@@PA_N@_mfi@boost@@V?$list2@V?$value@PAVNav@@@_bi@boost@@V?$value@PA_N@23@@_bi@3@@_bi@3@@detail@boost@@YAPAV?$thread_data@V?$bind_t@XV?$mf1@XVNav@@PA_N@_mfi@boost@@V?$list2@V?$value@PAVNav@@@_bi@boost@@V?$value@PA_N@23@@_bi@3@@_bi@boost@@@01@$$QAV?$bind_t@XV?$mf1@XVNav@@PA_N@_mfi@boost@@V?$list2@V?$value@PAVNav@@@_bi@boost@@V?$value@PA_N@23@@_bi@3@@_bi@1@@Z 10012186 f i nav.obj
 0001:00011241       ??$heap_new@V?$thread_data@V?$bind_t@XV?$mf3@XVNav@@PAUJobInfo_t@@PAVNode@@PAV3@@_mfi@boost@@V?$list4@V?$value@PAVNav@@@_bi@boost@@V?$value@PAUJobInfo_t@@@23@V?$value@PAVNode@@@23@V523@@_bi@3@@_bi@boost@@@detail@boost@@V?$bind_t@XV?$mf3@XVNav@@PAUJobInfo_t@@PAVNode@@PAV3@@_mfi@boost@@V?$list4@V?$value@PAVNav@@@_bi@boost@@V?$value@PAUJobInfo_t@@@23@V?$value@PAVNode@@@23@V523@@_bi@3@@_bi@3@@detail@boost@@YAPAV?$thread_data@V?$bind_t@XV?$mf3@XVNav@@PAUJobInfo_t@@PAVNode@@PAV3@@_mfi@boost@@V?$list4@V?$value@PAVNav@@@_bi@boost@@V?$value@PAUJobInfo_t@@@23@V?$value@PAVNode@@@23@V523@@_bi@3@@_bi@boost@@@01@$$QAV?$bind_t@XV?$mf3@XVNav@@PAUJobInfo_t@@PAVNode@@PAV3@@_mfi@boost@@V?$list4@V?$value@PAVNav@@@_bi@boost@@V?$value@PAUJobInfo_t@@@23@V?$value@PAVNode@@@23@V523@@_bi@3@@_bi@1@@Z 10012241 f i nav.obj
 0001:000112fc       ??$destroy@U?$pair@QBXUtss_data_node@detail@boost@@@std@@@?$allocator@U?$_Tree_node@U?$pair@QBXUtss_data_node@detail@boost@@@std@@PAX@std@@@std@@QAEXPAU?$pair@QBXUtss_data_node@detail@boost@@@1@@Z 100122fc f i nav.obj
 0001:00011311       ??$?RV?$mf1@XVNav@@PA_N@_mfi@boost@@Vlist0@_bi@2@@?$list2@V?$value@PAVNav@@@_bi@boost@@V?$value@PA_N@23@@_bi@boost@@QAEXV?$type@X@12@AAV?$mf1@XVNav@@PA_N@_mfi@2@AAVlist0@12@H@Z 10012311 f i nav.obj
 0001:0001134d       ??$?RV?$mf3@XVNav@@PAUJobInfo_t@@PAVNode@@PAV3@@_mfi@boost@@Vlist0@_bi@2@@?$list4@V?$value@PAVNav@@@_bi@boost@@V?$value@PAUJobInfo_t@@@23@V?$value@PAVNode@@@23@V523@@_bi@boost@@QAEXV?$type@X@12@AAV?$mf3@XVNav@@PAUJobInfo_t@@PAVNode@@PAV3@@_mfi@2@AAVlist0@12@H@Z 1001234d f i nav.obj
 0001:000113ab       ??_G?$pair@QBXUtss_data_node@detail@boost@@@std@@QAEPAXI@Z 100123ab f i nav.obj
 0001:000113d2       ??1?$pair@QBXUtss_data_node@detail@boost@@@std@@QAE@XZ 100123d2 f i nav.obj
 0001:000113e6       ??1tss_data_node@detail@boost@@QAE@XZ 100123e6 f i nav.obj
 0001:000113f7       ?IsValidIterator@?$CUtlMemory@U?$UtlLinkedListElem_t@UAirSeedSpot@@H@@H@@QBE_NABVIterator_t@1@@Z 100123f7 f i nav.obj
 0001:000113f7       ?IsValidIterator@?$CUtlMemory@U?$UtlLinkedListElem_t@UGroundSeedSpot@@H@@H@@QBE_NABVIterator_t@1@@Z 100123f7 f i nav.obj
 0001:0001140f       ??R?$mf1@XVNav@@PA_N@_mfi@boost@@QBEXPAVNav@@PA_N@Z 1001240f f i nav.obj
 0001:00011425       ??R?$mf3@XVNav@@PAUJobInfo_t@@PAVNode@@PAV3@@_mfi@boost@@QBEXPAVNav@@PAUJobInfo_t@@PAVNode@@2@Z 10012425 f i nav.obj
 0001:00011441       ??0?$thread_data@V?$bind_t@XV?$mf1@XVNav@@PA_N@_mfi@boost@@V?$list2@V?$value@PAVNav@@@_bi@boost@@V?$value@PA_N@23@@_bi@3@@_bi@boost@@@detail@boost@@QAE@$$QAV?$bind_t@XV?$mf1@XVNav@@PA_N@_mfi@boost@@V?$list2@V?$value@PAVNav@@@_bi@boost@@V?$value@PA_N@23@@_bi@3@@_bi@2@@Z 10012441 f i nav.obj
 0001:000114ad       ??0?$thread_data@V?$bind_t@XV?$mf3@XVNav@@PAUJobInfo_t@@PAVNode@@PAV3@@_mfi@boost@@V?$list4@V?$value@PAVNav@@@_bi@boost@@V?$value@PAUJobInfo_t@@@23@V?$value@PAVNode@@@23@V523@@_bi@3@@_bi@boost@@@detail@boost@@QAE@$$QAV?$bind_t@XV?$mf3@XVNav@@PAUJobInfo_t@@PAVNode@@PAV3@@_mfi@boost@@V?$list4@V?$value@PAVNav@@@_bi@boost@@V?$value@PAUJobInfo_t@@@23@V?$value@PAVNode@@@23@V523@@_bi@3@@_bi@2@@Z 100124ad f i nav.obj
 0001:0001151b       ??_E?$thread_data@V?$bind_t@XV?$mf1@XVNav@@PA_N@_mfi@boost@@V?$list2@V?$value@PAVNav@@@_bi@boost@@V?$value@PA_N@23@@_bi@3@@_bi@boost@@@detail@boost@@UAEPAXI@Z 1001251b f i * CIL library *:* CIL module *
 0001:0001151b       ??_G?$thread_data@V?$bind_t@XV?$mf1@XVNav@@PA_N@_mfi@boost@@V?$list2@V?$value@PAVNav@@@_bi@boost@@V?$value@PA_N@23@@_bi@3@@_bi@boost@@@detail@boost@@UAEPAXI@Z 1001251b f i nav.obj
 0001:0001151b       ??_E?$thread_data@V?$bind_t@XV?$mf3@XVNav@@PAUJobInfo_t@@PAVNode@@PAV3@@_mfi@boost@@V?$list4@V?$value@PAVNav@@@_bi@boost@@V?$value@PAUJobInfo_t@@@23@V?$value@PAVNode@@@23@V523@@_bi@3@@_bi@boost@@@detail@boost@@UAEPAXI@Z 1001251b f i * CIL library *:* CIL module *
 0001:0001151b       ??_G?$thread_data@V?$bind_t@XV?$mf3@XVNav@@PAUJobInfo_t@@PAVNode@@PAV3@@_mfi@boost@@V?$list4@V?$value@PAVNav@@@_bi@boost@@V?$value@PAUJobInfo_t@@@23@V?$value@PAVNode@@@23@V523@@_bi@3@@_bi@boost@@@detail@boost@@UAEPAXI@Z 1001251b f i nav.obj
 0001:00011542       ??1?$thread_data@V?$bind_t@XV?$mf3@XVNav@@PAUJobInfo_t@@PAVNode@@PAV3@@_mfi@boost@@V?$list4@V?$value@PAVNav@@@_bi@boost@@V?$value@PAUJobInfo_t@@@23@V?$value@PAVNode@@@23@V523@@_bi@3@@_bi@boost@@@detail@boost@@UAE@XZ 10012542 f i nav.obj
 0001:00011542       ??1?$thread_data@V?$bind_t@XV?$mf1@XVNav@@PA_N@_mfi@boost@@V?$list2@V?$value@PAVNav@@@_bi@boost@@V?$value@PA_N@23@@_bi@3@@_bi@boost@@@detail@boost@@UAE@XZ 10012542 f i nav.obj
 0001:00011553       ??$LowLevelByteSwap@H@CByteswap@@CAXPAH0@Z 10012553 f i nav.obj
 0001:0001159e       ?Unlink@?$CUtlLinkedList@UAirSeedSpot@@H$0A@HV?$CUtlMemory@U?$UtlLinkedListElem_t@UAirSeedSpot@@H@@H@@@@QAEXH@Z 1001259e f i nav.obj
 0001:0001159e       ?Unlink@?$CUtlLinkedList@UGroundSeedSpot@@H$0A@HV?$CUtlMemory@U?$UtlLinkedListElem_t@UGroundSeedSpot@@H@@H@@@@QAEXH@Z 1001259e f i nav.obj
 0001:00011651       ?Grow@?$CUtlMemory@U?$UtlLinkedListElem_t@UGroundSeedSpot@@H@@H@@QAEXH@Z 10012651 f i nav.obj
 0001:00011651       ?Grow@?$CUtlMemory@U?$UtlLinkedListElem_t@UAirSeedSpot@@H@@H@@QAEXH@Z 10012651 f i nav.obj
 0001:0001174b       ??$?APA_N@list0@_bi@boost@@QBEAAPA_NAAV?$value@PA_N@12@@Z 1001274b f i nav.obj
 0001:0001174b       ??$?APAVNode@@@list0@_bi@boost@@QBEAAPAVNode@@AAV?$value@PAVNode@@@12@@Z 1001274b f i nav.obj
 0001:0001174b       ??$?APAUJobInfo_t@@@list0@_bi@boost@@QBEAAPAUJobInfo_t@@AAV?$value@PAUJobInfo_t@@@12@@Z 1001274b f i nav.obj
 0001:0001174b       ??$?APAVNav@@@list0@_bi@boost@@QBEAAPAVNav@@AAV?$value@PAVNav@@@12@@Z 1001274b f i nav.obj
 0001:0001175e       ?IsInList@?$CUtlLinkedList@UGroundSeedSpot@@H$0A@HV?$CUtlMemory@U?$UtlLinkedListElem_t@UGroundSeedSpot@@H@@H@@@@QBE_NH@Z 1001275e f i nav.obj
 0001:0001175e       ?IsInList@?$CUtlLinkedList@UAirSeedSpot@@H$0A@HV?$CUtlMemory@U?$UtlLinkedListElem_t@UAirSeedSpot@@H@@H@@@@QBE_NH@Z 1001275e f i nav.obj
 0001:000117b9       ?Previous@?$CUtlLinkedList@UGroundSeedSpot@@H$0A@HV?$CUtlMemory@U?$UtlLinkedListElem_t@UGroundSeedSpot@@H@@H@@@@QBEHH@Z 100127b9 f i nav.obj
 0001:000117b9       ?Previous@?$CUtlLinkedList@UAirSeedSpot@@H$0A@HV?$CUtlMemory@U?$UtlLinkedListElem_t@UAirSeedSpot@@H@@H@@@@QBEHH@Z 100127b9 f i nav.obj
 0001:000117d2       ??_E?$error_info_injector@Vthread_resource_error@boost@@@exception_detail@boost@@WCM@AEPAXI@Z 100127d2 f i nav.obj
 0001:000117da       ?rethrow@?$clone_impl@U?$error_info_injector@Vthread_resource_error@boost@@@exception_detail@boost@@@exception_detail@boost@@$0PPPPPPPM@A@BEXXZ 100127da f i nav.obj
 0001:000117e2       ??_E?$clone_impl@U?$error_info_injector@Vthread_resource_error@boost@@@exception_detail@boost@@@exception_detail@boost@@WCM@AEPAXI@Z 100127e2 f i nav.obj
 0001:000117ea       ??_E?$error_info_injector@Vbad_alloc@std@@@exception_detail@boost@@WM@AEPAXI@Z 100127ea f i nav.obj
 0001:000117f2       ?clone@?$clone_impl@U?$error_info_injector@Vbad_alloc@std@@@exception_detail@boost@@@exception_detail@boost@@$0PPPPPPPM@A@BEPBVclone_base@23@XZ 100127f2 f i nav.obj
 0001:000117fa       ?clone@?$clone_impl@U?$error_info_injector@Vthread_resource_error@boost@@@exception_detail@boost@@@exception_detail@boost@@$0PPPPPPPM@A@BEPBVclone_base@23@XZ 100127fa f i nav.obj
 0001:00011802       ??_E?$clone_impl@U?$error_info_injector@Vbad_alloc@std@@@exception_detail@boost@@@exception_detail@boost@@$4PPPPPPPM@CI@AEPAXI@Z 10012802 f i nav.obj
 0001:0001180d       ??_E?$clone_impl@U?$error_info_injector@Vbad_alloc@std@@@exception_detail@boost@@@exception_detail@boost@@WM@AEPAXI@Z 1001280d f i nav.obj
 0001:00011815       ?rethrow@?$clone_impl@U?$error_info_injector@Vbad_alloc@std@@@exception_detail@boost@@@exception_detail@boost@@$0PPPPPPPM@A@BEXXZ 10012815 f i nav.obj
 0001:0001181d       ??_E?$clone_impl@U?$error_info_injector@Vthread_resource_error@boost@@@exception_detail@boost@@@exception_detail@boost@@$4PPPPPPPM@EI@AEPAXI@Z 1001281d f i nav.obj
 0001:00011828       ??0Node@@QAE@ABVVector@@0PAV0@@Z 10012828 f   node.obj
 0001:000118b8       ?ConnectTo@Node@@QAEXPAV1@W4NavDirType@@@Z 100128b8 f   node.obj
 0001:000118d0       ?GetConnectedNode@Node@@QAEPAV1@W4NavDirType@@@Z 100128d0 f   node.obj
 0001:000118e5       ?GetParent@Node@@QAEPAV1@XZ 100128e5 f   node.obj
 0001:000118f4       ?MarkAsVisited@Node@@QAEXW4NavDirType@@@Z 100128f4 f   node.obj
 0001:00011917       ?HasVisited@Node@@QAE_NW4NavDirType@@@Z 10012917 f   node.obj
 0001:0001193b       ?SetStatus@Node@@QAEXPAV1@MM@Z 1001293b f   node.obj
 0001:00011969       ?IsOpened@Node@@QAE_NXZ    10012969 f   node.obj
 0001:00011978       ?SetOpened@Node@@QAEX_N@Z  10012978 f   node.obj
 0001:0001198c       ?IsDisabled@Node@@QAE_NXZ  1001298c f   node.obj
 0001:0001199b       ?SetDisabled@Node@@QAEX_N@Z 1001299b f   node.obj
 0001:000119af       ?IsClosed@Node@@QAE_NXZ    100129af f   node.obj
 0001:000119be       ?SetClosed@Node@@QAEX_N@Z  100129be f   node.obj
 0001:000119d2       ?GetAStarParent@Node@@QAEPAV1@XZ 100129d2 f   node.obj
 0001:000119e1       ?GetScoreF@Node@@QAEMXZ    100129e1 f   node.obj
 0001:000119f0       ?GetScoreG@Node@@QAEMXZ    100129f0 f   node.obj
 0001:000119ff       ?GetID@Node@@QAEHXZ        100129ff f   node.obj
 0001:00011a0e       ?SetID@Node@@QAEXH@Z       10012a0e f   node.obj
 0001:00011a22       ?SetNormal@Node@@QAEXABVVector@@@Z 10012a22 f   node.obj
 0001:00011a3b       ?SetPosition@Node@@QAEXABVVector@@@Z 10012a3b f   node.obj
 0001:00011a60       _cosf                      10012a60 f i mathlib:mathlib_base.obj
 0001:00011a70       ?SinCos@@YAXMPAM0@Z        10012a70 f i mathlib:mathlib_base.obj
 0001:00011a90       ?_sqrtf@@YAMM@Z            10012a90 f   mathlib:mathlib_base.obj
 0001:00011aa0       ?_rsqrtf@@YAMM@Z           10012aa0 f   mathlib:mathlib_base.obj
 0001:00011ab0       ?_VectorNormalize@@YIMAAVVector@@@Z 10012ab0 f   mathlib:mathlib_base.obj
 0001:00011af0       ?_VectorNormalizeFast@@YIXAAVVector@@@Z 10012af0 f   mathlib:mathlib_base.obj
 0001:00011b30       ?_InvRSquared@@YAMPBM@Z    10012b30 f   mathlib:mathlib_base.obj
 0001:00011b60       _CreateInterface           10012b60 f   tier1:interface.obj
 0001:00011bd0       ?Sys_GetFactory@@YAP6APAXPBDPAH@Z0@Z 10012bd0 f   tier1:interface.obj
 0001:00011bf0       ?FindConversion@CUtlCStringConversion@@UAEDPBDPAH@Z 10012bf0 f   tier1:utlbuffer.obj
 0001:00011c10       ??0CUtlCharConversion@@QAE@DPBDHPAUConversionArray_t@0@@Z 10012c10 f   tier1:utlbuffer.obj
 0001:00011cc0       ?FindConversion@CUtlCharConversion@@UAEDPBDPAH@Z 10012cc0 f   tier1:utlbuffer.obj
 0001:00011d40       ?GetOverflow@CUtlBuffer@@IAE_NH@Z 10012d40 f   tier1:utlbuffer.obj
 0001:00011d50       ?FindConversion@CUtlNoEscConversion@@UAEDPBDPAH@Z 10012d50 f i tier1:utlbuffer.obj
 0001:00011d60       ?CheckGet@CUtlBuffer@@IAE_NH@Z 10012d60 f   tier1:utlbuffer.obj
 0001:00011dc0       ?CheckArbitraryPeekGet@CUtlBuffer@@IAE_NHAAH@Z 10012dc0 f   tier1:utlbuffer.obj
 0001:00011e30       ?CheckPut@CUtlBuffer@@IAE_NH@Z 10012e30 f   tier1:utlbuffer.obj
 0001:00011e80       ?AddNullTermination@CUtlBuffer@@IAEXXZ 10012e80 f   tier1:utlbuffer.obj
 0001:00011ed0       ?ConvertToGrowableMemory@?$CUtlMemory@EH@@QAEXH@Z 10012ed0 f i tier1:utlbuffer.obj
 0001:00011f20       ?Grow@?$CUtlMemory@EH@@QAEXH@Z 10012f20 f i tier1:utlbuffer.obj
 0001:00011fd0       ?EnsureCapacity@CUtlBuffer@@QAEXH@Z 10012fd0 f   tier1:utlbuffer.obj
 0001:00012030       ?Get@CUtlBuffer@@QAEXPAXH@Z 10013030 f   tier1:utlbuffer.obj
 0001:00012070       ?EatWhiteSpace@CUtlBuffer@@QAEXXZ 10013070 f   tier1:utlbuffer.obj
 0001:000120e0       ?PeekWhiteSpace@CUtlBuffer@@IAEHH@Z 100130e0 f   tier1:utlbuffer.obj
 0001:00012180       ?PeekStringLength@CUtlBuffer@@QAEHXZ 10013180 f   tier1:utlbuffer.obj
 0001:000122e0       ?Put@CUtlBuffer@@QAEXPBXH@Z 100132e0 f   tier1:utlbuffer.obj
 0001:00012350       ?PutOverflow@CUtlBuffer@@IAE_NH@Z 10013350 f   tier1:utlbuffer.obj
 0001:000123a0       ?SeekPut@CUtlBuffer@@QAEXW4SeekType_t@1@H@Z 100133a0 f   tier1:utlbuffer.obj
 0001:00012420       ??$PutTypeBin@D@CUtlBuffer@@IAEXD@Z 10013420 f i tier1:utlbuffer.obj
 0001:000124c0       ?PutTabs@CUtlBuffer@@IAEXXZ 100134c0 f i tier1:utlbuffer.obj
 0001:00012500       ??0CUtlBuffer@@QAE@HHH@Z   10013500 f   tier1:utlbuffer.obj
 0001:00012580       ?PutString@CUtlBuffer@@QAEXPBD@Z 10013580 f   tier1:utlbuffer.obj
 0001:00012680       ?Printf@CUtlBuffer@@QAAXPBDZZ 10013680 f   tier1:utlbuffer.obj
 0001:000126c0       ?GetChar@CUtlBuffer@@QAEDXZ 100136c0 f i tier1:utlbuffer.obj
 0001:00012710       ?GetString@CUtlBuffer@@QAEXPADH@Z 10013710 f   tier1:utlbuffer.obj
 0001:000127d0       ?VaScanf@CUtlBuffer@@QAEHPBDPAD@Z 100137d0 f   tier1:utlbuffer.obj
 0001:00012af0       ?Scanf@CUtlBuffer@@QAAHPBDZZ 10013af0 f   tier1:utlbuffer.obj
 0001:00012b10       ?V_snprintf@@YAHPADHPBDZZ  10013b10 f   tier1:strtools.obj
 0001:00012b60       ?V_vsnprintf@@YAHPADHPBD0@Z 10013b60 f   tier1:strtools.obj
 0001:00012ba2       @__security_check_cookie@4 10013ba2 f   LIBCMT:secchk.obj
 0001:00012bc0       _memmove                   10013bc0 f   LIBCMT:memmove.obj
 0001:00013204       __vsnprintf_helper         10014204 f   LIBCMT:vsnprnc.obj
 0001:000132cc       __vsprintf_s_l             100142cc f   LIBCMT:vsnprnc.obj
 0001:00013341       _vsprintf_s                10014341 f   LIBCMT:vsnprnc.obj
 0001:0001335c       ??3@YAXPAX@Z               1001435c f   LIBCMT:delete.obj
 0001:00013361       ??2@YAPAXI@Z               10014361 f   LIBCMT:new.obj
 0001:000133b0       ___onexitinit              100143b0 f   LIBCMT:onexit.obj
 0001:000133df       __onexit                   100143df f   LIBCMT:onexit.obj
 0001:000134d5       _atexit                    100144d5 f   LIBCMT:onexit.obj
 0001:000134ea       __purecall                 100144ea f   LIBCMT:purevirt.obj
 0001:00013514       ??1type_info@@UAE@XZ       10014514 f   LIBCMT:typinfo.obj
 0001:00013522       ??8type_info@@QBE_NABV0@@Z 10014522 f   LIBCMT:typinfo.obj
 0001:00013540       ??_Etype_info@@UAEPAXI@Z   10014540 f i LIBCMT:typinfo.obj
 0001:00013540       ??_Gtype_info@@UAEPAXI@Z   10014540 f i LIBCMT:typinfo.obj
 0001:0001355f       ??0exception@std@@QAE@ABQBD@Z 1001455f f   LIBCMT:stdexcpt.obj
 0001:00013584       ??0exception@std@@QAE@ABQBDH@Z 10014584 f   LIBCMT:stdexcpt.obj
 0001:0001359f       ??0exception@std@@QAE@ABV01@@Z 1001459f f   LIBCMT:stdexcpt.obj
 0001:000135c2       ??1exception@std@@UAE@XZ   100145c2 f   LIBCMT:stdexcpt.obj
 0001:000135cd       ??4exception@std@@QAEAAV01@ABV01@@Z 100145cd f   LIBCMT:stdexcpt.obj
 0001:00013600       ??_Gexception@std@@UAEPAXI@Z 10014600 f i LIBCMT:stdexcpt.obj
 0001:00013600       ??_Eexception@std@@UAEPAXI@Z 10014600 f i LIBCMT:stdexcpt.obj
 0001:00013625       ?_Copy_str@exception@std@@AAEXPBD@Z 10014625 f   LIBCMT:stdexcpt.obj
 0001:00013663       ?_Tidy@exception@std@@AAEXXZ 10014663 f   LIBCMT:stdexcpt.obj
 0001:0001367f       ?what@exception@std@@UBEPBDXZ 1001467f f   LIBCMT:stdexcpt.obj
 0001:0001368c       __gmtime64                 1001468c f   LIBCMT:gmtime64.obj
 0001:000136b1       __gmtime64_s               100146b1 f   LIBCMT:gmtime64.obj
 0001:000138da       __difftime64               100148da f   LIBCMT:difftm64.obj
 0001:00013921       __time64                   10014921 f   LIBCMT:time64.obj
 0001:00013970       __fsopen                   10014970 f   LIBCMT:fopen.obj
 0001:00013a34       _fopen                     10014a34 f   LIBCMT:fopen.obj
 0001:00013a49       __fread_nolock_s           10014a49 f   LIBCMT:fread.obj
 0001:00013c0c       _fread                     10014c0c f   LIBCMT:fread.obj
 0001:00013c27       _fread_s                   10014c27 f   LIBCMT:fread.obj
 0001:00013cb8       __ftell_nolock             10014cb8 f   LIBCMT:ftell.obj
 0001:00014011       _ftell                     10015011 f   LIBCMT:ftell.obj
 0001:00014079       __fseek_nolock             10015079 f   LIBCMT:fseek.obj
 0001:00014108       _fseek                     10015108 f   LIBCMT:fseek.obj
 0001:00014187       __fclose_nolock            10015187 f   LIBCMT:fclose.obj
 0001:000141f3       _fclose                    100151f3 f   LIBCMT:fclose.obj
 0001:0001426a       __CRT_INIT@12              1001526a f   LIBCMT:dllcrt0.obj
 0001:000143dc       __DllMainCRTStartup@12     100153dc f   LIBCMT:dllcrt0.obj
 0001:0001450d       ___DllXcptFilter           1001550d f   LIBCMT:dllcrt0.obj
 0001:00014532       __fpmath                   10015532 f   LIBCMT:fpinit.obj
 0001:00014549       __cfltcvt_init             10015549 f   LIBCMT:fpinit.obj
 0001:000145b0       _acos                      100155b0 f   LIBCMT:acos.obj
 0001:000145f0       __CIacos                   100155f0 f   LIBCMT:acos.obj
 0001:0001462b       __CIacos_default           1001562b f   LIBCMT:acos.obj
 0001:0001463f       __acos_default             1001563f     LIBCMT:acos.obj
 0001:00014700       _asin                      10015700 f   LIBCMT:asin.obj
 0001:00014740       __CIasin                   10015740 f   LIBCMT:asin.obj
 0001:0001477b       __CIasin_default           1001577b f   LIBCMT:asin.obj
 0001:0001478f       __asin_default             1001578f     LIBCMT:asin.obj
 0001:00014850       _fmod                      10015850 f   LIBCMT:87fmod.obj
 0001:0001485a       __CIfmod                   1001585a f   LIBCMT:87fmod.obj
 0001:00014880       _pow                       10015880 f   LIBCMT:pow.obj
 0001:000148c0       __CIpow                    100158c0 f   LIBCMT:pow.obj
 0001:000148fb       __CIpow_default            100158fb f   LIBCMT:pow.obj
 0001:00014914       __pow_default              10015914     LIBCMT:pow.obj
 0001:00014b10       __ftol2_sse                10015b10 f   LIBCMT:ftol2.obj
 0001:00014b19       __ftol2_pentium4           10015b19 f   LIBCMT:ftol2.obj
 0001:00014b2c       __ftol2_sse_excpt          10015b2c f   LIBCMT:ftol2.obj
 0001:00014b46       __ftol2                    10015b46 f   LIBCMT:ftol2.obj
 0001:00014bc0       _floor                     10015bc0 f   LIBCMT:floor_pentium4.obj
 0001:00014c00       __floor_pentium4           10015c00 f   LIBCMT:floor_pentium4.obj
 0001:00014cf0       _memset                    10015cf0 f   LIBCMT:memset.obj
 0001:00014d80       __alloca_probe_16          10015d80 f   LIBCMT:alloca16.obj
 0001:00014d96       __alloca_probe_8           10015d96     LIBCMT:alloca16.obj
 0001:00014db0       _strstr                    10015db0 f   LIBCMT:strstr.obj
 0001:00015020       _memcpy                    10016020 f   LIBCMT:memcpy.obj
 0001:00015664       ??0_LocaleUpdate@@QAE@PAUlocaleinfo_struct@@@Z 10016664 f i LIBCMT:_ctype.obj
 0001:000156ec       __isdigit_l                100166ec f i LIBCMT:_ctype.obj
 0001:0001573c       __isspace_l                1001673c f i LIBCMT:_ctype.obj
 0001:0001578c       _isdigit                   1001678c f i LIBCMT:_ctype.obj
 0001:000157b7       _isspace                   100167b7 f i LIBCMT:_ctype.obj
 0001:000157f0       _strchr                    100167f0 f   LIBCMT:strchr.obj
 0001:0001585e       ___from_strstr_to_strchr   1001685e     LIBCMT:strchr.obj
 0001:0001591b       __strtod_l                 1001691b f   LIBCMT:strtod.obj
 0001:00015a30       _strtod                    10016a30 f   LIBCMT:strtod.obj
 0001:00015c69       _strtol                    10016c69 f   LIBCMT:strtol.obj
 0001:00015c93       _strtoul                   10016c93 f   LIBCMT:strtol.obj
 0001:00015cbd       __tolower_l                10016cbd f   LIBCMT:tolower.obj
 0001:00015dfe       _tolower                   10016dfe f   LIBCMT:tolower.obj
 0001:00015e30       _strncat                   10016e30 f   LIBCMT:strncat.obj
 0001:00015f70       _strncpy                   10016f70 f   LIBCMT:strncpy.obj
 0001:00016094       __vsnprintf                10017094 f   LIBCMT:vsnprint.obj
 0001:000160af       __vsnprintf_l              100170af f   LIBCMT:vsnprint.obj
 0001:00016160       __allrem                   10017160 f   LIBCMT:llrem.obj
 0001:00016220       __alldiv                   10017220 f   LIBCMT:lldiv.obj
 0001:000162ca       ___raise_securityfailure   100172ca f   LIBCMT:gs_report.obj
 0001:00016307       ___report_gsfailure        10017307 f   LIBCMT:gs_report.obj
 0001:00016400       ___isa_available_init      10017400 f   LIBCMT:cpu_disp.obj
 0001:00016539       __call_reportfault         10017539 f   LIBCMT:invarg.obj
 0001:0001665c       __initp_misc_invarg        1001765c f   LIBCMT:invarg.obj
 0001:00016669       __invalid_parameter        10017669 f   LIBCMT:invarg.obj
 0001:00016694       __invalid_parameter_noinfo 10017694 f   LIBCMT:invarg.obj
 0001:000166a4       __invoke_watson            100176a4 f   LIBCMT:invarg.obj
 0001:000166cf       __flsbuf                   100176cf f   LIBCMT:_flsbuf.obj
 0001:0001681c       __output_l                 1001781c f   LIBCMT:output.obj
 0001:0001741c       __output_s_l               1001841c f   LIBCMT:outputs.obj
 0001:00017ff6       ___doserrno                10018ff6 f   LIBCMT:dosmap.obj
 0001:00018009       __dosmaperr                10019009 f   LIBCMT:dosmap.obj
 0001:0001802a       __errno                    1001902a f   LIBCMT:dosmap.obj
 0001:0001803d       __get_errno_from_oserr     1001903d f   LIBCMT:dosmap.obj
 0001:0001807e       _free                      1001907e f   LIBCMT:free.obj
 0001:000180b6       _malloc                    100190b6 f   LIBCMT:malloc.obj
 0001:00018148       __callnewh                 10019148 f   LIBCMT:handler.obj
 0001:0001816e       __initp_heap_handler       1001916e f   LIBCMT:handler.obj
 0001:0001817b       __CxxThrowException@8      1001917b f   LIBCMT:throw.obj
 0001:000181d6       ___copy_path_to_wide_string 100191d6 f   LIBCMT:crt0dat.obj
 0001:00018286       ___crtCorExitProcess       10019286 f   LIBCMT:crt0dat.obj
 0001:000182b8       ___crtExitProcess          100192b8 f   LIBCMT:crt0dat.obj
 0001:000182ce       ___freeCrtMemory           100192ce f   LIBCMT:crt0dat.obj
 0001:000183de       __amsg_exit                100193de f   LIBCMT:crt0dat.obj
 0001:000183fa       __cexit                    100193fa f   LIBCMT:crt0dat.obj
 0001:00018409       __cinit                    10019409 f   LIBCMT:crt0dat.obj
 0001:0001849a       __exit                     1001949a f   LIBCMT:crt0dat.obj
 0001:000184ae       __init_pointers            100194ae f   LIBCMT:crt0dat.obj
 0001:00018502       __initterm_e               10019502 f   LIBCMT:crt0dat.obj
 0001:00018524       __lockexit                 10019524 f   LIBCMT:crt0dat.obj
 0001:0001852d       __unlockexit               1001952d f   LIBCMT:crt0dat.obj
 0001:00018665       __msize                    10019665 f   LIBCMT:msize.obj
 0001:00018696       __calloc_crt               10019696 f   LIBCMT:crtheap.obj
 0001:000186e0       __malloc_crt               100196e0 f   LIBCMT:crtheap.obj
 0001:00018729       __realloc_crt              10019729 f   LIBCMT:crtheap.obj
 0001:00018780       __SEH_prolog4              10019780 f   LIBCMT:sehprolg4.obj
 0001:000187c5       __SEH_epilog4              100197c5 f   LIBCMT:sehprolg4.obj
 0001:000187e0       __except_handler4          100197e0 f   LIBCMT:chandler4.obj
 0001:00018975       __FF_MSGBANNER             10019975 f   LIBCMT:crt0msg.obj
 0001:000189ae       __GET_RTERRMSG             100199ae f   LIBCMT:crt0msg.obj
 0001:000189d2       __NMSG_WRITE               100199d2 f   LIBCMT:crt0msg.obj
 0001:00018b8d       __set_abort_behavior       10019b8d f   LIBCMT:abort.obj
 0001:00018bac       _abort                     10019bac f   LIBCMT:abort.obj
 0001:00018bef       __initp_misc_purevirt      10019bef f   LIBCMT:inithelp.obj
 0001:00018c00       _strcmp                    10019c00 f   LIBCMT:strcmp.obj
 0001:00018c8c       ?_Type_info_dtor@type_info@@CAXPAV1@@Z 10019c8c f   LIBCMT:typname.obj
 0001:00018cfd       _strcpy_s                  10019cfd f   LIBCMT:strcpy_s.obj
 0001:00018d60       _strlen                    10019d60 f   LIBCMT:strlen.obj
 0001:00018deb       ___getgmtimebuf            10019deb f   LIBCMT:gmtime.obj
 0001:00018e20       __allmul                   10019e20 f   LIBCMT:llmul.obj
 0001:00018e60       __aulldiv                  10019e60 f   LIBCMT:ulldiv.obj
 0001:00018ec8       ___initstdio               10019ec8 f   LIBCMT:_file.obj
 0001:00018f3b       ___endstdio                10019f3b f   LIBCMT:_file.obj
 0001:00018f62       ___iob_func                10019f62 f   LIBCMT:_file.obj
 0001:00018f68       __lock_file                10019f68 f   LIBCMT:_file.obj
 0001:00018fa7       __lock_file2               10019fa7 f   LIBCMT:_file.obj
 0001:00018fd7       __unlock_file              10019fd7 f   LIBCMT:_file.obj
 0001:00019011       __unlock_file2             1001a011 f   LIBCMT:_file.obj
 0001:0001903e       __getstream                1001a03e f   LIBCMT:stream.obj
 0001:00019156       __openfile                 1001a156 f   LIBCMT:_open.obj
 0001:000193d0       __local_unwind4            1001a3d0 f   LIBCMT:exsup4.obj
 0001:000194a6       __seh_longjmp_unwind4@4    1001a4a6 f   LIBCMT:exsup4.obj
 0001:000194c2       @_EH4_CallFilterFunc@8     1001a4c2 f   LIBCMT:exsup4.obj
 0001:000194d9       @_EH4_TransferToHandler@8  1001a4d9 f   LIBCMT:exsup4.obj
 0001:000194f2       @_EH4_GlobalUnwind2@8      1001a4f2 f   LIBCMT:exsup4.obj
 0001:0001950b       @_EH4_LocalUnwind@16       1001a50b f   LIBCMT:exsup4.obj
 0001:00019522       __filbuf                   1001a522 f   LIBCMT:_filbuf.obj
 0001:00019643       __fileno                   1001a643 f   LIBCMT:fileno.obj
 0001:00019667       _memcpy_s                  1001a667 f   LIBCMT:memcpy_s.obj
 0001:000196e6       __read                     1001a6e6 f   LIBCMT:read.obj
 0001:000197ee       __read_nolock              1001a7ee f   LIBCMT:read.obj
 0001:00019f7d       __lseek                    1001af7d f   LIBCMT:lseek.obj
 0001:0001a05f       __lseek_nolock             1001b05f f   LIBCMT:lseek.obj
 0001:0001a0d1       __lseeki64                 1001b0d1 f   LIBCMT:lseeki64.obj
 0001:0001a1cd       __lseeki64_nolock          1001b1cd f   LIBCMT:lseeki64.obj
 0001:0001a240       __alloca_probe             1001b240     LIBCMT:chkstk.obj
 0001:0001a240       __chkstk                   1001b240 f   LIBCMT:chkstk.obj
 0001:0001a26b       __ioinit                   1001b26b f   LIBCMT:ioinit.obj
 0001:0001a519       __ioterm                   1001b519 f   LIBCMT:ioinit.obj
 0001:0001a56b       __fflush_nolock            1001b56b f   LIBCMT:fflush.obj
 0001:0001a5b1       __flush                    1001b5b1 f   LIBCMT:fflush.obj
 0001:0001a615       __flushall                 1001b615 f   LIBCMT:fflush.obj
 0001:0001a702       __close                    1001b702 f   LIBCMT:close.obj
 0001:0001a7cc       __close_nolock             1001b7cc f   LIBCMT:close.obj
 0001:0001a866       __freebuf                  1001b866 f   LIBCMT:_freebuf.obj
 0001:0001a896       __XcptFilter               1001b896 f   LIBCMT:winxfltr.obj
 0001:0001a9f1       ___CppXcptFilter           1001b9f1 f   LIBCMT:winxfltr.obj
 0001:0001aa0f       ___get_flsindex            1001ba0f f   LIBCMT:tidtable.obj
 0001:0001aa15       __freefls@4                1001ba15 f   LIBCMT:tidtable.obj
 0001:0001ab4c       __freeptd                  1001bb4c f   LIBCMT:tidtable.obj
 0001:0001ab82       __getptd                   1001bb82 f   LIBCMT:tidtable.obj
 0001:0001ab9a       __getptd_noexit            1001bb9a f   LIBCMT:tidtable.obj
 0001:0001ac09       __initptd                  1001bc09 f   LIBCMT:tidtable.obj
 0001:0001acbc       __mtinit                   1001bcbc f   LIBCMT:tidtable.obj
 0001:0001ad32       __mtterm                   1001bd32 f   LIBCMT:tidtable.obj
 0001:0001ad4f       __heap_init                1001bd4f f   LIBCMT:heapinit.obj
 0001:0001ad64       __heap_term                1001bd64 f   LIBCMT:heapinit.obj
 0001:0001ad6c       __setargv                  1001bd6c f   LIBCMT:stdargv.obj
 0001:0001af99       __setenvp                  1001bf99 f   LIBCMT:stdenvp.obj
 0001:0001b07a       ___security_init_cookie    1001c07a f   LIBCMT:gs_support.obj
 0001:0001b114       _DllMain@12                1001c114 f   LIBCMT:dllmain.obj
 0001:0001b11a       ___crtGetEnvironmentStringsA 1001c11a f   LIBCMT:a_env.obj
 0001:0001b1a5       ___crtFlsAlloc             1001c1a5 f   LIBCMT:winapisupp.obj
 0001:0001b1c3       ___crtFlsFree              1001c1c3 f   LIBCMT:winapisupp.obj
 0001:0001b1e2       ___crtFlsGetValue          1001c1e2 f   LIBCMT:winapisupp.obj
 0001:0001b201       ___crtFlsSetValue          1001c201 f   LIBCMT:winapisupp.obj
 0001:0001b223       ___crtIsPackagedApp        1001c223 f   LIBCMT:winapisupp.obj
 0001:0001b261       ___crtLoadWinApiPointers   1001c261 f   LIBCMT:winapisupp.obj
 0001:0001b4a0       ___crtTerminateProcess     1001c4a0 f   LIBCMT:winapisupp.obj
 0001:0001b4b5       ___crtUnhandledException   1001c4b5 f   LIBCMT:winapisupp.obj
 0001:0001b4cb       __RTC_Initialize           1001c4cb f   LIBCMT:initsect.obj
 0001:0001b4eb       __RTC_Terminate            1001c4eb f   LIBCMT:initsect.obj
 0001:0001b50b       __cfltcvt                  1001c50b f   LIBCMT:cvt.obj
 0001:0001b52c       __cfltcvt_l                1001c52c f   LIBCMT:cvt.obj
 0001:0001b5b2       __cftoa_l                  1001c5b2 f   LIBCMT:cvt.obj
 0001:0001b90c       __cftoe                    1001c90c f   LIBCMT:cvt.obj
 0001:0001ba79       __cftoe_l                  1001ca79 f   LIBCMT:cvt.obj
 0001:0001bc2f       __cftof_l                  1001cc2f f   LIBCMT:cvt.obj
 0001:0001bcee       __cftog_l                  1001ccee f   LIBCMT:cvt.obj
 0001:0001bdeb       __cropzeros                1001cdeb f   LIBCMT:cvt.obj
 0001:0001bdfc       __cropzeros_l              1001cdfc f   LIBCMT:cvt.obj
 0001:0001be7a       __fassign                  1001ce7a f   LIBCMT:cvt.obj
 0001:0001be92       __fassign_l                1001ce92 f   LIBCMT:cvt.obj
 0001:0001bed2       __forcdecpt                1001ced2 f   LIBCMT:cvt.obj
 0001:0001bee3       __forcdecpt_l              1001cee3 f   LIBCMT:cvt.obj
 0001:0001bf55       __positive                 1001cf55 f   LIBCMT:cvt.obj
 0001:0001bf97       __setdefaultprecision      1001cf97 f   LIBCMT:fp8.obj
 0001:0001bfbe       __initp_misc_cfltcvt_tab   1001cfbe f   LIBCMT:cmiscdat.obj
 0001:0001bfdd       __sse2_mathfcns_init       1001cfdd f   LIBCMT:mathfcns.obj
 0001:0001bff0       __CIacos_pentium4          1001cff0 f   LIBCMT:acos_pentium4.obj
 0001:0001c008       __acos_pentium4            1001d008     LIBCMT:acos_pentium4.obj
 0001:0001c550       __trandisp1                1001d550 f   LIBCMT:87disp.obj
 0001:0001c5b7       __trandisp2                1001d5b7 f   LIBCMT:87disp.obj
 0001:0001c643       __rttospopde               1001d643     LIBCMT:87disp.obj
 0001:0001c648       __rttospop                 1001d648     LIBCMT:87disp.obj
 0001:0001c64a       __rtnospop                 1001d64a     LIBCMT:87disp.obj
 0001:0001c64c       __rttosnpop                1001d64c     LIBCMT:87disp.obj
 0001:0001c64d       __rtnospopde               1001d64d     LIBCMT:87disp.obj
 0001:0001c654       __rtzeropop                1001d654     LIBCMT:87disp.obj
 0001:0001c656       __rtzeronpop               1001d656     LIBCMT:87disp.obj
 0001:0001c65b       __rtonepop                 1001d65b     LIBCMT:87disp.obj
 0001:0001c65d       __rtonenpop                1001d65d     LIBCMT:87disp.obj
 0001:0001c662       __tosnan1                  1001d662     LIBCMT:87disp.obj
 0001:0001c68d       __nosnan2                  1001d68d     LIBCMT:87disp.obj
 0001:0001c68f       __tosnan2                  1001d68f     LIBCMT:87disp.obj
 0001:0001c6b7       __nan2                     1001d6b7     LIBCMT:87disp.obj
 0001:0001c6f6       __rtindfpop                1001d6f6     LIBCMT:87disp.obj
 0001:0001c6f8       __rtindfnpop               1001d6f8     LIBCMT:87disp.obj
 0001:0001c709       __rttosnpopde              1001d709     LIBCMT:87disp.obj
 0001:0001c713       __rtchsifneg               1001d713     LIBCMT:87disp.obj
 0001:0001c720       __startTwoArgErrorHandling 1001d720 f   LIBCMT:genexcep.obj
 0001:0001c737       __startOneArgErrorHandling 1001d737 f   LIBCMT:genexcep.obj
 0001:0001c780       __twoToTOS                 1001d780 f   LIBCMT:common.obj
 0001:0001c795       __load_CW                  1001d795 f   LIBCMT:common.obj
 0001:0001c7ac       __convertTOStoQNaN         1001d7ac f   LIBCMT:common.obj
 0001:0001c7c5       __fload_withFB             1001d7c5 f   LIBCMT:common.obj
 0001:0001c808       __checkTOS_withFB          1001d808 f   LIBCMT:common.obj
 0001:0001c81e       __fast_exit                1001d81e f   LIBCMT:common.obj
 0001:0001c82b       __math_exit                1001d82b f   LIBCMT:common.obj
 0001:0001c855       __check_overflow_exit      1001d855 f   LIBCMT:common.obj
 0001:0001c869       __check_range_exit         1001d869 f   LIBCMT:common.obj
 0001:0001c910       __CIasin_pentium4          1001d910 f   LIBCMT:asin_pentium4.obj
 0001:0001c928       __asin_pentium4            1001d928     LIBCMT:asin_pentium4.obj
 0001:0001ce90       __cintrindisp2             1001de90 f   LIBCMT:87cdisp.obj
 0001:0001cece       __cintrindisp1             1001dece f   LIBCMT:87cdisp.obj
 0001:0001cf0b       __ctrandisp2               1001df0b f   LIBCMT:87cdisp.obj
 0001:0001d09a       __ctrandisp1               1001e09a f   LIBCMT:87cdisp.obj
 0001:0001d0cd       __fload                    1001e0cd f   LIBCMT:87cdisp.obj
 0001:0001d110       __CIpow_pentium4           1001e110 f   LIBCMT:pow_pentium4.obj
 0001:0001d129       __pow_pentium4             1001e129     LIBCMT:pow_pentium4.obj
 0001:0001dc81       __fFEXP                    1001ec81     LIBCMT:87tran.obj
 0001:0001dcd8       __rtinfpopse               1001ecd8     LIBCMT:87tran.obj
 0001:0001dcda       __rtinfnpopse              1001ecda     LIBCMT:87tran.obj
 0001:0001dcea       __fFLN                     1001ecea     LIBCMT:87tran.obj
 0001:0001dd9f       __rtinfpop                 1001ed9f     LIBCMT:87tran.obj
 0001:0001dda1       __rtinfnpop                1001eda1     LIBCMT:87tran.obj
 0001:0001ddbe       __ffexpm1                  1001edbe     LIBCMT:87tran.obj
 0001:0001de67       __d_inttype                1001ee67 f   LIBCMT:powhlp.obj
 0001:0001decd       __powhlp                   1001eecd f   LIBCMT:powhlp.obj
 0001:0001e003       ___libm_error_support      1001f003 f   LIBCMT:libm_error.obj
 0001:0001e2eb       __floor_default            1001f2eb f   LIBCMT:floor.obj
 0001:0001e3be       __VEC_memset               1001f3be f   LIBCMT:p4_memset.obj
 0001:0001e486       ___addlocaleref            1001f486 f   LIBCMT:localref.obj
 0001:0001e516       ___freetlocinfo            1001f516 f   LIBCMT:localref.obj
 0001:0001e670       ___removelocaleref         1001f670 f   LIBCMT:localref.obj
 0001:0001e70b       ___updatetlocinfo          1001f70b f   LIBCMT:localref.obj
 0001:0001e787       __updatetlocinfoEx_nolock  1001f787 f   LIBCMT:localref.obj
 0001:0001e7d2       ___initmbctable            1001f7d2 f   LIBCMT:mbctype.obj
 0001:0001ea8d       ___updatetmbcinfo          1001fa8d f   LIBCMT:mbctype.obj
 0001:0001eb32       __setmbcp                  1001fb32 f   LIBCMT:mbctype.obj
 0001:0001ece0       __setmbcp_nolock           1001fce0 f   LIBCMT:mbctype.obj
 0001:0001eed5       __isctype_l                1001fed5 f   LIBCMT:isctype.obj
 0001:0001ef84       __locterm                  1001ff84 f   LIBCMT:wsetloca.obj
 0001:0001efd6       __fltin2                   1001ffd6 f   LIBCMT:cfin.obj
 0001:0001f080       __isleadbyte_l             10020080 f i LIBCMT:_wctype.obj
 0001:0001f0b6       _isleadbyte                100200b6 f i LIBCMT:_wctype.obj
 0001:0001f2b0       ___crtLCMapStringA         100202b0 f   LIBCMT:a_map.obj
 0001:0001f2f4       __freea                    100202f4 f i LIBCMT:a_map.obj
 0001:0001f312       __crt_debugger_hook        10020312 f   LIBCMT:dbghook.obj
 0001:0001f31a       __isatty                   1002031a f   LIBCMT:isatty.obj
 0001:0001f36e       __write                    1002036e f   LIBCMT:write.obj
 0001:0001f450       __write_nolock             10020450 f   LIBCMT:write.obj
 0001:0001fc7a       __getbuf                   10020c7a f   LIBCMT:_getbuf.obj
 0001:0001fcc0       __get_printf_count_output  10020cc0 f   LIBCMT:printf.obj
 0001:0001fcd5       __wctomb_s_l               10020cd5 f   LIBCMT:wctomb.obj
 0001:0001fdf7       _wctomb_s                  10020df7 f   LIBCMT:wctomb.obj
 0001:0001fe20       __aulldvrm                 10020e20 f   LIBCMT:ulldvrm.obj
 0001:0001feb5       __lock                     10020eb5 f   LIBCMT:mlock.obj
 0001:0001fee9       __mtdeletelocks            10020ee9 f   LIBCMT:mlock.obj
 0001:0001ff3d       __mtinitlocknum            10020f3d f   LIBCMT:mlock.obj
 0001:0001ffe4       __mtinitlocks              10020fe4 f   LIBCMT:mlock.obj
 0001:00020019       __unlock                   10021019 f   LIBCMT:mlock.obj
 0001:00020030       __FindPESection            10021030 f   LIBCMT:pesect.obj
 0001:00020080       __IsNonwritableInCurrentImage 10021080 f   LIBCMT:pesect.obj
 0001:00020140       __ValidateImageBase        10021140 f   LIBCMT:pesect.obj
 0001:00020171       ?_inconsistency@@YAXXZ     10021171 f   LIBCMT:hooks.obj
 0001:000201a9       ?terminate@@YAXXZ          100211a9 f   LIBCMT:hooks.obj
 0001:000201dd       ?unexpected@@YAXXZ         100211dd f   LIBCMT:hooks.obj
 0001:000201f0       __initp_eh_hooks           100211f0 f   LIBCMT:hooks.obj
 0001:00020201       __initp_misc_rand_s        10021201 f   LIBCMT:rand_s.obj
 0001:0002020e       ___get_sigabrt             1002120e f   LIBCMT:winsig.obj
 0001:0002021b       __initp_misc_winsig        1002121b f   LIBCMT:winsig.obj
 0001:00020237       _raise                     10021237 f   LIBCMT:winsig.obj
 0001:00020428       _realloc                   10021428 f   LIBCMT:realloc.obj
 0001:000204d3       __calloc_impl              100214d3 f   LIBCMT:calloc_impl.obj
 0001:0002054d       _wcscat_s                  1002154d f   LIBCMT:wcscat_s.obj
 0001:000205b9       _wcscpy_s                  100215b9 f   LIBCMT:wcscpy_s.obj
 0001:00020615       _wcslen                    10021615 f   LIBCMT:wcslen.obj
 0001:0002062e       _wcsncpy_s                 1002162e f   LIBCMT:wcsncpy_s.obj
 0001:000206ec       __set_error_mode           100216ec f   LIBCMT:errmode.obj
 0001:0002072c       ___crtMessageBoxW          1002172c f   LIBCMT:crtmboxw.obj
 0001:0002090e       _GetTableIndexFromLocaleName 1002190e f   LIBCMT:winapinls.obj
 0001:0002095c       ___crtDownlevelLocaleNameToLCID 1002195c f   LIBCMT:winapinls.obj
 0001:00020986       ___crtLCMapStringEx        10021986 f   LIBCMT:winapinls.obj
 0001:000209d2       ___wcsnicmp_ascii          100219d2 f   LIBCMT:winapinls.obj
 0001:00020a40       __fcloseall                10021a40 f   LIBCMT:closeall.obj
 0001:00020add       __sopen_helper             10021add f   LIBCMT:open.obj
 0001:00020ba4       __sopen_nolock             10021ba4 f   LIBCMT:open.obj
 0001:00020bf0       __sopen_s                  10021bf0 f   LIBCMT:open.obj
 0001:00020c0e       __mbsnbcmp                 10021c0e f   LIBCMT:mbsnbcmp.obj
 0001:00020c26       __mbsnbcmp_l               10021c26 f   LIBCMT:mbsnbcmp.obj
 0001:00020d3b       __mbsnbicmp                10021d3b f   LIBCMT:mbsnbicm.obj
 0001:00020d53       __mbsnbicmp_l              10021d53 f   LIBCMT:mbsnbicm.obj
 0001:00020f10       __global_unwind2           10021f10 f   LIBCMT:exsup.obj
 0001:00020f75       __local_unwind2            10021f75 f   LIBCMT:exsup.obj
 0001:00020ff9       __abnormal_termination     10021ff9 f   LIBCMT:exsup.obj
 0001:0002101c       __NLG_Notify1              1002201c f   LIBCMT:exsup.obj
 0001:00021025       __NLG_Notify               10022025 f   LIBCMT:exsup.obj
 0001:0002103c       __NLG_Dispatch2            1002203c     LIBCMT:exsup.obj
 0001:0002103c       __NLG_Dispatch             1002203c     LIBCMT:exsup.obj
 0001:00021044       __NLG_Call                 10022044 f   LIBCMT:exsup.obj
 0001:00021046       __NLG_Return2              10022046     LIBCMT:exsup.obj
 0001:00021047       ___lock_fhandle            10022047 f   LIBCMT:osfinfo.obj
 0001:000210d3       __alloc_osfhnd             100220d3 f   LIBCMT:osfinfo.obj
 0001:00021278       __free_osfhnd              10022278 f   LIBCMT:osfinfo.obj
 0001:000212fe       __get_osfhandle            100222fe f   LIBCMT:osfinfo.obj
 0001:00021365       __set_osfhnd               10022365 f   LIBCMT:osfinfo.obj
 0001:000213e7       __unlock_fhandle           100223e7 f   LIBCMT:osfinfo.obj
 0001:0002140d       __commit                   1002240d f   LIBCMT:commit.obj
 0001:00021549       __ismbblead                10022549 f   LIBCMT:ismbbyte.obj
 0001:00021560       _strrchr                   10022560 f   LIBCMT:strrchr.obj
 0001:00021697       __fptostr                  10022697 f   LIBCMT:_fptostr.obj
 0001:00021747       __atodbl_l                 10022747 f   LIBCMT:atodbl.obj
 0001:000217d3       __atoflt_l                 100227d3 f   LIBCMT:atodbl.obj
 0001:0002185f       ___dtold                   1002285f f   LIBCMT:cfout.obj
 0001:00021925       __fltout2                  10022925 f   LIBCMT:cfout.obj
 0001:000219c0       __alldvrm                  100229c0 f   LIBCMT:lldvrm.obj
 0001:00021aa0       __aullshr                  10022aa0 f   LIBCMT:ullshr.obj
 0001:00021abf       __controlfp_s              10022abf f   LIBCMT:contrlfp.obj
 0001:00021b1c       __fptrap                   10022b1c f   LIBCMT:crt0fp.obj
 0001:00021b25       __87except                 10022b25 f   LIBCMT:87except.obj
 0001:00021c2e       __frnd                     10022c2e f   LIBCMT:frnd.obj
 0001:00021c40       __fpclass                  10022c40 f   LIBCMT:ieeemisc.obj
 0001:00021cdc       __decomp                   10022cdc f   LIBCMT:util.obj
 0001:00021dae       __set_exp                  10022dae f   LIBCMT:util.obj
 0001:00021dd9       __sptype                   10022dd9 f   LIBCMT:util.obj
 0001:00021e35       __matherr                  10022e35 f   LIBCMT:matherr.obj
 0001:00021e38       __errcode                  10022e38 f   LIBCMT:fpexcept.obj
 0001:00021e6a       __except1                  10022e6a f   LIBCMT:fpexcept.obj
 0001:00021f32       __handle_exc               10022f32 f   LIBCMT:fpexcept.obj
 0001:0002210e       __handle_qnan1             1002310e f   LIBCMT:fpexcept.obj
 0001:0002215e       __raise_exc                1002315e f   LIBCMT:fpexcept.obj
 0001:0002217f       __raise_exc_ex             1002317f f   LIBCMT:fpexcept.obj
 0001:00022464       __set_errno_from_matherr   10023464 f   LIBCMT:fpexcept.obj
 0001:00022491       __umatherr                 10023491 f   LIBCMT:fpexcept.obj
 0001:0002252f       ___set_fpsr_sse2           1002352f f   LIBCMT:fpctrl.obj
 0001:000225a5       __clrfp                    100235a5 f   LIBCMT:fpctrl.obj
 0001:000225b4       __ctrlfp                   100235b4 f   LIBCMT:fpctrl.obj
 0001:000225dd       __set_statfp               100235dd f   LIBCMT:fpctrl.obj
 0001:00022633       __statfp                   10023633 f   LIBCMT:fpctrl.obj
 0001:00022641       ___free_lconv_mon          10023641 f   LIBCMT:initmon.obj
 0001:0002273d       ___free_lconv_num          1002373d f   LIBCMT:initnum.obj
 0001:000227a4       ___free_lc_time            100237a4 f   LIBCMT:inittime.obj
 0001:00022c10       ___crtGetStringTypeA       10023c10 f   LIBCMT:a_str.obj
 0001:00022c4e       __ld12tod                  10023c4e f   LIBCMT:intrncvt.obj
 0001:000231be       __ld12tof                  100241be f   LIBCMT:intrncvt.obj
 0001:0002372e       ___strgtold12_l            1002472e f   LIBCMT:strgtold.obj
 0001:00023eaa       __mbtowc_l                 10024eaa f   LIBCMT:mbtowc.obj
 0001:00023f9d       _mbtowc                    10024f9d f   LIBCMT:mbtowc.obj
 0001:00023fb5       __putwch_nolock            10024fb5 f   LIBCMT:putwch.obj
 0001:00024087       __wsopen_nolock            10025087 f   LIBCMT:wopen.obj
 0001:000247e0       _strncmp                   100257e0 f   LIBCMT:strncmp.obj
 0001:00024858       __strnicmp                 10025858 f   LIBCMT:strnicmp.obj
 0001:000248c3       __strnicmp_l               100258c3 f   LIBCMT:strnicmp.obj
 0001:00024972       _$I10_OUTPUT               10025972 f   LIBCMT:x10fout.obj
 0001:000253df       __control87                100263df f i LIBCMT:ieee87.obj
 0001:00025776       ___mtold12                 10026776 f   LIBCMT:mantold.obj
 0001:00025958       ___termconout              10026958 f   LIBCMT:initcon.obj
 0001:0002596f       ___initconout              1002696f f   LIBCMT:initcon.obj
 0001:0002598e       __chsize_nolock            1002698e f   LIBCMT:chsize.obj
 0001:00025b42       __get_fmode                10026b42 f   LIBCMT:setmode.obj
 0001:00025b6c       __setmode_nolock           10026b6c f   LIBCMT:setmode.obj
 0001:00025c40       ___ascii_strnicmp          10026c40 f   LIBCMT:_strnicm.obj
 0001:00025ca1       ??0length_error@std@@QAE@ABV01@@Z 10026ca1 f i libcpmt:xthrow.obj
 0001:00025cbc       ??1length_error@std@@UAE@XZ 10026cbc f i libcpmt:xthrow.obj
 0001:00025cc1       ??_Elength_error@std@@UAEPAXI@Z 10026cc1 f i libcpmt:xthrow.obj
 0001:00025cc1       ??_Glength_error@std@@UAEPAXI@Z 10026cc1 f i libcpmt:xthrow.obj
 0001:00025ce0       ?_Xbad_alloc@std@@YAXXZ    10026ce0 f   libcpmt:xthrow.obj
 0001:00025d11       ?_Xlength_error@std@@YAXPBD@Z 10026d11 f   libcpmt:xthrow.obj
 0001:00025d3f       ?_Xout_of_range@std@@YAXPBD@Z 10026d3f f   libcpmt:xthrow.obj
 0001:00025d6d       ?_Syserror_map@std@@YAPBDH@Z 10026d6d f   libcpmt:syserror.obj
 0001:00025d97       ?_Winerror_map@std@@YAPBDH@Z 10026d97 f   libcpmt:syserror.obj
 0001:00025dd0       ??$?G_J@?$int_adapter@_J@date_time@boost@@QBE?AV012@ABV012@@Z 10026dd0 f i libboost_thread-vc110-mt-s-1_52:thread.obj
 0001:00025f20       ??$_Destroy_range@U?$_Wrap_alloc@V?$allocator@V?$intrusive_ptr@Vbasic_cv_list_entry@detail@boost@@@boost@@@std@@@std@@@std@@YAXPAV?$intrusive_ptr@Vbasic_cv_list_entry@detail@boost@@@boost@@0AAU?$_Wrap_alloc@V?$allocator@V?$intrusive_ptr@Vbasic_cv_list_entry@detail@boost@@@boost@@@std@@@0@U_Nonscalar_ptr_iterator_tag@0@@Z 10026f20 f i libboost_thread-vc110-mt-s-1_52:thread.obj
 0001:00025fd0       ??$call_once@P6AXXZ@boost@@YAXAAUonce_flag@0@P6AXXZ@Z 10026fd0 f i libboost_thread-vc110-mt-s-1_52:thread.obj
 0001:000261d0       ??$int_to_string@H@detail@boost@@YAXHPAD@Z 100271d0 f i libboost_thread-vc110-mt-s-1_52:thread.obj
 0001:00026240       ??$int_to_string@K@detail@boost@@YAXKPAD@Z 10027240 f i libboost_thread-vc110-mt-s-1_52:thread.obj
 0001:000262b0       ??0date@gregorian@boost@@QAE@W4special_values@date_time@2@@Z 100272b0 f i libboost_thread-vc110-mt-s-1_52:thread.obj
 0001:00026360       ??0thread@boost@@QAE@XZ    10027360 f   libboost_thread-vc110-mt-s-1_52:thread.obj
 0001:00026370       ??1?$lock_guard@Vmutex@boost@@@boost@@QAE@XZ 10027370 f i libboost_thread-vc110-mt-s-1_52:thread.obj
 0001:000263a0       ??1thread_data_base@detail@boost@@UAE@XZ 100273a0 f   libboost_thread-vc110-mt-s-1_52:thread.obj
 0001:000264f0       ??4handle_manager@win32@detail@boost@@QAEAAV0123@PAX@Z 100274f0 f i libboost_thread-vc110-mt-s-1_52:thread.obj
 0001:00026520       ?create_current_thread_tls_key@?A0xad6650d6@boost@@YAXXZ 10027520 f   libboost_thread-vc110-mt-s-1_52:thread.obj
 0001:00026540       ?create_once_event@detail@boost@@YAPAXPADPAX@Z 10027540 f i libboost_thread-vc110-mt-s-1_52:thread.obj
 0001:000265a0       ?date@?$counted_time_rep@Vmillisec_posix_time_system_config@posix_time@boost@@@date_time@boost@@QBE?AV0gregorian@3@XZ 100275a0 f i libboost_thread-vc110-mt-s-1_52:thread.obj
 0001:00026670       ?release_handle@thread@boost@@AAEXXZ 10027670 f   libboost_thread-vc110-mt-s-1_52:thread.obj
 0001:00026670       ?detach@thread@boost@@QAEXXZ 10027670 f   libboost_thread-vc110-mt-s-1_52:thread.obj
 0001:000266b0       ?do_try_join_until@thread@boost@@AAE_N_K@Z 100276b0 f   libboost_thread-vc110-mt-s-1_52:thread.obj
 0001:000268a0       ?from_day_number@?$gregorian_calendar_base@U?$year_month_day_base@Vgreg_year@gregorian@boost@@Vgreg_month@23@Vgreg_day@23@@date_time@boost@@I@date_time@boost@@SA?AU?$year_month_day_base@Vgreg_year@gregorian@boost@@Vgreg_month@23@Vgreg_day@23@@23@I@Z 100278a0 f i libboost_thread-vc110-mt-s-1_52:thread.obj
 0001:000269d0       ?from_special@?$int_adapter@I@date_time@boost@@SA?AV123@W4special_values@23@@Z 100279d0 f i libboost_thread-vc110-mt-s-1_52:thread.obj
 0001:00026a30       ?from_special@?$int_adapter@_J@date_time@boost@@SA?AV123@W4special_values@23@@Z 10027a30 f i libboost_thread-vc110-mt-s-1_52:thread.obj
 0001:00026ab0       ?get_due_time@?A0xad6650d6@this_thread@boost@@YA?AT_LARGE_INTEGER@@ABUtimeout@detail@3@@Z 10027ab0 f   libboost_thread-vc110-mt-s-1_52:thread.obj
 0001:00026ce0       ?get_event@basic_timed_mutex@detail@boost@@AAEPAXXZ 10027ce0 f i libboost_thread-vc110-mt-s-1_52:thread.obj
 0001:00026d20       ?get_id@thread@boost@@QBE?AVid@12@XZ 10027d20 f   libboost_thread-vc110-mt-s-1_52:thread.obj
 0001:00026d80       ?get_milliseconds_until@detail@boost@@YAKABVptime@posix_time@2@@Z 10027d80 f i libboost_thread-vc110-mt-s-1_52:thread.obj
 0001:00026e00       ?get_thread_info@thread@boost@@ABE?AV?$intrusive_ptr@Uthread_data_base@detail@boost@@@2@XZ 10027e00 f   libboost_thread-vc110-mt-s-1_52:thread.obj
 0001:00026e30       ?get_time_of_day@?$counted_time_system@U?$counted_time_rep@Vmillisec_posix_time_system_config@posix_time@boost@@@date_time@boost@@@date_time@boost@@SA?AVtime_duration@posix_time@3@ABU?$counted_time_rep@Vmillisec_posix_time_system_config@posix_time@boost@@@23@@Z 10027e30 f i libboost_thread-vc110-mt-s-1_52:thread.obj
 0001:00026f00       ?interruptible_wait@this_thread@boost@@YA_NPAXUtimeout@detail@2@@Z 10027f00 f   libboost_thread-vc110-mt-s-1_52:thread.obj
 0001:000271e0       ?lock@basic_timed_mutex@detail@boost@@QAEXXZ 100281e0 f i libboost_thread-vc110-mt-s-1_52:thread.obj
 0001:00027290       ?notify_all@basic_condition_variable@detail@boost@@QAEXXZ 10028290 f i libboost_thread-vc110-mt-s-1_52:thread.obj
 0001:00027400       ?on_process_exit@boost@@YAXXZ 10028400 f   libboost_thread-vc110-mt-s-1_52:thread.obj
 0001:00027420       ?on_thread_exit@boost@@YAXXZ 10028420 f   libboost_thread-vc110-mt-s-1_52:thread.obj
 0001:00027430       ?open_once_event@detail@boost@@YAPAXPADPAX@Z 10028430 f i libboost_thread-vc110-mt-s-1_52:thread.obj
 0001:00027490       ?remaining_milliseconds@timeout@detail@boost@@QBE?AUremaining_time@123@XZ 10028490 f i libboost_thread-vc110-mt-s-1_52:thread.obj
 0001:000275a0       ?run_thread_exit_callbacks@?A0xad6650d6@boost@@YAXXZ 100285a0 f   libboost_thread-vc110-mt-s-1_52:thread.obj
 0001:00027740       ?set_current_thread_data@?A0xad6650d6@boost@@YAXPAUthread_data_base@detail@2@@Z 10028740 f   libboost_thread-vc110-mt-s-1_52:thread.obj
 0001:00027810       ?start_thread@thread@boost@@AAEXXZ 10028810 f   libboost_thread-vc110-mt-s-1_52:thread.obj
 0001:00027910       ?subtract_times@?$counted_time_system@U?$counted_time_rep@Vmillisec_posix_time_system_config@posix_time@boost@@@date_time@boost@@@date_time@boost@@SA?AVtime_duration@posix_time@3@ABU?$counted_time_rep@Vmillisec_posix_time_system_config@posix_time@boost@@@23@0@Z 10028910 f i libboost_thread-vc110-mt-s-1_52:thread.obj
 0001:00027a50       ?thread_start_function@?A0xad6650d6@boost@@YGIPAX@Z 10028a50 f   libboost_thread-vc110-mt-s-1_52:thread.obj
 0001:00027ac0       ?timed_join@thread@boost@@QAE_NABVptime@posix_time@2@@Z 10028ac0 f   libboost_thread-vc110-mt-s-1_52:thread.obj
 0001:00027b30       ?dll_callback@?A0x7bab35e0@@YGHPAXK0@Z 10028b30 f   libboost_thread-vc110-mt-s-1_52:tss_pe.obj
 0001:00027b60       ?tss_cleanup_implemented@boost@@YAXXZ 10028b60 f   libboost_thread-vc110-mt-s-1_52:tss_pe.obj
 0001:00027b60       ?on_process_enter@boost@@YAXXZ 10028b60 f   libboost_thread-vc110-mt-s-1_52:thread.obj
 0001:00027b70       ??0?$basic_string@DU?$char_traits@D@std@@V?$allocator@D@2@@std@@QAE@$$QAV01@@Z 10028b70 f i libboost_system-vc110-mt-s-1_52:error_code.obj
 0001:00027bd0       ??1local_free_on_destruction@detail@system@boost@@QAE@XZ 10028bd0 f i libboost_system-vc110-mt-s-1_52:error_code.obj
 0001:00027be0       ??_Eerror_category@system@boost@@UAEPAXI@Z 10028be0 f i libboost_system-vc110-mt-s-1_52:error_code.obj
 0001:00027be0       ??_Egeneric_error_category@?A0xe218785f@@UAEPAXI@Z 10028be0 f i libboost_system-vc110-mt-s-1_52:error_code.obj
 0001:00027be0       ??_Gerror_category@system@boost@@UAEPAXI@Z 10028be0 f i libboost_system-vc110-mt-s-1_52:error_code.obj
 0001:00027be0       ??_Esystem_error_category@?A0xe218785f@@UAEPAXI@Z 10028be0 f i libboost_system-vc110-mt-s-1_52:error_code.obj
 0001:00027be0       ??_Ggeneric_error_category@?A0xe218785f@@UAEPAXI@Z 10028be0 f i libboost_system-vc110-mt-s-1_52:error_code.obj
 0001:00027be0       ??_Gsystem_error_category@?A0xe218785f@@UAEPAXI@Z 10028be0 f i libboost_system-vc110-mt-s-1_52:error_code.obj
 0001:00027c00       ?default_error_condition@error_category@system@boost@@UBE?AVerror_condition@23@H@Z 10028c00 f i libboost_system-vc110-mt-s-1_52:error_code.obj
 0001:00027c10       ?default_error_condition@system_error_category@?A0xe218785f@@UBE?AVerror_condition@system@boost@@H@Z 10028c10 f   libboost_system-vc110-mt-s-1_52:error_code.obj
 0001:000285e0       ?equivalent@error_category@system@boost@@UBE_NABVerror_code@23@H@Z 100295e0 f i libboost_system-vc110-mt-s-1_52:error_code.obj
 0001:00028600       ?equivalent@error_category@system@boost@@UBE_NHABVerror_condition@23@@Z 10029600 f i libboost_system-vc110-mt-s-1_52:error_code.obj
 0001:00028640       ?generic_category@system@boost@@YAABVerror_category@12@XZ 10029640 f   libboost_system-vc110-mt-s-1_52:error_code.obj
 0001:000286b0       ?make_error_condition@errc@system@boost@@YA?AVerror_condition@23@W4errc_t@123@@Z 100296b0 f i libboost_system-vc110-mt-s-1_52:error_code.obj
 0001:00028730       ?message@generic_error_category@?A0xe218785f@@UBE?AV?$basic_string@DU?$char_traits@D@std@@V?$allocator@D@2@@std@@H@Z 10029730 f   libboost_system-vc110-mt-s-1_52:error_code.obj
 0001:00028920       ?message@system_error_category@?A0xe218785f@@UBE?AV?$basic_string@DU?$char_traits@D@std@@V?$allocator@D@2@@std@@H@Z 10029920 f   libboost_system-vc110-mt-s-1_52:error_code.obj
 0001:00028b00       ?name@generic_error_category@?A0xe218785f@@UBEPBDXZ 10029b00 f   libboost_system-vc110-mt-s-1_52:error_code.obj
 0001:00028b10       ?name@system_error_category@?A0xe218785f@@UBEPBDXZ 10029b10 f   libboost_system-vc110-mt-s-1_52:error_code.obj
 0001:00028b20       ?system_category@system@boost@@YAABVerror_category@12@XZ 10029b20 f   libboost_system-vc110-mt-s-1_52:error_code.obj
 0001:00028b86       _IsProcessorFeaturePresent@4 10029b86 f   kernel32:KERNEL32.dll
 0001:00028b8c       _RtlUnwind@16              10029b8c f   kernel32:KERNEL32.dll
 0001:00028b92       __EH_prolog3_catch         10029b92 f   LIBCMT:ehprolg3.obj
 0001:00028c96       ?_CallCatchBlock2@@YAPAXPAUEHRegistrationNode@@PBU_s_FuncInfo@@PAXHK@Z 10029c96 f   LIBCMT:_trnsctrl_.obj
 0001:00028cf4       ?_CallMemberFunction0@@YGXPAX0@Z 10029cf4 f   LIBCMT:_trnsctrl_.obj
 0001:00028cf4       ?_CallMemberFunction1@@YGXPAX00@Z 10029cf4 f   LIBCMT:_trnsctrl_.obj
 0001:00028cf4       ?_CallMemberFunction2@@YGXPAX00H@Z 10029cf4 f   LIBCMT:_trnsctrl_.obj
 0001:00028cfb       ?_CallSETranslator@@YAHPAUEHExceptionRecord@@PAUEHRegistrationNode@@PAX2PBU_s_FuncInfo@@H1@Z 10029cfb f   LIBCMT:_trnsctrl_.obj
 0001:00028dd0       ?_GetRangeOfTrysToCheck@@YAPBU_s_TryBlockMapEntry@@PBU_s_FuncInfo@@HHPAI1@Z 10029dd0 f   LIBCMT:_trnsctrl_.obj
 0001:00028e4f       ?_JumpToContinuation@@YGXPAXPAUEHRegistrationNode@@@Z 10029e4f f   LIBCMT:_trnsctrl_.obj
 0001:00028e7f       ?_UnwindNestedFrames@@YGXPAUEHRegistrationNode@@PAUEHExceptionRecord@@@Z 10029e7f f   LIBCMT:_trnsctrl_.obj
 0001:00028ed2       __CreateFrameInfo          10029ed2 f   LIBCMT:_trnsctrl_.obj
 0001:00028efc       __FindAndUnlinkFrame       10029efc f   LIBCMT:_trnsctrl_.obj
 0001:00028f4c       __IsExceptionObjectToBeDestroyed 10029f4c f   LIBCMT:_trnsctrl_.obj
 0001:00028f75       ___CxxFrameHandler3        10029f75 f   LIBCMT:_trnsctrl_.obj
 0001:00028fab       __beginthreadex            10029fab f   LIBCMT:threadex.obj
 0001:00029085       __endthreadex              1002a085 f   LIBCMT:threadex.obj
 0001:000291d8       __get_sys_err_msg          1002a1d8 f i LIBCMT:strerror.obj
 0001:000291fe       _strerror                  1002a1fe f   LIBCMT:strerror.obj
 0001:00029270       __CallSettingFrame@12      1002a270 f   LIBCMT:lowhelpr.obj
 0001:00029297       __NLG_Return               1002a297     LIBCMT:lowhelpr.obj
 0001:000292bc       ___DestructExceptionObject 1002a2bc f   LIBCMT:frame.obj
 0001:00029347       ??0bad_exception@std@@QAE@ABV01@@Z 1002a347 f i LIBCMT:frame.obj
 0001:00029362       ??1bad_exception@std@@UAE@XZ 1002a362 f i LIBCMT:frame.obj
 0001:0002936d       ??_Gbad_exception@std@@UAEPAXI@Z 1002a36d f i LIBCMT:frame.obj
 0001:0002936d       ??_Ebad_exception@std@@UAEPAXI@Z 1002a36d f i LIBCMT:frame.obj
 0001:00029ba3       ___AdjustPointer           1002aba3 f   LIBCMT:frame.obj
 0001:00029bc8       ___BuildCatchObject        1002abc8 f   LIBCMT:frame.obj
 0001:00029c56       ___BuildCatchObjectHelper  1002ac56 f   LIBCMT:frame.obj
 0001:00029ddb       ___FrameUnwindFilter       1002addb f   LIBCMT:frame.obj
 0001:00029e29       ___FrameUnwindToState      1002ae29 f   LIBCMT:frame.obj
 0001:00029f02       ___InternalCxxFrameHandler 1002af02 f   LIBCMT:frame.obj
 0001:00029fe1       ___TypeMatch               1002afe1 f   LIBCMT:frame.obj
 0001:0002a03e       ___sys_errlist             1002b03e f   LIBCMT:syserr.obj
 0001:0002a044       ___sys_nerr                1002b044 f   LIBCMT:syserr.obj
 0001:0002a04a       ?_ValidateExecute@@YAHP6GHXZ@Z 1002b04a f   LIBCMT:validate.obj
 0001:0002a04a       ?_ValidateRead@@YAHPBXI@Z  1002b04a f   LIBCMT:validate.obj
 0001:0002a04a       ?_ValidateWrite@@YAHPAXI@Z 1002b04a f   LIBCMT:validate.obj
 0001:0002a060       __aullrem                  1002b060 f   LIBCMT:ullrem.obj
 0001:0002a0e0       __libm_sse2_sqrt_precise   1002b0e0 f   LIBCMT:sqrt_sse2_precise.obj
 0001:0002a1e0       __CIsqrt                   1002b1e0 f   LIBCMT:sqrt.obj
 0001:0002a1f4       _sqrt                      1002b1f4     LIBCMT:sqrt.obj
 0002:00000000       __imp__GetFileType@4       1002d000     kernel32:KERNEL32.dll
 0002:00000004       __imp__CreateThread@24     1002d004     kernel32:KERNEL32.dll
 0002:00000008       __imp__FormatMessageA@28   1002d008     kernel32:KERNEL32.dll
 0002:0000000c       __imp__LocalFree@4         1002d00c     kernel32:KERNEL32.dll
 0002:00000010       __imp__SystemTimeToFileTime@8 1002d010     kernel32:KERNEL32.dll
 0002:00000014       __imp__CreateWaitableTimerA@12 1002d014     kernel32:KERNEL32.dll
 0002:00000018       __imp__ResumeThread@4      1002d018     kernel32:KERNEL32.dll
 0002:0000001c       __imp__SetWaitableTimer@24 1002d01c     kernel32:KERNEL32.dll
 0002:00000020       __imp__GetTickCount@0      1002d020     kernel32:KERNEL32.dll
 0002:00000024       __imp__GetProcessHeap@0    1002d024     kernel32:KERNEL32.dll
 0002:00000028       __imp__HeapFree@12         1002d028     kernel32:KERNEL32.dll
 0002:0000002c       __imp__GetSystemTimeAsFileTime@4 1002d02c     kernel32:KERNEL32.dll
 0002:00000030       __imp__HeapAlloc@12        1002d030     kernel32:KERNEL32.dll
 0002:00000034       __imp__CreateEventA@16     1002d034     kernel32:KERNEL32.dll
 0002:00000038       __imp__CloseHandle@4       1002d038     kernel32:KERNEL32.dll
 0002:0000003c       __imp__GetProcAddress@8    1002d03c     kernel32:KERNEL32.dll
 0002:00000040       __imp__GetModuleHandleA@4  1002d040     kernel32:KERNEL32.dll
 0002:00000044       __imp__MultiByteToWideChar@24 1002d044     kernel32:KERNEL32.dll
 0002:00000048       __imp__WideCharToMultiByte@32 1002d048     kernel32:KERNEL32.dll
 0002:0000004c       __imp__ResetEvent@4        1002d04c     kernel32:KERNEL32.dll
 0002:00000050       __imp__SetEvent@4          1002d050     kernel32:KERNEL32.dll
 0002:00000054       __imp__ReleaseSemaphore@12 1002d054     kernel32:KERNEL32.dll
 0002:00000058       __imp__WaitForMultipleObjects@16 1002d058     kernel32:KERNEL32.dll
 0002:0000005c       __imp__WaitForSingleObject@8 1002d05c     kernel32:KERNEL32.dll
 0002:00000060       __imp__OpenEventA@12       1002d060     kernel32:KERNEL32.dll
 0002:00000064       __imp__SetEndOfFile@4      1002d064     kernel32:KERNEL32.dll
 0002:00000068       __imp__CreateFileW@28      1002d068     kernel32:KERNEL32.dll
 0002:0000006c       __imp__WriteConsoleW@20    1002d06c     kernel32:KERNEL32.dll
 0002:00000070       __imp__EncodePointer@4     1002d070     kernel32:KERNEL32.dll
 0002:00000074       __imp__DecodePointer@4     1002d074     kernel32:KERNEL32.dll
 0002:00000078       __imp__ReadFile@20         1002d078     kernel32:KERNEL32.dll
 0002:0000007c       __imp__GetCommandLineA@0   1002d07c     kernel32:KERNEL32.dll
 0002:00000080       __imp__GetCurrentThreadId@0 1002d080     kernel32:KERNEL32.dll
 0002:00000084       __imp__GetLastError@0      1002d084     kernel32:KERNEL32.dll
 0002:00000088       __imp__IsDebuggerPresent@0 1002d088     kernel32:KERNEL32.dll
 0002:0000008c       __imp__IsProcessorFeaturePresent@4 1002d08c     kernel32:KERNEL32.dll
 0002:00000090       __imp__RaiseException@16   1002d090     kernel32:KERNEL32.dll
 0002:00000094       __imp__InterlockedDecrement@4 1002d094     kernel32:KERNEL32.dll
 0002:00000098       __imp__ExitProcess@4       1002d098     kernel32:KERNEL32.dll
 0002:0000009c       __imp__GetModuleHandleExW@12 1002d09c     kernel32:KERNEL32.dll
 0002:000000a0       __imp__AreFileApisANSI@0   1002d0a0     kernel32:KERNEL32.dll
 0002:000000a4       __imp__HeapSize@12         1002d0a4     kernel32:KERNEL32.dll
 0002:000000a8       __imp__Sleep@4             1002d0a8     kernel32:KERNEL32.dll
 0002:000000ac       __imp__GetStdHandle@4      1002d0ac     kernel32:KERNEL32.dll
 0002:000000b0       __imp__WriteFile@20        1002d0b0     kernel32:KERNEL32.dll
 0002:000000b4       __imp__GetModuleFileNameW@12 1002d0b4     kernel32:KERNEL32.dll
 0002:000000b8       __imp__EnterCriticalSection@4 1002d0b8     kernel32:KERNEL32.dll
 0002:000000bc       __imp__LeaveCriticalSection@4 1002d0bc     kernel32:KERNEL32.dll
 0002:000000c0       __imp__InitializeCriticalSectionAndSpinCount@8 1002d0c0     kernel32:KERNEL32.dll
 0002:000000c4       __imp__RtlUnwind@16        1002d0c4     kernel32:KERNEL32.dll
 0002:000000c8       __imp__GetConsoleMode@8    1002d0c8     kernel32:KERNEL32.dll
 0002:000000cc       __imp__ReadConsoleW@20     1002d0cc     kernel32:KERNEL32.dll
 0002:000000d0       __imp__SetFilePointer@16   1002d0d0     kernel32:KERNEL32.dll
 0002:000000d4       __imp__SetFilePointerEx@20 1002d0d4     kernel32:KERNEL32.dll
 0002:000000d8       __imp__ExitThread@4        1002d0d8     kernel32:KERNEL32.dll
 0002:000000dc       __imp__DeleteCriticalSection@4 1002d0dc     kernel32:KERNEL32.dll
 0002:000000e0       __imp__GetStartupInfoW@4   1002d0e0     kernel32:KERNEL32.dll
 0002:000000e4       __imp__SetLastError@4      1002d0e4     kernel32:KERNEL32.dll
 0002:000000e8       __imp__InterlockedIncrement@4 1002d0e8     kernel32:KERNEL32.dll
 0002:000000ec       __imp__GetModuleFileNameA@12 1002d0ec     kernel32:KERNEL32.dll
 0002:000000f0       __imp__QueryPerformanceCounter@4 1002d0f0     kernel32:KERNEL32.dll
 0002:000000f4       __imp__GetCurrentProcessId@0 1002d0f4     kernel32:KERNEL32.dll
 0002:000000f8       __imp__GetEnvironmentStringsW@0 1002d0f8     kernel32:KERNEL32.dll
 0002:000000fc       __imp__FreeEnvironmentStringsW@4 1002d0fc     kernel32:KERNEL32.dll
 0002:00000100       __imp__UnhandledExceptionFilter@4 1002d100     kernel32:KERNEL32.dll
 0002:00000104       __imp__SetUnhandledExceptionFilter@4 1002d104     kernel32:KERNEL32.dll
 0002:00000108       __imp__GetCurrentProcess@0 1002d108     kernel32:KERNEL32.dll
 0002:0000010c       __imp__TerminateProcess@8  1002d10c     kernel32:KERNEL32.dll
 0002:00000110       __imp__TlsAlloc@0          1002d110     kernel32:KERNEL32.dll
 0002:00000114       __imp__TlsGetValue@4       1002d114     kernel32:KERNEL32.dll
 0002:00000118       __imp__TlsSetValue@8       1002d118     kernel32:KERNEL32.dll
 0002:0000011c       __imp__TlsFree@4           1002d11c     kernel32:KERNEL32.dll
 0002:00000120       __imp__GetModuleHandleW@4  1002d120     kernel32:KERNEL32.dll
 0002:00000124       __imp__IsValidCodePage@4   1002d124     kernel32:KERNEL32.dll
 0002:00000128       __imp__GetACP@0            1002d128     kernel32:KERNEL32.dll
 0002:0000012c       __imp__GetOEMCP@0          1002d12c     kernel32:KERNEL32.dll
 0002:00000130       __imp__GetCPInfo@8         1002d130     kernel32:KERNEL32.dll
 0002:00000134       __imp__GetConsoleCP@0      1002d134     kernel32:KERNEL32.dll
 0002:00000138       __imp__LoadLibraryExW@12   1002d138     kernel32:KERNEL32.dll
 0002:0000013c       __imp__HeapReAlloc@16      1002d13c     kernel32:KERNEL32.dll
 0002:00000140       __imp__OutputDebugStringW@4 1002d140     kernel32:KERNEL32.dll
 0002:00000144       __imp__LoadLibraryW@4      1002d144     kernel32:KERNEL32.dll
 0002:00000148       __imp__LCMapStringW@24     1002d148     kernel32:KERNEL32.dll
 0002:0000014c       __imp__SetStdHandle@8      1002d14c     kernel32:KERNEL32.dll
 0002:00000150       __imp__FlushFileBuffers@4  1002d150     kernel32:KERNEL32.dll
 0002:00000154       __imp__GetStringTypeW@16   1002d154     kernel32:KERNEL32.dll
 0002:00000158       \177KERNEL32_NULL_THUNK_DATA 1002d158     kernel32:KERNEL32.dll
 0002:0000015c       __imp___AssertValidWritePtr 1002d15c     tier0:tier0.dll
 0002:00000160       __imp__AssertValidStringPtr 1002d160     tier0:tier0.dll
 0002:00000164       __imp_?Lock@CThreadMutex@@QAEXXZ 1002d164     tier0:tier0.dll
 0002:00000168       __imp_?Unlock@CThreadMutex@@QAEXXZ 1002d168     tier0:tier0.dll
 0002:0000016c       __imp_??0CThreadMutex@@QAE@XZ 1002d16c     tier0:tier0.dll
 0002:00000170       __imp_??1CThreadMutex@@QAE@XZ 1002d170     tier0:tier0.dll
 0002:00000174       __imp__Error               1002d174     tier0:tier0.dll
 0002:00000178       __imp__Msg                 1002d178     tier0:tier0.dll
 0002:0000017c       __imp__g_pMemAlloc         1002d17c     tier0:tier0.dll
 0002:00000180       \177tier0_NULL_THUNK_DATA  1002d180     tier0:tier0.dll
 0002:00000184       ___xc_a                    1002d184     LIBCMT:crt0init.obj
 0002:00000194       ?p_process_init@?A0x7bab35e0@@3P6AHXZA 1002d194     libboost_thread-vc110-mt-s-1_52:tss_pe.obj
 0002:000002ec       ___xc_z                    1002d2ec     LIBCMT:crt0init.obj
 0002:000002f0       ___xi_a                    1002d2f0     LIBCMT:crt0init.obj
 0002:00000308       ?p_tls_prepare@?A0x7bab35e0@@3P6AHXZA 1002d308     libboost_thread-vc110-mt-s-1_52:tss_pe.obj
 0002:0000030c       ___xi_z                    1002d30c     LIBCMT:crt0init.obj
 0002:00000310       ___xl_a                    1002d310     LIBCMT:tlssup.obj
 0002:00000314       ?__xl_ca@?A0x7bab35e0@@3P6GXPAUHINSTANCE__@@KPAX@ZA 1002d314     libboost_thread-vc110-mt-s-1_52:tss_pe.obj
 0002:00000318       ___xl_z                    1002d318     LIBCMT:tlssup.obj
 0002:0000031c       ___xp_a                    1002d31c     LIBCMT:crt0init.obj
 0002:0000032c       ___xp_z                    1002d32c     LIBCMT:crt0init.obj
 0002:00000330       ___xt_a                    1002d330     LIBCMT:crt0init.obj
 0002:00000334       ?p_process_term@?A0x7bab35e0@@3P6AHXZA 1002d334     libboost_thread-vc110-mt-s-1_52:tss_pe.obj
 0002:00000338       ___xt_z                    1002d338     LIBCMT:crt0init.obj
 0002:00000378       ?nanmask@@3HB              1002d378     mathlib:mathlib_base.obj
 0002:0000037c       __real@34000000            1002d37c     mathlib:mathlib_base.obj
 0002:00000380       __real@3fe0000000000000    1002d380     mathlib:mathlib_base.obj
 0002:00000450       ??_C@_0BA@OBHPCBFP@CreateInterface?$AA@ 1002d450     tier1:interface.obj
 0002:00000460       ??_C@_00CNPNBAHC@?$AA@     1002d460     tier1:utlbuffer.obj
 0002:00000464       ??_C@_01BJJEKLCA@?$CC?$AA@ 1002d464     tier1:utlbuffer.obj
 0002:00000468       ??_C@_01GEODFPGF@?8?$AA@   1002d468     tier1:utlbuffer.obj
 0002:0000046c       ??_C@_01OGPIMHDM@?$DP?$AA@ 1002d46c     tier1:utlbuffer.obj
 0002:00000470       ??_C@_01KICIPPFI@?2?$AA@   1002d470     tier1:utlbuffer.obj
 0002:00000474       ??_C@_01MCMALHOG@a?$AA@    1002d474     tier1:utlbuffer.obj
 0002:00000478       ??_C@_01INIBCBCB@f?$AA@    1002d478     tier1:utlbuffer.obj
 0002:0000047c       ??_C@_01KDCPPGHE@r?$AA@    1002d47c     tier1:utlbuffer.obj
 0002:00000480       ??_C@_01OJONOECF@b?$AA@    1002d480     tier1:utlbuffer.obj
 0002:00000484       ??_C@_01MHEDDDHA@v?$AA@    1002d484     tier1:utlbuffer.obj
 0002:00000488       ??_C@_01PFHFFBPC@t?$AA@    1002d488     tier1:utlbuffer.obj
 0002:0000048c       ??_C@_01EFFIKLCJ@n?$AA@    1002d48c     tier1:utlbuffer.obj
 0002:00000494       ??_7CUtlCharConversion@@6B@ 1002d494     tier1:utlbuffer.obj
 0002:0000049c       ??_7CUtlNoEscConversion@@6B@ 1002d49c     tier1:utlbuffer.obj
 0002:000004a4       ??_7CUtlCStringConversion@@6B@ 1002d4a4     tier1:utlbuffer.obj
 0002:000004a8       ??_C@_02HAOIJKIC@?$CFc?$AA@ 1002d4a8     tier1:utlbuffer.obj
 0002:000004ac       ??_C@_01JOAMLHOP@?9?$AA@   1002d4ac     tier1:strtools.obj
 0002:000004b4       ??_7bad_alloc@std@@6B@     1002d4b4     LIBCMT:new.obj
 0002:000004c0       ??_7type_info@@6B@         1002d4c0     LIBCMT:typinfo.obj
 0002:000004c8       ??_7exception@std@@6B@     1002d4c8     LIBCMT:stdexcpt.obj
 0002:000004d0       ??_C@_0BC@EOODALEL@Unknown?5exception?$AA@ 1002d4d0     LIBCMT:stdexcpt.obj
 0002:000004e4       __pDefaultRawDllMain       1002d4e4     LIBCMT:dllcrt0.obj
 0002:000004e8       __FPinit                   1002d4e8     LIBCMT:fpinit.obj
 0002:000004f0       __OP_FMODjmptab            1002d4f0     LIBCMT:87fmod.obj
 0002:00000598       ??_C@_06OJHGLDPL@?$CInull?$CJ?$AA@ 1002d598     LIBCMT:output.obj
 0002:000005a0       ??_C@_1O@CEDCILHN@?$AA?$CI?$AAn?$AAu?$AAl?$AAl?$AA?$CJ?$AA?$AA@ 1002d5a0     LIBCMT:output.obj
 0002:000005b0       ___lookuptable             1002d5b0     LIBCMT:output.obj
 0002:00000610       ___lookuptable_s           1002d610     LIBCMT:outputs.obj
 0002:0000068c       ??_C@_1BI@BGOHAHKC@?$AAm?$AAs?$AAc?$AAo?$AAr?$AAe?$AAe?$AA?4?$AAd?$AAl?$AAl?$AA?$AA@ 1002d68c     LIBCMT:crt0dat.obj
 0002:000006a4       ??_C@_0P@MIGLKIOC@CorExitProcess?$AA@ 1002d6a4     LIBCMT:crt0dat.obj
 0002:000006b8       ??_C@_1FE@LLNEDJMD@?$AAR?$AA6?$AA0?$AA0?$AA8?$AA?$AN?$AA?6?$AA?9?$AA?5?$AAn?$AAo?$AAt?$AA?5?$AAe?$AAn?$AAo?$AAu?$AAg?$AAh?$AA?5?$AAs?$AAp?$AAa?$AAc?$AAe?$AA?5?$AAf?$AAo?$AAr?$AA?5?$AAa?$AAr@ 1002d6b8     LIBCMT:crt0msg.obj
 0002:00000710       ??_C@_1FI@HONFMGBI@?$AAR?$AA6?$AA0?$AA0?$AA9?$AA?$AN?$AA?6?$AA?9?$AA?5?$AAn?$AAo?$AAt?$AA?5?$AAe?$AAn?$AAo?$AAu?$AAg?$AAh?$AA?5?$AAs?$AAp?$AAa?$AAc?$AAe?$AA?5?$AAf?$AAo?$AAr?$AA?5?$AAe?$AAn@ 1002d710     LIBCMT:crt0msg.obj
 0002:00000768       ??_C@_1EG@BEHAGFJD@?$AAR?$AA6?$AA0?$AA1?$AA0?$AA?$AN?$AA?6?$AA?9?$AA?5?$AAa?$AAb?$AAo?$AAr?$AAt?$AA?$CI?$AA?$CJ?$AA?5?$AAh?$AAa?$AAs?$AA?5?$AAb?$AAe?$AAe?$AAn?$AA?5?$AAc?$AAa?$AAl?$AAl?$AAe?$AAd@ 1002d768     LIBCMT:crt0msg.obj
 0002:000007b0       ??_C@_1FI@LOGNIKDM@?$AAR?$AA6?$AA0?$AA1?$AA6?$AA?$AN?$AA?6?$AA?9?$AA?5?$AAn?$AAo?$AAt?$AA?5?$AAe?$AAn?$AAo?$AAu?$AAg?$AAh?$AA?5?$AAs?$AAp?$AAa?$AAc?$AAe?$AA?5?$AAf?$AAo?$AAr?$AA?5?$AAt?$AAh@ 1002d7b0     LIBCMT:crt0msg.obj
 0002:00000808       ??_C@_1FK@BEOGODMC@?$AAR?$AA6?$AA0?$AA1?$AA7?$AA?$AN?$AA?6?$AA?9?$AA?5?$AAu?$AAn?$AAe?$AAx?$AAp?$AAe?$AAc?$AAt?$AAe?$AAd?$AA?5?$AAm?$AAu?$AAl?$AAt?$AAi?$AAt?$AAh?$AAr?$AAe?$AAa?$AAd?$AA?5@ 1002d808     LIBCMT:crt0msg.obj
 0002:00000868       ??_C@_1EC@JIBHAOPH@?$AAR?$AA6?$AA0?$AA1?$AA8?$AA?$AN?$AA?6?$AA?9?$AA?5?$AAu?$AAn?$AAe?$AAx?$AAp?$AAe?$AAc?$AAt?$AAe?$AAd?$AA?5?$AAh?$AAe?$AAa?$AAp?$AA?5?$AAe?$AAr?$AAr?$AAo?$AAr?$AA?$AN?$AA?6@ 1002d868     LIBCMT:crt0msg.obj
 0002:000008b0       ??_C@_1FC@ECHBIFBC@?$AAR?$AA6?$AA0?$AA1?$AA9?$AA?$AN?$AA?6?$AA?9?$AA?5?$AAu?$AAn?$AAa?$AAb?$AAl?$AAe?$AA?5?$AAt?$AAo?$AA?5?$AAo?$AAp?$AAe?$AAn?$AA?5?$AAc?$AAo?$AAn?$AAs?$AAo?$AAl?$AAe?$AA?5@ 1002d8b0     LIBCMT:crt0msg.obj
 0002:00000908       ??_C@_1GK@FHCKBEFA@?$AAR?$AA6?$AA0?$AA2?$AA4?$AA?$AN?$AA?6?$AA?9?$AA?5?$AAn?$AAo?$AAt?$AA?5?$AAe?$AAn?$AAo?$AAu?$AAg?$AAh?$AA?5?$AAs?$AAp?$AAa?$AAc?$AAe?$AA?5?$AAf?$AAo?$AAr?$AA?5?$AA_?$AAo@ 1002d908     LIBCMT:crt0msg.obj
 0002:00000978       ??_C@_1EM@MAADIHMB@?$AAR?$AA6?$AA0?$AA2?$AA5?$AA?$AN?$AA?6?$AA?9?$AA?5?$AAp?$AAu?$AAr?$AAe?$AA?5?$AAv?$AAi?$AAr?$AAt?$AAu?$AAa?$AAl?$AA?5?$AAf?$AAu?$AAn?$AAc?$AAt?$AAi?$AAo?$AAn?$AA?5?$AAc@ 1002d978     LIBCMT:crt0msg.obj
 0002:000009c8       ??_C@_1GK@MCAAGJMO@?$AAR?$AA6?$AA0?$AA2?$AA6?$AA?$AN?$AA?6?$AA?9?$AA?5?$AAn?$AAo?$AAt?$AA?5?$AAe?$AAn?$AAo?$AAu?$AAg?$AAh?$AA?5?$AAs?$AAp?$AAa?$AAc?$AAe?$AA?5?$AAf?$AAo?$AAr?$AA?5?$AAs?$AAt@ 1002d9c8     LIBCMT:crt0msg.obj
 0002:00000a38       ??_C@_1GK@MFGOKLAG@?$AAR?$AA6?$AA0?$AA2?$AA7?$AA?$AN?$AA?6?$AA?9?$AA?5?$AAn?$AAo?$AAt?$AA?5?$AAe?$AAn?$AAo?$AAu?$AAg?$AAh?$AA?5?$AAs?$AAp?$AAa?$AAc?$AAe?$AA?5?$AAf?$AAo?$AAr?$AA?5?$AAl?$AAo@ 1002da38     LIBCMT:crt0msg.obj
 0002:00000aa8       ??_C@_1EK@HHFLMAOL@?$AAR?$AA6?$AA0?$AA2?$AA8?$AA?$AN?$AA?6?$AA?9?$AA?5?$AAu?$AAn?$AAa?$AAb?$AAl?$AAe?$AA?5?$AAt?$AAo?$AA?5?$AAi?$AAn?$AAi?$AAt?$AAi?$AAa?$AAl?$AAi?$AAz?$AAe?$AA?5?$AAh?$AAe@ 1002daa8     LIBCMT:crt0msg.obj
 0002:00000af4       ??_C@_1DO@BMFCDCD@?$AAR?$AA6?$AA0?$AA3?$AA0?$AA?$AN?$AA?6?$AA?9?$AA?5?$AAC?$AAR?$AAT?$AA?5?$AAn?$AAo?$AAt?$AA?5?$AAi?$AAn?$AAi?$AAt?$AAi?$AAa?$AAl?$AAi?$AAz?$AAe?$AAd?$AA?$AN?$AA?6?$AA?$AA@ 1002daf4     LIBCMT:crt0msg.obj
 0002:00000b38       ??_C@_1MG@ENCOOIDF@?$AAR?$AA6?$AA0?$AA3?$AA1?$AA?$AN?$AA?6?$AA?9?$AA?5?$AAA?$AAt?$AAt?$AAe?$AAm?$AAp?$AAt?$AA?5?$AAt?$AAo?$AA?5?$AAi?$AAn?$AAi?$AAt?$AAi?$AAa?$AAl?$AAi?$AAz?$AAe?$AA?5?$AAt@ 1002db38     LIBCMT:crt0msg.obj
 0002:00000c00       ??_C@_1GG@GOPILAJP@?$AAR?$AA6?$AA0?$AA3?$AA2?$AA?$AN?$AA?6?$AA?9?$AA?5?$AAn?$AAo?$AAt?$AA?5?$AAe?$AAn?$AAo?$AAu?$AAg?$AAh?$AA?5?$AAs?$AAp?$AAa?$AAc?$AAe?$AA?5?$AAf?$AAo?$AAr?$AA?5?$AAl?$AAo@ 1002dc00     LIBCMT:crt0msg.obj
 0002:00000c68       ??_C@_1BOO@KGEDBGAJ@?$AAR?$AA6?$AA0?$AA3?$AA3?$AA?$AN?$AA?6?$AA?9?$AA?5?$AAA?$AAt?$AAt?$AAe?$AAm?$AAp?$AAt?$AA?5?$AAt?$AAo?$AA?5?$AAu?$AAs?$AAe?$AA?5?$AAM?$AAS?$AAI?$AAL?$AA?5?$AAc?$AAo?$AAd@ 1002dc68     LIBCMT:crt0msg.obj
 0002:00000e58       ??_C@_1GG@MKFPEKFO@?$AAR?$AA6?$AA0?$AA3?$AA4?$AA?$AN?$AA?6?$AA?9?$AA?5?$AAi?$AAn?$AAc?$AAo?$AAn?$AAs?$AAi?$AAs?$AAt?$AAe?$AAn?$AAt?$AA?5?$AAo?$AAn?$AAe?$AAx?$AAi?$AAt?$AA?5?$AAb?$AAe?$AAg@ 1002de58     LIBCMT:crt0msg.obj
 0002:00000ec0       ??_C@_1BO@BFCDCGC@?$AAD?$AAO?$AAM?$AAA?$AAI?$AAN?$AA?5?$AAe?$AAr?$AAr?$AAo?$AAr?$AA?$AN?$AA?6?$AA?$AA@ 1002dec0     LIBCMT:crt0msg.obj
 0002:00000ee0       ??_C@_1BK@KMOMNAAI@?$AAS?$AAI?$AAN?$AAG?$AA?5?$AAe?$AAr?$AAr?$AAo?$AAr?$AA?$AN?$AA?6?$AA?$AA@ 1002dee0     LIBCMT:crt0msg.obj
 0002:00000efc       ??_C@_1BM@JBBEPPHI@?$AAT?$AAL?$AAO?$AAS?$AAS?$AA?5?$AAe?$AAr?$AAr?$AAo?$AAr?$AA?$AN?$AA?6?$AA?$AA@ 1002defc     LIBCMT:crt0msg.obj
 0002:00000f18       ??_C@_15JNBOKNOG@?$AA?$AN?$AA?6?$AA?$AA@ 1002df18     LIBCMT:crt0msg.obj
 0002:00000f20       ??_C@_1BO@BKOMIGKJ@?$AAr?$AAu?$AAn?$AAt?$AAi?$AAm?$AAe?$AA?5?$AAe?$AAr?$AAr?$AAo?$AAr?$AA?5?$AA?$AA@ 1002df20     LIBCMT:crt0msg.obj
 0002:00000ff8       ??_C@_1FK@PGACCAFB@?$AAR?$AA6?$AA0?$AA0?$AA2?$AA?$AN?$AA?6?$AA?9?$AA?5?$AAf?$AAl?$AAo?$AAa?$AAt?$AAi?$AAn?$AAg?$AA?5?$AAp?$AAo?$AAi?$AAn?$AAt?$AA?5?$AAs?$AAu?$AAp?$AAp?$AAo?$AAr?$AAt?$AA?5@ 1002dff8     LIBCMT:crt0msg.obj
 0002:00001054       ??_C@_1DE@JNGNBFGO@?$AAR?$AAu?$AAn?$AAt?$AAi?$AAm?$AAe?$AA?5?$AAE?$AAr?$AAr?$AAo?$AAr?$AA?$CB?$AA?6?$AA?6?$AAP?$AAr?$AAo?$AAg?$AAr?$AAa?$AAm?$AA?3?$AA?5?$AA?$AA@ 1002e054     LIBCMT:crt0msg.obj
 0002:00001088       ??_C@_1CO@EAEJAADC@?$AA?$DM?$AAp?$AAr?$AAo?$AAg?$AAr?$AAa?$AAm?$AA?5?$AAn?$AAa?$AAm?$AAe?$AA?5?$AAu?$AAn?$AAk?$AAn?$AAo?$AAw?$AAn?$AA?$DO?$AA?$AA@ 1002e088     LIBCMT:crt0msg.obj
 0002:000010b8       ??_C@_17LGKOMLJ@?$AA?4?$AA?4?$AA?4?$AA?$AA@ 1002e0b8     LIBCMT:crt0msg.obj
 0002:000010c0       ??_C@_15IABLJNFO@?$AA?6?$AA?6?$AA?$AA@ 1002e0c0     LIBCMT:crt0msg.obj
 0002:000010c8       ??_C@_1EK@MBDPDCGA@?$AAM?$AAi?$AAc?$AAr?$AAo?$AAs?$AAo?$AAf?$AAt?$AA?5?$AAV?$AAi?$AAs?$AAu?$AAa?$AAl?$AA?5?$AAC?$AA?$CL?$AA?$CL?$AA?5?$AAR?$AAu?$AAn?$AAt?$AAi?$AAm?$AAe?$AA?5?$AAL?$AAi?$AAb@ 1002e0c8     LIBCMT:crt0msg.obj
 0002:00001138       __XcptActTab               1002e138     LIBCMT:winxfltr.obj
 0002:000011c8       __XcptActTabCount          1002e1c8     LIBCMT:winxfltr.obj
 0002:000011cc       __XcptActTabSize           1002e1cc     LIBCMT:winxfltr.obj
 0002:000011d0       __First_FPE_Indx           1002e1d0     LIBCMT:winxfltr.obj
 0002:000011d4       __Num_FPE                  1002e1d4     LIBCMT:winxfltr.obj
 0002:000011d8       ??_C@_1BK@MGMFAEKH@?$AAk?$AAe?$AAr?$AAn?$AAe?$AAl?$AA3?$AA2?$AA?4?$AAd?$AAl?$AAl?$AA?$AA@ 1002e1d8     LIBCMT:winapisupp.obj
 0002:000011f4       ??_C@_08KNHFBNJ@FlsAlloc?$AA@ 1002e1f4     LIBCMT:winapisupp.obj
 0002:00001200       ??_C@_07PEJMOBNF@FlsFree?$AA@ 1002e200     LIBCMT:winapisupp.obj
 0002:00001208       ??_C@_0M@GDNOONDI@FlsGetValue?$AA@ 1002e208     LIBCMT:winapisupp.obj
 0002:00001214       ??_C@_0M@JCPCPOEF@FlsSetValue?$AA@ 1002e214     LIBCMT:winapisupp.obj
 0002:00001220       ??_C@_0BM@HCFOFFN@InitializeCriticalSectionEx?$AA@ 1002e220     LIBCMT:winapisupp.obj
 0002:0000123c       ??_C@_0BD@KIEEOEEH@CreateSemaphoreExW?$AA@ 1002e23c     LIBCMT:winapisupp.obj
 0002:00001250       ??_C@_0BI@BKLFFAPO@SetThreadStackGuarantee?$AA@ 1002e250     LIBCMT:winapisupp.obj
 0002:00001268       ??_C@_0BG@OGFAJCKC@CreateThreadpoolTimer?$AA@ 1002e268     LIBCMT:winapisupp.obj
 0002:00001280       ??_C@_0BD@LPLEMMDI@SetThreadpoolTimer?$AA@ 1002e280     LIBCMT:winapisupp.obj
 0002:00001294       ??_C@_0CA@FMNJENH@WaitForThreadpoolTimerCallbacks?$AA@ 1002e294     LIBCMT:winapisupp.obj
 0002:000012b4       ??_C@_0BF@DCFCCNOC@CloseThreadpoolTimer?$AA@ 1002e2b4     LIBCMT:winapisupp.obj
 0002:000012cc       ??_C@_0BF@FLABGKKM@CreateThreadpoolWait?$AA@ 1002e2cc     LIBCMT:winapisupp.obj
 0002:000012e4       ??_C@_0BC@MGCOHNA@SetThreadpoolWait?$AA@ 1002e2e4     LIBCMT:winapisupp.obj
 0002:000012f8       ??_C@_0BE@OCIOMIMP@CloseThreadpoolWait?$AA@ 1002e2f8     LIBCMT:winapisupp.obj
 0002:0000130c       ??_C@_0BJ@LKGHFHBO@FlushProcessWriteBuffers?$AA@ 1002e30c     LIBCMT:winapisupp.obj
 0002:00001328       ??_C@_0BP@KALKKPMO@FreeLibraryWhenCallbackReturns?$AA@ 1002e328     LIBCMT:winapisupp.obj
 0002:00001348       ??_C@_0BK@DFNBACLA@GetCurrentProcessorNumber?$AA@ 1002e348     LIBCMT:winapisupp.obj
 0002:00001364       ??_C@_0BP@KHGALBC@GetLogicalProcessorInformation?$AA@ 1002e364     LIBCMT:winapisupp.obj
 0002:00001384       ??_C@_0BE@FKKLLFLM@CreateSymbolicLinkW?$AA@ 1002e384     LIBCMT:winapisupp.obj
 0002:00001398       ??_C@_0BJ@OHNKDLIJ@SetDefaultDllDirectories?$AA@ 1002e398     LIBCMT:winapisupp.obj
 0002:000013b4       ??_C@_0BE@LJANKFHF@EnumSystemLocalesEx?$AA@ 1002e3b4     LIBCMT:winapisupp.obj
 0002:000013c8       ??_C@_0BA@IHGNDAEB@CompareStringEx?$AA@ 1002e3c8     LIBCMT:winapisupp.obj
 0002:000013d8       ??_C@_0BA@EPCJIIPD@GetDateFormatEx?$AA@ 1002e3d8     LIBCMT:winapisupp.obj
 0002:000013e8       ??_C@_0BA@ONOKGCMP@GetLocaleInfoEx?$AA@ 1002e3e8     LIBCMT:winapisupp.obj
 0002:000013f8       ??_C@_0BA@CIJJKCJJ@GetTimeFormatEx?$AA@ 1002e3f8     LIBCMT:winapisupp.obj
 0002:00001408       ??_C@_0BJ@PBCCBIPI@GetUserDefaultLocaleName?$AA@ 1002e408     LIBCMT:winapisupp.obj
 0002:00001424       ??_C@_0BC@CELBKLLA@IsValidLocaleName?$AA@ 1002e424     LIBCMT:winapisupp.obj
 0002:00001438       ??_C@_0O@KKBNKAPF@LCMapStringEx?$AA@ 1002e438     LIBCMT:winapisupp.obj
 0002:00001448       ??_C@_0BE@JOGNEJCI@GetCurrentPackageId?$AA@ 1002e448     LIBCMT:winapisupp.obj
 0002:0000145c       ??_C@_05KLBDPFGC@e?$CL000?$AA@ 1002e45c     LIBCMT:cvt.obj
 0002:00002c90       __indefinite               1002fc90     LIBCMT:87disp.obj
 0002:00002c9a       __piby2                    1002fc9a     LIBCMT:87disp.obj
 0002:00002cc8       __DEFAULT_CW_in_mem        1002fcc8     LIBCMT:common.obj
 0002:00002cca       __pi_by_2_to_61            1002fcca     LIBCMT:common.obj
 0002:00007e60       __infinity                 10034e60     LIBCMT:87tran.obj
 0002:00007e6a       __minfinity                10034e6a     LIBCMT:87tran.obj
 0002:00007e74       __logemax                  10034e74     LIBCMT:87tran.obj
 0002:00007e9a       __OP_EXPjmptab             10034e9a     LIBCMT:87tran.obj
 0002:00007f28       ??_C@_03MGHMBJCF@log?$AA@  10034f28     LIBCMT:libm_error.obj
 0002:00007f2c       ??_C@_05HGHHAHAP@log10?$AA@ 10034f2c     LIBCMT:libm_error.obj
 0002:00007f34       ??_C@_03KHJOGHMM@exp?$AA@  10034f34     LIBCMT:libm_error.obj
 0002:00007f38       ??_C@_03JGHBODFD@pow?$AA@  10034f38     LIBCMT:libm_error.obj
 0002:00007f3c       ??_C@_04FIHNOPOL@asin?$AA@ 10034f3c     LIBCMT:libm_error.obj
 0002:00007f44       ??_C@_04PDIFKINK@acos?$AA@ 10034f44     LIBCMT:libm_error.obj
 0002:00007f4c       ??_C@_05EOHGHCHD@exp10?$AA@ 10034f4c     LIBCMT:libm_error.obj
 0002:00007f54       ??_C@_04MLLJIGOK@atan?$AA@ 10034f54     LIBCMT:libm_error.obj
 0002:00007f5c       ??_C@_04GFPJNGEK@ceil?$AA@ 10034f5c     LIBCMT:libm_error.obj
 0002:00007f64       ??_C@_05PBJFFIGL@floor?$AA@ 10034f64     LIBCMT:libm_error.obj
 0002:00007f6c       ??_C@_04EHEDPDJG@modf?$AA@ 10034f6c     LIBCMT:libm_error.obj
 0002:00007f74       ??_C@_03BLEJJJBH@sin?$AA@  10034f74     LIBCMT:libm_error.obj
 0002:00007f78       ??_C@_03LALBNOCG@cos?$AA@  10034f78     LIBCMT:libm_error.obj
 0002:00007f7c       ??_C@_03IIINPABG@tan?$AA@  10034f7c     LIBCMT:libm_error.obj
 0002:00007f80       ??_C@_04EIAKFFMI@sqrt?$AA@ 10034f80     LIBCMT:libm_error.obj
 0002:00007f98       ??_C@_1M@HPNHIDJI@?$AAj?$AAa?$AA?9?$AAJ?$AAP?$AA?$AA@ 10034f98     LIBCMT:mbctype.obj
 0002:00007fa4       ??_C@_1M@BIBDDEMK@?$AAz?$AAh?$AA?9?$AAC?$AAN?$AA?$AA@ 10034fa4     LIBCMT:mbctype.obj
 0002:00007fb0       ??_C@_1M@JLOOOEGK@?$AAk?$AAo?$AA?9?$AAK?$AAR?$AA?$AA@ 10034fb0     LIBCMT:mbctype.obj
 0002:00007fbc       ??_C@_1M@CLNBBOPM@?$AAz?$AAh?$AA?9?$AAT?$AAW?$AA?$AA@ 10034fbc     LIBCMT:mbctype.obj
 0002:00007fc8       ??_C@_03KOEHGMDN@Sun?$AA@  10034fc8     LIBCMT:nlsdata.obj
 0002:00007fcc       ??_C@_03PDAGKDH@Mon?$AA@   10034fcc     LIBCMT:nlsdata.obj
 0002:00007fd0       ??_C@_03NAGEINEP@Tue?$AA@  10034fd0     LIBCMT:nlsdata.obj
 0002:00007fd4       ??_C@_03MHOMLAJA@Wed?$AA@  10034fd4     LIBCMT:nlsdata.obj
 0002:00007fd8       ??_C@_03IOFIKPDN@Thu?$AA@  10034fd8     LIBCMT:nlsdata.obj
 0002:00007fdc       ??_C@_03IDIOELNC@Fri?$AA@  10034fdc     LIBCMT:nlsdata.obj
 0002:00007fe0       ??_C@_03FEFJNEK@Sat?$AA@   10034fe0     LIBCMT:nlsdata.obj
 0002:00007fe4       ??_C@_06OOPIFAJ@Sunday?$AA@ 10034fe4     LIBCMT:nlsdata.obj
 0002:00007fec       ??_C@_06JLEDEDGH@Monday?$AA@ 10034fec     LIBCMT:nlsdata.obj
 0002:00007ff4       ??_C@_07BAAGCFCM@Tuesday?$AA@ 10034ff4     LIBCMT:nlsdata.obj
 0002:00007ffc       ??_C@_09DLIGFAKA@Wednesday?$AA@ 10034ffc     LIBCMT:nlsdata.obj
 0002:00008008       ??_C@_08HACCIKIA@Thursday?$AA@ 10035008     LIBCMT:nlsdata.obj
 0002:00008014       ??_C@_06JECMNKMI@Friday?$AA@ 10035014     LIBCMT:nlsdata.obj
 0002:0000801c       ??_C@_08INBOOONO@Saturday?$AA@ 1003501c     LIBCMT:nlsdata.obj
 0002:00008028       ??_C@_03JIHJHPIE@Jan?$AA@  10035028     LIBCMT:nlsdata.obj
 0002:0000802c       ??_C@_03HJBDCHOM@Feb?$AA@  1003502c     LIBCMT:nlsdata.obj
 0002:00008030       ??_C@_03ODNJBKGA@Mar?$AA@  10035030     LIBCMT:nlsdata.obj
 0002:00008034       ??_C@_03LEOLGMJP@Apr?$AA@  10035034     LIBCMT:nlsdata.obj
 0002:00008038       ??_C@_03CNMDKL@May?$AA@    10035038     LIBCMT:nlsdata.obj
 0002:0000803c       ??_C@_03IDFGHECI@Jun?$AA@  1003503c     LIBCMT:nlsdata.obj
 0002:00008040       ??_C@_03LBGABGKK@Jul?$AA@  10035040     LIBCMT:nlsdata.obj
 0002:00008044       ??_C@_03IFJFEIGA@Aug?$AA@  10035044     LIBCMT:nlsdata.obj
 0002:00008048       ??_C@_03GGCAPAJC@Sep?$AA@  10035048     LIBCMT:nlsdata.obj
 0002:0000804c       ??_C@_03BMAOKBAD@Oct?$AA@  1003504c     LIBCMT:nlsdata.obj
 0002:00008050       ??_C@_03JPJOFNIA@Nov?$AA@  10035050     LIBCMT:nlsdata.obj
 0002:00008054       ??_C@_03MKABNOCG@Dec?$AA@  10035054     LIBCMT:nlsdata.obj
 0002:00008058       ??_C@_07CGJPFGJA@January?$AA@ 10035058     LIBCMT:nlsdata.obj
 0002:00008060       ??_C@_08GNJGEPFN@February?$AA@ 10035060     LIBCMT:nlsdata.obj
 0002:0000806c       ??_C@_05HPCKOFNC@March?$AA@ 1003506c     LIBCMT:nlsdata.obj
 0002:00008074       ??_C@_05DMJDNLEJ@April?$AA@ 10035074     LIBCMT:nlsdata.obj
 0002:0000807c       ??_C@_04CNLMGBGM@June?$AA@ 1003507c     LIBCMT:nlsdata.obj
 0002:00008084       ??_C@_04MIEPOIFP@July?$AA@ 10035084     LIBCMT:nlsdata.obj
 0002:0000808c       ??_C@_06LBBHFDDG@August?$AA@ 1003508c     LIBCMT:nlsdata.obj
 0002:00008094       ??_C@_09BHHEALKD@September?$AA@ 10035094     LIBCMT:nlsdata.obj
 0002:000080a0       ??_C@_07JJNFCEND@October?$AA@ 100350a0     LIBCMT:nlsdata.obj
 0002:000080a8       ??_C@_08HCHEGEOA@November?$AA@ 100350a8     LIBCMT:nlsdata.obj
 0002:000080b4       ??_C@_08EDHMEBNP@December?$AA@ 100350b4     LIBCMT:nlsdata.obj
 0002:000080c0       ??_C@_02DEDBPAFC@AM?$AA@   100350c0     LIBCMT:nlsdata.obj
 0002:000080c4       ??_C@_02CJNFDJBF@PM?$AA@   100350c4     LIBCMT:nlsdata.obj
 0002:000080c8       ??_C@_08BPBNCDIB@MM?1dd?1yy?$AA@ 100350c8     LIBCMT:nlsdata.obj
 0002:000080d4       ??_C@_0BE@CKGJFCPC@dddd?0?5MMMM?5dd?0?5yyyy?$AA@ 100350d4     LIBCMT:nlsdata.obj
 0002:000080e8       ??_C@_08JCCMCCIL@HH?3mm?3ss?$AA@ 100350e8     LIBCMT:nlsdata.obj
 0002:000080f4       ??_C@_17MBGCMIPB@?$AAS?$AAu?$AAn?$AA?$AA@ 100350f4     LIBCMT:nlsdata.obj
 0002:000080fc       ??_C@_17KBOMKBF@?$AAM?$AAo?$AAn?$AA?$AA@ 100350fc     LIBCMT:nlsdata.obj
 0002:00008104       ??_C@_17BMKGEGOJ@?$AAT?$AAu?$AAe?$AA?$AA@ 10035104     LIBCMT:nlsdata.obj
 0002:0000810c       ??_C@_17CJEDCEPE@?$AAW?$AAe?$AAd?$AA?$AA@ 1003510c     LIBCMT:nlsdata.obj
 0002:00008114       ??_C@_17PDPHAADD@?$AAT?$AAh?$AAu?$AA?$AA@ 10035114     LIBCMT:nlsdata.obj
 0002:0000811c       ??_C@_17HFOLPPLP@?$AAF?$AAr?$AAi?$AA?$AA@ 1003511c     LIBCMT:nlsdata.obj
 0002:00008124       ??_C@_17GGIBDPIH@?$AAS?$AAa?$AAt?$AA?$AA@ 10035124     LIBCMT:nlsdata.obj
 0002:0000812c       ??_C@_1O@IHNHDHPB@?$AAS?$AAu?$AAn?$AAd?$AAa?$AAy?$AA?$AA@ 1003512c     LIBCMT:nlsdata.obj
 0002:0000813c       ??_C@_1O@MMNBFLIA@?$AAM?$AAo?$AAn?$AAd?$AAa?$AAy?$AA?$AA@ 1003513c     LIBCMT:nlsdata.obj
 0002:0000814c       ??_C@_1BA@ENFBFFEK@?$AAT?$AAu?$AAe?$AAs?$AAd?$AAa?$AAy?$AA?$AA@ 1003514c     LIBCMT:nlsdata.obj
 0002:0000815c       ??_C@_1BE@EBOGMDOH@?$AAW?$AAe?$AAd?$AAn?$AAe?$AAs?$AAd?$AAa?$AAy?$AA?$AA@ 1003515c     LIBCMT:nlsdata.obj
 0002:00008170       ??_C@_1BC@HHMNLIHE@?$AAT?$AAh?$AAu?$AAr?$AAs?$AAd?$AAa?$AAy?$AA?$AA@ 10035170     LIBCMT:nlsdata.obj
 0002:00008184       ??_C@_1O@PDICJHAG@?$AAF?$AAr?$AAi?$AAd?$AAa?$AAy?$AA?$AA@ 10035184     LIBCMT:nlsdata.obj
 0002:00008194       ??_C@_1BC@ENMNNPAJ@?$AAS?$AAa?$AAt?$AAu?$AAr?$AAd?$AAa?$AAy?$AA?$AA@ 10035194     LIBCMT:nlsdata.obj
 0002:000081a8       ??_C@_17DKNBKCHM@?$AAJ?$AAa?$AAn?$AA?$AA@ 100351a8     LIBCMT:nlsdata.obj
 0002:000081b0       ??_C@_17LMDJEKJN@?$AAF?$AAe?$AAb?$AA?$AA@ 100351b0     LIBCMT:nlsdata.obj
 0002:000081b8       ??_C@_17CKNLEDEC@?$AAM?$AAa?$AAr?$AA?$AA@ 100351b8     LIBCMT:nlsdata.obj
 0002:000081c0       ??_C@_17LFPOIHDD@?$AAA?$AAp?$AAr?$AA?$AA@ 100351c0     LIBCMT:nlsdata.obj
 0002:000081c8       ??_C@_17PNNKMEED@?$AAM?$AAa?$AAy?$AA?$AA@ 100351c8     LIBCMT:nlsdata.obj
 0002:000081d0       ??_C@_17KCJGOCPB@?$AAJ?$AAu?$AAn?$AA?$AA@ 100351d0     LIBCMT:nlsdata.obj
 0002:000081d8       ??_C@_17IJPCKHK@?$AAJ?$AAu?$AAl?$AA?$AA@ 100351d8     LIBCMT:nlsdata.obj
 0002:000081e0       ??_C@_17ICPELBCN@?$AAA?$AAu?$AAg?$AA?$AA@ 100351e0     LIBCMT:nlsdata.obj
 0002:000081e8       ??_C@_17HCHCOKMG@?$AAS?$AAe?$AAp?$AA?$AA@ 100351e8     LIBCMT:nlsdata.obj
 0002:000081f0       ??_C@_17FNLKOI@?$AAO?$AAc?$AAt?$AA?$AA@ 100351f0     LIBCMT:nlsdata.obj
 0002:000081f8       ??_C@_17BBDMLCIG@?$AAN?$AAo?$AAv?$AA?$AA@ 100351f8     LIBCMT:nlsdata.obj
 0002:00008200       ??_C@_17EGKACKIF@?$AAD?$AAe?$AAc?$AA?$AA@ 10035200     LIBCMT:nlsdata.obj
 0002:00008208       ??_C@_1BA@EFMEIEBA@?$AAJ?$AAa?$AAn?$AAu?$AAa?$AAr?$AAy?$AA?$AA@ 10035208     LIBCMT:nlsdata.obj
 0002:00008218       ??_C@_1BC@JGDDFFAM@?$AAF?$AAe?$AAb?$AAr?$AAu?$AAa?$AAr?$AAy?$AA?$AA@ 10035218     LIBCMT:nlsdata.obj
 0002:0000822c       ??_C@_1M@IKEENEDF@?$AAM?$AAa?$AAr?$AAc?$AAh?$AA?$AA@ 1003522c     LIBCMT:nlsdata.obj
 0002:00008238       ??_C@_1M@GJNLMHFD@?$AAA?$AAp?$AAr?$AAi?$AAl?$AA?$AA@ 10035238     LIBCMT:nlsdata.obj
 0002:00008244       ??_C@_19EPFLPGAP@?$AAJ?$AAu?$AAn?$AAe?$AA?$AA@ 10035244     LIBCMT:nlsdata.obj
 0002:00008250       ??_C@_19BIFMLPCD@?$AAJ?$AAu?$AAl?$AAy?$AA?$AA@ 10035250     LIBCMT:nlsdata.obj
 0002:0000825c       ??_C@_1O@PAHLKOAC@?$AAA?$AAu?$AAg?$AAu?$AAs?$AAt?$AA?$AA@ 1003525c     LIBCMT:nlsdata.obj
 0002:0000826c       ??_C@_1BE@DKAAMBJL@?$AAS?$AAe?$AAp?$AAt?$AAe?$AAm?$AAb?$AAe?$AAr?$AA?$AA@ 1003526c     LIBCMT:nlsdata.obj
 0002:00008280       ??_C@_1BA@EPANDLNG@?$AAO?$AAc?$AAt?$AAo?$AAb?$AAe?$AAr?$AA?$AA@ 10035280     LIBCMT:nlsdata.obj
 0002:00008290       ??_C@_1BC@BGLIFPF@?$AAN?$AAo?$AAv?$AAe?$AAm?$AAb?$AAe?$AAr?$AA?$AA@ 10035290     LIBCMT:nlsdata.obj
 0002:000082a4       ??_C@_1BC@FEMKIFH@?$AAD?$AAe?$AAc?$AAe?$AAm?$AAb?$AAe?$AAr?$AA?$AA@ 100352a4     LIBCMT:nlsdata.obj
 0002:000082b8       ??_C@_15ODEHAHHF@?$AAA?$AAM?$AA?$AA@ 100352b8     LIBCMT:nlsdata.obj
 0002:000082c0       ??_C@_15CLMNNGEL@?$AAP?$AAM?$AA?$AA@ 100352c0     LIBCMT:nlsdata.obj
 0002:000082c8       ??_C@_1BC@IEBCMHCM@?$AAM?$AAM?$AA?1?$AAd?$AAd?$AA?1?$AAy?$AAy?$AA?$AA@ 100352c8     LIBCMT:nlsdata.obj
 0002:000082dc       ??_C@_1CI@KNAKOEBC@?$AAd?$AAd?$AAd?$AAd?$AA?0?$AA?5?$AAM?$AAM?$AAM?$AAM?$AA?5?$AAd?$AAd?$AA?0?$AA?5?$AAy?$AAy?$AAy?$AAy?$AA?$AA@ 100352dc     LIBCMT:nlsdata.obj
 0002:00008304       ??_C@_1BC@GDGBMEMK@?$AAH?$AAH?$AA?3?$AAm?$AAm?$AA?3?$AAs?$AAs?$AA?$AA@ 10035304     LIBCMT:nlsdata.obj
 0002:00008318       ??_C@_1M@BMHNFIME@?$AAe?$AAn?$AA?9?$AAU?$AAS?$AA?$AA@ 10035318     LIBCMT:nlsdata.obj
 0002:000083a8       ??_C@_1BG@GOEBHBDC@?$AAU?$AAS?$AAE?$AAR?$AA3?$AA2?$AA?4?$AAD?$AAL?$AAL?$AA?$AA@ 100353a8     LIBCMT:crtmboxw.obj
 0002:000083c0       ??_C@_0M@DLDCCGNP@MessageBoxW?$AA@ 100353c0     LIBCMT:crtmboxw.obj
 0002:000083cc       ??_C@_0BA@HNOPNCHB@GetActiveWindow?$AA@ 100353cc     LIBCMT:crtmboxw.obj
 0002:000083dc       ??_C@_0BD@HHGDFDBJ@GetLastActivePopup?$AA@ 100353dc     LIBCMT:crtmboxw.obj
 0002:000083f0       ??_C@_0BK@DEKFELLI@GetUserObjectInformationW?$AA@ 100353f0     LIBCMT:crtmboxw.obj
 0002:0000840c       ??_C@_0BI@DFKBFLJE@GetProcessWindowStation?$AA@ 1003540c     LIBCMT:crtmboxw.obj
 0002:00008428       _LcidToLocaleNameTable     10035428     LIBCMT:winapinls.obj
 0002:00008b48       _LocaleNameToIndexTable    10035b48     LIBCMT:winapinls.obj
 0002:00009268       ??_C@_15EMKDOKLE@?$AAa?$AAr?$AA?$AA@ 10036268     LIBCMT:winapinls.obj
 0002:00009270       ??_C@_15KNPADPLH@?$AAb?$AAg?$AA?$AA@ 10036270     LIBCMT:winapinls.obj
 0002:00009278       ??_C@_15EDMHLDMO@?$AAc?$AAa?$AA?$AA@ 10036278     LIBCMT:winapinls.obj
 0002:00009280       ??_C@_1O@BPEAJADD@?$AAz?$AAh?$AA?9?$AAC?$AAH?$AAS?$AA?$AA@ 10036280     LIBCMT:winapinls.obj
 0002:00009290       ??_C@_15LJNHCMNK@?$AAc?$AAs?$AA?$AA@ 10036290     LIBCMT:winapinls.obj
 0002:00009298       ??_C@_15FOMCIDHG@?$AAd?$AAa?$AA?$AA@ 10036298     LIBCMT:winapinls.obj
 0002:000092a0       ??_C@_15NBKABECB@?$AAd?$AAe?$AA?$AA@ 100362a0     LIBCMT:winapinls.obj
 0002:000092a8       ??_C@_15GHPEIIAO@?$AAe?$AAl?$AA?$AA@ 100362a8     LIBCMT:winapinls.obj
 0002:000092b0       ??_C@_15MNPNEAIF@?$AAe?$AAn?$AA?$AA@ 100362b0     LIBCMT:winapinls.obj
 0002:000092b8       ??_C@_15GPIOMPMH@?$AAe?$AAs?$AA?$AA@ 100362b8     LIBCMT:winapinls.obj
 0002:000092c0       ??_C@_15NGLOAKJC@?$AAf?$AAi?$AA?$AA@ 100362c0     LIBCMT:winapinls.obj
 0002:000092c8       ??_C@_15FBKGNKAM@?$AAf?$AAr?$AA?$AA@ 100362c8     LIBCMT:winapinls.obj
 0002:000092d0       ??_C@_15KGGCNEFK@?$AAh?$AAe?$AA?$AA@ 100362d0     LIBCMT:winapinls.obj
 0002:000092d8       ??_C@_15PGHLIDMF@?$AAh?$AAu?$AA?$AA@ 100362d8     LIBCMT:winapinls.obj
 0002:000092e0       ??_C@_15BIEMAPLM@?$AAi?$AAs?$AA?$AA@ 100362e0     LIBCMT:winapinls.obj
 0002:000092e8       ??_C@_15IFJLDHAF@?$AAi?$AAt?$AA?$AA@ 100362e8     LIBCMT:winapinls.obj
 0002:000092f0       ??_C@_15GEMIOCAG@?$AAj?$AAa?$AA?$AA@ 100362f0     LIBCMT:winapinls.obj
 0002:000092f8       ??_C@_15EPELEGJA@?$AAk?$AAo?$AA?$AA@ 100362f8     LIBCMT:winapinls.obj
 0002:00009300       ??_C@_15NDDHIMN@?$AAn?$AAl?$AA?$AA@ 10036300     LIBCMT:winapinls.obj
 0002:00009308       ??_C@_15BPIGNHCD@?$AAn?$AAo?$AA?$AA@ 10036308     LIBCMT:winapinls.obj
 0002:00009310       ??_C@_15DEOPBLCG@?$AAp?$AAl?$AA?$AA@ 10036310     LIBCMT:winapinls.obj
 0002:00009318       ??_C@_15KBECGEFG@?$AAp?$AAt?$AA?$AA@ 10036318     LIBCMT:winapinls.obj
 0002:00009320       ??_C@_15GLJCBFMD@?$AAr?$AAo?$AA?$AA@ 10036320     LIBCMT:winapinls.obj
 0002:00009328       ??_C@_15FEDGKCDI@?$AAr?$AAu?$AA?$AA@ 10036328     LIBCMT:winapinls.obj
 0002:00009330       ??_C@_15GLKMLLHM@?$AAh?$AAr?$AA?$AA@ 10036330     LIBCMT:winapinls.obj
 0002:00009338       ??_C@_15CPKMFBDB@?$AAs?$AAk?$AA?$AA@ 10036338     LIBCMT:winapinls.obj
 0002:00009340       ??_C@_15BAAIOGMK@?$AAs?$AAq?$AA?$AA@ 10036340     LIBCMT:winapinls.obj
 0002:00009348       ??_C@_15INNPNOHD@?$AAs?$AAv?$AA?$AA@ 10036348     LIBCMT:winapinls.obj
 0002:00009350       ??_C@_15CABMMOGH@?$AAt?$AAh?$AA?$AA@ 10036350     LIBCMT:winapinls.obj
 0002:00009358       ??_C@_15BPLIHJJM@?$AAt?$AAr?$AA?$AA@ 10036358     LIBCMT:winapinls.obj
 0002:00009360       ??_C@_15NEOEKKDJ@?$AAu?$AAr?$AA?$AA@ 10036360     LIBCMT:winapinls.obj
 0002:00009368       ??_C@_15NFICGAJK@?$AAi?$AAd?$AA?$AA@ 10036368     LIBCMT:winapinls.obj
 0002:00009370       ??_C@_15PJPFLCCM@?$AAu?$AAk?$AA?$AA@ 10036370     LIBCMT:winapinls.obj
 0002:00009378       ??_C@_15HPJPHDM@?$AAb?$AAe?$AA?$AA@ 10036378     LIBCMT:winapinls.obj
 0002:00009380       ??_C@_15LCHLGJII@?$AAs?$AAl?$AA?$AA@ 10036380     LIBCMT:winapinls.obj
 0002:00009388       ??_C@_15PCFJPHHO@?$AAe?$AAt?$AA?$AA@ 10036388     LIBCMT:winapinls.obj
 0002:00009390       ??_C@_15HPFPGODN@?$AAl?$AAv?$AA?$AA@ 10036390     LIBCMT:winapinls.obj
 0002:00009398       ??_C@_15NFFGKGLG@?$AAl?$AAt?$AA?$AA@ 10036398     LIBCMT:winapinls.obj
 0002:000093a0       ??_C@_15BDAKCCHN@?$AAf?$AAa?$AA?$AA@ 100363a0     LIBCMT:winapinls.obj
 0002:000093a8       ??_C@_15NFGIAIAJ@?$AAv?$AAi?$AA?$AA@ 100363a8     LIBCMT:winapinls.obj
 0002:000093b0       ??_C@_15LMKNDMHN@?$AAh?$AAy?$AA?$AA@ 100363b0     LIBCMT:winapinls.obj
 0002:000093b8       ??_C@_15IJBHMCFL@?$AAa?$AAz?$AA?$AA@ 100363b8     LIBCMT:winapinls.obj
 0002:000093c0       ??_C@_15EKOFJABL@?$AAe?$AAu?$AA?$AA@ 100363c0     LIBCMT:winapinls.obj
 0002:000093c8       ??_C@_15BGHADCNK@?$AAm?$AAk?$AA?$AA@ 100363c8     LIBCMT:winapinls.obj
 0002:000093d0       ??_C@_15JDNICKHM@?$AAa?$AAf?$AA?$AA@ 100363d0     LIBCMT:winapinls.obj
 0002:000093d8       ??_C@_15KPJEDBKD@?$AAk?$AAa?$AA?$AA@ 100363d8     LIBCMT:winapinls.obj
 0002:000093e0       ??_C@_15PDNFFFEO@?$AAf?$AAo?$AA?$AA@ 100363e0     LIBCMT:winapinls.obj
 0002:000093e8       ??_C@_15OMLEGLOC@?$AAh?$AAi?$AA?$AA@ 100363e8     LIBCMT:winapinls.obj
 0002:000093f0       ??_C@_15IDNNENKK@?$AAm?$AAs?$AA?$AA@ 100363f0     LIBCMT:winapinls.obj
 0002:000093f8       ??_C@_15MACJNBMH@?$AAk?$AAk?$AA?$AA@ 100363f8     LIBCMT:winapinls.obj
 0002:00009400       ??_C@_15DKDJEOND@?$AAk?$AAy?$AA?$AA@ 10036400     LIBCMT:winapinls.obj
 0002:00009408       ??_C@_15DFGDLJBG@?$AAs?$AAw?$AA?$AA@ 10036408     LIBCMT:winapinls.obj
 0002:00009410       ??_C@_15BBFAICNG@?$AAu?$AAz?$AA?$AA@ 10036410     LIBCMT:winapinls.obj
 0002:00009418       ??_C@_15DKNDCGEA@?$AAt?$AAt?$AA?$AA@ 10036418     LIBCMT:winapinls.obj
 0002:00009420       ??_C@_15MGIFMDPL@?$AAp?$AAa?$AA?$AA@ 10036420     LIBCMT:winapinls.obj
 0002:00009428       ??_C@_15HCNDBBA@?$AAg?$AAu?$AA?$AA@ 10036428     LIBCMT:winapinls.obj
 0002:00009430       ??_C@_15FNBEIBON@?$AAt?$AAa?$AA?$AA@ 10036430     LIBCMT:winapinls.obj
 0002:00009438       ??_C@_15NCHGBGLK@?$AAt?$AAe?$AA?$AA@ 10036438     LIBCMT:winapinls.obj
 0002:00009440       ??_C@_15PHPHCBPF@?$AAk?$AAn?$AA?$AA@ 10036440     LIBCMT:winapinls.obj
 0002:00009448       ??_C@_15DLGBCKMP@?$AAm?$AAr?$AA?$AA@ 10036448     LIBCMT:winapinls.obj
 0002:00009450       ??_C@_15EABBLBFF@?$AAs?$AAa?$AA?$AA@ 10036450     LIBCMT:winapinls.obj
 0002:00009458       ??_C@_15CBKOMCOI@?$AAm?$AAn?$AA?$AA@ 10036458     LIBCMT:winapinls.obj
 0002:00009460       ??_C@_15CKDMCJAF@?$AAg?$AAl?$AA?$AA@ 10036460     LIBCMT:winapinls.obj
 0002:00009468       ??_C@_17CNJFBPG@?$AAk?$AAo?$AAk?$AA?$AA@ 10036468     LIBCMT:winapinls.obj
 0002:00009470       ??_C@_17FFBJICPL@?$AAs?$AAy?$AAr?$AA?$AA@ 10036470     LIBCMT:winapinls.obj
 0002:00009478       ??_C@_17KPNDCPAF@?$AAd?$AAi?$AAv?$AA?$AA@ 10036478     LIBCMT:winapinls.obj
 0002:00009480       ??_C@_11LOCGONAA@?$AA?$AA@ 10036480     LIBCMT:winapinls.obj
 0002:00009484       ??_C@_1M@OKAHONE@?$AAa?$AAr?$AA?9?$AAS?$AAA?$AA?$AA@ 10036484     LIBCMT:winapinls.obj
 0002:00009490       ??_C@_1M@FFFIGIGK@?$AAb?$AAg?$AA?9?$AAB?$AAG?$AA?$AA@ 10036490     LIBCMT:winapinls.obj
 0002:0000949c       ??_C@_1M@BJNKEDC@?$AAc?$AAa?$AA?9?$AAE?$AAS?$AA?$AA@ 1003649c     LIBCMT:winapinls.obj
 0002:000094a8       ??_C@_1M@IJJHFJHA@?$AAc?$AAs?$AA?9?$AAC?$AAZ?$AA?$AA@ 100364a8     LIBCMT:winapinls.obj
 0002:000094b4       ??_C@_1M@CLPEOBGI@?$AAd?$AAa?$AA?9?$AAD?$AAK?$AA?$AA@ 100364b4     LIBCMT:winapinls.obj
 0002:000094c0       ??_C@_1M@MCMADGCB@?$AAd?$AAe?$AA?9?$AAD?$AAE?$AA?$AA@ 100364c0     LIBCMT:winapinls.obj
 0002:000094cc       ??_C@_1M@OOCKEMAM@?$AAe?$AAl?$AA?9?$AAG?$AAR?$AA?$AA@ 100364cc     LIBCMT:winapinls.obj
 0002:000094d8       ??_C@_1M@DDNJFGID@?$AAf?$AAi?$AA?9?$AAF?$AAI?$AA?$AA@ 100364d8     LIBCMT:winapinls.obj
 0002:000094e4       ??_C@_1M@GLIPPMAC@?$AAf?$AAr?$AA?9?$AAF?$AAR?$AA?$AA@ 100364e4     LIBCMT:winapinls.obj
 0002:000094f0       ??_C@_1M@GFMCHPE@?$AAh?$AAe?$AA?9?$AAI?$AAL?$AA?$AA@ 100364f0     LIBCMT:winapinls.obj
 0002:000094fc       ??_C@_1M@MHLPGNKM@?$AAh?$AAu?$AA?9?$AAH?$AAU?$AA?$AA@ 100364fc     LIBCMT:winapinls.obj
 0002:00009508       ??_C@_1M@LPDDNNPN@?$AAi?$AAs?$AA?9?$AAI?$AAS?$AA?$AA@ 10036508     LIBCMT:winapinls.obj
 0002:00009514       ??_C@_1M@MADIPODN@?$AAi?$AAt?$AA?9?$AAI?$AAT?$AA?$AA@ 10036514     LIBCMT:winapinls.obj
 0002:00009520       ??_C@_1M@IHBJJGG@?$AAn?$AAl?$AA?9?$AAN?$AAL?$AA?$AA@ 10036520     LIBCMT:winapinls.obj
 0002:0000952c       ??_C@_1M@EANAGDL@?$AAn?$AAb?$AA?9?$AAN?$AAO?$AA?$AA@ 1003652c     LIBCMT:winapinls.obj
 0002:00009538       ??_C@_1M@NEIEMEGP@?$AAp?$AAl?$AA?9?$AAP?$AAL?$AA?$AA@ 10036538     LIBCMT:winapinls.obj
 0002:00009544       ??_C@_1M@BOCFIGEP@?$AAp?$AAt?$AA?9?$AAB?$AAR?$AA?$AA@ 10036544     LIBCMT:winapinls.obj
 0002:00009550       ??_C@_1M@IMPFOPBG@?$AAr?$AAo?$AA?9?$AAR?$AAO?$AA?$AA@ 10036550     LIBCMT:winapinls.obj
 0002:0000955c       ??_C@_1M@IDNNEJMM@?$AAr?$AAu?$AA?9?$AAR?$AAU?$AA?$AA@ 1003655c     LIBCMT:winapinls.obj
 0002:00009568       ??_C@_1M@LILEEOGM@?$AAh?$AAr?$AA?9?$AAH?$AAR?$AA?$AA@ 10036568     LIBCMT:winapinls.obj
 0002:00009574       ??_C@_1M@FKIFEHPB@?$AAs?$AAk?$AA?9?$AAS?$AAK?$AA?$AA@ 10036574     LIBCMT:winapinls.obj
 0002:00009580       ??_C@_1M@LJMAMNPJ@?$AAs?$AAq?$AA?9?$AAA?$AAL?$AA?$AA@ 10036580     LIBCMT:winapinls.obj
 0002:0000958c       ??_C@_1M@GIAKDKJK@?$AAs?$AAv?$AA?9?$AAS?$AAE?$AA?$AA@ 1003658c     LIBCMT:winapinls.obj
 0002:00009598       ??_C@_1M@MKJKIKCL@?$AAt?$AAh?$AA?9?$AAT?$AAH?$AA?$AA@ 10036598     LIBCMT:winapinls.obj
 0002:000095a4       ??_C@_1M@MFLCCMPB@?$AAt?$AAr?$AA?9?$AAT?$AAR?$AA?$AA@ 100365a4     LIBCMT:winapinls.obj
 0002:000095b0       ??_C@_1M@OIJHDKJN@?$AAu?$AAr?$AA?9?$AAP?$AAK?$AA?$AA@ 100365b0     LIBCMT:winapinls.obj
 0002:000095bc       ??_C@_1M@LHIPCIEK@?$AAi?$AAd?$AA?9?$AAI?$AAD?$AA?$AA@ 100365bc     LIBCMT:winapinls.obj
 0002:000095c8       ??_C@_1M@MFMOBGI@?$AAu?$AAk?$AA?9?$AAU?$AAA?$AA?$AA@ 100365c8     LIBCMT:winapinls.obj
 0002:000095d4       ??_C@_1M@OBGLJIPL@?$AAb?$AAe?$AA?9?$AAB?$AAY?$AA?$AA@ 100365d4     LIBCMT:winapinls.obj
 0002:000095e0       ??_C@_1M@BCFAJEAD@?$AAs?$AAl?$AA?9?$AAS?$AAI?$AA?$AA@ 100365e0     LIBCMT:winapinls.obj
 0002:000095ec       ??_C@_1M@FKFFEDDN@?$AAe?$AAt?$AA?9?$AAE?$AAE?$AA?$AA@ 100365ec     LIBCMT:winapinls.obj
 0002:000095f8       ??_C@_1M@KGKKAACI@?$AAl?$AAv?$AA?9?$AAL?$AAV?$AA?$AA@ 100365f8     LIBCMT:winapinls.obj
 0002:00009604       ??_C@_1M@IFGBIJO@?$AAl?$AAt?$AA?9?$AAL?$AAT?$AA?$AA@ 10036604     LIBCMT:winapinls.obj
 0002:00009610       ??_C@_1M@FGEAHEDM@?$AAf?$AAa?$AA?9?$AAI?$AAR?$AA?$AA@ 10036610     LIBCMT:winapinls.obj
 0002:0000961c       ??_C@_1M@KBMAIBFN@?$AAv?$AAi?$AA?9?$AAV?$AAN?$AA?$AA@ 1003661c     LIBCMT:winapinls.obj
 0002:00009628       ??_C@_1M@GPCBKDJK@?$AAh?$AAy?$AA?9?$AAA?$AAM?$AA?$AA@ 10036628     LIBCMT:winapinls.obj
 0002:00009634       ??_C@_1BG@BECMDDJB@?$AAa?$AAz?$AA?9?$AAA?$AAZ?$AA?9?$AAL?$AAa?$AAt?$AAn?$AA?$AA@ 10036634     LIBCMT:winapinls.obj
 0002:0000964c       ??_C@_1M@MAOFCAEA@?$AAe?$AAu?$AA?9?$AAE?$AAS?$AA?$AA@ 1003664c     LIBCMT:winapinls.obj
 0002:00009658       ??_C@_1M@IGHABKPI@?$AAm?$AAk?$AA?9?$AAM?$AAK?$AA?$AA@ 10036658     LIBCMT:winapinls.obj
 0002:00009664       ??_C@_1M@IAIGNEJG@?$AAt?$AAn?$AA?9?$AAZ?$AAA?$AA?$AA@ 10036664     LIBCMT:winapinls.obj
 0002:00009670       ??_C@_1M@IIJCOJFA@?$AAx?$AAh?$AA?9?$AAZ?$AAA?$AA?$AA@ 10036670     LIBCMT:winapinls.obj
 0002:0000967c       ??_C@_1M@LGPJHNJH@?$AAz?$AAu?$AA?9?$AAZ?$AAA?$AA?$AA@ 1003667c     LIBCMT:winapinls.obj
 0002:00009688       ??_C@_1M@HOKAOIO@?$AAa?$AAf?$AA?9?$AAZ?$AAA?$AA?$AA@ 10036688     LIBCMT:winapinls.obj
 0002:00009694       ??_C@_1M@DPCLHLIE@?$AAk?$AAa?$AA?9?$AAG?$AAE?$AA?$AA@ 10036694     LIBCMT:winapinls.obj
 0002:000096a0       ??_C@_1M@BLKMHJBI@?$AAf?$AAo?$AA?9?$AAF?$AAO?$AA?$AA@ 100366a0     LIBCMT:winapinls.obj
 0002:000096ac       ??_C@_1M@LGGJAPPB@?$AAh?$AAi?$AA?9?$AAI?$AAN?$AA?$AA@ 100366ac     LIBCMT:winapinls.obj
 0002:000096b8       ??_C@_1M@FIKPIHFE@?$AAm?$AAt?$AA?9?$AAM?$AAT?$AA?$AA@ 100366b8     LIBCMT:winapinls.obj
 0002:000096c4       ??_C@_1M@HEGGPBFA@?$AAs?$AAe?$AA?9?$AAN?$AAO?$AA?$AA@ 100366c4     LIBCMT:winapinls.obj
 0002:000096d0       ??_C@_1M@EIBJEEPA@?$AAm?$AAs?$AA?9?$AAM?$AAY?$AA?$AA@ 100366d0     LIBCMT:winapinls.obj
 0002:000096dc       ??_C@_1M@FHLBGMPP@?$AAk?$AAk?$AA?9?$AAK?$AAZ?$AA?$AA@ 100366dc     LIBCMT:winapinls.obj
 0002:000096e8       ??_C@_1M@NGJJLCGI@?$AAk?$AAy?$AA?9?$AAK?$AAG?$AA?$AA@ 100366e8     LIBCMT:winapinls.obj
 0002:000096f4       ??_C@_1M@GIENNBFC@?$AAs?$AAw?$AA?9?$AAK?$AAE?$AA?$AA@ 100366f4     LIBCMT:winapinls.obj
 0002:00009700       ??_C@_1BG@NDGMJIMJ@?$AAu?$AAz?$AA?9?$AAU?$AAZ?$AA?9?$AAL?$AAa?$AAt?$AAn?$AA?$AA@ 10036700     LIBCMT:winapinls.obj
 0002:00009718       ??_C@_1M@IDCCIHBC@?$AAt?$AAt?$AA?9?$AAR?$AAU?$AA?$AA@ 10036718     LIBCMT:winapinls.obj
 0002:00009724       ??_C@_1M@LOICPMOJ@?$AAb?$AAn?$AA?9?$AAI?$AAN?$AA?$AA@ 10036724     LIBCMT:winapinls.obj
 0002:00009730       ??_C@_1M@KPKKNEAH@?$AAp?$AAa?$AA?9?$AAI?$AAN?$AA?$AA@ 10036730     LIBCMT:winapinls.obj
 0002:0000973c       ??_C@_1M@PJGPPBOG@?$AAg?$AAu?$AA?9?$AAI?$AAN?$AA?$AA@ 1003673c     LIBCMT:winapinls.obj
 0002:00009748       ??_C@_1M@KMKMOPHI@?$AAt?$AAa?$AA?9?$AAI?$AAN?$AA?$AA@ 10036748     LIBCMT:winapinls.obj
 0002:00009754       ??_C@_1M@KFEHEPAC@?$AAt?$AAe?$AA?9?$AAI?$AAN?$AA?$AA@ 10036754     LIBCMT:winapinls.obj
 0002:00009760       ??_C@_1M@CDCLMGHI@?$AAk?$AAn?$AA?9?$AAI?$AAN?$AA?$AA@ 10036760     LIBCMT:winapinls.obj
 0002:0000976c       ??_C@_1M@MIODLDKF@?$AAm?$AAl?$AA?9?$AAI?$AAN?$AA?$AA@ 1003676c     LIBCMT:winapinls.obj
 0002:00009778       ??_C@_1M@PBIEACPO@?$AAm?$AAr?$AA?9?$AAI?$AAN?$AA?$AA@ 10036778     LIBCMT:winapinls.obj
 0002:00009784       ??_C@_1M@NIDEAGPH@?$AAs?$AAa?$AA?9?$AAI?$AAN?$AA?$AA@ 10036784     LIBCMT:winapinls.obj
 0002:00009790       ??_C@_1M@FHIHCBIO@?$AAm?$AAn?$AA?9?$AAM?$AAN?$AA?$AA@ 10036790     LIBCMT:winapinls.obj
 0002:0000979c       ??_C@_1M@JAIJPENP@?$AAc?$AAy?$AA?9?$AAG?$AAB?$AA?$AA@ 1003679c     LIBCMT:winapinls.obj
 0002:000097a8       ??_C@_1M@PHGFBEPN@?$AAg?$AAl?$AA?9?$AAE?$AAS?$AA?$AA@ 100367a8     LIBCMT:winapinls.obj
 0002:000097b4       ??_C@_1O@KPIPDNCP@?$AAk?$AAo?$AAk?$AA?9?$AAI?$AAN?$AA?$AA@ 100367b4     LIBCMT:winapinls.obj
 0002:000097c4       ??_C@_1O@KNHJLDJA@?$AAs?$AAy?$AAr?$AA?9?$AAS?$AAY?$AA?$AA@ 100367c4     LIBCMT:winapinls.obj
 0002:000097d4       ??_C@_1O@MKEKBLAH@?$AAd?$AAi?$AAv?$AA?9?$AAM?$AAV?$AA?$AA@ 100367d4     LIBCMT:winapinls.obj
 0002:000097e4       ??_C@_1O@OHDCKDDF@?$AAq?$AAu?$AAz?$AA?9?$AAB?$AAO?$AA?$AA@ 100367e4     LIBCMT:winapinls.obj
 0002:000097f4       ??_C@_1M@LEPJNLFD@?$AAn?$AAs?$AA?9?$AAZ?$AAA?$AA?$AA@ 100367f4     LIBCMT:winapinls.obj
 0002:00009800       ??_C@_1M@OMLEIIJB@?$AAm?$AAi?$AA?9?$AAN?$AAZ?$AA?$AA@ 10036800     LIBCMT:winapinls.obj
 0002:0000980c       ??_C@_1M@PMPEAILG@?$AAa?$AAr?$AA?9?$AAI?$AAQ?$AA?$AA@ 1003680c     LIBCMT:winapinls.obj
 0002:00009818       ??_C@_1M@CNKPNOEE@?$AAd?$AAe?$AA?9?$AAC?$AAH?$AA?$AA@ 10036818     LIBCMT:winapinls.obj
 0002:00009824       ??_C@_1M@LKMGMLKO@?$AAe?$AAn?$AA?9?$AAG?$AAB?$AA?$AA@ 10036824     LIBCMT:winapinls.obj
 0002:00009830       ??_C@_1M@PGKJFFGL@?$AAe?$AAs?$AA?9?$AAM?$AAX?$AA?$AA@ 10036830     LIBCMT:winapinls.obj
 0002:0000983c       ??_C@_1M@DNNANBDC@?$AAf?$AAr?$AA?9?$AAB?$AAE?$AA?$AA@ 1003683c     LIBCMT:winapinls.obj
 0002:00009848       ??_C@_1M@HLGMDFHM@?$AAi?$AAt?$AA?9?$AAC?$AAH?$AA?$AA@ 10036848     LIBCMT:winapinls.obj
 0002:00009854       ??_C@_1M@CLLBGJH@?$AAn?$AAl?$AA?9?$AAB?$AAE?$AA?$AA@ 10036854     LIBCMT:winapinls.obj
 0002:00009860       ??_C@_1M@BODBOGLF@?$AAn?$AAn?$AA?9?$AAN?$AAO?$AA?$AA@ 10036860     LIBCMT:winapinls.obj
 0002:0000986c       ??_C@_1M@HFFAHKAD@?$AAp?$AAt?$AA?9?$AAP?$AAT?$AA?$AA@ 1003686c     LIBCMT:winapinls.obj
 0002:00009878       ??_C@_1BG@LNOAKHIE@?$AAs?$AAr?$AA?9?$AAS?$AAP?$AA?9?$AAL?$AAa?$AAt?$AAn?$AA?$AA@ 10036878     LIBCMT:winapinls.obj
 0002:00009890       ??_C@_1M@HBMHBGAK@?$AAs?$AAv?$AA?9?$AAF?$AAI?$AA?$AA@ 10036890     LIBCMT:winapinls.obj
 0002:0000989c       ??_C@_1BG@DGCJGJBE@?$AAa?$AAz?$AA?9?$AAA?$AAZ?$AA?9?$AAC?$AAy?$AAr?$AAl?$AA?$AA@ 1003689c     LIBCMT:winapinls.obj
 0002:000098b4       ??_C@_1M@KEJDAAHB@?$AAs?$AAe?$AA?9?$AAS?$AAE?$AA?$AA@ 100368b4     LIBCMT:winapinls.obj
 0002:000098c0       ??_C@_1M@HEIBJJAD@?$AAm?$AAs?$AA?9?$AAB?$AAN?$AA?$AA@ 100368c0     LIBCMT:winapinls.obj
 0002:000098cc       ??_C@_1BG@PBGJMCEM@?$AAu?$AAz?$AA?9?$AAU?$AAZ?$AA?9?$AAC?$AAy?$AAr?$AAl?$AA?$AA@ 100368cc     LIBCMT:winapinls.obj
 0002:000098e4       ??_C@_1O@LAOBCMDF@?$AAq?$AAu?$AAz?$AA?9?$AAE?$AAC?$AA?$AA@ 100368e4     LIBCMT:winapinls.obj
 0002:000098f4       ??_C@_1M@POEEMAIO@?$AAa?$AAr?$AA?9?$AAE?$AAG?$AA?$AA@ 100368f4     LIBCMT:winapinls.obj
 0002:00009900       ??_C@_1M@EFAKDEDL@?$AAz?$AAh?$AA?9?$AAH?$AAK?$AA?$AA@ 10036900     LIBCMT:winapinls.obj
 0002:0000990c       ??_C@_1M@HKKIJHGI@?$AAd?$AAe?$AA?9?$AAA?$AAT?$AA?$AA@ 1003690c     LIBCMT:winapinls.obj
 0002:00009918       ??_C@_1M@KBFBEHJF@?$AAe?$AAn?$AA?9?$AAA?$AAU?$AA?$AA@ 10036918     LIBCMT:winapinls.obj
 0002:00009924       ??_C@_1M@MNPLFAAH@?$AAe?$AAs?$AA?9?$AAE?$AAS?$AA?$AA@ 10036924     LIBCMT:winapinls.obj
 0002:00009930       ??_C@_1M@HJOOJFMA@?$AAf?$AAr?$AA?9?$AAC?$AAA?$AA?$AA@ 10036930     LIBCMT:winapinls.obj
 0002:0000993c       ??_C@_1BG@JPOFPNAB@?$AAs?$AAr?$AA?9?$AAS?$AAP?$AA?9?$AAC?$AAy?$AAr?$AAl?$AA?$AA@ 1003693c     LIBCMT:winapinls.obj
 0002:00009954       ??_C@_1M@LNFOCMOB@?$AAs?$AAe?$AA?9?$AAF?$AAI?$AA?$AA@ 10036954     LIBCMT:winapinls.obj
 0002:00009960       ??_C@_1O@MGJBOAMB@?$AAq?$AAu?$AAz?$AA?9?$AAP?$AAE?$AA?$AA@ 10036960     LIBCMT:winapinls.obj
 0002:00009970       ??_C@_1M@GJINLBOK@?$AAa?$AAr?$AA?9?$AAL?$AAY?$AA?$AA@ 10036970     LIBCMT:winapinls.obj
 0002:0000997c       ??_C@_1M@GGMNHJNL@?$AAz?$AAh?$AA?9?$AAS?$AAG?$AA?$AA@ 1003697c     LIBCMT:winapinls.obj
 0002:00009988       ??_C@_1M@HOIKODND@?$AAd?$AAe?$AA?9?$AAL?$AAU?$AA?$AA@ 10036988     LIBCMT:winapinls.obj
 0002:00009994       ??_C@_1M@DDOCCGFG@?$AAe?$AAn?$AA?9?$AAC?$AAA?$AA?$AA@ 10036994     LIBCMT:winapinls.obj
 0002:000099a0       ??_C@_1M@BNOEMJLF@?$AAe?$AAs?$AA?9?$AAG?$AAT?$AA?$AA@ 100369a0     LIBCMT:winapinls.obj
 0002:000099ac       ??_C@_1M@EOGNKEK@?$AAf?$AAr?$AA?9?$AAC?$AAH?$AA?$AA@ 100369ac     LIBCMT:winapinls.obj
 0002:000099b8       ??_C@_1M@FLIDJFHL@?$AAh?$AAr?$AA?9?$AAB?$AAA?$AA?$AA@ 100369b8     LIBCMT:winapinls.obj
 0002:000099c4       ??_C@_1O@FMCELNAJ@?$AAs?$AAm?$AAj?$AA?9?$AAN?$AAO?$AA?$AA@ 100369c4     LIBCMT:winapinls.obj
 0002:000099d4       ??_C@_1M@JHGLJMGJ@?$AAa?$AAr?$AA?9?$AAD?$AAZ?$AA?$AA@ 100369d4     LIBCMT:winapinls.obj
 0002:000099e0       ??_C@_1M@JKKFDCNP@?$AAz?$AAh?$AA?9?$AAM?$AAO?$AA?$AA@ 100369e0     LIBCMT:winapinls.obj
 0002:000099ec       ??_C@_1M@GEEFALPE@?$AAd?$AAe?$AA?9?$AAL?$AAI?$AA?$AA@ 100369ec     LIBCMT:winapinls.obj
 0002:000099f8       ??_C@_1M@IGEOFBG@?$AAe?$AAn?$AA?9?$AAN?$AAZ?$AA?$AA@ 100369f8     LIBCMT:winapinls.obj
 0002:00009a04       ??_C@_1M@KDBONEHP@?$AAe?$AAs?$AA?9?$AAC?$AAR?$AA?$AA@ 10036a04     LIBCMT:winapinls.obj
 0002:00009a10       ??_C@_1M@FHMDOHNN@?$AAf?$AAr?$AA?9?$AAL?$AAU?$AA?$AA@ 10036a10     LIBCMT:winapinls.obj
 0002:00009a1c       ??_C@_1BG@NFKKMAFG@?$AAb?$AAs?$AA?9?$AAB?$AAA?$AA?9?$AAL?$AAa?$AAt?$AAn?$AA?$AA@ 10036a1c     LIBCMT:winapinls.obj
 0002:00009a34       ??_C@_1O@IMNBEMCI@?$AAs?$AAm?$AAj?$AA?9?$AAS?$AAE?$AA?$AA@ 10036a34     LIBCMT:winapinls.obj
 0002:00009a44       ??_C@_1M@DHHMBNDP@?$AAa?$AAr?$AA?9?$AAM?$AAA?$AA?$AA@ 10036a44     LIBCMT:winapinls.obj
 0002:00009a50       ??_C@_1M@BNBLJCGH@?$AAe?$AAn?$AA?9?$AAI?$AAE?$AA?$AA@ 10036a50     LIBCMT:winapinls.obj
 0002:00009a5c       ??_C@_1M@GEPAFMDL@?$AAe?$AAs?$AA?9?$AAP?$AAA?$AA?$AA@ 10036a5c     LIBCMT:winapinls.obj
 0002:00009a68       ??_C@_1M@OJONDMDL@?$AAf?$AAr?$AA?9?$AAM?$AAC?$AA?$AA@ 10036a68     LIBCMT:winapinls.obj
 0002:00009a74       ??_C@_1BG@OBCNFJB@?$AAs?$AAr?$AA?9?$AAB?$AAA?$AA?9?$AAL?$AAa?$AAt?$AAn?$AA?$AA@ 10036a74     LIBCMT:winapinls.obj
 0002:00009a8c       ??_C@_1O@KEMEEGPO@?$AAs?$AAm?$AAa?$AA?9?$AAN?$AAO?$AA?$AA@ 10036a8c     LIBCMT:winapinls.obj
 0002:00009a9c       ??_C@_1M@ELMGFODK@?$AAa?$AAr?$AA?9?$AAT?$AAN?$AA?$AA@ 10036a9c     LIBCMT:winapinls.obj
 0002:00009aa8       ??_C@_1M@BHDLHFAF@?$AAe?$AAn?$AA?9?$AAZ?$AAA?$AA?$AA@ 10036aa8     LIBCMT:winapinls.obj
 0002:00009ab4       ??_C@_1M@BMGIGLIF@?$AAe?$AAs?$AA?9?$AAD?$AAO?$AA?$AA@ 10036ab4     LIBCMT:winapinls.obj
 0002:00009ac0       ??_C@_1BG@CMBHIPBE@?$AAs?$AAr?$AA?9?$AAB?$AAA?$AA?9?$AAC?$AAy?$AAr?$AAl?$AA?$AA@ 10036ac0     LIBCMT:winapinls.obj
 0002:00009ad8       ??_C@_1O@HEDBLHNP@?$AAs?$AAm?$AAa?$AA?9?$AAS?$AAE?$AA?$AA@ 10036ad8     LIBCMT:winapinls.obj
 0002:00009ae8       ??_C@_1M@DAGCADIM@?$AAa?$AAr?$AA?9?$AAO?$AAM?$AA?$AA@ 10036ae8     LIBCMT:winapinls.obj
 0002:00009af4       ??_C@_1M@FODLMICG@?$AAe?$AAn?$AA?9?$AAJ?$AAM?$AA?$AA@ 10036af4     LIBCMT:winapinls.obj
 0002:00009b00       ??_C@_1M@DNMLCIHB@?$AAe?$AAs?$AA?9?$AAV?$AAE?$AA?$AA@ 10036b00     LIBCMT:winapinls.obj
 0002:00009b0c       ??_C@_1O@EOKHMKJK@?$AAs?$AAm?$AAs?$AA?9?$AAF?$AAI?$AA?$AA@ 10036b0c     LIBCMT:winapinls.obj
 0002:00009b1c       ??_C@_1M@CAFJMKOF@?$AAa?$AAr?$AA?9?$AAY?$AAE?$AA?$AA@ 10036b1c     LIBCMT:winapinls.obj
 0002:00009b28       ??_C@_1M@CBFHIJLI@?$AAe?$AAn?$AA?9?$AAC?$AAB?$AA?$AA@ 10036b28     LIBCMT:winapinls.obj
 0002:00009b34       ??_C@_1M@BGNFLDN@?$AAe?$AAs?$AA?9?$AAC?$AAO?$AA?$AA@ 10036b34     LIBCMT:winapinls.obj
 0002:00009b40       ??_C@_1O@JMPHMAMC@?$AAs?$AAm?$AAn?$AA?9?$AAF?$AAI?$AA?$AA@ 10036b40     LIBCMT:winapinls.obj
 0002:00009b50       ??_C@_1M@JLANABKE@?$AAa?$AAr?$AA?9?$AAS?$AAY?$AA?$AA@ 10036b50     LIBCMT:winapinls.obj
 0002:00009b5c       ??_C@_1M@HPKGCFGN@?$AAe?$AAn?$AA?9?$AAB?$AAZ?$AA?$AA@ 10036b5c     LIBCMT:winapinls.obj
 0002:00009b68       ??_C@_1M@OLJCMLGM@?$AAe?$AAs?$AA?9?$AAP?$AAE?$AA?$AA@ 10036b68     LIBCMT:winapinls.obj
 0002:00009b74       ??_C@_1M@MKKGFKLE@?$AAa?$AAr?$AA?9?$AAJ?$AAO?$AA?$AA@ 10036b74     LIBCMT:winapinls.obj
 0002:00009b80       ??_C@_1M@EKPGLDNI@?$AAe?$AAn?$AA?9?$AAT?$AAT?$AA?$AA@ 10036b80     LIBCMT:winapinls.obj
 0002:00009b8c       ??_C@_1M@OONGHFHE@?$AAe?$AAs?$AA?9?$AAA?$AAR?$AA?$AA@ 10036b8c     LIBCMT:winapinls.obj
 0002:00009b98       ??_C@_1M@OOJFGBHE@?$AAa?$AAr?$AA?9?$AAL?$AAB?$AA?$AA@ 10036b98     LIBCMT:winapinls.obj
 0002:00009ba4       ??_C@_1M@GCEJHNEG@?$AAe?$AAn?$AA?9?$AAZ?$AAW?$AA?$AA@ 10036ba4     LIBCMT:winapinls.obj
 0002:00009bb0       ??_C@_1M@JNOCAHJI@?$AAe?$AAs?$AA?9?$AAE?$AAC?$AA?$AA@ 10036bb0     LIBCMT:winapinls.obj
 0002:00009bbc       ??_C@_1M@JEFHPGGB@?$AAa?$AAr?$AA?9?$AAK?$AAW?$AA?$AA@ 10036bbc     LIBCMT:winapinls.obj
 0002:00009bc8       ??_C@_1M@MLKIBJOJ@?$AAe?$AAn?$AA?9?$AAP?$AAH?$AA?$AA@ 10036bc8     LIBCMT:winapinls.obj
 0002:00009bd4       ??_C@_1M@BDNIPEND@?$AAe?$AAs?$AA?9?$AAC?$AAL?$AA?$AA@ 10036bd4     LIBCMT:winapinls.obj
 0002:00009be0       ??_C@_1M@MPNMEKBD@?$AAa?$AAr?$AA?9?$AAA?$AAE?$AA?$AA@ 10036be0     LIBCMT:winapinls.obj
 0002:00009bec       ??_C@_1M@KBJALCPI@?$AAe?$AAs?$AA?9?$AAU?$AAY?$AA?$AA@ 10036bec     LIBCMT:winapinls.obj
 0002:00009bf8       ??_C@_1M@LLCCOAGA@?$AAa?$AAr?$AA?9?$AAB?$AAH?$AA?$AA@ 10036bf8     LIBCMT:winapinls.obj
 0002:00009c04       ??_C@_1M@PBFNCDEL@?$AAe?$AAs?$AA?9?$AAP?$AAY?$AA?$AA@ 10036c04     LIBCMT:winapinls.obj
 0002:00009c10       ??_C@_1M@EDGINPNP@?$AAa?$AAr?$AA?9?$AAQ?$AAA?$AA?$AA@ 10036c10     LIBCMT:winapinls.obj
 0002:00009c1c       ??_C@_1M@MKDBIIJI@?$AAe?$AAs?$AA?9?$AAB?$AAO?$AA?$AA@ 10036c1c     LIBCMT:winapinls.obj
 0002:00009c28       ??_C@_1M@CPKKEBLD@?$AAe?$AAs?$AA?9?$AAS?$AAV?$AA?$AA@ 10036c28     LIBCMT:winapinls.obj
 0002:00009c34       ??_C@_1M@NDBGMMJL@?$AAe?$AAs?$AA?9?$AAH?$AAN?$AA?$AA@ 10036c34     LIBCMT:winapinls.obj
 0002:00009c40       ??_C@_1M@JIJIBHDP@?$AAe?$AAs?$AA?9?$AAN?$AAI?$AA?$AA@ 10036c40     LIBCMT:winapinls.obj
 0002:00009c4c       ??_C@_1M@CGFMKEEK@?$AAe?$AAs?$AA?9?$AAP?$AAR?$AA?$AA@ 10036c4c     LIBCMT:winapinls.obj
 0002:00009c58       ??_C@_1O@ICJHKIIK@?$AAz?$AAh?$AA?9?$AAC?$AAH?$AAT?$AA?$AA@ 10036c58     LIBCMT:winapinls.obj
 0002:00009c68       ??_C@_15CLNEJCE@?$AAs?$AAr?$AA?$AA@ 10036c68     LIBCMT:winapinls.obj
 0002:00009c70       ??_C@_1M@KAHEKEIG@?$AAa?$AAf?$AA?9?$AAz?$AAa?$AA?$AA@ 10036c70     LIBCMT:winapinls.obj
 0002:00009c7c       ??_C@_1M@GIECOABL@?$AAa?$AAr?$AA?9?$AAa?$AAe?$AA?$AA@ 10036c7c     LIBCMT:winapinls.obj
 0002:00009c88       ??_C@_1M@BMLMEKGI@?$AAa?$AAr?$AA?9?$AAb?$AAh?$AA?$AA@ 10036c88     LIBCMT:winapinls.obj
 0002:00009c94       ??_C@_1M@DAPFDGGB@?$AAa?$AAr?$AA?9?$AAd?$AAz?$AA?$AA@ 10036c94     LIBCMT:winapinls.obj
 0002:00009ca0       ??_C@_1M@FJNKGKIG@?$AAa?$AAr?$AA?9?$AAe?$AAg?$AA?$AA@ 10036ca0     LIBCMT:winapinls.obj
 0002:00009cac       ??_C@_1M@FLGKKCLO@?$AAa?$AAr?$AA?9?$AAi?$AAq?$AA?$AA@ 10036cac     LIBCMT:winapinls.obj
 0002:00009cb8       ??_C@_1M@GNDIPALM@?$AAa?$AAr?$AA?9?$AAj?$AAo?$AA?$AA@ 10036cb8     LIBCMT:winapinls.obj
 0002:00009cc4       ??_C@_1M@DDMJFMGJ@?$AAa?$AAr?$AA?9?$AAk?$AAw?$AA?$AA@ 10036cc4     LIBCMT:winapinls.obj
 0002:00009cd0       ??_C@_1M@EJALMLHM@?$AAa?$AAr?$AA?9?$AAl?$AAb?$AA?$AA@ 10036cd0     LIBCMT:winapinls.obj
 0002:00009cdc       ??_C@_1M@MOBDBLOC@?$AAa?$AAr?$AA?9?$AAl?$AAy?$AA?$AA@ 10036cdc     LIBCMT:winapinls.obj
 0002:00009ce8       ??_C@_1M@JAOCLHDH@?$AAa?$AAr?$AA?9?$AAm?$AAa?$AA?$AA@ 10036ce8     LIBCMT:winapinls.obj
 0002:00009cf4       ??_C@_1M@JHPMKJIE@?$AAa?$AAr?$AA?9?$AAo?$AAm?$AA?$AA@ 10036cf4     LIBCMT:winapinls.obj
 0002:00009d00       ??_C@_1M@OEPGHFNH@?$AAa?$AAr?$AA?9?$AAq?$AAa?$AA?$AA@ 10036d00     LIBCMT:winapinls.obj
 0002:00009d0c       ??_C@_1M@KJDONENM@?$AAa?$AAr?$AA?9?$AAs?$AAa?$AA?$AA@ 10036d0c     LIBCMT:winapinls.obj
 0002:00009d18       ??_C@_1M@DMJDKLKM@?$AAa?$AAr?$AA?9?$AAs?$AAy?$AA?$AA@ 10036d18     LIBCMT:winapinls.obj
 0002:00009d24       ??_C@_1M@OMFIPEDC@?$AAa?$AAr?$AA?9?$AAt?$AAn?$AA?$AA@ 10036d24     LIBCMT:winapinls.obj
 0002:00009d30       ??_C@_1M@IHMHGAON@?$AAa?$AAr?$AA?9?$AAy?$AAe?$AA?$AA@ 10036d30     LIBCMT:winapinls.obj
 0002:00009d3c       ??_C@_1BG@KDCPGJGB@?$AAa?$AAz?$AA?9?$AAa?$AAz?$AA?9?$AAc?$AAy?$AAr?$AAl?$AA?$AA@ 10036d3c     LIBCMT:winapinls.obj
 0002:00009d54       ??_C@_1BG@IBCKDDOE@?$AAa?$AAz?$AA?9?$AAa?$AAz?$AA?9?$AAl?$AAa?$AAt?$AAn?$AA?$AA@ 10036d54     LIBCMT:winapinls.obj
 0002:00009d6c       ??_C@_1M@EGPFDCPD@?$AAb?$AAe?$AA?9?$AAb?$AAy?$AA?$AA@ 10036d6c     LIBCMT:winapinls.obj
 0002:00009d78       ??_C@_1M@PCMGMCGC@?$AAb?$AAg?$AA?9?$AAb?$AAg?$AA?$AA@ 10036d78     LIBCMT:winapinls.obj
 0002:00009d84       ??_C@_1M@BJBMFGOB@?$AAb?$AAn?$AA?9?$AAi?$AAn?$AA?$AA@ 10036d84     LIBCMT:winapinls.obj
 0002:00009d90       ??_C@_1BG@EAKMMACD@?$AAb?$AAs?$AA?9?$AAb?$AAa?$AA?9?$AAl?$AAa?$AAt?$AAn?$AA?$AA@ 10036d90     LIBCMT:winapinls.obj
 0002:00009da8       ??_C@_1M@KGADAODK@?$AAc?$AAa?$AA?9?$AAe?$AAs?$AA?$AA@ 10036da8     LIBCMT:winapinls.obj
 0002:00009db4       ??_C@_1M@COAJPDHI@?$AAc?$AAs?$AA?9?$AAc?$AAz?$AA?$AA@ 10036db4     LIBCMT:winapinls.obj
 0002:00009dc0       ??_C@_1M@DHBHFONH@?$AAc?$AAy?$AA?9?$AAg?$AAb?$AA?$AA@ 10036dc0     LIBCMT:winapinls.obj
 0002:00009dcc       ??_C@_1M@IMGKELGA@?$AAd?$AAa?$AA?9?$AAd?$AAk?$AA?$AA@ 10036dcc     LIBCMT:winapinls.obj
 0002:00009dd8       ??_C@_1M@NNDGDNGA@?$AAd?$AAe?$AA?9?$AAa?$AAt?$AA?$AA@ 10036dd8     LIBCMT:winapinls.obj
 0002:00009de4       ??_C@_1M@IKDBHEEM@?$AAd?$AAe?$AA?9?$AAc?$AAh?$AA?$AA@ 10036de4     LIBCMT:winapinls.obj
 0002:00009df0       ??_C@_1M@GFFOJMCJ@?$AAd?$AAe?$AA?9?$AAd?$AAe?$AA?$AA@ 10036df0     LIBCMT:winapinls.obj
 0002:00009dfc       ??_C@_1M@MDNLKBPM@?$AAd?$AAe?$AA?9?$AAl?$AAi?$AA?$AA@ 10036dfc     LIBCMT:winapinls.obj
 0002:00009e08       ??_C@_1M@NJBEEJNL@?$AAd?$AAe?$AA?9?$AAl?$AAu?$AA?$AA@ 10036e08     LIBCMT:winapinls.obj
 0002:00009e14       ??_C@_1O@GNNELBAP@?$AAd?$AAi?$AAv?$AA?9?$AAm?$AAv?$AA?$AA@ 10036e14     LIBCMT:winapinls.obj
 0002:00009e24       ??_C@_1M@EJLEOGAE@?$AAe?$AAl?$AA?9?$AAg?$AAr?$AA?$AA@ 10036e24     LIBCMT:winapinls.obj
 0002:00009e30       ??_C@_1M@GMPONJN@?$AAe?$AAn?$AA?9?$AAa?$AAu?$AA?$AA@ 10036e30     LIBCMT:winapinls.obj
 0002:00009e3c       ??_C@_1M@NIDIIPGF@?$AAe?$AAn?$AA?9?$AAb?$AAz?$AA?$AA@ 10036e3c     LIBCMT:winapinls.obj
 0002:00009e48       ??_C@_1M@JEHMIMFO@?$AAe?$AAn?$AA?9?$AAc?$AAa?$AA?$AA@ 10036e48     LIBCMT:winapinls.obj
 0002:00009e54       ??_C@_1M@IGMJCDLA@?$AAe?$AAn?$AA?9?$AAc?$AAb?$AA?$AA@ 10036e54     LIBCMT:winapinls.obj
 0002:00009e60       ??_C@_1M@BNFIGBKG@?$AAe?$AAn?$AA?9?$AAg?$AAb?$AA?$AA@ 10036e60     LIBCMT:winapinls.obj
 0002:00009e6c       ??_C@_1M@LKIFDIGP@?$AAe?$AAn?$AA?9?$AAi?$AAe?$AA?$AA@ 10036e6c     LIBCMT:winapinls.obj
 0002:00009e78       ??_C@_1M@PJKFGCCO@?$AAe?$AAn?$AA?9?$AAj?$AAm?$AA?$AA@ 10036e78     LIBCMT:winapinls.obj
 0002:00009e84       ??_C@_1M@KPPKEPBO@?$AAe?$AAn?$AA?9?$AAn?$AAz?$AA?$AA@ 10036e84     LIBCMT:winapinls.obj
 0002:00009e90       ??_C@_1M@GMDGLDOB@?$AAe?$AAn?$AA?9?$AAp?$AAh?$AA?$AA@ 10036e90     LIBCMT:winapinls.obj
 0002:00009e9c       ??_C@_1M@ONGIBJNA@?$AAe?$AAn?$AA?9?$AAt?$AAt?$AA?$AA@ 10036e9c     LIBCMT:winapinls.obj
 0002:00009ea8       ??_C@_1M@LLODPCMM@?$AAe?$AAn?$AA?9?$AAu?$AAs?$AA?$AA@ 10036ea8     LIBCMT:winapinls.obj
 0002:00009eb4       ??_C@_1M@LAKFNPAN@?$AAe?$AAn?$AA?9?$AAz?$AAa?$AA?$AA@ 10036eb4     LIBCMT:winapinls.obj
 0002:00009ec0       ??_C@_1M@MFNHNHEO@?$AAe?$AAn?$AA?9?$AAz?$AAw?$AA?$AA@ 10036ec0     LIBCMT:winapinls.obj
 0002:00009ecc       ??_C@_1M@EJEINPHM@?$AAe?$AAs?$AA?9?$AAa?$AAr?$AA?$AA@ 10036ecc     LIBCMT:winapinls.obj
 0002:00009ed8       ??_C@_1M@GNKPCCJA@?$AAe?$AAs?$AA?9?$AAb?$AAo?$AA?$AA@ 10036ed8     LIBCMT:winapinls.obj
 0002:00009ee4       ??_C@_1M@LEEGFONL@?$AAe?$AAs?$AA?9?$AAc?$AAl?$AA?$AA@ 10036ee4     LIBCMT:winapinls.obj
 0002:00009ef0       ??_C@_1M@KGPDPBDF@?$AAe?$AAs?$AA?9?$AAc?$AAo?$AA?$AA@ 10036ef0     LIBCMT:winapinls.obj
 0002:00009efc       ??_C@_1M@EIAHOHH@?$AAe?$AAs?$AA?9?$AAc?$AAr?$AA?$AA@ 10036efc     LIBCMT:winapinls.obj
 0002:00009f08       ??_C@_1M@LLPGMBIN@?$AAe?$AAs?$AA?9?$AAd?$AAo?$AA?$AA@ 10036f08     LIBCMT:winapinls.obj
 0002:00009f14       ??_C@_1M@DKHMKNJA@?$AAe?$AAs?$AA?9?$AAe?$AAc?$AA?$AA@ 10036f14     LIBCMT:winapinls.obj
 0002:00009f20       ??_C@_1M@GKGFPKAP@?$AAe?$AAs?$AA?9?$AAe?$AAs?$AA?$AA@ 10036f20     LIBCMT:winapinls.obj
 0002:00009f2c       ??_C@_1M@LKHKGDLN@?$AAe?$AAs?$AA?9?$AAg?$AAt?$AA?$AA@ 10036f2c     LIBCMT:winapinls.obj
 0002:00009f38       ??_C@_1M@HEIIGGJD@?$AAe?$AAs?$AA?9?$AAh?$AAn?$AA?$AA@ 10036f38     LIBCMT:winapinls.obj
 0002:00009f44       ??_C@_1M@FBDHPPGD@?$AAe?$AAs?$AA?9?$AAm?$AAx?$AA?$AA@ 10036f44     LIBCMT:winapinls.obj
 0002:00009f50       ??_C@_1M@DPAGLNDH@?$AAe?$AAs?$AA?9?$AAn?$AAi?$AA?$AA@ 10036f50     LIBCMT:winapinls.obj
 0002:00009f5c       ??_C@_1M@MDGOPGDD@?$AAe?$AAs?$AA?9?$AAp?$AAa?$AA?$AA@ 10036f5c     LIBCMT:winapinls.obj
 0002:00009f68       ??_C@_1M@EMAMGBGE@?$AAe?$AAs?$AA?9?$AAp?$AAe?$AA?$AA@ 10036f68     LIBCMT:winapinls.obj
 0002:00009f74       ??_C@_1M@IBMCAOEC@?$AAe?$AAs?$AA?9?$AAp?$AAr?$AA?$AA@ 10036f74     LIBCMT:winapinls.obj
 0002:00009f80       ??_C@_1M@FGMDIJED@?$AAe?$AAs?$AA?9?$AAp?$AAy?$AA?$AA@ 10036f80     LIBCMT:winapinls.obj
 0002:00009f8c       ??_C@_1M@IIDEOLLL@?$AAe?$AAs?$AA?9?$AAs?$AAv?$AA?$AA@ 10036f8c     LIBCMT:winapinls.obj
 0002:00009f98       ??_C@_1M@GAOBIPA@?$AAe?$AAs?$AA?9?$AAu?$AAy?$AA?$AA@ 10036f98     LIBCMT:winapinls.obj
 0002:00009fa4       ??_C@_1M@JKFFICHJ@?$AAe?$AAs?$AA?9?$AAv?$AAe?$AA?$AA@ 10036fa4     LIBCMT:winapinls.obj
 0002:00009fb0       ??_C@_1M@PNMLOJDF@?$AAe?$AAt?$AA?9?$AAe?$AAe?$AA?$AA@ 10036fb0     LIBCMT:winapinls.obj
 0002:00009fbc       ??_C@_1M@GHHLIKEI@?$AAe?$AAu?$AA?9?$AAe?$AAs?$AA?$AA@ 10036fbc     LIBCMT:winapinls.obj
 0002:00009fc8       ??_C@_1M@PBNONODE@?$AAf?$AAa?$AA?9?$AAi?$AAr?$AA?$AA@ 10036fc8     LIBCMT:winapinls.obj
 0002:00009fd4       ??_C@_1M@JEEHPMIL@?$AAf?$AAi?$AA?9?$AAf?$AAi?$AA?$AA@ 10036fd4     LIBCMT:winapinls.obj
 0002:00009fe0       ??_C@_1M@LMDCNDBA@?$AAf?$AAo?$AA?9?$AAf?$AAo?$AA?$AA@ 10036fe0     LIBCMT:winapinls.obj
 0002:00009fec       ??_C@_1M@JKEOHLDK@?$AAf?$AAr?$AA?9?$AAb?$AAe?$AA?$AA@ 10036fec     LIBCMT:winapinls.obj
 0002:00009ff8       ??_C@_1M@NOHADPMI@?$AAf?$AAr?$AA?9?$AAc?$AAa?$AA?$AA@ 10036ff8     LIBCMT:winapinls.obj
 0002:0000a004       ??_C@_1M@KDHIHAEC@?$AAf?$AAr?$AA?9?$AAc?$AAh?$AA?$AA@ 10037004     LIBCMT:winapinls.obj
 0002:0000a010       ??_C@_1M@MMBBFGAK@?$AAf?$AAr?$AA?9?$AAf?$AAr?$AA?$AA@ 10037010     LIBCMT:winapinls.obj
 0002:0000a01c       ??_C@_1M@PAFNENNF@?$AAf?$AAr?$AA?9?$AAl?$AAu?$AA?$AA@ 1003701c     LIBCMT:winapinls.obj
 0002:0000a028       ??_C@_1M@EOHDJGDD@?$AAf?$AAr?$AA?9?$AAm?$AAc?$AA?$AA@ 10037028     LIBCMT:winapinls.obj
 0002:0000a034       ??_C@_1M@FAPLLOPF@?$AAg?$AAl?$AA?9?$AAe?$AAs?$AA?$AA@ 10037034     LIBCMT:winapinls.obj
 0002:0000a040       ??_C@_1M@FOPBFLOO@?$AAg?$AAu?$AA?9?$AAi?$AAn?$AA?$AA@ 10037040     LIBCMT:winapinls.obj
 0002:0000a04c       ??_C@_1M@KBMCINPM@?$AAh?$AAe?$AA?9?$AAi?$AAl?$AA?$AA@ 1003704c     LIBCMT:winapinls.obj
 0002:0000a058       ??_C@_1M@BBPHKFPJ@?$AAh?$AAi?$AA?9?$AAi?$AAn?$AA?$AA@ 10037058     LIBCMT:winapinls.obj
 0002:0000a064       ??_C@_1M@PMBNDPHD@?$AAh?$AAr?$AA?9?$AAb?$AAa?$AA?$AA@ 10037064     LIBCMT:winapinls.obj
 0002:0000a070       ??_C@_1M@BPCKOEGE@?$AAh?$AAr?$AA?9?$AAh?$AAr?$AA?$AA@ 10037070     LIBCMT:winapinls.obj
 0002:0000a07c       ??_C@_1M@GACBMHKE@?$AAh?$AAu?$AA?9?$AAh?$AAu?$AA?$AA@ 1003707c     LIBCMT:winapinls.obj
 0002:0000a088       ??_C@_1M@MILPAJJC@?$AAh?$AAy?$AA?9?$AAa?$AAm?$AA?$AA@ 10037088     LIBCMT:winapinls.obj
 0002:0000a094       ??_C@_1M@BABBICEC@?$AAi?$AAd?$AA?9?$AAi?$AAd?$AA?$AA@ 10037094     LIBCMT:winapinls.obj
 0002:0000a0a0       ??_C@_1M@BIKNHHPF@?$AAi?$AAs?$AA?9?$AAi?$AAs?$AA?$AA@ 100370a0     LIBCMT:winapinls.obj
 0002:0000a0ac       ??_C@_1M@NMPCJPHE@?$AAi?$AAt?$AA?9?$AAc?$AAh?$AA?$AA@ 100370ac     LIBCMT:winapinls.obj
 0002:0000a0b8       ??_C@_1M@GHKGFEDF@?$AAi?$AAt?$AA?9?$AAi?$AAt?$AA?$AA@ 100370b8     LIBCMT:winapinls.obj
 0002:0000a0c4       ??_C@_1M@NIEJCJJA@?$AAj?$AAa?$AA?9?$AAj?$AAp?$AA?$AA@ 100370c4     LIBCMT:winapinls.obj
 0002:0000a0d0       ??_C@_1M@JILFNBIM@?$AAk?$AAa?$AA?9?$AAg?$AAe?$AA?$AA@ 100370d0     LIBCMT:winapinls.obj
 0002:0000a0dc       ??_C@_1M@PACPMGPH@?$AAk?$AAk?$AA?9?$AAk?$AAz?$AA?$AA@ 100370dc     LIBCMT:winapinls.obj
 0002:0000a0e8       ??_C@_1M@IELFGMHA@?$AAk?$AAn?$AA?9?$AAi?$AAn?$AA?$AA@ 100370e8     LIBCMT:winapinls.obj
 0002:0000a0f4       ??_C@_1O@IBBJHCH@?$AAk?$AAo?$AAk?$AA?9?$AAi?$AAn?$AA?$AA@ 100370f4     LIBCMT:winapinls.obj
 0002:0000a104       ??_C@_1M@DMHAEOGC@?$AAk?$AAo?$AA?9?$AAk?$AAr?$AA?$AA@ 10037104     LIBCMT:winapinls.obj
 0002:0000a110       ??_C@_1M@HBAHBIGA@?$AAk?$AAy?$AA?9?$AAk?$AAg?$AA?$AA@ 10037110     LIBCMT:winapinls.obj
 0002:0000a11c       ??_C@_1M@KPMILCJG@?$AAl?$AAt?$AA?9?$AAl?$AAt?$AA?$AA@ 1003711c     LIBCMT:winapinls.obj
 0002:0000a128       ??_C@_1M@BDEKKCA@?$AAl?$AAv?$AA?9?$AAl?$AAv?$AA?$AA@ 10037128     LIBCMT:winapinls.obj
 0002:0000a134       ??_C@_1M@ELCKCCJJ@?$AAm?$AAi?$AA?9?$AAn?$AAz?$AA?$AA@ 10037134     LIBCMT:winapinls.obj
 0002:0000a140       ??_C@_1M@CBOOLAPA@?$AAm?$AAk?$AA?9?$AAm?$AAk?$AA?$AA@ 10037140     LIBCMT:winapinls.obj
 0002:0000a14c       ??_C@_1M@GPHNBJKN@?$AAm?$AAl?$AA?9?$AAi?$AAn?$AA?$AA@ 1003714c     LIBCMT:winapinls.obj
 0002:0000a158       ??_C@_1M@PABJILIG@?$AAm?$AAn?$AA?9?$AAm?$AAn?$AA?$AA@ 10037158     LIBCMT:winapinls.obj
 0002:0000a164       ??_C@_1M@FGBKKIPG@?$AAm?$AAr?$AA?9?$AAi?$AAn?$AA?$AA@ 10037164     LIBCMT:winapinls.obj
 0002:0000a170       ??_C@_1M@NDBPDDAL@?$AAm?$AAs?$AA?9?$AAb?$AAn?$AA?$AA@ 10037170     LIBCMT:winapinls.obj
 0002:0000a17c       ??_C@_1M@OPIHOOPI@?$AAm?$AAs?$AA?9?$AAm?$AAy?$AA?$AA@ 1003717c     LIBCMT:winapinls.obj
 0002:0000a188       ??_C@_1M@PPDBCNFM@?$AAm?$AAt?$AA?9?$AAm?$AAt?$AA?$AA@ 10037188     LIBCMT:winapinls.obj
 0002:0000a194       ??_C@_1M@KDJDKMDD@?$AAn?$AAb?$AA?9?$AAn?$AAo?$AA?$AA@ 10037194     LIBCMT:winapinls.obj
 0002:0000a1a0       ??_C@_1M@KFCFLMJP@?$AAn?$AAl?$AA?9?$AAb?$AAe?$AA?$AA@ 100371a0     LIBCMT:winapinls.obj
 0002:0000a1ac       ??_C@_1M@KPOPDDGO@?$AAn?$AAl?$AA?9?$AAn?$AAl?$AA?$AA@ 100371ac     LIBCMT:winapinls.obj
 0002:0000a1b8       ??_C@_1M@LJKPEMLN@?$AAn?$AAn?$AA?9?$AAn?$AAo?$AA?$AA@ 100371b8     LIBCMT:winapinls.obj
 0002:0000a1c4       ??_C@_1M@BDGHHBFL@?$AAn?$AAs?$AA?9?$AAz?$AAa?$AA?$AA@ 100371c4     LIBCMT:winapinls.obj
 0002:0000a1d0       ??_C@_1M@IDEHOAP@?$AAp?$AAa?$AA?9?$AAi?$AAn?$AA?$AA@ 100371d0     LIBCMT:winapinls.obj
 0002:0000a1dc       ??_C@_1M@HDBKGOGH@?$AAp?$AAl?$AA?9?$AAp?$AAl?$AA?$AA@ 100371dc     LIBCMT:winapinls.obj
 0002:0000a1e8       ??_C@_1M@LJLLCMEH@?$AAp?$AAt?$AA?9?$AAb?$AAr?$AA?$AA@ 100371e8     LIBCMT:winapinls.obj
 0002:0000a1f4       ??_C@_1M@NCMONAAL@?$AAp?$AAt?$AA?9?$AAp?$AAt?$AA?$AA@ 100371f4     LIBCMT:winapinls.obj
 0002:0000a200       ??_C@_1O@EAKMAJDN@?$AAq?$AAu?$AAz?$AA?9?$AAb?$AAo?$AA?$AA@ 10037200     LIBCMT:winapinls.obj
 0002:0000a210       ??_C@_1O@BHHPIGDN@?$AAq?$AAu?$AAz?$AA?9?$AAe?$AAc?$AA?$AA@ 10037210     LIBCMT:winapinls.obj
 0002:0000a220       ??_C@_1O@GBAPEKMJ@?$AAq?$AAu?$AAz?$AA?9?$AAp?$AAe?$AA?$AA@ 10037220     LIBCMT:winapinls.obj
 0002:0000a230       ??_C@_1M@CLGLEFBO@?$AAr?$AAo?$AA?9?$AAr?$AAo?$AA?$AA@ 10037230     LIBCMT:winapinls.obj
 0002:0000a23c       ??_C@_1M@CEEDODME@?$AAr?$AAu?$AA?9?$AAr?$AAu?$AA?$AA@ 1003723c     LIBCMT:winapinls.obj
 0002:0000a248       ??_C@_1M@HPKKKMPP@?$AAs?$AAa?$AA?9?$AAi?$AAn?$AA?$AA@ 10037248     LIBCMT:winapinls.obj
 0002:0000a254       ??_C@_1M@BKMAIGOJ@?$AAs?$AAe?$AA?9?$AAf?$AAi?$AA?$AA@ 10037254     LIBCMT:winapinls.obj
 0002:0000a260       ??_C@_1M@NDPIFLFI@?$AAs?$AAe?$AA?9?$AAn?$AAo?$AA?$AA@ 10037260     LIBCMT:winapinls.obj
 0002:0000a26c       ??_C@_1M@DANKKHJ@?$AAs?$AAe?$AA?9?$AAs?$AAe?$AA?$AA@ 1003726c     LIBCMT:winapinls.obj
 0002:0000a278       ??_C@_1M@PNBLONPJ@?$AAs?$AAk?$AA?9?$AAs?$AAk?$AA?$AA@ 10037278     LIBCMT:winapinls.obj
 0002:0000a284       ??_C@_1M@LFMODOAL@?$AAs?$AAl?$AA?9?$AAs?$AAi?$AA?$AA@ 10037284     LIBCMT:winapinls.obj
 0002:0000a290       ??_C@_1O@DFKOMPG@?$AAs?$AAm?$AAa?$AA?9?$AAn?$AAo?$AA?$AA@ 10037290     LIBCMT:winapinls.obj
 0002:0000a2a0       ??_C@_1O@NDKPBNNH@?$AAs?$AAm?$AAa?$AA?9?$AAs?$AAe?$AA?$AA@ 100372a0     LIBCMT:winapinls.obj
 0002:0000a2b0       ??_C@_1O@PLLKBHAB@?$AAs?$AAm?$AAj?$AA?9?$AAn?$AAo?$AA?$AA@ 100372b0     LIBCMT:winapinls.obj
 0002:0000a2c0       ??_C@_1O@CLEPOGCA@?$AAs?$AAm?$AAj?$AA?9?$AAs?$AAe?$AA?$AA@ 100372c0     LIBCMT:winapinls.obj
 0002:0000a2d0       ??_C@_1O@DLGJGKMK@?$AAs?$AAm?$AAn?$AA?9?$AAf?$AAi?$AA?$AA@ 100372d0     LIBCMT:winapinls.obj
 0002:0000a2e0       ??_C@_1O@OJDJGAJC@?$AAs?$AAm?$AAs?$AA?9?$AAf?$AAi?$AA?$AA@ 100372e0     LIBCMT:winapinls.obj
 0002:0000a2f0       ??_C@_1M@BOFOGHPB@?$AAs?$AAq?$AA?9?$AAa?$AAl?$AA?$AA@ 100372f0     LIBCMT:winapinls.obj
 0002:0000a2fc       ??_C@_1BG@LJBBIPGB@?$AAs?$AAr?$AA?9?$AAb?$AAa?$AA?9?$AAc?$AAy?$AAr?$AAl?$AA?$AA@ 100372fc     LIBCMT:winapinls.obj
 0002:0000a314       ??_C@_1BG@JLBENFOE@?$AAs?$AAr?$AA?9?$AAb?$AAa?$AA?9?$AAl?$AAa?$AAt?$AAn?$AA?$AA@ 10037314     LIBCMT:winapinls.obj
 0002:0000a32c       ??_C@_1BG@KODPNHE@?$AAs?$AAr?$AA?9?$AAs?$AAp?$AA?9?$AAc?$AAy?$AAr?$AAl?$AA?$AA@ 1003732c     LIBCMT:winapinls.obj
 0002:0000a344       ??_C@_1BG@CIOGKHPB@?$AAs?$AAr?$AA?9?$AAs?$AAp?$AA?9?$AAl?$AAa?$AAt?$AAn?$AA?$AA@ 10037344     LIBCMT:winapinls.obj
 0002:0000a35c       ??_C@_1M@NGFJLMAC@?$AAs?$AAv?$AA?9?$AAf?$AAi?$AA?$AA@ 1003735c     LIBCMT:winapinls.obj
 0002:0000a368       ??_C@_1M@MPJEJAJC@?$AAs?$AAv?$AA?9?$AAs?$AAe?$AA?$AA@ 10037368     LIBCMT:winapinls.obj
 0002:0000a374       ??_C@_1M@MPNDHLFK@?$AAs?$AAw?$AA?9?$AAk?$AAe?$AA?$AA@ 10037374     LIBCMT:winapinls.obj
 0002:0000a380       ??_C@_1O@KOHBJJI@?$AAs?$AAy?$AAr?$AA?9?$AAs?$AAy?$AA?$AA@ 10037380     LIBCMT:winapinls.obj
 0002:0000a390       ??_C@_1M@LDCEFHA@?$AAt?$AAa?$AA?9?$AAi?$AAn?$AA?$AA@ 10037390     LIBCMT:winapinls.obj
 0002:0000a39c       ??_C@_1M@CNJOFAK@?$AAt?$AAe?$AA?9?$AAi?$AAn?$AA?$AA@ 1003739c     LIBCMT:winapinls.obj
 0002:0000a3a8       ??_C@_1M@GNAECACD@?$AAt?$AAh?$AA?9?$AAt?$AAh?$AA?$AA@ 100373a8     LIBCMT:winapinls.obj
 0002:0000a3b4       ??_C@_1M@CHBIHOJO@?$AAt?$AAn?$AA?9?$AAz?$AAa?$AA?$AA@ 100373b4     LIBCMT:winapinls.obj
 0002:0000a3c0       ??_C@_1M@GCCMIGPJ@?$AAt?$AAr?$AA?9?$AAt?$AAr?$AA?$AA@ 100373c0     LIBCMT:winapinls.obj
 0002:0000a3cc       ??_C@_1M@CELMCNBK@?$AAt?$AAt?$AA?9?$AAr?$AAu?$AA?$AA@ 100373cc     LIBCMT:winapinls.obj
 0002:0000a3d8       ??_C@_1M@KLMCELGA@?$AAu?$AAk?$AA?9?$AAu?$AAa?$AA?$AA@ 100373d8     LIBCMT:winapinls.obj
 0002:0000a3e4       ??_C@_1M@EPAJJAJF@?$AAu?$AAr?$AA?9?$AAp?$AAk?$AA?$AA@ 100373e4     LIBCMT:winapinls.obj
 0002:0000a3f0       ??_C@_1BG@GEGPMCDJ@?$AAu?$AAz?$AA?9?$AAu?$AAz?$AA?9?$AAc?$AAy?$AAr?$AAl?$AA?$AA@ 100373f0     LIBCMT:winapinls.obj
 0002:0000a408       ??_C@_1BG@EGGKJILM@?$AAu?$AAz?$AA?9?$AAu?$AAz?$AA?9?$AAl?$AAa?$AAt?$AAn?$AA?$AA@ 10037408     LIBCMT:winapinls.obj
 0002:0000a420       ??_C@_1M@GFOCLFF@?$AAv?$AAi?$AA?9?$AAv?$AAn?$AA?$AA@ 10037420     LIBCMT:winapinls.obj
 0002:0000a42c       ??_C@_1M@CPAMEDFI@?$AAx?$AAh?$AA?9?$AAz?$AAa?$AA?$AA@ 1003742c     LIBCMT:winapinls.obj
 0002:0000a438       ??_C@_1O@EBKIFIGN@?$AAz?$AAh?$AA?9?$AAc?$AAh?$AAs?$AA?$AA@ 10037438     LIBCMT:winapinls.obj
 0002:0000a448       ??_C@_1O@NMHPGANE@?$AAz?$AAh?$AA?9?$AAc?$AAh?$AAt?$AA?$AA@ 10037448     LIBCMT:winapinls.obj
 0002:0000a458       ??_C@_1M@LPINJOMC@?$AAz?$AAh?$AA?9?$AAc?$AAn?$AA?$AA@ 10037458     LIBCMT:winapinls.obj
 0002:0000a464       ??_C@_1M@OCJEJODD@?$AAz?$AAh?$AA?9?$AAh?$AAk?$AA?$AA@ 10037464     LIBCMT:winapinls.obj
 0002:0000a470       ??_C@_1M@DNDLJINH@?$AAz?$AAh?$AA?9?$AAm?$AAo?$AA?$AA@ 10037470     LIBCMT:winapinls.obj
 0002:0000a47c       ??_C@_1M@MBFDNDND@?$AAz?$AAh?$AA?9?$AAs?$AAg?$AA?$AA@ 1003747c     LIBCMT:winapinls.obj
 0002:0000a488       ??_C@_1M@IMEPLEPE@?$AAz?$AAh?$AA?9?$AAt?$AAw?$AA?$AA@ 10037488     LIBCMT:winapinls.obj
 0002:0000a494       ??_C@_1M@BBGHNHJP@?$AAz?$AAu?$AA?9?$AAz?$AAa?$AA?$AA@ 10037494     LIBCMT:winapinls.obj
 0002:0000a628       ??_C@_08EHJDFFNH@__based?$CI?$AA@ 10037628     LIBCMT:undname.obj
 0002:0000a634       ??_C@_07KOLFKCDI@__cdecl?$AA@ 10037634     LIBCMT:undname.obj
 0002:0000a63c       ??_C@_08GHMPAG@__pascal?$AA@ 1003763c     LIBCMT:undname.obj
 0002:0000a648       ??_C@_09IFJBGAPI@__stdcall?$AA@ 10037648     LIBCMT:undname.obj
 0002:0000a654       ??_C@_0L@NPHFGOKO@__thiscall?$AA@ 10037654     LIBCMT:undname.obj
 0002:0000a660       ??_C@_0L@JMKHOMEK@__fastcall?$AA@ 10037660     LIBCMT:undname.obj
 0002:0000a66c       ??_C@_09HIJEGCPM@__clrcall?$AA@ 1003766c     LIBCMT:undname.obj
 0002:0000a678       ??_C@_06GHPCKEAG@__eabi?$AA@ 10037678     LIBCMT:undname.obj
 0002:0000a680       ??_C@_07JOMMBBKO@__ptr64?$AA@ 10037680     LIBCMT:undname.obj
 0002:0000a688       ??_C@_0L@PILCLIHE@__restrict?$AA@ 10037688     LIBCMT:undname.obj
 0002:0000a694       ??_C@_0M@GFIIJFMG@__unaligned?$AA@ 10037694     LIBCMT:undname.obj
 0002:0000a6a0       ??_C@_09DHDLOLLB@restrict?$CI?$AA@ 100376a0     LIBCMT:undname.obj
 0002:0000a6ac       ??_C@_04NIHEBCM@?5new?$AA@ 100376ac     LIBCMT:undname.obj
 0002:0000a6b4       ??_C@_07FPCDHGMM@?5delete?$AA@ 100376b4     LIBCMT:undname.obj
 0002:0000a6bc       ??_C@_01NEMOKFLO@?$DN?$AA@ 100376bc     LIBCMT:undname.obj
 0002:0000a6c0       ??_C@_02GPIOPFAK@?$DO?$DO?$AA@ 100376c0     LIBCMT:undname.obj
 0002:0000a6c4       ??_C@_02FODMEDOG@?$DM?$DM?$AA@ 100376c4     LIBCMT:undname.obj
 0002:0000a6c8       ??_C@_01DCLJPIOD@?$CB?$AA@ 100376c8     LIBCMT:undname.obj
 0002:0000a6cc       ??_C@_02EGOFBIJA@?$DN?$DN?$AA@ 100376cc     LIBCMT:undname.obj
 0002:0000a6d0       ??_C@_02FDNJECIE@?$CB?$DN?$AA@ 100376d0     LIBCMT:undname.obj
 0002:0000a6d4       ??_C@_02GPECMEKF@?$FL?$FN?$AA@ 100376d4     LIBCMT:undname.obj
 0002:0000a6d8       ??_C@_08LHJFAFGD@operator?$AA@ 100376d8     LIBCMT:undname.obj
 0002:0000a6e4       ??_C@_02HBOOOICD@?9?$DO?$AA@ 100376e4     LIBCMT:undname.obj
 0002:0000a6e8       ??_C@_01NBENCBCI@?$CK?$AA@ 100376e8     LIBCMT:undname.obj
 0002:0000a6ec       ??_C@_02ECNGHCIF@?$CL?$CL?$AA@ 100376ec     LIBCMT:undname.obj
 0002:0000a6f0       ??_C@_02BAABKJLB@?9?9?$AA@ 100376f0     LIBCMT:undname.obj
 0002:0000a6f4       ??_C@_01MIFGBAGJ@?$CL?$AA@ 100376f4     LIBCMT:undname.obj
 0002:0000a6f8       ??_C@_01HNPIGOCE@?$CG?$AA@ 100376f8     LIBCMT:undname.obj
 0002:0000a6fc       ??_C@_03MNHNFDLC@?9?$DO?$CK?$AA@ 100376fc     LIBCMT:undname.obj
 0002:0000a700       ??_C@_01KMDKNFGN@?1?$AA@   10037700     LIBCMT:undname.obj
 0002:0000a704       ??_C@_01FGNFDNOH@?$CF?$AA@ 10037704     LIBCMT:undname.obj
 0002:0000a708       ??_C@_01MNNFJEPP@?$DM?$AA@ 10037708     LIBCMT:undname.obj
 0002:0000a70c       ??_C@_02EHCHHCKH@?$DM?$DN?$AA@ 1003770c     LIBCMT:undname.obj
 0002:0000a710       ??_C@_01PPODPGHN@?$DO?$AA@ 10037710     LIBCMT:undname.obj
 0002:0000a714       ??_C@_02EEKDKGMJ@?$DO?$DN?$AA@ 10037714     LIBCMT:undname.obj
 0002:0000a718       ??_C@_01IHBHIGKO@?0?$AA@   10037718     LIBCMT:undname.obj
 0002:0000a71c       ??_C@_02HCKGKOFO@?$CI?$CJ?$AA@ 1003771c     LIBCMT:undname.obj
 0002:0000a720       ??_C@_01PJKLJHI@?$HO?$AA@  10037720     LIBCMT:undname.obj
 0002:0000a724       ??_C@_01JKBOJNNK@?$FO?$AA@ 10037724     LIBCMT:undname.obj
 0002:0000a728       ??_C@_01DNKMNLPK@?$HM?$AA@ 10037728     LIBCMT:undname.obj
 0002:0000a72c       ??_C@_02PPKAJPJL@?$CG?$CG?$AA@ 1003772c     LIBCMT:undname.obj
 0002:0000a730       ??_C@_02NONPIBCD@?$HM?$HM?$AA@ 10037730     LIBCMT:undname.obj
 0002:0000a734       ??_C@_02FPIMKNGF@?$CK?$DN?$AA@ 10037734     LIBCMT:undname.obj
 0002:0000a738       ??_C@_02FOEOMHFC@?$CL?$DN?$AA@ 10037738     LIBCMT:undname.obj
 0002:0000a73c       ??_C@_02FKMDLLOA@?9?$DN?$AA@ 1003773c     LIBCMT:undname.obj
 0002:0000a740       ??_C@_02FJEHGPIO@?1?$DN?$AA@ 10037740     LIBCMT:undname.obj
 0002:0000a744       ??_C@_02FENAOKFI@?$CF?$DN?$AA@ 10037744     LIBCMT:undname.obj
 0002:0000a748       ??_C@_03IKFCCPFF@?$DO?$DO?$DN?$AA@ 10037748     LIBCMT:undname.obj
 0002:0000a74c       ??_C@_03CDNPDDLA@?$DM?$DM?$DN?$AA@ 1003774c     LIBCMT:undname.obj
 0002:0000a750       ??_C@_02FGJGFEAB@?$CG?$DN?$AA@ 10037750     LIBCMT:undname.obj
 0002:0000a754       ??_C@_02DHLNPPGH@?$HM?$DN?$AA@ 10037754     LIBCMT:undname.obj
 0002:0000a758       ??_C@_02MHEGNOJ@?$FO?$DN?$AA@ 10037758     LIBCMT:undname.obj
 0002:0000a75c       ??_C@_09IFPLHPGF@?$GAvftable?8?$AA@ 1003775c     LIBCMT:undname.obj
 0002:0000a768       ??_C@_09BLBHBJP@?$GAvbtable?8?$AA@ 10037768     LIBCMT:undname.obj
 0002:0000a774       ??_C@_07FEEIOKP@?$GAvcall?8?$AA@ 10037774     LIBCMT:undname.obj
 0002:0000a77c       ??_C@_08LLFFHHDJ@?$GAtypeof?8?$AA@ 1003777c     LIBCMT:undname.obj
 0002:0000a788       ??_C@_0BF@KDPPACIK@?$GAlocal?5static?5guard?8?$AA@ 10037788     LIBCMT:undname.obj
 0002:0000a7a0       ??_C@_08OBABFOLI@?$GAstring?8?$AA@ 100377a0     LIBCMT:undname.obj
 0002:0000a7ac       ??_C@_0BD@JDLKDPAB@?$GAvbase?5destructor?8?$AA@ 100377ac     LIBCMT:undname.obj
 0002:0000a7c0       ??_C@_0BN@DEGPLNFK@?$GAvector?5deleting?5destructor?8?$AA@ 100377c0     LIBCMT:undname.obj
 0002:0000a7e0       ??_C@_0BO@OBMKPJIG@?$GAdefault?5constructor?5closure?8?$AA@ 100377e0     LIBCMT:undname.obj
 0002:0000a800       ??_C@_0BN@IMDCHIKM@?$GAscalar?5deleting?5destructor?8?$AA@ 10037800     LIBCMT:undname.obj
 0002:0000a820       ??_C@_0BO@PFGOCPJJ@?$GAvector?5constructor?5iterator?8?$AA@ 10037820     LIBCMT:undname.obj
 0002:0000a840       ??_C@_0BN@LFPFMEDL@?$GAvector?5destructor?5iterator?8?$AA@ 10037840     LIBCMT:undname.obj
 0002:0000a860       ??_C@_0CE@IKBNEHA@?$GAvector?5vbase?5constructor?5iterat@ 10037860     LIBCMT:undname.obj
 0002:0000a884       ??_C@_0BL@NILFHHPC@?$GAvirtual?5displacement?5map?8?$AA@ 10037884     LIBCMT:undname.obj
 0002:0000a8a0       ??_C@_0CB@JONCMFFK@?$GAeh?5vector?5constructor?5iterator?8@ 100378a0     LIBCMT:undname.obj
 0002:0000a8c4       ??_C@_0CA@GCEOPDGL@?$GAeh?5vector?5destructor?5iterator?8?$AA@ 100378c4     LIBCMT:undname.obj
 0002:0000a8e4       ??_C@_0CH@OOJPLCPH@?$GAeh?5vector?5vbase?5constructor?5ite@ 100378e4     LIBCMT:undname.obj
 0002:0000a90c       ??_C@_0BL@LLKPOHJI@?$GAcopy?5constructor?5closure?8?$AA@ 1003790c     LIBCMT:undname.obj
 0002:0000a928       ??_C@_0BA@KBCDOMBN@?$GAudt?5returning?8?$AA@ 10037928     LIBCMT:undname.obj
 0002:0000a938       ??_C@_03KLGMFNMG@?$GAEH?$AA@ 10037938     LIBCMT:undname.obj
 0002:0000a93c       ??_C@_05KHLCHHI@?$GARTTI?$AA@ 1003793c     LIBCMT:undname.obj
 0002:0000a944       ??_C@_0BA@KKLDJDLB@?$GAlocal?5vftable?8?$AA@ 10037944     LIBCMT:undname.obj
 0002:0000a954       ??_C@_0CE@IIHCMGGL@?$GAlocal?5vftable?5constructor?5closu@ 10037954     LIBCMT:undname.obj
 0002:0000a978       ??_C@_06FHBGPFGH@?5new?$FL?$FN?$AA@ 10037978     LIBCMT:undname.obj
 0002:0000a980       ??_C@_09LBNFPBCA@?5delete?$FL?$FN?$AA@ 10037980     LIBCMT:undname.obj
 0002:0000a98c       ??_C@_0P@HJKNJFNN@?$GAomni?5callsig?8?$AA@ 1003798c     LIBCMT:undname.obj
 0002:0000a99c       ??_C@_0BL@CNOONJFP@?$GAplacement?5delete?5closure?8?$AA@ 1003799c     LIBCMT:undname.obj
 0002:0000a9b8       ??_C@_0BN@CKNJLHMB@?$GAplacement?5delete?$FL?$FN?5closure?8?$AA@ 100379b8     LIBCMT:undname.obj
 0002:0000a9d8       ??_C@_0CG@CFDHKGGD@?$GAmanaged?5vector?5constructor?5iter@ 100379d8     LIBCMT:undname.obj
 0002:0000aa00       ??_C@_0CF@IMGKMJNO@?$GAmanaged?5vector?5destructor?5itera@ 10037a00     LIBCMT:undname.obj
 0002:0000aa28       ??_C@_0CG@HLDDJMAG@?$GAeh?5vector?5copy?5constructor?5iter@ 10037a28     LIBCMT:undname.obj
 0002:0000aa50       ??_C@_0CM@FCBBDIGB@?$GAeh?5vector?5vbase?5copy?5constructo@ 10037a50     LIBCMT:undname.obj
 0002:0000aa7c       ??_C@_0BL@CLIPGLGB@?$GAdynamic?5initializer?5for?5?8?$AA@ 10037a7c     LIBCMT:undname.obj
 0002:0000aa98       ??_C@_0CB@PDBIFEP@?$GAdynamic?5atexit?5destructor?5for?5?8@ 10037a98     LIBCMT:undname.obj
 0002:0000aabc       ??_C@_0CD@CGAJBKEJ@?$GAvector?5copy?5constructor?5iterato@ 10037abc     LIBCMT:undname.obj
 0002:0000aae0       ??_C@_0CJ@GJELGAMM@?$GAvector?5vbase?5copy?5constructor?5i@ 10037ae0     LIBCMT:undname.obj
 0002:0000ab0c       ??_C@_0CL@FGIJHLCE@?$GAmanaged?5vector?5copy?5constructor@ 10037b0c     LIBCMT:undname.obj
 0002:0000ab38       ??_C@_0BM@PMGGMLDN@?$GAlocal?5static?5thread?5guard?8?$AA@ 10037b38     LIBCMT:undname.obj
 0002:0000ab54       ??_C@_0BC@DAFEJGAK@?5Type?5Descriptor?8?$AA@ 10037b54     LIBCMT:undname.obj
 0002:0000ab68       ??_C@_0BM@LDKODKLH@?5Base?5Class?5Descriptor?5at?5?$CI?$AA@ 10037b68     LIBCMT:undname.obj
 0002:0000ab84       ??_C@_0BD@LGICGFMM@?5Base?5Class?5Array?8?$AA@ 10037b84     LIBCMT:undname.obj
 0002:0000ab98       ??_C@_0BN@MECKDCOJ@?5Class?5Hierarchy?5Descriptor?8?$AA@ 10037b98     LIBCMT:undname.obj
 0002:0000abb8       ??_C@_0BK@CFCOFLF@?5Complete?5Object?5Locator?8?$AA@ 10037bb8     LIBCMT:undname.obj
 0002:0000abd4       ??_C@_04COOMCNPB@sinh?$AA@ 10037bd4     LIBCMT:fpexcept.obj
 0002:0000abdc       ??_C@_04HPJJNFIM@cosh?$AA@ 10037bdc     LIBCMT:fpexcept.obj
 0002:0000abe4       ??_C@_04FJHINJAO@tanh?$AA@ 10037be4     LIBCMT:fpexcept.obj
 0002:0000abec       ??_C@_05KNGEOGJB@atan2?$AA@ 10037bec     LIBCMT:fpexcept.obj
 0002:0000abf4       ??_C@_04ODHECPBC@fabs?$AA@ 10037bf4     LIBCMT:fpexcept.obj
 0002:0000abfc       ??_C@_05CEJMAHNP@ldexp?$AA@ 10037bfc     LIBCMT:fpexcept.obj
 0002:0000ac04       ??_C@_05KBKMEMPO@_cabs?$AA@ 10037c04     LIBCMT:fpexcept.obj
 0002:0000ac0c       ??_C@_06MEIMCGCF@_hypot?$AA@ 10037c0c     LIBCMT:fpexcept.obj
 0002:0000ac14       ??_C@_04KEPJIHGP@fmod?$AA@ 10037c14     LIBCMT:fpexcept.obj
 0002:0000ac1c       ??_C@_05GKKHEGJL@frexp?$AA@ 10037c1c     LIBCMT:fpexcept.obj
 0002:0000ac24       ??_C@_03MJLDFKDL@_y0?$AA@  10037c24     LIBCMT:fpexcept.obj
 0002:0000ac28       ??_C@_03NAKIGLHK@_y1?$AA@  10037c28     LIBCMT:fpexcept.obj
 0002:0000ac2c       ??_C@_03ONILCKOB@_yn?$AA@  10037c2c     LIBCMT:fpexcept.obj
 0002:0000ac30       ??_C@_05JGDBENOH@_logb?$AA@ 10037c30     LIBCMT:fpexcept.obj
 0002:0000ac38       ??_C@_0L@KDOEJCKC@_nextafter?$AA@ 10037c38     LIBCMT:fpexcept.obj
 0002:0000ac48       ___newctype                10037c48     LIBCMT:ctype.obj
 0002:0000af48       __wctype                   10037f48     LIBCMT:ctype.obj
 0002:0000b150       ___newclmap                10038150     LIBCMT:ctype.obj
 0002:0000b2d0       ___newcumap                100382d0     LIBCMT:ctype.obj
 0002:0000b450       ___rg_language_count       10038450     LIBCMT:getqloc.obj
 0002:0000b454       ___rg_country_count        10038454     LIBCMT:getqloc.obj
 0002:0000b458       ??_C@_0M@HHGEPIBF@CreateFile2?$AA@ 10038458     LIBCMT:wopen.obj
 0002:0000b464       ??_C@_06PGGFOGJG@1?$CDSNAN?$AA@ 10038464     LIBCMT:x10fout.obj
 0002:0000b46c       ??_C@_05PHHOCPM@1?$CDIND?$AA@ 1003846c     LIBCMT:x10fout.obj
 0002:0000b474       ??_C@_05DNEBIAHO@1?$CDINF?$AA@ 10038474     LIBCMT:x10fout.obj
 0002:0000b47c       ??_C@_06IMKFLFPG@1?$CDQNAN?$AA@ 1003847c     LIBCMT:x10fout.obj
 0002:0000b484       ??_C@_1BA@BALFACEM@?$AAC?$AAO?$AAN?$AAO?$AAU?$AAT?$AA$?$AA?$AA@ 10038484     LIBCMT:initcon.obj
 0002:0000b498       ??_7logic_error@std@@6B@   10038498     libcpmt:xthrow.obj
 0002:0000b4a4       ??_7length_error@std@@6B@  100384a4     libcpmt:xthrow.obj
 0002:0000b4b0       ??_7out_of_range@std@@6B@  100384b0     libcpmt:xthrow.obj
 0002:0000b4bc       ??_7runtime_error@std@@6B@ 100384bc     libcpmt:xthrow.obj
 0002:0000b4c8       ??_7error_category@std@@6B@ 100384c8     libcpmt:xthrow.obj
 0002:0000b4e4       ??_7_Generic_error_category@std@@6B@ 100384e4     libcpmt:xthrow.obj
 0002:0000b500       ??_7_Iostream_error_category@std@@6B@ 10038500     libcpmt:xthrow.obj
 0002:0000b51c       ??_7_System_error_category@std@@6B@ 1003851c     libcpmt:xthrow.obj
 0002:0000ba08       ??_C@_0BC@CIJDGCDI@permission?5denied?$AA@ 10038a08     libcpmt:syserror.obj
 0002:0000ba1c       ??_C@_0M@MIDIAGJP@file?5exists?$AA@ 10038a1c     libcpmt:syserror.obj
 0002:0000ba28       ??_C@_0P@FDINDDOK@no?5such?5device?$AA@ 10038a28     libcpmt:syserror.obj
 0002:0000ba38       ??_C@_0BC@EJHOMAAK@filename?5too?5long?$AA@ 10038a38     libcpmt:syserror.obj
 0002:0000ba4c       ??_C@_0BI@NGCEHDD@device?5or?5resource?5busy?$AA@ 10038a4c     libcpmt:syserror.obj
 0002:0000ba64       ??_C@_08GLNPIFBN@io?5error?$AA@ 10038a64     libcpmt:syserror.obj
 0002:0000ba70       ??_C@_0BE@JIDOCPHM@directory?5not?5empty?$AA@ 10038a70     libcpmt:syserror.obj
 0002:0000ba84       ??_C@_0BB@FCMFBGOM@invalid?5argument?$AA@ 10038a84     libcpmt:syserror.obj
 0002:0000ba98       ??_C@_0BD@IJDJKDEA@no?5space?5on?5device?$AA@ 10038a98     libcpmt:syserror.obj
 0002:0000baac       ??_C@_0BK@NDOCBPGE@no?5such?5file?5or?5directory?$AA@ 10038aac     libcpmt:syserror.obj
 0002:0000bac8       ??_C@_0BH@KEFGLDAF@function?5not?5supported?$AA@ 10038ac8     libcpmt:syserror.obj
 0002:0000bae0       ??_C@_0BC@NJECKMKE@no?5lock?5available?$AA@ 10038ae0     libcpmt:syserror.obj
 0002:0000baf4       ??_C@_0BC@ENOOLCNF@not?5enough?5memory?$AA@ 10038af4     libcpmt:syserror.obj
 0002:0000bb08       ??_C@_0BP@LKNGHENJ@resource?5unavailable?5try?5again?$AA@ 10038b08     libcpmt:syserror.obj
 0002:0000bb28       ??_C@_0BC@PPHBOELF@cross?5device?5link?$AA@ 10038b28     libcpmt:syserror.obj
 0002:0000bb3c       ??_C@_0BD@MOLBPMEA@operation?5canceled?$AA@ 10038b3c     libcpmt:syserror.obj
 0002:0000bb50       ??_C@_0BE@GHAFMPAH@too?5many?5files?5open?$AA@ 10038b50     libcpmt:syserror.obj
 0002:0000bb64       ??_C@_0BC@FNODOBAE@permission_denied?$AA@ 10038b64     libcpmt:syserror.obj
 0002:0000bb78       ??_C@_0P@LNDJPBFK@address_in_use?$AA@ 10038b78     libcpmt:syserror.obj
 0002:0000bb88       ??_C@_0BG@IPMGOJF@address_not_available?$AA@ 10038b88     libcpmt:syserror.obj
 0002:0000bba0       ??_C@_0BN@LCBDHODA@address_family_not_supported?$AA@ 10038ba0     libcpmt:syserror.obj
 0002:0000bbc0       ??_C@_0BP@FOJJHMCC@connection_already_in_progress?$AA@ 10038bc0     libcpmt:syserror.obj
 0002:0000bbe0       ??_C@_0BE@DLHHIBGN@bad_file_descriptor?$AA@ 10038be0     libcpmt:syserror.obj
 0002:0000bbf4       ??_C@_0BD@OJMJDIGI@connection_aborted?$AA@ 10038bf4     libcpmt:syserror.obj
 0002:0000bc08       ??_C@_0BD@NGKCIFEP@connection_refused?$AA@ 10038c08     libcpmt:syserror.obj
 0002:0000bc1c       ??_C@_0BB@JOANDNCK@connection_reset?$AA@ 10038c1c     libcpmt:syserror.obj
 0002:0000bc30       ??_C@_0BN@JLJNLKLK@destination_address_required?$AA@ 10038c30     libcpmt:syserror.obj
 0002:0000bc50       ??_C@_0M@IJGMGFGP@bad_address?$AA@ 10038c50     libcpmt:syserror.obj
 0002:0000bc5c       ??_C@_0BB@KKNHPPIN@host_unreachable?$AA@ 10038c5c     libcpmt:syserror.obj
 0002:0000bc70       ??_C@_0BG@DJGBJIIK@operation_in_progress?$AA@ 10038c70     libcpmt:syserror.obj
 0002:0000bc88       ??_C@_0M@EGEKIIMP@interrupted?$AA@ 10038c88     libcpmt:syserror.obj
 0002:0000bc94       ??_C@_0BB@FFIHMIPJ@invalid_argument?$AA@ 10038c94     libcpmt:syserror.obj
 0002:0000bca8       ??_C@_0BC@FIFLCHLO@already_connected?$AA@ 10038ca8     libcpmt:syserror.obj
 0002:0000bcbc       ??_C@_0BE@GJJJJDDA@too_many_files_open?$AA@ 10038cbc     libcpmt:syserror.obj
 0002:0000bcd0       ??_C@_0N@HPMLKHPL@message_size?$AA@ 10038cd0     libcpmt:syserror.obj
 0002:0000bce0       ??_C@_0BC@LEEIKBAL@filename_too_long?$AA@ 10038ce0     libcpmt:syserror.obj
 0002:0000bcf4       ??_C@_0N@FCPALPJK@network_down?$AA@ 10038cf4     libcpmt:syserror.obj
 0002:0000bd04       ??_C@_0O@EHNDLHIG@network_reset?$AA@ 10038d04     libcpmt:syserror.obj
 0002:0000bd14       ??_C@_0BE@JFNJIDNF@network_unreachable?$AA@ 10038d14     libcpmt:syserror.obj
 0002:0000bd28       ??_C@_0BA@FDIJKJCL@no_buffer_space?$AA@ 10038d28     libcpmt:syserror.obj
 0002:0000bd38       ??_C@_0BD@JHIHCGKP@no_protocol_option?$AA@ 10038d38     libcpmt:syserror.obj
 0002:0000bd4c       ??_C@_0O@GBCLHHD@not_connected?$AA@ 10038d4c     libcpmt:syserror.obj
 0002:0000bd5c       ??_C@_0N@IMHKKLEM@not_a_socket?$AA@ 10038d5c     libcpmt:syserror.obj
 0002:0000bd6c       ??_C@_0BI@ICEIDKLJ@operation_not_supported?$AA@ 10038d6c     libcpmt:syserror.obj
 0002:0000bd84       ??_C@_0BH@KAPBAIJF@protocol_not_supported?$AA@ 10038d84     libcpmt:syserror.obj
 0002:0000bd9c       ??_C@_0BE@GAOJJFPC@wrong_protocol_type?$AA@ 10038d9c     libcpmt:syserror.obj
 0002:0000bdb0       ??_C@_09NCHNLHPG@timed_out?$AA@ 10038db0     libcpmt:syserror.obj
 0002:0000bdbc       ??_C@_0BG@GDGHKFDH@operation_would_block?$AA@ 10038dbc     libcpmt:syserror.obj
 0002:0000bdd4       ??_C@_0BN@LKKBCCDB@address?5family?5not?5supported?$AA@ 10038dd4     libcpmt:syserror.obj
 0002:0000bdf4       ??_C@_0P@LDMLAFHI@address?5in?5use?$AA@ 10038df4     libcpmt:syserror.obj
 0002:0000be04       ??_C@_0BG@DHPCNBJB@address?5not?5available?$AA@ 10038e04     libcpmt:syserror.obj
 0002:0000be1c       ??_C@_0BC@DFIBIBIL@already?5connected?$AA@ 10038e1c     libcpmt:syserror.obj
 0002:0000be30       ??_C@_0BH@CAKOHOMI@argument?5list?5too?5long?$AA@ 10038e30     libcpmt:syserror.obj
 0002:0000be48       ??_C@_0BH@CGIMPKIM@argument?5out?5of?5domain?$AA@ 10038e48     libcpmt:syserror.obj
 0002:0000be60       ??_C@_0M@KGHGGJGL@bad?5address?$AA@ 10038e60     libcpmt:syserror.obj
 0002:0000be6c       ??_C@_0BE@MPJPGCEO@bad?5file?5descriptor?$AA@ 10038e6c     libcpmt:syserror.obj
 0002:0000be80       ??_C@_0M@PMMIEFCP@bad?5message?$AA@ 10038e80     libcpmt:syserror.obj
 0002:0000be8c       ??_C@_0M@KPHOFDBE@broken?5pipe?$AA@ 10038e8c     libcpmt:syserror.obj
 0002:0000be98       ??_C@_0BD@MGNDDEGM@connection?5aborted?$AA@ 10038e98     libcpmt:syserror.obj
 0002:0000beac       ??_C@_0BP@KAIHPOGN@connection?5already?5in?5progress?$AA@ 10038eac     libcpmt:syserror.obj
 0002:0000becc       ??_C@_0BD@PJLIIJEL@connection?5refused?$AA@ 10038ecc     libcpmt:syserror.obj
 0002:0000bee0       ??_C@_0BB@IECNJNOI@connection?5reset?$AA@ 10038ee0     libcpmt:syserror.obj
 0002:0000bef4       ??_C@_0BN@KDMIFEIP@destination?5address?5required?$AA@ 10038ef4     libcpmt:syserror.obj
 0002:0000bf14       ??_C@_0BI@BNCLIGPB@executable?5format?5error?$AA@ 10038f14     libcpmt:syserror.obj
 0002:0000bf2c       ??_C@_0P@DNAJLBJK@file?5too?5large?$AA@ 10038f2c     libcpmt:syserror.obj
 0002:0000bf3c       ??_C@_0BB@DHFDFGDM@host?5unreachable?$AA@ 10038f3c     libcpmt:syserror.obj
 0002:0000bf50       ??_C@_0BD@JPHBMONG@identifier?5removed?$AA@ 10038f50     libcpmt:syserror.obj
 0002:0000bf64       ??_C@_0BG@CDNPAGJK@illegal?5byte?5sequence?$AA@ 10038f64     libcpmt:syserror.obj
 0002:0000bf7c       ??_C@_0CD@BNPLBMNA@inappropriate?5io?5control?5operati@ 10038f7c     libcpmt:syserror.obj
 0002:0000bfa0       ??_C@_0N@OHAFKDEK@invalid?5seek?$AA@ 10038fa0     libcpmt:syserror.obj
 0002:0000bfb0       ??_C@_0P@FLLDBIDK@is?5a?5directory?$AA@ 10038fb0     libcpmt:syserror.obj
 0002:0000bfc0       ??_C@_0N@IFLPBIOP@message?5size?$AA@ 10038fc0     libcpmt:syserror.obj
 0002:0000bfd0       ??_C@_0N@KIIEAAIO@network?5down?$AA@ 10038fd0     libcpmt:syserror.obj
 0002:0000bfe0       ??_C@_0O@FNPDBHEE@network?5reset?$AA@ 10038fe0     libcpmt:syserror.obj
 0002:0000bff0       ??_C@_0BE@IFNCKGE@network?5unreachable?$AA@ 10038ff0     libcpmt:syserror.obj
 0002:0000c004       ??_C@_0BA@PFFCAOFK@no?5buffer?5space?$AA@ 10039004     libcpmt:syserror.obj
 0002:0000c014       ??_C@_0BB@IEPBLJHK@no?5child?5process?$AA@ 10039014     libcpmt:syserror.obj
 0002:0000c028       ??_C@_07PLECNNKG@no?5link?$AA@ 10039028     libcpmt:syserror.obj
 0002:0000c030       ??_C@_0BF@PBGGPKKE@no?5message?5available?$AA@ 10039030     libcpmt:syserror.obj
 0002:0000c048       ??_C@_0L@EDOLMPAK@no?5message?$AA@ 10039048     libcpmt:syserror.obj
 0002:0000c054       ??_C@_0BD@EAMBFIDF@no?5protocol?5option?$AA@ 10039054     libcpmt:syserror.obj
 0002:0000c068       ??_C@_0BE@MKFDAFMP@no?5stream?5resources?$AA@ 10039068     libcpmt:syserror.obj
 0002:0000c07c       ??_C@_0BK@IMCPHCBI@no?5such?5device?5or?5address?$AA@ 1003907c     libcpmt:syserror.obj
 0002:0000c098       ??_C@_0BA@ENLPPKBN@no?5such?5process?$AA@ 10039098     libcpmt:syserror.obj
 0002:0000c0a8       ??_C@_0BA@DOCPFFJG@not?5a?5directory?$AA@ 100390a8     libcpmt:syserror.obj
 0002:0000c0b8       ??_C@_0N@POEIPGGF@not?5a?5socket?$AA@ 100390b8     libcpmt:syserror.obj
 0002:0000c0c8       ??_C@_0N@LGAPMMPI@not?5a?5stream?$AA@ 100390c8     libcpmt:syserror.obj
 0002:0000c0d8       ??_C@_0O@GLMIBBEG@not?5connected?$AA@ 100390d8     libcpmt:syserror.obj
 0002:0000c0e8       ??_C@_0O@NHEDABJP@not?5supported?$AA@ 100390e8     libcpmt:syserror.obj
 0002:0000c0f8       ??_C@_0BG@KDKHOPCO@operation?5in?5progress?$AA@ 100390f8     libcpmt:syserror.obj
 0002:0000c110       ??_C@_0BI@OHIEJAAB@operation?5not?5permitted?$AA@ 10039110     libcpmt:syserror.obj
 0002:0000c128       ??_C@_0BI@LNEGIFLN@operation?5not?5supported?$AA@ 10039128     libcpmt:syserror.obj
 0002:0000c140       ??_C@_0BG@OEMDKMEE@operation?5would?5block?$AA@ 10039140     libcpmt:syserror.obj
 0002:0000c158       ??_C@_0L@BLPOFLNJ@owner?5dead?$AA@ 10039158     libcpmt:syserror.obj
 0002:0000c164       ??_C@_0P@FNPOCJBE@protocol?5error?$AA@ 10039164     libcpmt:syserror.obj
 0002:0000c174       ??_C@_0BH@JPPPLHJB@protocol?5not?5supported?$AA@ 10039174     libcpmt:syserror.obj
 0002:0000c18c       ??_C@_0BG@EICBIHDP@read?5only?5file?5system?$AA@ 1003918c     libcpmt:syserror.obj
 0002:0000c1a4       ??_C@_0BO@BJBOMOEJ@resource?5deadlock?5would?5occur?$AA@ 100391a4     libcpmt:syserror.obj
 0002:0000c1c4       ??_C@_0BE@GOIPJJHG@result?5out?5of?5range?$AA@ 100391c4     libcpmt:syserror.obj
 0002:0000c1d8       ??_C@_0BG@MPLKFPAE@state?5not?5recoverable?$AA@ 100391d8     libcpmt:syserror.obj
 0002:0000c1f0       ??_C@_0P@DIIFGFCG@stream?5timeout?$AA@ 100391f0     libcpmt:syserror.obj
 0002:0000c200       ??_C@_0P@IPFDMIFL@text?5file?5busy?$AA@ 10039200     libcpmt:syserror.obj
 0002:0000c210       ??_C@_09KJPPMAOI@timed?5out?$AA@ 10039210     libcpmt:syserror.obj
 0002:0000c21c       ??_C@_0BO@HACHBEKI@too?5many?5files?5open?5in?5system?$AA@ 1003921c     libcpmt:syserror.obj
 0002:0000c23c       ??_C@_0P@HCOMKFCC@too?5many?5links?$AA@ 1003923c     libcpmt:syserror.obj
 0002:0000c24c       ??_C@_0BO@EFGOJEF@too?5many?5symbolic?5link?5levels?$AA@ 1003924c     libcpmt:syserror.obj
 0002:0000c26c       ??_C@_0BA@KGKGOOJA@value?5too?5large?$AA@ 1003926c     libcpmt:syserror.obj
 0002:0000c27c       ??_C@_0BE@MIEJDDNH@wrong?5protocol?5type?$AA@ 1003927c     libcpmt:syserror.obj
 0002:0000c294       ??_7exception@boost@@6B@   10039294     libboost_thread-vc110-mt-s-1_52:thread.obj
 0002:0000c29c       ??_7clone_base@exception_detail@boost@@6B@ 1003929c     libboost_thread-vc110-mt-s-1_52:thread.obj
 0002:0000c2ac       ??_7bad_day_of_month@gregorian@boost@@6B@ 100392ac     libboost_thread-vc110-mt-s-1_52:thread.obj
 0002:0000c2b8       ??_7bad_year@gregorian@boost@@6B@ 100392b8     libboost_thread-vc110-mt-s-1_52:thread.obj
 0002:0000c2c4       ??_7bad_month@gregorian@boost@@6B@ 100392c4     libboost_thread-vc110-mt-s-1_52:thread.obj
 0002:0000c2d0       ??_7system_error@system@boost@@6B@ 100392d0     libboost_thread-vc110-mt-s-1_52:thread.obj
 0002:0000c2dc       ??_7thread_exception@boost@@6B@ 100392dc     libboost_thread-vc110-mt-s-1_52:thread.obj
 0002:0000c2e8       ??_7thread_resource_error@boost@@6B@ 100392e8     libboost_thread-vc110-mt-s-1_52:thread.obj
 0002:0000c2f4       ??_7thread_data_base@detail@boost@@6B@ 100392f4     libboost_thread-vc110-mt-s-1_52:thread.obj
 0002:0000c2fc       ?fixed_mutex_name@?1??name_once_mutex@detail@boost@@YAXPADPAX@Z@4QBDB 100392fc     libboost_thread-vc110-mt-s-1_52:thread.obj
 0002:0000c334       ??_C@_0CE@FBJAFPKL@boost?5thread?3?5trying?5joining?5its@ 10039334     libboost_thread-vc110-mt-s-1_52:thread.obj
 0002:0000c358       ??_C@_0CC@GBIDCBGJ@boost?5thread?3?5thread?5not?5joinabl@ 10039358     libboost_thread-vc110-mt-s-1_52:thread.obj
 0002:0000c380       ??_7?$error_info_injector@Vruntime_error@std@@@exception_detail@boost@@6Bruntime_error@std@@@ 10039380     libboost_thread-vc110-mt-s-1_52:thread.obj
 0002:0000c38c       ??_7?$error_info_injector@Vruntime_error@std@@@exception_detail@boost@@6Bexception@2@@ 1003938c     libboost_thread-vc110-mt-s-1_52:thread.obj
 0002:0000c394       ??_7?$clone_impl@U?$error_info_injector@Vruntime_error@std@@@exception_detail@boost@@@exception_detail@boost@@6Bruntime_error@std@@@ 10039394     libboost_thread-vc110-mt-s-1_52:thread.obj
 0002:0000c3a0       ??_7?$clone_impl@U?$error_info_injector@Vruntime_error@std@@@exception_detail@boost@@@exception_detail@boost@@6Bexception@2@@ 100393a0     libboost_thread-vc110-mt-s-1_52:thread.obj
 0002:0000c3a8       ??_7?$clone_impl@U?$error_info_injector@Vruntime_error@std@@@exception_detail@boost@@@exception_detail@boost@@6B@ 100393a8     libboost_thread-vc110-mt-s-1_52:thread.obj
 0002:0000c3b8       ??_7?$error_info_injector@Ubad_day_of_month@gregorian@boost@@@exception_detail@boost@@6Bbad_day_of_month@gregorian@2@@ 100393b8     libboost_thread-vc110-mt-s-1_52:thread.obj
 0002:0000c3c4       ??_7?$error_info_injector@Ubad_day_of_month@gregorian@boost@@@exception_detail@boost@@6Bexception@2@@ 100393c4     libboost_thread-vc110-mt-s-1_52:thread.obj
 0002:0000c3cc       ??_7?$clone_impl@U?$error_info_injector@Ubad_day_of_month@gregorian@boost@@@exception_detail@boost@@@exception_detail@boost@@6Bbad_day_of_month@gregorian@2@@ 100393cc     libboost_thread-vc110-mt-s-1_52:thread.obj
 0002:0000c3d8       ??_7?$clone_impl@U?$error_info_injector@Ubad_day_of_month@gregorian@boost@@@exception_detail@boost@@@exception_detail@boost@@6Bexception@2@@ 100393d8     libboost_thread-vc110-mt-s-1_52:thread.obj
 0002:0000c3e0       ??_7?$clone_impl@U?$error_info_injector@Ubad_day_of_month@gregorian@boost@@@exception_detail@boost@@@exception_detail@boost@@6B@ 100393e0     libboost_thread-vc110-mt-s-1_52:thread.obj
 0002:0000c3f0       ??_7?$error_info_injector@Vthread_resource_error@boost@@@exception_detail@boost@@6Bthread_resource_error@2@@ 100393f0     libboost_thread-vc110-mt-s-1_52:thread.obj
 0002:0000c3fc       ??_7?$error_info_injector@Vthread_resource_error@boost@@@exception_detail@boost@@6Bexception@2@@ 100393fc     libboost_thread-vc110-mt-s-1_52:thread.obj
 0002:0000c404       ??_7?$clone_impl@U?$error_info_injector@Vthread_resource_error@boost@@@exception_detail@boost@@@exception_detail@boost@@6Bthread_resource_error@2@@ 10039404     libboost_thread-vc110-mt-s-1_52:thread.obj
 0002:0000c410       ??_7?$clone_impl@U?$error_info_injector@Vthread_resource_error@boost@@@exception_detail@boost@@@exception_detail@boost@@6Bexception@2@@ 10039410     libboost_thread-vc110-mt-s-1_52:thread.obj
 0002:0000c418       ??_7?$clone_impl@U?$error_info_injector@Vthread_resource_error@boost@@@exception_detail@boost@@@exception_detail@boost@@6B@ 10039418     libboost_thread-vc110-mt-s-1_52:thread.obj
 0002:0000c428       ??_7?$error_info_injector@Vbad_alloc@std@@@exception_detail@boost@@6Bbad_alloc@std@@@ 10039428     libboost_thread-vc110-mt-s-1_52:thread.obj
 0002:0000c434       ??_7?$error_info_injector@Vbad_alloc@std@@@exception_detail@boost@@6Bexception@2@@ 10039434     libboost_thread-vc110-mt-s-1_52:thread.obj
 0002:0000c43c       ??_7?$clone_impl@U?$error_info_injector@Vbad_alloc@std@@@exception_detail@boost@@@exception_detail@boost@@6Bbad_alloc@std@@@ 1003943c     libboost_thread-vc110-mt-s-1_52:thread.obj
 0002:0000c448       ??_7?$clone_impl@U?$error_info_injector@Vbad_alloc@std@@@exception_detail@boost@@@exception_detail@boost@@6Bexception@2@@ 10039448     libboost_thread-vc110-mt-s-1_52:thread.obj
 0002:0000c450       ??_7?$clone_impl@U?$error_info_injector@Vbad_alloc@std@@@exception_detail@boost@@@exception_detail@boost@@6B@ 10039450     libboost_thread-vc110-mt-s-1_52:thread.obj
 0002:0000c460       ??_7?$error_info_injector@Ubad_year@gregorian@boost@@@exception_detail@boost@@6Bbad_year@gregorian@2@@ 10039460     libboost_thread-vc110-mt-s-1_52:thread.obj
 0002:0000c46c       ??_7?$error_info_injector@Ubad_year@gregorian@boost@@@exception_detail@boost@@6Bexception@2@@ 1003946c     libboost_thread-vc110-mt-s-1_52:thread.obj
 0002:0000c474       ??_7?$clone_impl@U?$error_info_injector@Ubad_year@gregorian@boost@@@exception_detail@boost@@@exception_detail@boost@@6Bbad_year@gregorian@2@@ 10039474     libboost_thread-vc110-mt-s-1_52:thread.obj
 0002:0000c480       ??_7?$clone_impl@U?$error_info_injector@Ubad_year@gregorian@boost@@@exception_detail@boost@@@exception_detail@boost@@6Bexception@2@@ 10039480     libboost_thread-vc110-mt-s-1_52:thread.obj
 0002:0000c488       ??_7?$clone_impl@U?$error_info_injector@Ubad_year@gregorian@boost@@@exception_detail@boost@@@exception_detail@boost@@6B@ 10039488     libboost_thread-vc110-mt-s-1_52:thread.obj
 0002:0000c498       ??_7?$error_info_injector@Ubad_month@gregorian@boost@@@exception_detail@boost@@6Bbad_month@gregorian@2@@ 10039498     libboost_thread-vc110-mt-s-1_52:thread.obj
 0002:0000c4a4       ??_7?$error_info_injector@Ubad_month@gregorian@boost@@@exception_detail@boost@@6Bexception@2@@ 100394a4     libboost_thread-vc110-mt-s-1_52:thread.obj
 0002:0000c4ac       ??_7?$clone_impl@U?$error_info_injector@Ubad_month@gregorian@boost@@@exception_detail@boost@@@exception_detail@boost@@6Bbad_month@gregorian@2@@ 100394ac     libboost_thread-vc110-mt-s-1_52:thread.obj
 0002:0000c4b8       ??_7?$clone_impl@U?$error_info_injector@Ubad_month@gregorian@boost@@@exception_detail@boost@@@exception_detail@boost@@6Bexception@2@@ 100394b8     libboost_thread-vc110-mt-s-1_52:thread.obj
 0002:0000c4c0       ??_7?$clone_impl@U?$error_info_injector@Ubad_month@gregorian@boost@@@exception_detail@boost@@@exception_detail@boost@@6B@ 100394c0     libboost_thread-vc110-mt-s-1_52:thread.obj
 0002:0000c4cc       __pRawDllMain              100394cc     libboost_thread-vc110-mt-s-1_52:tss_pe.obj
 0002:0000c4d4       ??_7error_category@system@boost@@6B@ 100394d4     libboost_system-vc110-mt-s-1_52:error_code.obj
 0002:0000c4f0       ??_7generic_error_category@?A0xe218785f@@6B@ 100394f0     libboost_system-vc110-mt-s-1_52:error_code.obj
 0002:0000c50c       ??_7system_error_category@?A0xe218785f@@6B@ 1003950c     libboost_system-vc110-mt-s-1_52:error_code.obj
 0002:0000c524       ??_C@_0O@NIPGCINC@Unknown?5error?$AA@ 10039524     libboost_system-vc110-mt-s-1_52:error_code.obj
 0002:0000c534       ??_C@_0N@PPOMPGGK@RoInitialize?$AA@ 10039534     LIBCMT:threadex.obj
 0002:0000c544       ??_C@_1BI@IDAOOPDH@?$AAc?$AAo?$AAm?$AAb?$AAa?$AAs?$AAe?$AA?4?$AAd?$AAl?$AAl?$AA?$AA@ 10039544     LIBCMT:threadex.obj
 0002:0000c55c       ??_C@_0P@LLFHBIJD@RoUninitialize?$AA@ 1003955c     LIBCMT:threadex.obj
 0002:0000c570       ??_C@_0EA@FCLIIPNN@Visual?5C?$CL?$CL?5CRT?3?5Not?5enough?5memor@ 10039570     LIBCMT:strerror.obj
 0002:0000c5b0       __pDestructExceptionObject 100395b0     LIBCMT:frame.obj
 0002:0000c5b8       ??_7bad_exception@std@@6B@ 100395b8     LIBCMT:frame.obj
 0002:0000c5c0       ??_C@_0O@DPKOEFFH@bad?5exception?$AA@ 100395c0     LIBCMT:frame.obj
 0002:0000c5d0       __sys_errlist              100395d0     LIBCMT:syserr.obj
 0002:0000c680       ??_C@_08INEPGKHH@No?5error?$AA@ 10039680     LIBCMT:syserr.obj
 0002:0000c68c       ??_C@_0BI@BJFCGOHL@Operation?5not?5permitted?$AA@ 1003968c     LIBCMT:syserr.obj
 0002:0000c6a4       ??_C@_0BK@FMDHKPNF@No?5such?5file?5or?5directory?$AA@ 100396a4     LIBCMT:syserr.obj
 0002:0000c6c0       ??_C@_0BA@FKIAIBGA@No?5such?5process?$AA@ 100396c0     LIBCMT:syserr.obj
 0002:0000c6d0       ??_C@_0BK@FJBOAFDK@Interrupted?5function?5call?$AA@ 100396d0     LIBCMT:syserr.obj
 0002:0000c6ec       ??_C@_0BD@KKNFOBBD@Input?1output?5error?$AA@ 100396ec     LIBCMT:syserr.obj
 0002:0000c700       ??_C@_0BK@DPKMCKJ@No?5such?5device?5or?5address?$AA@ 10039700     LIBCMT:syserr.obj
 0002:0000c71c       ??_C@_0BC@MFFGCDFL@Arg?5list?5too?5long?$AA@ 1003971c     LIBCMT:syserr.obj
 0002:0000c730       ??_C@_0BC@HKPNECK@Exec?5format?5error?$AA@ 10039730     LIBCMT:syserr.obj
 0002:0000c744       ??_C@_0BE@NFGDDCEF@Bad?5file?5descriptor?$AA@ 10039744     LIBCMT:syserr.obj
 0002:0000c758       ??_C@_0BD@LOHELEP@No?5child?5processes?$AA@ 10039758     LIBCMT:syserr.obj
 0002:0000c76c       ??_C@_0CB@EPFKGNAK@Resource?5temporarily?5unavailable@ 1003976c     LIBCMT:syserr.obj
 0002:0000c790       ??_C@_0BB@IMDKMPFB@Not?5enough?5space?$AA@ 10039790     LIBCMT:syserr.obj
 0002:0000c7a4       ??_C@_0BC@HFNFNKAI@Permission?5denied?$AA@ 100397a4     LIBCMT:syserr.obj
 0002:0000c7b8       ??_C@_0M@LOEHLCJD@Bad?5address?$AA@ 100397b8     LIBCMT:syserr.obj
 0002:0000c7c4       ??_C@_0BA@BIBLIOEK@Resource?5device?$AA@ 100397c4     LIBCMT:syserr.obj
 0002:0000c7d4       ??_C@_0M@NAAJNNGH@File?5exists?$AA@ 100397d4     LIBCMT:syserr.obj
 0002:0000c7e0       ??_C@_0O@OAMDNOCP@Improper?5link?$AA@ 100397e0     LIBCMT:syserr.obj
 0002:0000c7f0       ??_C@_0P@NLEIANHE@No?5such?5device?$AA@ 100397f0     LIBCMT:syserr.obj
 0002:0000c800       ??_C@_0BA@CJBACOOL@Not?5a?5directory?$AA@ 10039800     LIBCMT:syserr.obj
 0002:0000c810       ??_C@_0P@NDHGCGKE@Is?5a?5directory?$AA@ 10039810     LIBCMT:syserr.obj
 0002:0000c820       ??_C@_0BB@HMGGCEBG@Invalid?5argument?$AA@ 10039820     LIBCMT:syserr.obj
 0002:0000c834       ??_C@_0BO@IIFBODJE@Too?5many?5open?5files?5in?5system?$AA@ 10039834     LIBCMT:syserr.obj
 0002:0000c854       ??_C@_0BE@INBJMKGG@Too?5many?5open?5files?$AA@ 10039854     LIBCMT:syserr.obj
 0002:0000c868       ??_C@_0CE@ONOKNLPF@Inappropriate?5I?1O?5control?5operat@ 10039868     LIBCMT:syserr.obj
 0002:0000c88c       ??_C@_0P@LFMMIPAE@File?5too?5large?$AA@ 1003988c     LIBCMT:syserr.obj
 0002:0000c89c       ??_C@_0BI@FEALHKLD@No?5space?5left?5on?5device?$AA@ 1003989c     LIBCMT:syserr.obj
 0002:0000c8b4       ??_C@_0N@FEHLOILP@Invalid?5seek?$AA@ 100398b4     LIBCMT:syserr.obj
 0002:0000c8c4       ??_C@_0BG@DDBFNKBH@Read?9only?5file?5system?$AA@ 100398c4     LIBCMT:syserr.obj
 0002:0000c8dc       ??_C@_0P@PKCJJLLM@Too?5many?5links?$AA@ 100398dc     LIBCMT:syserr.obj
 0002:0000c8ec       ??_C@_0M@LHEPIIOM@Broken?5pipe?$AA@ 100398ec     LIBCMT:syserr.obj
 0002:0000c8f8       ??_C@_0N@MMJPGLJK@Domain?5error?$AA@ 100398f8     LIBCMT:syserr.obj
 0002:0000c908       ??_C@_0BB@FCBJFCAJ@Result?5too?5large?$AA@ 10039908     LIBCMT:syserr.obj
 0002:0000c91c       ??_C@_0BK@JAEBMJJM@Resource?5deadlock?5avoided?$AA@ 1003991c     LIBCMT:syserr.obj
 0002:0000c938       ??_C@_0BC@BEDIHIDK@Filename?5too?5long?$AA@ 10039938     LIBCMT:syserr.obj
 0002:0000c94c       ??_C@_0BD@CLHBCGPB@No?5locks?5available?$AA@ 1003994c     LIBCMT:syserr.obj
 0002:0000c960       ??_C@_0BJ@IHEHINLI@Function?5not?5implemented?$AA@ 10039960     LIBCMT:syserr.obj
 0002:0000c97c       ??_C@_0BE@ICMCHPHH@Directory?5not?5empty?$AA@ 1003997c     LIBCMT:syserr.obj
 0002:0000c990       ??_C@_0BG@KLEAJEFJ@Illegal?5byte?5sequence?$AA@ 10039990     LIBCMT:syserr.obj
 0002:0000d874       ??_C@_0BM@PAPJHAGI@invalid?5map?1set?$DMT?$DO?5iterator?$AA@ 1003a874     ILuaModuleManager.obj
 0002:0000d890       ??_C@_0BE@JONHPENG@map?1set?$DMT?$DO?5too?5long?$AA@ 1003a890     ILuaModuleManager.obj
 0002:0000d8a4       ??_C@_07DCLBNMLN@generic?$AA@ 1003a8a4     ILuaObject.obj
 0002:0000d8ac       ??_C@_0O@BFJCFAAK@unknown?5error?$AA@ 1003a8ac     ILuaObject.obj
 0002:0000d8bc       ??_C@_08LLGCOLLL@iostream?$AA@ 1003a8bc     ILuaObject.obj
 0002:0000d8c8       ??_C@_0BG@PADBLCHM@iostream?5stream?5error?$AA@ 1003a8c8     ILuaObject.obj
 0002:0000d8e0       ??_C@_06FHFOAHML@system?$AA@ 1003a8e0     ILuaObject.obj
 0002:0000d8e8       ??_C@_0BI@CFPLBAOH@invalid?5string?5position?$AA@ 1003a8e8     ILuaObject.obj
 0002:0000d900       ??_C@_0BA@JFNIOLAK@string?5too?5long?$AA@ 1003a900     ILuaObject.obj
 0002:0000d910       ??_C@_0CM@DGIADEHE@could?5not?5convert?5calendar?5time?5@ 1003a910     main.obj
 0002:0000d93c       ??_C@_0CJ@PIMMHAJE@Day?5of?5month?5value?5is?5out?5of?5ran@ 1003a93c     main.obj
 0002:0000d968       ??_C@_0CI@JOBANGKK@Year?5is?5out?5of?5valid?5range?3?51400@ 1003a968     main.obj
 0002:0000d990       ??_C@_0CD@FBNLMBFL@Month?5number?5is?5out?5of?5range?51?4?4@ 1003a990     main.obj
 0002:0000d9b4       ??_C@_0CD@EKHKOMOM@Day?5of?5month?5is?5not?5valid?5for?5ye@ 1003a9b4     main.obj
 0002:0000d9d8       ??_8?$clone_impl@U?$error_info_injector@Ubad_month@gregorian@boost@@@exception_detail@boost@@@exception_detail@boost@@7B@ 1003a9d8     main.obj
 0002:0000d9d8       ??_8?$clone_impl@U?$error_info_injector@Ubad_year@gregorian@boost@@@exception_detail@boost@@@exception_detail@boost@@7B@ 1003a9d8     main.obj
 0002:0000d9d8       ??_8?$clone_impl@U?$error_info_injector@Ubad_day_of_month@gregorian@boost@@@exception_detail@boost@@@exception_detail@boost@@7B@ 1003a9d8     main.obj
 0002:0000d9d8       ??_8?$clone_impl@U?$error_info_injector@Vruntime_error@std@@@exception_detail@boost@@@exception_detail@boost@@7B@ 1003a9d8     main.obj
 0002:0000d9d8       ??_8?$clone_impl@U?$error_info_injector@Vbad_alloc@std@@@exception_detail@boost@@@exception_detail@boost@@7B@ 1003a9d8     nav.obj
 0002:0000d9e4       ??_7?$thread_data@V?$bind_t@XV?$mf3@XVNav@@PAUJobInfo_t@@PAVNode@@PAV3@@_mfi@boost@@V?$list4@V?$value@PAVNav@@@_bi@boost@@V?$value@PAUJobInfo_t@@@23@V?$value@PAVNode@@@23@V523@@_bi@3@@_bi@boost@@@detail@boost@@6B@ 1003a9e4     nav.obj
 0002:0000d9f0       ??_7GMOD_TraceFilter@@6B@  1003a9f0     nav.obj
 0002:0000d9fc       ??_7ITraceFilter@@6B@      1003a9fc     nav.obj
 0002:0000da08       ??_7CTraceFilter@@6B@      1003aa08     nav.obj
 0002:0000da10       ??_8?$clone_impl@U?$error_info_injector@Vthread_resource_error@boost@@@exception_detail@boost@@@exception_detail@boost@@7B@ 1003aa10     nav.obj
 0002:0000da1c       ??_7?$thread_data@V?$bind_t@XV?$mf1@XVNav@@PA_N@_mfi@boost@@V?$list2@V?$value@PAVNav@@@_bi@boost@@V?$value@PA_N@23@@_bi@3@@_bi@boost@@@detail@boost@@6B@ 1003aa1c     nav.obj
 0002:0000da24       ?npos@?$basic_string@DU?$char_traits@D@std@@V?$allocator@D@2@@std@@2IB 1003aa24     nav.obj
 0002:0000da28       ??_C@_0P@GHFPNOJB@bad?5allocation?$AA@ 1003aa28     nav.obj
 0002:0000da38       ??_C@_02DPKJAMEF@?$CFd?$AA@ 1003aa38     nav.obj
 0002:0000da3c       ??_C@_02LMMGGCAJ@?3?5?$AA@ 1003aa3c     nav.obj
 0002:0000da40       ??_C@_0BN@BEPNICCK@boost?3?3thread_resource_error?$AA@ 1003aa40     nav.obj
 0002:0000da60       ??_C@_02NJPGOMH@?$CFf?$AA@ 1003aa60     nav.obj
 0002:0000da64       __real@00000000            1003aa64     ILuaInterface.obj
 0002:0000da68       __real@0000000000000000    1003aa68     ILuaInterface.obj
 0002:0000da70       __real@3c23d70a            1003aa70     ILuaInterface.obj
 0002:0000da74       __real@3dcccccd            1003aa74     ILuaInterface.obj
 0002:0000da78       __real@3eb0c6f7a0b5ed8d    1003aa78     ILuaInterface.obj
 0002:0000da80       __real@3ee66666            1003aa80     ILuaInterface.obj
 0002:0000da84       __real@3f000000            1003aa84     ILuaInterface.obj
 0002:0000da88       __real@3f800000            1003aa88     ILuaInterface.obj
 0002:0000da90       __real@3fe4cccccccccccd    1003aa90     ILuaInterface.obj
 0002:0000da98       __real@3ff0000000000000    1003aa98     ILuaInterface.obj
 0002:0000daa0       __real@40000000            1003aaa0     ILuaInterface.obj
 0002:0000daa8       __real@4000000000000000    1003aaa8     ILuaInterface.obj
 0002:0000dab0       __real@4008000000000000    1003aab0     ILuaInterface.obj
 0002:0000dab8       __real@4010000000000000    1003aab8     ILuaInterface.obj
 0002:0000dac0       __real@4014000000000000    1003aac0     ILuaInterface.obj
 0002:0000dac8       __real@4018000000000000    1003aac8     ILuaInterface.obj
 0002:0000dad0       __real@401c000000000000    1003aad0     ILuaInterface.obj
 0002:0000dad8       __real@4020000000000000    1003aad8     ILuaInterface.obj
 0002:0000dae0       __real@4022000000000000    1003aae0     ILuaInterface.obj
 0002:0000dae8       __real@4024000000000000    1003aae8     ILuaInterface.obj
 0002:0000daf0       __real@4026000000000000    1003aaf0     ILuaInterface.obj
 0002:0000daf8       __real@4028000000000000    1003aaf8     ILuaInterface.obj
 0002:0000db00       __real@402a000000000000    1003ab00     ILuaInterface.obj
 0002:0000db08       __real@402c000000000000    1003ab08     ILuaInterface.obj
 0002:0000db10       __real@41200000            1003ab10     ILuaInterface.obj
 0002:0000db14       __real@42c80000            1003ab14     ILuaInterface.obj
 0002:0000db18       __real@461c3f9a            1003ab18     ILuaInterface.obj
 0002:0000db1c       __real@7f7fffff            1003ab1c     ILuaInterface.obj
 0002:0000db20       __real@bf800000            1003ab20     ILuaInterface.obj
 0002:0000db30       __xmm@7fffffffffffffff7fffffffffffffff 1003ab30     ILuaInterface.obj
 0002:0000db40       __xmm@80000000800000008000000080000000 1003ab40     ILuaInterface.obj
 0002:0000db50       __load_config_used         1003ab50     LIBCMT:loadcfg.obj
 0002:0000db98       __tls_used                 1003ab98     LIBCMT:tlssup.obj
 0002:0000dc3c       ??_R4CUtlCharConversion@@6B@ 1003ac3c     tier1:utlbuffer.obj
 0002:0000dc50       ??_R3CUtlCharConversion@@8 1003ac50     tier1:utlbuffer.obj
 0002:0000dc60       ??_R2CUtlCharConversion@@8 1003ac60     tier1:utlbuffer.obj
 0002:0000dc68       ??_R1A@?0A@EA@CUtlCharConversion@@8 1003ac68     tier1:utlbuffer.obj
 0002:0000dc84       ??_R4CUtlNoEscConversion@@6B@ 1003ac84     tier1:utlbuffer.obj
 0002:0000dc98       ??_R3CUtlNoEscConversion@@8 1003ac98     tier1:utlbuffer.obj
 0002:0000dca8       ??_R2CUtlNoEscConversion@@8 1003aca8     tier1:utlbuffer.obj
 0002:0000dcb4       ??_R1A@?0A@EA@CUtlNoEscConversion@@8 1003acb4     tier1:utlbuffer.obj
 0002:0000dcd0       ??_R4CUtlCStringConversion@@6B@ 1003acd0     tier1:utlbuffer.obj
 0002:0000dce4       ??_R3CUtlCStringConversion@@8 1003ace4     tier1:utlbuffer.obj
 0002:0000dcf4       ??_R2CUtlCStringConversion@@8 1003acf4     tier1:utlbuffer.obj
 0002:0000dd00       ??_R1A@?0A@EA@CUtlCStringConversion@@8 1003ad00     tier1:utlbuffer.obj
 0002:0000dd1c       ??_R4type_info@@6B@        1003ad1c     LIBCMT:typinfo.obj
 0002:0000dd30       ??_R3type_info@@8          1003ad30     LIBCMT:typinfo.obj
 0002:0000dd40       ??_R2type_info@@8          1003ad40     LIBCMT:typinfo.obj
 0002:0000dd48       ??_R1A@?0A@EA@type_info@@8 1003ad48     LIBCMT:typinfo.obj
 0002:0000dd64       ??_R4exception@std@@6B@    1003ad64     LIBCMT:stdexcpt.obj
 0002:0000dd78       ??_R4length_error@std@@6B@ 1003ad78     libcpmt:xthrow.obj
 0002:0000dd8c       ??_R3length_error@std@@8   1003ad8c     libcpmt:xthrow.obj
 0002:0000dd9c       ??_R2length_error@std@@8   1003ad9c     libcpmt:xthrow.obj
 0002:0000ddac       ??_R1A@?0A@EA@length_error@std@@8 1003adac     libcpmt:xthrow.obj
 0002:0000ddc8       ??_R4error_category@system@boost@@6B@ 1003adc8     libboost_system-vc110-mt-s-1_52:error_code.obj
 0002:0000dddc       ??_R3error_category@system@boost@@8 1003addc     libboost_system-vc110-mt-s-1_52:error_code.obj
 0002:0000ddec       ??_R2error_category@system@boost@@8 1003adec     libboost_system-vc110-mt-s-1_52:error_code.obj
 0002:0000ddf8       ??_R1A@?0A@EA@error_category@system@boost@@8 1003adf8     libboost_system-vc110-mt-s-1_52:error_code.obj
 0002:0000de14       ??_R13?0A@EA@noncopyable@noncopyable_@boost@@8 1003ae14     libboost_system-vc110-mt-s-1_52:error_code.obj
 0002:0000de30       ??_R3noncopyable@noncopyable_@boost@@8 1003ae30     libboost_system-vc110-mt-s-1_52:error_code.obj
 0002:0000de40       ??_R2noncopyable@noncopyable_@boost@@8 1003ae40     libboost_system-vc110-mt-s-1_52:error_code.obj
 0002:0000de48       ??_R1A@?0A@EA@noncopyable@noncopyable_@boost@@8 1003ae48     libboost_system-vc110-mt-s-1_52:error_code.obj
 0002:0000de64       ??_R4generic_error_category@?A0xe218785f@@6B@ 1003ae64     libboost_system-vc110-mt-s-1_52:error_code.obj
 0002:0000de78       ??_R3generic_error_category@?A0xe218785f@@8 1003ae78     libboost_system-vc110-mt-s-1_52:error_code.obj
 0002:0000de88       ??_R2generic_error_category@?A0xe218785f@@8 1003ae88     libboost_system-vc110-mt-s-1_52:error_code.obj
 0002:0000de98       ??_R1A@?0A@EA@generic_error_category@?A0xe218785f@@8 1003ae98     libboost_system-vc110-mt-s-1_52:error_code.obj
 0002:0000deb4       ??_R4system_error_category@?A0xe218785f@@6B@ 1003aeb4     libboost_system-vc110-mt-s-1_52:error_code.obj
 0002:0000dec8       ??_R3system_error_category@?A0xe218785f@@8 1003aec8     libboost_system-vc110-mt-s-1_52:error_code.obj
 0002:0000ded8       ??_R2system_error_category@?A0xe218785f@@8 1003aed8     libboost_system-vc110-mt-s-1_52:error_code.obj
 0002:0000dee8       ??_R1A@?0A@EA@system_error_category@?A0xe218785f@@8 1003aee8     libboost_system-vc110-mt-s-1_52:error_code.obj
 0002:0000df04       ??_R4bad_exception@std@@6B@ 1003af04     LIBCMT:frame.obj
 0002:0000df18       ??_R3bad_exception@std@@8  1003af18     LIBCMT:frame.obj
 0002:0000df28       ??_R2bad_exception@std@@8  1003af28     LIBCMT:frame.obj
 0002:0000df34       ??_R1A@?0A@EA@bad_exception@std@@8 1003af34     LIBCMT:frame.obj
 0002:0000df50       ??_R3error_category@std@@8 1003af50     ILuaObject.obj
 0002:0000df60       ??_R1A@?0A@EA@error_category@std@@8 1003af60     ILuaObject.obj
 0002:0000df7c       ??_R3_System_error_category@std@@8 1003af7c     ILuaObject.obj
 0002:0000df8c       ??_R2_System_error_category@std@@8 1003af8c     ILuaObject.obj
 0002:0000df9c       ??_R4_Generic_error_category@std@@6B@ 1003af9c     ILuaObject.obj
 0002:0000dfb0       ??_R1A@?0A@EA@_Generic_error_category@std@@8 1003afb0     ILuaObject.obj
 0002:0000dfcc       ??_R1A@?0A@EA@_Iostream_error_category@std@@8 1003afcc     ILuaObject.obj
 0002:0000dfe8       ??_R4error_category@std@@6B@ 1003afe8     ILuaObject.obj
 0002:0000dffc       ??_R4_Iostream_error_category@std@@6B@ 1003affc     ILuaObject.obj
 0002:0000e010       ??_R2error_category@std@@8 1003b010     ILuaObject.obj
 0002:0000e018       ??_R1A@?0A@EA@_System_error_category@std@@8 1003b018     ILuaObject.obj
 0002:0000e034       ??_R3_Iostream_error_category@std@@8 1003b034     ILuaObject.obj
 0002:0000e044       ??_R4_System_error_category@std@@6B@ 1003b044     ILuaObject.obj
 0002:0000e058       ??_R2_Generic_error_category@std@@8 1003b058     ILuaObject.obj
 0002:0000e064       ??_R3_Generic_error_category@std@@8 1003b064     ILuaObject.obj
 0002:0000e074       ??_R2_Iostream_error_category@std@@8 1003b074     ILuaObject.obj
 0002:0000e084       ??_R4out_of_range@std@@6B@ 1003b084     main.obj
 0002:0000e098       ??_R2?$clone_impl@U?$error_info_injector@Ubad_month@gregorian@boost@@@exception_detail@boost@@@exception_detail@boost@@8 1003b098     main.obj
 0002:0000e0bc       ??_R4?$clone_impl@U?$error_info_injector@Ubad_month@gregorian@boost@@@exception_detail@boost@@@exception_detail@boost@@6Bbad_month@gregorian@2@@ 1003b0bc     main.obj
 0002:0000e0d0       ??_R2?$clone_impl@U?$error_info_injector@Ubad_day_of_month@gregorian@boost@@@exception_detail@boost@@@exception_detail@boost@@8 1003b0d0     main.obj
 0002:0000e0f4       ??_R1A@?0A@EA@?$clone_impl@U?$error_info_injector@Vruntime_error@std@@@exception_detail@boost@@@exception_detail@boost@@8 1003b0f4     main.obj
 0002:0000e110       ??_R4bad_day_of_month@gregorian@boost@@6B@ 1003b110     main.obj
 0002:0000e124       ??_R3exception@boost@@8    1003b124     main.obj
 0002:0000e134       ??_R1A@?0A@EA@?$error_info_injector@Ubad_day_of_month@gregorian@boost@@@exception_detail@boost@@8 1003b134     main.obj
 0002:0000e150       ??_R1A@?0A@EA@exception@std@@8 1003b150     main.obj
 0002:0000e16c       ??_R1A@?0A@EA@logic_error@std@@8 1003b16c     main.obj
 0002:0000e188       ??_R4bad_year@gregorian@boost@@6B@ 1003b188     main.obj
 0002:0000e19c       ??_R2runtime_error@std@@8  1003b19c     main.obj
 0002:0000e1a8       ??_R4?$clone_impl@U?$error_info_injector@Ubad_year@gregorian@boost@@@exception_detail@boost@@@exception_detail@boost@@6Bbad_year@gregorian@2@@ 1003b1a8     main.obj
 0002:0000e1bc       ??_R1A@?0A@EA@bad_day_of_month@gregorian@boost@@8 1003b1bc     main.obj
 0002:0000e1d8       ??_R2?$error_info_injector@Ubad_year@gregorian@boost@@@exception_detail@boost@@8 1003b1d8     main.obj
 0002:0000e1f4       ??_R4?$error_info_injector@Ubad_month@gregorian@boost@@@exception_detail@boost@@6Bbad_month@gregorian@2@@ 1003b1f4     main.obj
 0002:0000e208       ??_R3?$clone_impl@U?$error_info_injector@Ubad_month@gregorian@boost@@@exception_detail@boost@@@exception_detail@boost@@8 1003b208     main.obj
 0002:0000e218       ??_R4?$clone_impl@U?$error_info_injector@Vruntime_error@std@@@exception_detail@boost@@@exception_detail@boost@@6B@ 1003b218     main.obj
 0002:0000e22c       ??_R4?$error_info_injector@Vruntime_error@std@@@exception_detail@boost@@6Bexception@2@@ 1003b22c     main.obj
 0002:0000e240       ??_R1A@?0A@EA@?$clone_impl@U?$error_info_injector@Ubad_month@gregorian@boost@@@exception_detail@boost@@@exception_detail@boost@@8 1003b240     main.obj
 0002:0000e25c       ??_R4?$error_info_injector@Vruntime_error@std@@@exception_detail@boost@@6Bruntime_error@std@@@ 1003b25c     main.obj
 0002:0000e270       ??_R2out_of_range@std@@8   1003b270     main.obj
 0002:0000e280       ??_R4?$clone_impl@U?$error_info_injector@Ubad_month@gregorian@boost@@@exception_detail@boost@@@exception_detail@boost@@6Bexception@2@@ 1003b280     main.obj
 0002:0000e294       ??_R4?$clone_impl@U?$error_info_injector@Ubad_month@gregorian@boost@@@exception_detail@boost@@@exception_detail@boost@@6B@ 1003b294     main.obj
 0002:0000e2a8       ??_R1A@?0A@EA@?$clone_impl@U?$error_info_injector@Ubad_year@gregorian@boost@@@exception_detail@boost@@@exception_detail@boost@@8 1003b2a8     main.obj
 0002:0000e2c4       ??_R3bad_day_of_month@gregorian@boost@@8 1003b2c4     main.obj
 0002:0000e2d4       ??_R2?$clone_impl@U?$error_info_injector@Vruntime_error@std@@@exception_detail@boost@@@exception_detail@boost@@8 1003b2d4     main.obj
 0002:0000e2f0       ??_R3?$error_info_injector@Vruntime_error@std@@@exception_detail@boost@@8 1003b2f0     main.obj
 0002:0000e300       ??_R1A@CA@3FA@clone_base@exception_detail@boost@@8 1003b300     main.obj
 0002:0000e31c       ??_R3runtime_error@std@@8  1003b31c     main.obj
 0002:0000e32c       ??_R3?$clone_impl@U?$error_info_injector@Ubad_year@gregorian@boost@@@exception_detail@boost@@@exception_detail@boost@@8 1003b32c     main.obj
 0002:0000e33c       ??_R4?$error_info_injector@Ubad_day_of_month@gregorian@boost@@@exception_detail@boost@@6Bexception@2@@ 1003b33c     main.obj
 0002:0000e350       ??_R1M@?0A@EA@exception@boost@@8 1003b350     main.obj
 0002:0000e36c       ??_R1A@?0A@EA@?$error_info_injector@Ubad_month@gregorian@boost@@@exception_detail@boost@@8 1003b36c     main.obj
 0002:0000e388       ??_R4clone_base@exception_detail@boost@@6B@ 1003b388     main.obj
 0002:0000e39c       ??_R1A@?0A@EA@bad_year@gregorian@boost@@8 1003b39c     main.obj
 0002:0000e3b8       ??_R2?$error_info_injector@Vruntime_error@std@@@exception_detail@boost@@8 1003b3b8     main.obj
 0002:0000e3cc       ??_R3?$error_info_injector@Ubad_month@gregorian@boost@@@exception_detail@boost@@8 1003b3cc     main.obj
 0002:0000e3dc       ??_R4?$clone_impl@U?$error_info_injector@Ubad_day_of_month@gregorian@boost@@@exception_detail@boost@@@exception_detail@boost@@6Bexception@2@@ 1003b3dc     main.obj
 0002:0000e3f0       ??_R1A@?0A@EA@bad_month@gregorian@boost@@8 1003b3f0     main.obj
 0002:0000e40c       ??_R2?$error_info_injector@Ubad_day_of_month@gregorian@boost@@@exception_detail@boost@@8 1003b40c     main.obj
 0002:0000e428       ??_R3bad_month@gregorian@boost@@8 1003b428     main.obj
 0002:0000e438       ??_R4?$error_info_injector@Ubad_year@gregorian@boost@@@exception_detail@boost@@6Bbad_year@gregorian@2@@ 1003b438     main.obj
 0002:0000e44c       ??_R3bad_year@gregorian@boost@@8 1003b44c     main.obj
 0002:0000e45c       ??_R4?$clone_impl@U?$error_info_injector@Ubad_year@gregorian@boost@@@exception_detail@boost@@@exception_detail@boost@@6Bexception@2@@ 1003b45c     main.obj
 0002:0000e470       ??_R1A@?0A@EA@?$error_info_injector@Vruntime_error@std@@@exception_detail@boost@@8 1003b470     main.obj
 0002:0000e48c       ??_R3?$error_info_injector@Ubad_day_of_month@gregorian@boost@@@exception_detail@boost@@8 1003b48c     main.obj
 0002:0000e49c       ??_R4bad_month@gregorian@boost@@6B@ 1003b49c     main.obj
 0002:0000e4b0       ??_R4logic_error@std@@6B@  1003b4b0     main.obj
 0002:0000e4c4       ??_R2clone_base@exception_detail@boost@@8 1003b4c4     main.obj
 0002:0000e4cc       ??_R4?$error_info_injector@Ubad_month@gregorian@boost@@@exception_detail@boost@@6Bexception@2@@ 1003b4cc     main.obj
 0002:0000e4e0       ??_R4?$clone_impl@U?$error_info_injector@Ubad_day_of_month@gregorian@boost@@@exception_detail@boost@@@exception_detail@boost@@6Bbad_day_of_month@gregorian@2@@ 1003b4e0     main.obj
 0002:0000e4f4       ??_R2exception@std@@8      1003b4f4     main.obj
 0002:0000e4fc       ??_R1A@?0A@EA@runtime_error@std@@8 1003b4fc     main.obj
 0002:0000e518       ??_R4exception@boost@@6B@  1003b518     main.obj
 0002:0000e52c       ??_R3exception@std@@8      1003b52c     main.obj
 0002:0000e53c       ??_R3out_of_range@std@@8   1003b53c     main.obj
 0002:0000e54c       ??_R3?$clone_impl@U?$error_info_injector@Ubad_day_of_month@gregorian@boost@@@exception_detail@boost@@@exception_detail@boost@@8 1003b54c     main.obj
 0002:0000e55c       ??_R2logic_error@std@@8    1003b55c     main.obj
 0002:0000e568       ??_R4?$clone_impl@U?$error_info_injector@Vruntime_error@std@@@exception_detail@boost@@@exception_detail@boost@@6Bruntime_error@std@@@ 1003b568     main.obj
 0002:0000e57c       ??_R3logic_error@std@@8    1003b57c     main.obj
 0002:0000e58c       ??_R1A@?0A@EA@?$error_info_injector@Ubad_year@gregorian@boost@@@exception_detail@boost@@8 1003b58c     main.obj
 0002:0000e5a8       ??_R2?$error_info_injector@Ubad_month@gregorian@boost@@@exception_detail@boost@@8 1003b5a8     main.obj
 0002:0000e5c4       ??_R3clone_base@exception_detail@boost@@8 1003b5c4     main.obj
 0002:0000e5d4       ??_R4?$error_info_injector@Ubad_year@gregorian@boost@@@exception_detail@boost@@6Bexception@2@@ 1003b5d4     main.obj
 0002:0000e5e8       ??_R4?$clone_impl@U?$error_info_injector@Ubad_year@gregorian@boost@@@exception_detail@boost@@@exception_detail@boost@@6B@ 1003b5e8     main.obj
 0002:0000e5fc       ??_R1A@?0A@EA@?$clone_impl@U?$error_info_injector@Ubad_day_of_month@gregorian@boost@@@exception_detail@boost@@@exception_detail@boost@@8 1003b5fc     main.obj
 0002:0000e618       ??_R2exception@boost@@8    1003b618     main.obj
 0002:0000e620       ??_R2?$clone_impl@U?$error_info_injector@Ubad_year@gregorian@boost@@@exception_detail@boost@@@exception_detail@boost@@8 1003b620     main.obj
 0002:0000e644       ??_R3?$clone_impl@U?$error_info_injector@Vruntime_error@std@@@exception_detail@boost@@@exception_detail@boost@@8 1003b644     main.obj
 0002:0000e654       ??_R1A@?0A@EA@clone_base@exception_detail@boost@@8 1003b654     main.obj
 0002:0000e670       ??_R4?$error_info_injector@Ubad_day_of_month@gregorian@boost@@@exception_detail@boost@@6Bbad_day_of_month@gregorian@2@@ 1003b670     main.obj
 0002:0000e684       ??_R2bad_day_of_month@gregorian@boost@@8 1003b684     main.obj
 0002:0000e698       ??_R4?$clone_impl@U?$error_info_injector@Vruntime_error@std@@@exception_detail@boost@@@exception_detail@boost@@6Bexception@2@@ 1003b698     main.obj
 0002:0000e6ac       ??_R2bad_year@gregorian@boost@@8 1003b6ac     main.obj
 0002:0000e6c0       ??_R1A@?0A@EA@exception@boost@@8 1003b6c0     main.obj
 0002:0000e6dc       ??_R2bad_month@gregorian@boost@@8 1003b6dc     main.obj
 0002:0000e6f0       ??_R3?$error_info_injector@Ubad_year@gregorian@boost@@@exception_detail@boost@@8 1003b6f0     main.obj
 0002:0000e700       ??_R4?$clone_impl@U?$error_info_injector@Ubad_day_of_month@gregorian@boost@@@exception_detail@boost@@@exception_detail@boost@@6B@ 1003b700     main.obj
 0002:0000e714       ??_R4runtime_error@std@@6B@ 1003b714     main.obj
 0002:0000e728       ??_R1A@?0A@EA@out_of_range@std@@8 1003b728     main.obj
 0002:0000e744       ??_R2thread_exception@boost@@8 1003b744     nav.obj
 0002:0000e758       ??_R4?$error_info_injector@Vthread_resource_error@boost@@@exception_detail@boost@@6Bthread_resource_error@2@@ 1003b758     nav.obj
 0002:0000e76c       ??_R1A@?0A@EA@ITraceFilter@@8 1003b76c     nav.obj
 0002:0000e788       ??_R1A@?0A@EA@CTraceFilter@@8 1003b788     nav.obj
 0002:0000e7a4       ??_R3?$clone_impl@U?$error_info_injector@Vthread_resource_error@boost@@@exception_detail@boost@@@exception_detail@boost@@8 1003b7a4     nav.obj
 0002:0000e7b4       ??_R4GMOD_TraceFilter@@6B@ 1003b7b4     nav.obj
 0002:0000e7c8       ??_R2?$error_info_injector@Vthread_resource_error@boost@@@exception_detail@boost@@8 1003b7c8     nav.obj
 0002:0000e7e8       ??_R4thread_data_base@detail@boost@@6B@ 1003b7e8     nav.obj
 0002:0000e7fc       ??_R2?$thread_data@V?$bind_t@XV?$mf3@XVNav@@PAUJobInfo_t@@PAVNode@@PAV3@@_mfi@boost@@V?$list4@V?$value@PAVNav@@@_bi@boost@@V?$value@PAUJobInfo_t@@@23@V?$value@PAVNode@@@23@V523@@_bi@3@@_bi@boost@@@detail@boost@@8 1003b7fc     nav.obj
 0002:0000e808       ??_R4CTraceFilter@@6B@     1003b808     nav.obj
 0002:0000e81c       ??_R3?$thread_data@V?$bind_t@XV?$mf3@XVNav@@PAUJobInfo_t@@PAVNode@@PAV3@@_mfi@boost@@V?$list4@V?$value@PAVNav@@@_bi@boost@@V?$value@PAUJobInfo_t@@@23@V?$value@PAVNode@@@23@V523@@_bi@3@@_bi@boost@@@detail@boost@@8 1003b81c     nav.obj
 0002:0000e82c       ??_R3system_error@system@boost@@8 1003b82c     nav.obj
 0002:0000e83c       ??_R4?$thread_data@V?$bind_t@XV?$mf1@XVNav@@PA_N@_mfi@boost@@V?$list2@V?$value@PAVNav@@@_bi@boost@@V?$value@PA_N@23@@_bi@3@@_bi@boost@@@detail@boost@@6B@ 1003b83c     nav.obj
 0002:0000e850       ??_R4?$clone_impl@U?$error_info_injector@Vbad_alloc@std@@@exception_detail@boost@@@exception_detail@boost@@6B@ 1003b850     nav.obj
 0002:0000e864       ??_R1A@?0A@EA@?$error_info_injector@Vthread_resource_error@boost@@@exception_detail@boost@@8 1003b864     nav.obj
 0002:0000e880       ??_R4?$clone_impl@U?$error_info_injector@Vthread_resource_error@boost@@@exception_detail@boost@@@exception_detail@boost@@6B@ 1003b880     nav.obj
 0002:0000e894       ??_R2bad_alloc@std@@8      1003b894     nav.obj
 0002:0000e8a0       ??_R1A@?0A@EA@bad_alloc@std@@8 1003b8a0     nav.obj
 0002:0000e8bc       ??_R3?$error_info_injector@Vthread_resource_error@boost@@@exception_detail@boost@@8 1003b8bc     nav.obj
 0002:0000e8cc       ??_R4?$error_info_injector@Vbad_alloc@std@@@exception_detail@boost@@6Bbad_alloc@std@@@ 1003b8cc     nav.obj
 0002:0000e8e0       ??_R4system_error@system@boost@@6B@ 1003b8e0     nav.obj
 0002:0000e8f4       ??_R2?$clone_impl@U?$error_info_injector@Vthread_resource_error@boost@@@exception_detail@boost@@@exception_detail@boost@@8 1003b8f4     nav.obj
 0002:0000e91c       ??_R4ITraceFilter@@6B@     1003b91c     nav.obj
 0002:0000e930       ??_R3GMOD_TraceFilter@@8   1003b930     nav.obj
 0002:0000e940       ??_R4?$thread_data@V?$bind_t@XV?$mf3@XVNav@@PAUJobInfo_t@@PAVNode@@PAV3@@_mfi@boost@@V?$list4@V?$value@PAVNav@@@_bi@boost@@V?$value@PAUJobInfo_t@@@23@V?$value@PAVNode@@@23@V523@@_bi@3@@_bi@boost@@@detail@boost@@6B@ 1003b940     nav.obj
 0002:0000e954       ??_R1A@?0A@EA@system_error@system@boost@@8 1003b954     nav.obj
 0002:0000e970       ??_R1CM@?0A@EA@exception@boost@@8 1003b970     nav.obj
 0002:0000e98c       ??_R3thread_data_base@detail@boost@@8 1003b98c     nav.obj
 0002:0000e99c       ??_R2system_error@system@boost@@8 1003b99c     nav.obj
 0002:0000e9ac       ??_R2thread_resource_error@boost@@8 1003b9ac     nav.obj
 0002:0000e9c4       ??_R4?$clone_impl@U?$error_info_injector@Vthread_resource_error@boost@@@exception_detail@boost@@@exception_detail@boost@@6Bthread_resource_error@2@@ 1003b9c4     nav.obj
 0002:0000e9d8       ??_R2?$thread_data@V?$bind_t@XV?$mf1@XVNav@@PA_N@_mfi@boost@@V?$list2@V?$value@PAVNav@@@_bi@boost@@V?$value@PA_N@23@@_bi@3@@_bi@boost@@@detail@boost@@8 1003b9d8     nav.obj
 0002:0000e9e4       ??_R1A@?0A@EA@?$clone_impl@U?$error_info_injector@Vthread_resource_error@boost@@@exception_detail@boost@@@exception_detail@boost@@8 1003b9e4     nav.obj
 0002:0000ea00       ??_R3ITraceFilter@@8       1003ba00     nav.obj
 0002:0000ea10       ??_R3CTraceFilter@@8       1003ba10     nav.obj
 0002:0000ea20       ??_R4?$clone_impl@U?$error_info_injector@Vbad_alloc@std@@@exception_detail@boost@@@exception_detail@boost@@6Bbad_alloc@std@@@ 1003ba20     nav.obj
 0002:0000ea34       ??_R4?$clone_impl@U?$error_info_injector@Vthread_resource_error@boost@@@exception_detail@boost@@@exception_detail@boost@@6Bexception@2@@ 1003ba34     nav.obj
 0002:0000ea48       ??_R3bad_alloc@std@@8      1003ba48     nav.obj
 0002:0000ea58       ??_R4?$clone_impl@U?$error_info_injector@Vbad_alloc@std@@@exception_detail@boost@@@exception_detail@boost@@6Bexception@2@@ 1003ba58     nav.obj
 0002:0000ea6c       ??_R1A@?0A@EA@?$thread_data@V?$bind_t@XV?$mf1@XVNav@@PA_N@_mfi@boost@@V?$list2@V?$value@PAVNav@@@_bi@boost@@V?$value@PA_N@23@@_bi@3@@_bi@boost@@@detail@boost@@8 1003ba6c     nav.obj
 0002:0000ea88       ??_R1A@?0A@EA@thread_exception@boost@@8 1003ba88     nav.obj
 0002:0000eaa4       ??_R1A@EA@3FA@clone_base@exception_detail@boost@@8 1003baa4     nav.obj
 0002:0000eac0       ??_R2CTraceFilter@@8       1003bac0     nav.obj
 0002:0000eacc       ??_R4?$error_info_injector@Vbad_alloc@std@@@exception_detail@boost@@6Bexception@2@@ 1003bacc     nav.obj
 0002:0000eae0       ??_R4thread_resource_error@boost@@6B@ 1003bae0     nav.obj
 0002:0000eaf4       ??_R2?$clone_impl@U?$error_info_injector@Vbad_alloc@std@@@exception_detail@boost@@@exception_detail@boost@@8 1003baf4     nav.obj
 0002:0000eb10       ??_R2GMOD_TraceFilter@@8   1003bb10     nav.obj
 0002:0000eb20       ??_R3thread_resource_error@boost@@8 1003bb20     nav.obj
 0002:0000eb30       ??_R3?$thread_data@V?$bind_t@XV?$mf1@XVNav@@PA_N@_mfi@boost@@V?$list2@V?$value@PAVNav@@@_bi@boost@@V?$value@PA_N@23@@_bi@3@@_bi@boost@@@detail@boost@@8 1003bb30     nav.obj
 0002:0000eb40       ??_R4?$error_info_injector@Vthread_resource_error@boost@@@exception_detail@boost@@6Bexception@2@@ 1003bb40     nav.obj
 0002:0000eb54       ??_R1A@?0A@EA@thread_resource_error@boost@@8 1003bb54     nav.obj
 0002:0000eb70       ??_R1A@?0A@EA@?$thread_data@V?$bind_t@XV?$mf3@XVNav@@PAUJobInfo_t@@PAVNode@@PAV3@@_mfi@boost@@V?$list4@V?$value@PAVNav@@@_bi@boost@@V?$value@PAUJobInfo_t@@@23@V?$value@PAVNode@@@23@V523@@_bi@3@@_bi@boost@@@detail@boost@@8 1003bb70     nav.obj
 0002:0000eb8c       ??_R1A@?0A@EA@?$clone_impl@U?$error_info_injector@Vbad_alloc@std@@@exception_detail@boost@@@exception_detail@boost@@8 1003bb8c     nav.obj
 0002:0000eba8       ??_R1A@?0A@EA@?$error_info_injector@Vbad_alloc@std@@@exception_detail@boost@@8 1003bba8     nav.obj
 0002:0000ebc4       ??_R2thread_data_base@detail@boost@@8 1003bbc4     nav.obj
 0002:0000ebcc       ??_R4bad_alloc@std@@6B@    1003bbcc     nav.obj
 0002:0000ebe0       ??_R2ITraceFilter@@8       1003bbe0     nav.obj
 0002:0000ebe8       ??_R3thread_exception@boost@@8 1003bbe8     nav.obj
 0002:0000ebf8       ??_R3?$clone_impl@U?$error_info_injector@Vbad_alloc@std@@@exception_detail@boost@@@exception_detail@boost@@8 1003bbf8     nav.obj
 0002:0000ec08       ??_R1A@?0A@EA@thread_data_base@detail@boost@@8 1003bc08     nav.obj
 0002:0000ec24       ??_R1A@?0A@EA@GMOD_TraceFilter@@8 1003bc24     nav.obj
 0002:0000ec40       ??_R3?$error_info_injector@Vbad_alloc@std@@@exception_detail@boost@@8 1003bc40     nav.obj
 0002:0000ec50       ??_R4thread_exception@boost@@6B@ 1003bc50     nav.obj
 0002:0000ec64       ??_R2?$error_info_injector@Vbad_alloc@std@@@exception_detail@boost@@8 1003bc64     nav.obj
 0002:0000ec80       ___safe_se_handler_table   1003bc80     <linker-defined>
 0002:0000edcc       ___rtc_iaa                 1003bdcc     LIBCMT:initsect.obj
 0002:0000edd0       ___rtc_izz                 1003bdd0     LIBCMT:initsect.obj
 0002:0000edd4       ___rtc_taa                 1003bdd4     LIBCMT:initsect.obj
 0002:0000edd8       ___rtc_tzz                 1003bdd8     LIBCMT:initsect.obj
 0002:0000ede0       __TI2?AVbad_alloc@std@@    1003bde0     LIBCMT:new.obj
 0002:0000edf0       __CTA2?AVbad_alloc@std@@   1003bdf0     LIBCMT:new.obj
 0002:0000f27c       __TI3?AVlength_error@std@@ 1003c27c     libcpmt:xthrow.obj
 0002:0000f28c       __CTA3?AVlength_error@std@@ 1003c28c     libcpmt:xthrow.obj
 0002:0000f29c       __CT??_R0?AVlength_error@std@@@8??0length_error@std@@QAE@ABV01@@Z12 1003c29c     libcpmt:xthrow.obj
 0002:0000f2b8       __TI3?AVout_of_range@std@@ 1003c2b8     libcpmt:xthrow.obj
 0002:0000f2c8       __CTA3?AVout_of_range@std@@ 1003c2c8     libcpmt:xthrow.obj
 0002:0000f59c       __TI1?AVthread_interrupted@boost@@ 1003c59c     libboost_thread-vc110-mt-s-1_52:thread.obj
 0002:0000f5ac       __CTA1?AVthread_interrupted@boost@@ 1003c5ac     libboost_thread-vc110-mt-s-1_52:thread.obj
 0002:0000f5b4       __CT??_R0?AVthread_interrupted@boost@@@81 1003c5b4     libboost_thread-vc110-mt-s-1_52:thread.obj
 0002:0000f7f4       __TI2?AVbad_exception@std@@ 1003c7f4     LIBCMT:frame.obj
 0002:0000f804       __CTA2?AVbad_exception@std@@ 1003c804     LIBCMT:frame.obj
 0002:0000f810       __CT??_R0?AVbad_exception@std@@@8??0bad_exception@std@@QAE@ABV01@@Z12 1003c810     LIBCMT:frame.obj
 0002:0000f82c       __CT??_R0?AV?$clone_impl@U?$error_info_injector@Ubad_month@gregorian@boost@@@exception_detail@boost@@@exception_detail@boost@@@8??0?$clone_impl@U?$error_info_injector@Ubad_month@gregorian@boost@@@exception_detail@boost@@@exception_detail@boost@@QAE@ABV012@@Z44 1003c82c     main.obj
 0002:0000f848       __CT??_R0?AVexception@std@@@8??0exception@std@@QAE@ABV01@@Z12 1003c848     main.obj
 0002:0000f864       __CTA6?AV?$clone_impl@U?$error_info_injector@Vruntime_error@std@@@exception_detail@boost@@@exception_detail@boost@@ 1003c864     main.obj
 0002:0000f880       __CTA8?AV?$clone_impl@U?$error_info_injector@Ubad_day_of_month@gregorian@boost@@@exception_detail@boost@@@exception_detail@boost@@ 1003c880     main.obj
 0002:0000f8a4       __CT??_R0?AV?$clone_impl@U?$error_info_injector@Ubad_day_of_month@gregorian@boost@@@exception_detail@boost@@@exception_detail@boost@@@8??0?$clone_impl@U?$error_info_injector@Ubad_day_of_month@gregorian@boost@@@exception_detail@boost@@@exception_detail@boost@@QAE@ABV012@@Z44 1003c8a4     main.obj
 0002:0000f8c0       __CT??_R0?AUbad_day_of_month@gregorian@boost@@@8??0bad_day_of_month@gregorian@boost@@QAE@ABU012@@Z12 1003c8c0     main.obj
 0002:0000f8dc       __CT??_R0?AV?$clone_impl@U?$error_info_injector@Vruntime_error@std@@@exception_detail@boost@@@exception_detail@boost@@@8??0?$clone_impl@U?$error_info_injector@Vruntime_error@std@@@exception_detail@boost@@@exception_detail@boost@@QAE@ABV012@@Z44 1003c8dc     main.obj
 0002:0000f8f8       __CT??_R0?AU?$error_info_injector@Ubad_day_of_month@gregorian@boost@@@exception_detail@boost@@@8??0?$error_info_injector@Ubad_day_of_month@gregorian@boost@@@exception_detail@boost@@QAE@ABU012@@Z32 1003c8f8     main.obj
 0002:0000f914       __CT??_R0?AVexception@boost@@@8??0exception@boost@@QAE@ABV01@@Z2012 1003c914     main.obj
 0002:0000f930       __TI8?AV?$clone_impl@U?$error_info_injector@Ubad_month@gregorian@boost@@@exception_detail@boost@@@exception_detail@boost@@ 1003c930     main.obj
 0002:0000f940       __CT??_R0?AUbad_month@gregorian@boost@@@8??0bad_month@gregorian@boost@@QAE@ABU012@@Z12 1003c940     main.obj
 0002:0000f95c       __CT??_R0?AU?$error_info_injector@Vruntime_error@std@@@exception_detail@boost@@@8??0?$error_info_injector@Vruntime_error@std@@@exception_detail@boost@@QAE@ABU012@@Z32 1003c95c     main.obj
 0002:0000f978       __CT??_R0?AUbad_year@gregorian@boost@@@8??0bad_year@gregorian@boost@@QAE@ABU012@@Z12 1003c978     main.obj
 0002:0000f994       __TI8?AV?$clone_impl@U?$error_info_injector@Ubad_year@gregorian@boost@@@exception_detail@boost@@@exception_detail@boost@@ 1003c994     main.obj
 0002:0000f9a4       __CT??_R0?AVruntime_error@std@@@8??0runtime_error@std@@QAE@ABV01@@Z12 1003c9a4     main.obj
 0002:0000f9c0       __CT??_R0?AU?$error_info_injector@Ubad_month@gregorian@boost@@@exception_detail@boost@@@8??0?$error_info_injector@Ubad_month@gregorian@boost@@@exception_detail@boost@@QAE@ABU012@@Z32 1003c9c0     main.obj
 0002:0000f9dc       __CT??_R0?AVclone_base@exception_detail@boost@@@8??0clone_base@exception_detail@boost@@QAE@ABV012@@Z40324 1003c9dc     main.obj
 0002:0000f9f8       __TI6?AV?$clone_impl@U?$error_info_injector@Vruntime_error@std@@@exception_detail@boost@@@exception_detail@boost@@ 1003c9f8     main.obj
 0002:0000fa08       __CT??_R0?AVlogic_error@std@@@8??0logic_error@std@@QAE@ABV01@@Z12 1003ca08     main.obj
 0002:0000fa24       __CTA8?AV?$clone_impl@U?$error_info_injector@Ubad_month@gregorian@boost@@@exception_detail@boost@@@exception_detail@boost@@ 1003ca24     main.obj
 0002:0000fa48       __CT??_R0?AVout_of_range@std@@@8??0out_of_range@std@@QAE@ABV01@@Z12 1003ca48     main.obj
 0002:0000fa64       __CT??_R0?AV?$clone_impl@U?$error_info_injector@Ubad_year@gregorian@boost@@@exception_detail@boost@@@exception_detail@boost@@@8??0?$clone_impl@U?$error_info_injector@Ubad_year@gregorian@boost@@@exception_detail@boost@@@exception_detail@boost@@QAE@ABV012@@Z44 1003ca64     main.obj
 0002:0000fa80       __TI8?AV?$clone_impl@U?$error_info_injector@Ubad_day_of_month@gregorian@boost@@@exception_detail@boost@@@exception_detail@boost@@ 1003ca80     main.obj
 0002:0000fa90       __CTA8?AV?$clone_impl@U?$error_info_injector@Ubad_year@gregorian@boost@@@exception_detail@boost@@@exception_detail@boost@@ 1003ca90     main.obj
 0002:0000fab4       __CT??_R0?AU?$error_info_injector@Ubad_year@gregorian@boost@@@exception_detail@boost@@@8??0?$error_info_injector@Ubad_year@gregorian@boost@@@exception_detail@boost@@QAE@ABU012@@Z32 1003cab4     main.obj
 0002:0000fad0       __CT??_R0?AVthread_exception@boost@@@8??0thread_exception@boost@@QAE@ABV01@@Z44 1003cad0     nav.obj
 0002:0000faec       __CT??_R0?AVthread_resource_error@boost@@@8??0thread_resource_error@boost@@QAE@ABV01@@Z44 1003caec     nav.obj
 0002:0000fb08       __CT??_R0?AU?$error_info_injector@Vthread_resource_error@boost@@@exception_detail@boost@@@8??0?$error_info_injector@Vthread_resource_error@boost@@@exception_detail@boost@@QAE@ABU012@@Z64 1003cb08     nav.obj
 0002:0000fb24       __CT??_R0?AV?$clone_impl@U?$error_info_injector@Vbad_alloc@std@@@exception_detail@boost@@@exception_detail@boost@@@8??0?$clone_impl@U?$error_info_injector@Vbad_alloc@std@@@exception_detail@boost@@@exception_detail@boost@@QAE@ABV012@@Z44 1003cb24     nav.obj
 0002:0000fb40       __CT??_R0?AU?$error_info_injector@Vbad_alloc@std@@@exception_detail@boost@@@8??0?$error_info_injector@Vbad_alloc@std@@@exception_detail@boost@@QAE@ABU012@@Z32 1003cb40     nav.obj
 0002:0000fb5c       __CT??_R0?AVbad_alloc@std@@@8??0bad_alloc@std@@QAE@ABV01@@Z12 1003cb5c     nav.obj
 0002:0000fb78       __TI6?AV?$clone_impl@U?$error_info_injector@Vbad_alloc@std@@@exception_detail@boost@@@exception_detail@boost@@ 1003cb78     nav.obj
 0002:0000fb88       __CT??_R0?AVexception@boost@@@8??0exception@boost@@QAE@ABV01@@Z2044 1003cb88     nav.obj
 0002:0000fba4       __CT??_R0?AVsystem_error@system@boost@@@8??0system_error@system@boost@@QAE@ABV012@@Z44 1003cba4     nav.obj
 0002:0000fbc0       __TI9?AV?$clone_impl@U?$error_info_injector@Vthread_resource_error@boost@@@exception_detail@boost@@@exception_detail@boost@@ 1003cbc0     nav.obj
 0002:0000fbd0       __CT??_R0?AVclone_base@exception_detail@boost@@@8??0clone_base@exception_detail@boost@@QAE@ABV012@@Z40644 1003cbd0     nav.obj
 0002:0000fbec       __CTA9?AV?$clone_impl@U?$error_info_injector@Vthread_resource_error@boost@@@exception_detail@boost@@@exception_detail@boost@@ 1003cbec     nav.obj
 0002:0000fc14       __CT??_R0?AV?$clone_impl@U?$error_info_injector@Vthread_resource_error@boost@@@exception_detail@boost@@@exception_detail@boost@@@8??0?$clone_impl@U?$error_info_injector@Vthread_resource_error@boost@@@exception_detail@boost@@@exception_detail@boost@@QAE@ABV012@@Z76 1003cc14     nav.obj
 0002:0000fc30       __CTA6?AV?$clone_impl@U?$error_info_injector@Vbad_alloc@std@@@exception_detail@boost@@@exception_detail@boost@@ 1003cc30     nav.obj
 0002:00010964       __IMPORT_DESCRIPTOR_tier0  1003d964     tier0:tier0.dll
 0002:00010978       __IMPORT_DESCRIPTOR_KERNEL32 1003d978     kernel32:KERNEL32.dll
 0002:0001098c       __NULL_IMPORT_DESCRIPTOR   1003d98c     tier0:tier0.dll
 0003:00000000       ?pfSqrt@@3P6AMM@ZA         1003f000     mathlib:mathlib_base.obj
 0003:00000004       ?pfRSqrt@@3P6AMM@ZA        1003f004     mathlib:mathlib_base.obj
 0003:00000008       ?pfRSqrtFast@@3P6AMM@ZA    1003f008     mathlib:mathlib_base.obj
 0003:0000000c       ?pfVectorNormalize@@3P6IMAAVVector@@@ZA 1003f00c     mathlib:mathlib_base.obj
 0003:00000010       ?pfVectorNormalizeFast@@3P6IXAAVVector@@@ZA 1003f010     mathlib:mathlib_base.obj
 0003:00000014       ?pfInvRSquared@@3P6AMPBM@ZA 1003f014     mathlib:mathlib_base.obj
 0003:00000018       ?pfFastSinCos@@3P6AXMPAM0@ZA 1003f018     mathlib:mathlib_base.obj
 0003:0000001c       ?pfFastCos@@3P6AMM@ZA      1003f01c     mathlib:mathlib_base.obj
 0003:00000028       ?vec3_invalid@@3VVector@@B 1003f028     mathlib:mathlib_base.obj
 0003:00000080       ?power2_n@@3PAMA           1003f080     mathlib:color_conversion.obj
 0003:00000500       ??_R0?AVCUtlCharConversion@@@8 1003f500     tier1:utlbuffer.obj
 0003:00000524       ??_R0?AVCUtlNoEscConversion@@@8 1003f524     tier1:utlbuffer.obj
 0003:00000548       ??_R0?AVCUtlCStringConversion@@@8 1003f548     tier1:utlbuffer.obj
 0003:00000580       ??_R0?AVtype_info@@@8      1003f580     LIBCMT:typinfo.obj
 0003:00000598       __fltused                  1003f598     LIBCMT:fpinit.obj
 0003:0000059c       __ldused                   1003f59c     LIBCMT:fpinit.obj
 0003:000005c0       __half                     1003f5c0     LIBCMT:pow.obj
 0003:000005d0       ___security_cookie         1003f5d0     LIBCMT:gs_cookie.obj
 0003:000005d4       ___security_cookie_complement 1003f5d4     LIBCMT:gs_cookie.obj
 0003:000005d8       ___isa_enabled             1003f5d8     LIBCMT:cpu_disp.obj
 0003:000005dc       ___nullstring              1003f5dc     LIBCMT:output.obj
 0003:000005e0       ___wnullstring             1003f5e0     LIBCMT:output.obj
 0003:00000760       ___abort_behavior          1003f760     LIBCMT:abort.obj
 0003:00000770       __days                     1003f770     LIBCMT:days.obj
 0003:000007a4       __lpdays                   1003f7a4     LIBCMT:days.obj
 0003:000007e0       __iob                      1003f7e0     LIBCMT:_file.obj
 0003:00000a60       __lookuptrailbytes         1003fa60     LIBCMT:read.obj
 0003:00000b60       ___badioinfo               1003fb60     LIBCMT:ioinit.obj
 0003:00000ba0       ___flsindex                1003fba0     LIBCMT:tidtable.obj
 0003:00000ba8       __cfltcvt_tab              1003fba8     LIBCMT:cmiscdat.obj
 0003:00000bd8       ___ptmbcinfo               1003fbd8     LIBCMT:mbctype.obj
 0003:00000cd0       __mbctype                  1003fcd0     LIBCMT:mbctype.obj
 0003:00000dd8       __mbcasemap                1003fdd8     LIBCMT:mbctype.obj
 0003:00000ed8       ___initialmbcinfo          1003fed8     LIBCMT:mbctype.obj
 0003:000010f8       ___wclocalestr             100400f8     LIBCMT:nlsdata.obj
 0003:00001100       ___lc_time_c               10040100     LIBCMT:nlsdata.obj
 0003:00001264       ___ptlocinfo               10040264     LIBCMT:nlsdata.obj
 0003:00001268       ___initiallocinfo          10040268     LIBCMT:nlsdata.obj
 0003:00001320       ___initiallocalestructinfo 10040320     LIBCMT:nlsdata.obj
 0003:00001328       ___mb_cur_max              10040328     LIBCMT:nlsdata.obj
 0003:0000132c       ___globallocalestatus      1004032c     LIBCMT:glstatus.obj
 0003:00001340       __HUGE                     10040340     LIBCMT:huge.obj
 0003:00001470       __NLG_Destination          10040470     LIBCMT:exsup.obj
 0003:00001480       __d_inf                    10040480     LIBCMT:util.obj
 0003:00001488       __d_ind                    10040488     LIBCMT:util.obj
 0003:00001490       __d_max                    10040490     LIBCMT:util.obj
 0003:00001498       __d_min                    10040498     LIBCMT:util.obj
 0003:000014a0       __d_mzero                  100404a0     LIBCMT:util.obj
 0003:000014a8       __matherr_flag             100404a8     LIBCMT:matherr.obj
 0003:000015b8       ___lconv                   100405b8     LIBCMT:lconv.obj
 0003:000015bc       ___lconv_static_decimal    100405bc     LIBCMT:lconv.obj
 0003:000015c0       ___lconv_c                 100405c0     LIBCMT:lconv.obj
 0003:00001610       ___lconv_static_W_decimal  10040610     LIBCMT:lconv.obj
 0003:00001614       __pctype                   10040614     LIBCMT:ctype.obj
 0003:00001618       __pwctype                  10040618     LIBCMT:ctype.obj
 0003:00001650       __pow10pos                 10040650     LIBCMT:constpow.obj
 0003:000017b0       __pow10neg                 100407b0     LIBCMT:constpow.obj
 0003:0000190c       __confh                    1004090c     LIBCMT:initcon.obj
 0003:00001910       ??_R0?AVlength_error@std@@@8 10040910     libcpmt:xthrow.obj
 0003:00001930       ?current_thread_tls_key@?A0xad6650d6@boost@@3KA 10040930     libboost_thread-vc110-mt-s-1_52:thread.obj
 0003:00001934       ??_R0?AVthread_interrupted@boost@@@8 10040934     libboost_thread-vc110-mt-s-1_52:thread.obj
 0003:0000195c       ??_R0?AVerror_category@system@boost@@@8 1004095c     libboost_system-vc110-mt-s-1_52:error_code.obj
 0003:00001988       ??_R0?AVnoncopyable@noncopyable_@boost@@@8 10040988     libboost_system-vc110-mt-s-1_52:error_code.obj
 0003:000019b8       ??_R0?AVgeneric_error_category@?A0xe218785f@@@8 100409b8     libboost_system-vc110-mt-s-1_52:error_code.obj
 0003:000019ec       ??_R0?AVsystem_error_category@?A0xe218785f@@@8 100409ec     libboost_system-vc110-mt-s-1_52:error_code.obj
 0003:00001a20       ??_R0?AVbad_exception@std@@@8 10040a20     LIBCMT:frame.obj
 0003:00001a40       __sys_nerr                 10040a40     LIBCMT:syserr.obj
 0003:00001da8       ??_R0?AV_Iostream_error_category@std@@@8 10040da8     ILuaObject.obj
 0003:00001dd4       ??_R0?AV_System_error_category@std@@@8 10040dd4     ILuaObject.obj
 0003:00001e00       ??_R0?AVerror_category@std@@@8 10040e00     ILuaObject.obj
 0003:00001e24       ??_R0?AV_Generic_error_category@std@@@8 10040e24     ILuaObject.obj
 0003:00001e50       ??_R0?AVout_of_range@std@@@8 10040e50     main.obj
 0003:00001e70       ??_R0?AU?$error_info_injector@Ubad_day_of_month@gregorian@boost@@@exception_detail@boost@@@8 10040e70     main.obj
 0003:00001ed0       ??_R0?AU?$error_info_injector@Vruntime_error@std@@@exception_detail@boost@@@8 10040ed0     main.obj
 0003:00001f20       ??_R0?AVexception@std@@@8  10040f20     main.obj
 0003:00001f3c       ??_R0?AUbad_month@gregorian@boost@@@8 10040f3c     main.obj
 0003:00001f64       ??_R0?AUbad_year@gregorian@boost@@@8 10040f64     main.obj
 0003:00001f90       ??_R0?AV?$clone_impl@U?$error_info_injector@Ubad_day_of_month@gregorian@boost@@@exception_detail@boost@@@exception_detail@boost@@@8 10040f90     main.obj
 0003:00002018       ??_R0?AVruntime_error@std@@@8 10041018     main.obj
 0003:00002038       ??_R0?AUbad_day_of_month@gregorian@boost@@@8 10041038     main.obj
 0003:00002068       ??_R0?AVexception@boost@@@8 10041068     main.obj
 0003:00002088       ??_R0?AVclone_base@exception_detail@boost@@@8 10041088     main.obj
 0003:000020b8       ??_R0?AV?$clone_impl@U?$error_info_injector@Vruntime_error@std@@@exception_detail@boost@@@exception_detail@boost@@@8 100410b8     main.obj
 0003:00002130       ??_R0?AU?$error_info_injector@Ubad_month@gregorian@boost@@@exception_detail@boost@@@8 10041130     main.obj
 0003:00002188       ??_R0?AVlogic_error@std@@@8 10041188     main.obj
 0003:000021a8       ??_R0?AV?$clone_impl@U?$error_info_injector@Ubad_month@gregorian@boost@@@exception_detail@boost@@@exception_detail@boost@@@8 100411a8     main.obj
 0003:00002228       ??_R0?AV?$clone_impl@U?$error_info_injector@Ubad_year@gregorian@boost@@@exception_detail@boost@@@exception_detail@boost@@@8 10041228     main.obj
 0003:000022a8       ??_R0?AU?$error_info_injector@Ubad_year@gregorian@boost@@@exception_detail@boost@@@8 100412a8     main.obj
 0003:00002300       ??_R0?AV?$clone_impl@U?$error_info_injector@Vbad_alloc@std@@@exception_detail@boost@@@exception_detail@boost@@@8 10041300     nav.obj
 0003:00002378       ??_R0?AU?$error_info_injector@Vthread_resource_error@boost@@@exception_detail@boost@@@8 10041378     nav.obj
 0003:000023d4       ??_R0?AVsystem_error@system@boost@@@8 100413d4     nav.obj
 0003:000023fc       ??_R0?AVbad_alloc@std@@@8  100413fc     nav.obj
 0003:00002418       ??_R0?AV?$clone_impl@U?$error_info_injector@Vthread_resource_error@boost@@@exception_detail@boost@@@exception_detail@boost@@@8 10041418     nav.obj
 0003:0000249c       ??_R0?AVGMOD_TraceFilter@@@8 1004149c     nav.obj
 0003:000024c0       ??_R0?AU?$error_info_injector@Vbad_alloc@std@@@exception_detail@boost@@@8 100414c0     nav.obj
 0003:0000250c       ??_R0?AVITraceFilter@@@8   1004150c     nav.obj
 0003:00002528       ??_R0?AVCTraceFilter@@@8   10041528     nav.obj
 0003:00002544       ??_R0?AVthread_resource_error@boost@@@8 10041544     nav.obj
 0003:00002570       ??_R0?AV?$thread_data@V?$bind_t@XV?$mf3@XVNav@@PAUJobInfo_t@@PAVNode@@PAV3@@_mfi@boost@@V?$list4@V?$value@PAVNav@@@_bi@boost@@V?$value@PAUJobInfo_t@@@23@V?$value@PAVNode@@@23@V523@@_bi@3@@_bi@boost@@@detail@boost@@@8 10041570     nav.obj
 0003:0000264c       ??_R0?AUthread_data_base@detail@boost@@@8 1004164c     nav.obj
 0003:00002678       ??_R0?AVthread_exception@boost@@@8 10041678     nav.obj
 0003:000026a0       ??_R0?AV?$thread_data@V?$bind_t@XV?$mf1@XVNav@@PA_N@_mfi@boost@@V?$list2@V?$value@PAVNav@@@_bi@boost@@V?$value@PA_N@23@@_bi@3@@_bi@boost@@@detail@boost@@@8 100416a0     nav.obj
 0003:00002760       ?SinCosTable@@3PAMA        10041760     mathlib:mathlib_base.obj
 0003:00002b60       ?s_bMathlibInitialized@@3_NA 10041b60     mathlib:mathlib_base.obj
 0003:00002b70       ?vec3_origin@@3VVector@@B  10041b70     mathlib:mathlib_base.obj
 0003:00002b7c       ?vec3_angle@@3VQAngle@@B   10041b7c     mathlib:mathlib_base.obj
 0003:00002f88       ?lineartolightmap@@3PAEA   10041f88     mathlib:color_conversion.obj
 0003:00006788       ?lineartovertex@@3PAMA     10045788     mathlib:color_conversion.obj
 0003:0000a8a0       ?s_pInterfaceRegs@InterfaceReg@@2PAV1@A 100498a0     tier1:interface.obj
 0003:0000a8b0       ?s_StringCharConversion@@3VCUtlCStringConversion@@A 100498b0     tier1:utlbuffer.obj
 0003:0000b2c0       ?s_NoEscConversion@@3VCUtlNoEscConversion@@A 1004a2c0     tier1:utlbuffer.obj
 0003:0000bbdc       __aenvptr                  1004abdc     LIBCMT:dllcrt0.obj
 0003:0000bbe0       __wenvptr                  1004abe0     LIBCMT:dllcrt0.obj
 0003:0000bbe4       ___fastflag                1004abe4     LIBCMT:fpinit.obj
 0003:0000bf08       ___isa_available           1004af08     LIBCMT:cpu_disp.obj
 0003:0000bf0c       ___favor                   1004af0c     LIBCMT:cpu_disp.obj
 0003:0000bf10       ___pInvalidArgHandler      1004af10     LIBCMT:invarg.obj
 0003:0000bf14       ?_pnhHeap@@3P6AHI@ZA       1004af14     LIBCMT:handler.obj
 0003:0000bf18       __umaskval                 1004af18     LIBCMT:crt0dat.obj
 0003:0000bf1c       __exitflag                 1004af1c     LIBCMT:crt0dat.obj
 0003:0000bf20       __C_Termination_Done       1004af20     LIBCMT:crt0dat.obj
 0003:0000bf24       ___winitenv                1004af24     LIBCMT:crt0dat.obj
 0003:0000bf28       ___initenv                 1004af28     LIBCMT:crt0dat.obj
 0003:0000bf2c       __C_Exit_Done              1004af2c     LIBCMT:crt0dat.obj
 0003:0000bf30       ___argc                    1004af30     LIBCMT:crt0dat.obj
 0003:0000bf34       ___argv                    1004af34     LIBCMT:crt0dat.obj
 0003:0000bf38       ___wargv                   1004af38     LIBCMT:crt0dat.obj
 0003:0000bf3c       __environ                  1004af3c     LIBCMT:crt0dat.obj
 0003:0000bf40       __wenviron                 1004af40     LIBCMT:crt0dat.obj
 0003:0000bf44       __pgmptr                   1004af44     LIBCMT:crt0dat.obj
 0003:0000bf48       __wpgmptr                  1004af48     LIBCMT:crt0dat.obj
 0003:0000bf4c       __maxwait                  1004af4c     LIBCMT:crtheap.obj
 0003:0000bf50       ___app_type                1004af50     LIBCMT:crt0msg.obj
 0003:0000c580       ___pPurecall               1004b580     LIBCMT:inithelp.obj
 0003:0000c58c       __cflush                   1004b58c     LIBCMT:_file.obj
 0003:0000c590       ___pioinfo                 1004b590     LIBCMT:ioinit.obj
 0003:0000c690       __crtheap                  1004b690     LIBCMT:heapinit.obj
 0003:0000c7a4       ___mblocalename            1004b7a4     LIBCMT:mbctype.obj
 0003:0000c7a8       ___mbcodepage              1004b7a8     LIBCMT:mbctype.obj
 0003:0000c7ac       ___ismbcodepage            1004b7ac     LIBCMT:mbctype.obj
 0003:0000c7b0       ___mbulinfo                1004b7b0     LIBCMT:mbctype.obj
 0003:0000c7c0       ___locale_changed          1004b7c0     LIBCMT:wsetloca.obj
 0003:0000c7c8       __newmode                  1004b7c8     LIBCMT:_newmode.obj
 0003:0000c920       ?__pInconsistency@@3P6AXXZA 1004b920     LIBCMT:hooks.obj
 0003:0000c93c       __stdbuf                   1004b93c     LIBCMT:_sftbuf.obj
 0003:0000c944       ___error_mode              1004b944     LIBCMT:errmode.obj
 0003:0000c960       ?pArgList@UnDecorator@@0PAVReplicator@@A 1004b960     LIBCMT:undname.obj
 0003:0000c964       ?pZNameList@UnDecorator@@0PAVReplicator@@A 1004b964     LIBCMT:undname.obj
 0003:0000c968       ?pTemplateArgList@UnDecorator@@0PAVReplicator@@A 1004b968     LIBCMT:undname.obj
 0003:0000c96c       ?gName@UnDecorator@@0PBDB  1004b96c     LIBCMT:undname.obj
 0003:0000c970       ?name@UnDecorator@@0PBDB   1004b970     LIBCMT:undname.obj
 0003:0000c974       ?outputString@UnDecorator@@0PADA 1004b974     LIBCMT:undname.obj
 0003:0000c978       ?maxStringLength@UnDecorator@@0HA 1004b978     LIBCMT:undname.obj
 0003:0000c97c       ?disableFlags@UnDecorator@@0KA 1004b97c     LIBCMT:undname.obj
 0003:0000c980       ?fExplicitTemplateParams@UnDecorator@@0_NA 1004b980     LIBCMT:undname.obj
 0003:0000c981       ?fGetTemplateArgumentList@UnDecorator@@0_NA 1004b981     LIBCMT:undname.obj
 0003:0000c984       ?m_pGetParameter@UnDecorator@@0P6APADJ@ZA 1004b984     LIBCMT:undname.obj
 0003:0000c99c       __commode                  1004b99c     LIBCMT:ncommode.obj
 0003:0000c9a0       __outputformat             1004b9a0     LIBCMT:outputformat.obj
 0003:0000c9a4       ___lconv_static_null       1004b9a4     LIBCMT:lconv.obj
 0003:0000c9a8       ___lconv_static_W_null     1004b9a8     LIBCMT:lconv.obj
 0003:0000c9ac       __fmode                    1004b9ac     LIBCMT:txtmode.obj
 0003:0000c9b8       ?current_thread_tls_init_flag@?A0xad6650d6@boost@@3Uonce_flag@2@A 1004b9b8     libboost_thread-vc110-mt-s-1_52:thread.obj
 0003:0000c9d8       ?throws@system@boost@@3Verror_code@12@A 1004b9d8     libboost_system-vc110-mt-s-1_52:error_code.obj
 0003:0000ca24       __tls_index                1004ba24     LIBCMT:tlssup.obj
 0003:0000ca28       ?enginetrace@@3PAVIEngineTrace@@A 1004ba28     main.obj
 0003:0000ca2c       ?engine@@3PAVIVEngineServer@@A 1004ba2c     main.obj
 0003:0000ca30       ?filesystem@@3PAVIFileSystem@@A 1004ba30     main.obj
 0003:0000ca34       ?VectorMetaRef@@3HA        1004ba34     main.obj
 0003:0000ca5c       ?modulemanager@@3PAVILuaModuleManager@@A 1004ba5c     ILuaModuleManager.obj
 0003:0000ca88       ?timeout@@3Vtime_duration@posix_time@boost@@A 1004ba88     main.obj
 0003:0000cacc       ?JobQueue@@3V?$CUtlVector@PAUJobInfo_t@@V?$CUtlMemory@PAUJobInfo_t@@H@@@@A 1004bacc     main.obj
 0003:0000cae0       ?sleep_time@@3Vtime_duration@posix_time@boost@@A 1004bae0     main.obj
 0003:0000cb68       ?id@?$num_put@_WV?$back_insert_iterator@V?$basic_string@_WU?$char_traits@_W@std@@V?$allocator@_W@2@@std@@@std@@@std@@2V0locale@2@A 1004bb68     ILuaObject.obj
 0003:0000cb6c       ?_System_object@?$_Error_objects@H@std@@2V_System_error_category@2@A 1004bb6c     ILuaObject.obj
 0003:0000cb70       ?id@?$numpunct@_W@std@@2V0locale@2@A 1004bb70     ILuaObject.obj
 0003:0000cb74       ?id@?$num_put@DV?$back_insert_iterator@V?$basic_string@DU?$char_traits@D@std@@V?$allocator@D@2@@std@@@std@@@std@@2V0locale@2@A 1004bb74     ILuaObject.obj
 0003:0000cb78       ?_Generic_object@?$_Error_objects@H@std@@2V_Generic_error_category@2@A 1004bb78     ILuaObject.obj
 0003:0000cb7c       ?id@?$numpunct@D@std@@2V0locale@2@A 1004bb7c     ILuaObject.obj
 0003:0000cb80       ?_Iostream_object@?$_Error_objects@H@std@@2V_Iostream_error_category@2@A 1004bb80     ILuaObject.obj
 0003:0000cb84       __debugger_hook_dummy      1004bb84     <common>
 0003:0000cb88       __pmatherr                 1004bb88     <common>
 0003:0000cb8c       ___use_sse2_mathfcns       1004bb8c     <common>
 0003:0000cba0       _encodedKERNEL32Functions  1004bba0     <common>
 0003:0000cc14       __nhandle                  1004bc14     <common>
 0003:0000cc18       ___piob                    1004bc18     <common>
 0003:0000cc1c       __nstream                  1004bc1c     <common>
 0003:0000cc20       __bufin                    1004bc20     <common>
 0003:0000dc20       ___dyn_tls_init_callback   1004cc20     <common>
 0003:0000dc24       ___onexitend               1004cc24     <common>
 0003:0000dc28       ___onexitbegin             1004cc28     <common>
 0003:0000dc2c       ___mbctype_initialized     1004cc2c     <common>
 0003:0000dc30       ___env_initialized         1004cc30     <common>
 0003:0000dc34       __acmdln                   1004cc34     <common>
 0004:00000000       __tls_start                1004d000     LIBCMT:tlssup.obj
 0004:00000001       __tls_end                  1004d001     LIBCMT:tlssup.obj

 entry point at        0001:000143dc

 Static symbols

 0000:fffa8000       .debug$S                   10000000     kernel32:KERNEL32.dll
 0000:fffa8000       .debug$S                   10000000     tier0:tier0.dll
 0000:fffa8000       .debug$S                   10000000     tier0:tier0.dll
 0000:fffa8000       .debug$S                   10000000     tier0:tier0.dll
 0000:fffa8000       .debug$S                   10000000     tier0:tier0.dll
 0000:fffa8000       .debug$S                   10000000     tier0:tier0.dll
 0000:fffa8000       .debug$S                   10000000     tier0:tier0.dll
 0000:fffa8000       .debug$S                   10000000     tier0:tier0.dll
 0000:fffa8000       .debug$S                   10000000     tier0:tier0.dll
 0000:fffa8000       .debug$S                   10000000     tier0:tier0.dll
 0000:fffa8000       .debug$S                   10000000     tier0:tier0.dll
 0000:fffa8000       .debug$S                   10000000     tier0:tier0.dll
 0000:fffa8000       .debug$S                   10000000     tier0:tier0.dll
 0000:fffa8000       .debug$S                   10000000     tier0:tier0.dll
 0000:fffa8000       .debug$S                   10000000     tier0:tier0.dll
 0000:fffa8000       .debug$S                   10000000     tier0:tier0.dll
 0000:fffa8000       .debug$S                   10000000     tier0:tier0.dll
 0000:fffa8000       .debug$S                   10000000     tier0:tier0.dll
 0000:fffa8000       .debug$S                   10000000     kernel32:KERNEL32.dll
 0000:fffa8000       .debug$S                   10000000     kernel32:KERNEL32.dll
 0000:fffa8000       .debug$S                   10000000     kernel32:KERNEL32.dll
 0000:fffa8000       .debug$S                   10000000     kernel32:KERNEL32.dll
 0000:fffa8000       .debug$S                   10000000     kernel32:KERNEL32.dll
 0000:fffa8000       .debug$S                   10000000     kernel32:KERNEL32.dll
 0000:fffa8000       .debug$S                   10000000     kernel32:KERNEL32.dll
 0000:fffa8000       .debug$S                   10000000     kernel32:KERNEL32.dll
 0000:fffa8000       .debug$S                   10000000     kernel32:KERNEL32.dll
 0000:fffa8000       .debug$S                   10000000     kernel32:KERNEL32.dll
 0000:fffa8000       .debug$S                   10000000     kernel32:KERNEL32.dll
 0000:fffa8000       .debug$S                   10000000     kernel32:KERNEL32.dll
 0000:fffa8000       .debug$S                   10000000     kernel32:KERNEL32.dll
 0000:fffa8000       .debug$S                   10000000     kernel32:KERNEL32.dll
 0000:fffa8000       .debug$S                   10000000     kernel32:KERNEL32.dll
 0000:fffa8000       .debug$S                   10000000     kernel32:KERNEL32.dll
 0000:fffa8000       .debug$S                   10000000     kernel32:KERNEL32.dll
 0000:fffa8000       .debug$S                   10000000     kernel32:KERNEL32.dll
 0000:fffa8000       .debug$S                   10000000     kernel32:KERNEL32.dll
 0000:fffa8000       .debug$S                   10000000     kernel32:KERNEL32.dll
 0000:fffa8000       .debug$S                   10000000     kernel32:KERNEL32.dll
 0000:fffa8000       .debug$S                   10000000     kernel32:KERNEL32.dll
 0000:fffa8000       .debug$S                   10000000     kernel32:KERNEL32.dll
 0000:fffa8000       .debug$S                   10000000     kernel32:KERNEL32.dll
 0000:fffa8000       .debug$S                   10000000     kernel32:KERNEL32.dll
 0000:fffa8000       .debug$S                   10000000     kernel32:KERNEL32.dll
 0000:fffa8000       .debug$S                   10000000     kernel32:KERNEL32.dll
 0000:fffa8000       .debug$S                   10000000     kernel32:KERNEL32.dll
 0000:fffa8000       .debug$S                   10000000     kernel32:KERNEL32.dll
 0000:fffa8000       .debug$S                   10000000     kernel32:KERNEL32.dll
 0000:fffa8000       .debug$S                   10000000     kernel32:KERNEL32.dll
 0000:fffa8000       .debug$S                   10000000     kernel32:KERNEL32.dll
 0000:fffa8000       .debug$S                   10000000     kernel32:KERNEL32.dll
 0000:fffa8000       .debug$S                   10000000     kernel32:KERNEL32.dll
 0000:fffa8000       .debug$S                   10000000     kernel32:KERNEL32.dll
 0000:fffa8000       .debug$S                   10000000     kernel32:KERNEL32.dll
 0000:fffa8000       .debug$S                   10000000     kernel32:KERNEL32.dll
 0000:fffa8000       .debug$S                   10000000     kernel32:KERNEL32.dll
 0000:fffa8000       .debug$S                   10000000     kernel32:KERNEL32.dll
 0000:fffa8000       .debug$S                   10000000     kernel32:KERNEL32.dll
 0000:fffa8000       .debug$S                   10000000     kernel32:KERNEL32.dll
 0000:fffa8000       .debug$S                   10000000     kernel32:KERNEL32.dll
 0000:fffa8000       .debug$S                   10000000     kernel32:KERNEL32.dll
 0000:fffa8000       .debug$S                   10000000     kernel32:KERNEL32.dll
 0000:fffa8000       .debug$S                   10000000     kernel32:KERNEL32.dll
 0000:fffa8000       .debug$S                   10000000     kernel32:KERNEL32.dll
 0000:fffa8000       .debug$S                   10000000     kernel32:KERNEL32.dll
 0000:fffa8000       .debug$S                   10000000     kernel32:KERNEL32.dll
 0000:fffa8000       .debug$S                   10000000     kernel32:KERNEL32.dll
 0000:fffa8000       .debug$S                   10000000     kernel32:KERNEL32.dll
 0000:fffa8000       .debug$S                   10000000     kernel32:KERNEL32.dll
 0000:fffa8000       .debug$S                   10000000     kernel32:KERNEL32.dll
 0000:fffa8000       .debug$S                   10000000     kernel32:KERNEL32.dll
 0000:fffa8000       .debug$S                   10000000     kernel32:KERNEL32.dll
 0000:fffa8000       .debug$S                   10000000     kernel32:KERNEL32.dll
 0000:fffa8000       .debug$S                   10000000     kernel32:KERNEL32.dll
 0000:fffa8000       .debug$S                   10000000     kernel32:KERNEL32.dll
 0000:fffa8000       .debug$S                   10000000     kernel32:KERNEL32.dll
 0000:fffa8000       .debug$S                   10000000     kernel32:KERNEL32.dll
 0000:fffa8000       .debug$S                   10000000     kernel32:KERNEL32.dll
 0000:fffa8000       .debug$S                   10000000     kernel32:KERNEL32.dll
 0000:fffa8000       .debug$S                   10000000     kernel32:KERNEL32.dll
 0000:fffa8000       .debug$S                   10000000     kernel32:KERNEL32.dll
 0000:fffa8000       .debug$S                   10000000     kernel32:KERNEL32.dll
 0000:fffa8000       .debug$S                   10000000     kernel32:KERNEL32.dll
 0000:fffa8000       .debug$S                   10000000     kernel32:KERNEL32.dll
 0000:fffa8000       .debug$S                   10000000     kernel32:KERNEL32.dll
 0000:fffa8000       .debug$S                   10000000     kernel32:KERNEL32.dll
 0000:fffa8000       .debug$S                   10000000     kernel32:KERNEL32.dll
 0000:fffa8000       .debug$S                   10000000     kernel32:KERNEL32.dll
 0000:fffa8000       .debug$S                   10000000     kernel32:KERNEL32.dll
 0000:fffa8000       .debug$S                   10000000     kernel32:KERNEL32.dll
 0000:fffa8000       .debug$S                   10000000     kernel32:KERNEL32.dll
 0000:fffa8000       .debug$S                   10000000     kernel32:KERNEL32.dll
 0000:fffa8000       .debug$S                   10000000     kernel32:KERNEL32.dll
 0000:fffa8000       .debug$S                   10000000     kernel32:KERNEL32.dll
 0000:fffa8000       .debug$S                   10000000     kernel32:KERNEL32.dll
 0000:fffa8000       .debug$S                   10000000     kernel32:KERNEL32.dll
 0000:fffa8000       .debug$S                   10000000     kernel32:KERNEL32.dll
 0000:fffa8000       .debug$S                   10000000     kernel32:KERNEL32.dll
 0000:fffa8000       .debug$S                   10000000     kernel32:KERNEL32.dll
 0000:fffa8000       .debug$S                   10000000     kernel32:KERNEL32.dll
 0000:fffa8000       .debug$S                   10000000     kernel32:KERNEL32.dll
 0000:fffa8000       .debug$S                   10000000     kernel32:KERNEL32.dll
 0000:fffa8000       .debug$S                   10000000     kernel32:KERNEL32.dll
 0000:fffa8000       .debug$S                   10000000     kernel32:KERNEL32.dll
 0000:fffa8000       .debug$S                   10000000     kernel32:KERNEL32.dll
 0000:fffa8000       .debug$S                   10000000     kernel32:KERNEL32.dll
 0000:fffa8000       .debug$S                   10000000     kernel32:KERNEL32.dll
 0000:fffa8000       .debug$S                   10000000     kernel32:KERNEL32.dll
 0000:fffa8000       .debug$S                   10000000     kernel32:KERNEL32.dll
 0000:fffa8000       .debug$S                   10000000     kernel32:KERNEL32.dll
 0000:fffa8000       .debug$S                   10000000     kernel32:KERNEL32.dll
 0000:fffa8000       .debug$S                   10000000     kernel32:KERNEL32.dll
 0000:fffa8000       .debug$S                   10000000     kernel32:KERNEL32.dll
 0000:fffa8000       .debug$S                   10000000     kernel32:KERNEL32.dll
 0000:fffa8000       .debug$S                   10000000     kernel32:KERNEL32.dll
 0000:fffa8000       .debug$S                   10000000     kernel32:KERNEL32.dll
 0000:fffa8000       .debug$S                   10000000     kernel32:KERNEL32.dll
 0000:fffa8000       .debug$S                   10000000     kernel32:KERNEL32.dll
 0000:fffa8000       .debug$S                   10000000     kernel32:KERNEL32.dll
 0000:fffa8000       .debug$S                   10000000     kernel32:KERNEL32.dll
 0000:fffa8000       .debug$S                   10000000     kernel32:KERNEL32.dll
 0000:fffa8000       .debug$S                   10000000     kernel32:KERNEL32.dll
 0000:fffa8000       .debug$S                   10000000     kernel32:KERNEL32.dll
 0000:fffa8000       .debug$S                   10000000     kernel32:KERNEL32.dll
 0000:fffa8000       .debug$S                   10000000     kernel32:KERNEL32.dll
 0001:00001d47       __catch$?_Buyheadnode@?$_Tree_alloc@$0A@U?$_Tree_base_types@U?$pair@QAUlua_State@@PAVILuaInterface@@@std@@V?$allocator@U?$pair@QAUlua_State@@PAVILuaInterface@@@std@@@2@@std@@@std@@QAEPAU?$_Tree_node@U?$pair@QAUlua_State@@PAVILuaInterface@@@std@@PAX@2@XZ$0 10002d47 f i * CIL library *:* CIL module *
 0001:00002022       __catch$??$_Buynode@U?$pair@PAUlua_State@@PAVILuaInterface@@@std@@@?$_Tree_buy@U?$pair@QAUlua_State@@PAVILuaInterface@@@std@@V?$allocator@U?$pair@QAUlua_State@@PAVILuaInterface@@@std@@@2@@std@@QAEPAU?$_Tree_node@U?$pair@QAUlua_State@@PAVILuaInterface@@@std@@PAX@1@$$QAU?$pair@PAUlua_State@@PAVILuaInterface@@@1@@Z$0 10003022 f i * CIL library *:* CIL module *
 0001:00002b00       __catch$??$_Insert_hint@AAU?$pair@QAUlua_State@@PAVILuaInterface@@@std@@PAU?$_Tree_node@U?$pair@QAUlua_State@@PAVILuaInterface@@@std@@PAX@2@@?$_Tree@V?$_Tmap_traits@PAUlua_State@@PAVILuaInterface@@U?$less@PAUlua_State@@@std@@V?$allocator@U?$pair@QAUlua_State@@PAVILuaInterface@@@std@@@4@$0A@@std@@@std@@IAE?AV?$_Tree_iterator@V?$_Tree_val@U?$_Tree_simple_types@U?$pair@QAUlua_State@@PAVILuaInterface@@@std@@@std@@@std@@@1@V?$_Tree_const_iterator@V?$_Tree_val@U?$_Tree_simple_types@U?$pair@QAUlua_State@@PAVILuaInterface@@@std@@@std@@@std@@@1@AAU?$pair@QAUlua_State@@PAVILuaInterface@@@1@PAU?$_Tree_node@U?$pair@QAUlua_State@@PAVILuaInterface@@@std@@PAX@1@@Z$0 10003b00 f i * CIL library *:* CIL module *
 0001:00002cfd       __catch$?_Buynode0@?$_Tree_buy@U?$pair@QAUlua_State@@PAVILuaInterface@@@std@@V?$allocator@U?$pair@QAUlua_State@@PAVILuaInterface@@@std@@@2@@std@@QAEPAU?$_Tree_node@U?$pair@QAUlua_State@@PAVILuaInterface@@@std@@PAX@2@XZ$0 10003cfd f i * CIL library *:* CIL module *
 0001:000035d2       __catch$??$_Insert_nohint@AAU?$pair@QAUlua_State@@PAVILuaInterface@@@std@@PAU?$_Tree_node@U?$pair@QAUlua_State@@PAVILuaInterface@@@std@@PAX@2@@?$_Tree@V?$_Tmap_traits@PAUlua_State@@PAVILuaInterface@@U?$less@PAUlua_State@@@std@@V?$allocator@U?$pair@QAUlua_State@@PAVILuaInterface@@@std@@@4@$0A@@std@@@std@@IAE?AU?$pair@V?$_Tree_iterator@V?$_Tree_val@U?$_Tree_simple_types@U?$pair@QAUlua_State@@PAVILuaInterface@@@std@@@std@@@std@@@std@@_N@1@_NAAU?$pair@QAUlua_State@@PAVILuaInterface@@@1@PAU?$_Tree_node@U?$pair@QAUlua_State@@PAVILuaInterface@@@std@@PAX@1@@Z$0 100045d2 f i * CIL library *:* CIL module *
 0001:0000449d       __catch$?_Copy@?$basic_string@DU?$char_traits@D@std@@V?$allocator@D@2@@std@@QAEXII@Z$0 1000549d f i * CIL library *:* CIL module *
 0001:000044d1       __catch$?_Copy@?$basic_string@DU?$char_traits@D@std@@V?$allocator@D@2@@std@@QAEXII@Z$1 100054d1 f i * CIL library *:* CIL module *
 0001:00004777       _difftime                  10005777 f   * CIL library *:* CIL module *
 0001:00004790       _gmtime                    10005790 f   * CIL library *:* CIL module *
 0001:0000479e       _time                      1000579e f   * CIL library *:* CIL module *
 0001:0000b431       __catch$?what@system_error@system@boost@@UBEPBDXZ$0 1000c431 f i * CIL library *:* CIL module *
 0001:0000bcfb       $LN19                      1000ccfb     * CIL library *:* CIL module *
 0001:0000d1dd       $LN53                      1000e1dd     * CIL library *:* CIL module *
 0001:0000eea2       __catch$?_Buyheadnode@?$_Tree_alloc@$0A@U?$_Tree_base_types@U?$pair@QBXUtss_data_node@detail@boost@@@std@@V?$allocator@U?$pair@QBXUtss_data_node@detail@boost@@@std@@@2@@std@@@std@@QAEPAU?$_Tree_node@U?$pair@QBXUtss_data_node@detail@boost@@@std@@PAX@2@XZ$0 1000fea2 f i * CIL library *:* CIL module *
 0001:0001120f       __catch$??$heap_new@V?$thread_data@V?$bind_t@XV?$mf1@XVNav@@PA_N@_mfi@boost@@V?$list2@V?$value@PAVNav@@@_bi@boost@@V?$value@PA_N@23@@_bi@3@@_bi@boost@@@detail@boost@@V?$bind_t@XV?$mf1@XVNav@@PA_N@_mfi@boost@@V?$list2@V?$value@PAVNav@@@_bi@boost@@V?$value@PA_N@23@@_bi@3@@_bi@3@@detail@boost@@YAPAV?$thread_data@V?$bind_t@XV?$mf1@XVNav@@PA_N@_mfi@boost@@V?$list2@V?$value@PAVNav@@@_bi@boost@@V?$value@PA_N@23@@_bi@3@@_bi@boost@@@01@$$QAV?$bind_t@XV?$mf1@XVNav@@PA_N@_mfi@boost@@V?$list2@V?$value@PAVNav@@@_bi@boost@@V?$value@PA_N@23@@_bi@3@@_bi@1@@Z$0 1001220f f i * CIL library *:* CIL module *
 0001:000112ca       __catch$??$heap_new@V?$thread_data@V?$bind_t@XV?$mf3@XVNav@@PAUJobInfo_t@@PAVNode@@PAV3@@_mfi@boost@@V?$list4@V?$value@PAVNav@@@_bi@boost@@V?$value@PAUJobInfo_t@@@23@V?$value@PAVNode@@@23@V523@@_bi@3@@_bi@boost@@@detail@boost@@V?$bind_t@XV?$mf3@XVNav@@PAUJobInfo_t@@PAVNode@@PAV3@@_mfi@boost@@V?$list4@V?$value@PAVNav@@@_bi@boost@@V?$value@PAUJobInfo_t@@@23@V?$value@PAVNode@@@23@V523@@_bi@3@@_bi@3@@detail@boost@@YAPAV?$thread_data@V?$bind_t@XV?$mf3@XVNav@@PAUJobInfo_t@@PAVNode@@PAV3@@_mfi@boost@@V?$list4@V?$value@PAVNav@@@_bi@boost@@V?$value@PAUJobInfo_t@@@23@V?$value@PAVNode@@@23@V523@@_bi@3@@_bi@boost@@@01@$$QAV?$bind_t@XV?$mf3@XVNav@@PAUJobInfo_t@@PAVNode@@PAV3@@_mfi@boost@@V?$list4@V?$value@PAVNav@@@_bi@boost@@V?$value@PAUJobInfo_t@@@23@V?$value@PAVNode@@@23@V523@@_bi@3@@_bi@1@@Z$0 100122ca f i * CIL library *:* CIL module *
 0001:00012ab8       $LN111                     10013ab8     tier1:utlbuffer.obj
 0001:00012ad4       $LN102                     10013ad4     tier1:utlbuffer.obj
 0001:00012bc0       $$000000                   10013bc0     LIBCMT:memmove.obj
 0001:00012e10       LeadUpVec                  10013e10     LIBCMT:memmove.obj
 0001:00012e8c       UnwindUpVec                10013e8c     LIBCMT:memmove.obj
 0001:00012ef8       TrailUpVec                 10013ef8     LIBCMT:memmove.obj
 0001:00012f9c       LeadDownVec                10013f9c     LIBCMT:memmove.obj
 0001:00013028       UnwindDownVec              10014028     LIBCMT:memmove.obj
 0001:00013094       TrailDownVec               10014094     LIBCMT:memmove.obj
 0001:0001341f       __onexit_nolock            1001441f f   LIBCMT:onexit.obj
 0001:000143ff       ___DllMainCRTStartup       100153ff f   LIBCMT:dllcrt0.obj
 0001:000145b0       $$000000                   100155b0     LIBCMT:acos.obj
 0001:00014700       $$000000                   10015700     LIBCMT:asin.obj
 0001:00014850       $$000000                   10015850     LIBCMT:87fmod.obj
 0001:00014880       $$000000                   10015880     LIBCMT:pow.obj
 0001:00014b10       $$000000                   10015b10     LIBCMT:ftol2.obj
 0001:00014bc0       $$000000                   10015bc0     LIBCMT:floor_pentium4.obj
 0001:00014cf0       $$000000                   10015cf0     LIBCMT:memset.obj
 0001:00014d80       $$000000                   10015d80     LIBCMT:alloca16.obj
 0001:00014db0       $$000000                   10015db0     LIBCMT:strstr.obj
 0001:00015020       $$000000                   10016020     LIBCMT:memcpy.obj
 0001:00015270       LeadUpVec                  10016270     LIBCMT:memcpy.obj
 0001:000152ec       UnwindUpVec                100162ec     LIBCMT:memcpy.obj
 0001:00015358       TrailUpVec                 10016358     LIBCMT:memcpy.obj
 0001:000153fc       LeadDownVec                100163fc     LIBCMT:memcpy.obj
 0001:00015488       UnwindDownVec              10016488     LIBCMT:memcpy.obj
 0001:000154f4       TrailDownVec               100164f4     LIBCMT:memcpy.obj
 0001:000157f0       $$000000                   100167f0     LIBCMT:strchr.obj
 0001:00015a45       ?strtoxl@@YAKPAUlocaleinfo_struct@@PBDPAPBDHH@Z 10016a45 f   LIBCMT:strtol.obj
 0001:00015e30       $$000000                   10016e30     LIBCMT:strncat.obj
 0001:00015f70       $$000000                   10016f70     LIBCMT:strncpy.obj
 0001:00016160       $$000000                   10017160     LIBCMT:llrem.obj
 0001:00016220       $$000000                   10017220     LIBCMT:lldiv.obj
 0001:00017384       $LN272                     10018384     LIBCMT:output.obj
 0001:000173a4       _write_string              100183a4 f   LIBCMT:output.obj
 0001:000173a4       _write_string              100183a4 f   LIBCMT:output.obj
 0001:00017f64       $LN277                     10018f64     LIBCMT:outputs.obj
 0001:00017f84       _write_char                10018f84 f   LIBCMT:outputs.obj
 0001:00017f84       _write_char                10018f84 f   LIBCMT:outputs.obj
 0001:00017fca       _write_multi_char          10018fca f   LIBCMT:outputs.obj
 0001:00017fca       _write_multi_char          10018fca f   LIBCMT:outputs.obj
 0001:000184e6       __initterm                 100194e6 f   LIBCMT:crt0dat.obj
 0001:00018536       _doexit                    10019536 f   LIBCMT:crt0dat.obj
 0001:00018780       $$000000                   10019780     LIBCMT:sehprolg4.obj
 0001:00018c00       $$000000                   10019c00     LIBCMT:strcmp.obj
 0001:00018d60       $$000000                   10019d60     LIBCMT:strlen.obj
 0001:00018e20       $$000000                   10019e20     LIBCMT:llmul.obj
 0001:00018e60       $$000000                   10019e60     LIBCMT:ulldiv.obj
 0001:000193d0       $$000000                   1001a3d0     LIBCMT:exsup4.obj
 0001:00019460       __unwind_handler4          1001a460 f   LIBCMT:exsup4.obj
 0001:0001a240       $$000000                   1001b240     LIBCMT:chkstk.obj
 0001:0001a61e       _flsall                    1001b61e f   LIBCMT:fflush.obj
 0001:0001ae1d       _parse_cmdline             1001be1d f   LIBCMT:stdargv.obj
 0001:0001b92a       __cftoe2_l                 1001c92a f   LIBCMT:cvt.obj
 0001:0001bb45       __cftof2_l                 1001cb45 f   LIBCMT:cvt.obj
 0001:0001bf6f       __shift                    1001cf6f f   LIBCMT:cvt.obj
 0001:0001bff0       $$000000                   1001cff0     LIBCMT:acos_pentium4.obj
 0001:0001c550       $$000000                   1001d550     LIBCMT:87disp.obj
 0001:0001c720       $$000000                   1001d720     LIBCMT:genexcep.obj
 0001:0001c780       $$000000                   1001d780     LIBCMT:common.obj
 0001:0001c910       $$000000                   1001d910     LIBCMT:asin_pentium4.obj
 0001:0001ce90       $$000000                   1001de90     LIBCMT:87cdisp.obj
 0001:0001d110       $$000000                   1001e110     LIBCMT:pow_pentium4.obj
 0001:0001dc70       $$000000                   1001ec70     LIBCMT:87tran.obj
 0001:0001e2b3       $LN79                      1001f2b3     LIBCMT:libm_error.obj
 0001:0001e7f0       ?CPtoLocaleName@@YAPB_WH@Z 1001f7f0 f   LIBCMT:mbctype.obj
 0001:0001e82a       ?getSystemCP@@YAHH@Z       1001f82a f   LIBCMT:mbctype.obj
 0001:0001e896       ?setSBCS@@YAXPAUthreadmbcinfostruct@@@Z 1001f896 f   LIBCMT:mbctype.obj
 0001:0001e8ff       ?setSBUpLow@@YAXPAUthreadmbcinfostruct@@@Z 1001f8ff f   LIBCMT:mbctype.obj
 0001:0001f0c7       ?__crtLCMapStringA_stat@@YAHPAUlocaleinfo_struct@@PB_WKPBDHPADHHH@Z 100200c7 f   LIBCMT:a_map.obj
 0001:0001fe20       $$000000                   10020e20     LIBCMT:ulldvrm.obj
 0001:000203ec       _siglookup                 100213ec f   LIBCMT:winsig.obj
 0001:00020f10       $$000000                   10021f10     LIBCMT:exsup.obj
 0001:00020f30       __unwind_handler           10021f30 f   LIBCMT:exsup.obj
 0001:000214f3       ?x_ismbbtype_l@@YAHPAUlocaleinfo_struct@@IHH@Z 100224f3 f   LIBCMT:ismbbyte.obj
 0001:00021560       $$000000                   10022560     LIBCMT:strrchr.obj
 0001:000219c0       $$000000                   100229c0     LIBCMT:lldvrm.obj
 0001:00021aa0       $$000000                   10022aa0     LIBCMT:ullshr.obj
 0001:00022b24       ?__crtGetStringTypeA_stat@@YAHPAUlocaleinfo_struct@@KPBDHPAGHH@Z 10023b24 f   LIBCMT:a_str.obj
 0001:00023e7a       $LN304                     10024e7a     LIBCMT:strgtold.obj
 0001:00023ff6       ___createFile              10024ff6 f   LIBCMT:wopen.obj
 0001:000247e0       $$000000                   100257e0     LIBCMT:strncmp.obj
 0001:00025336       ___hw_cw_sse2              10026336 f   LIBCMT:ieee87.obj
 0001:000256df       __hw_cw                    100266df f   LIBCMT:ieee87.obj
 0001:00025c40       $$000000                   10026c40     LIBCMT:_strnicm.obj
 0001:000260c7       __catch$??$call_once@P6AXXZ@boost@@YAXAAUonce_flag@0@P6AXXZ@Z$0 100270c7 f i libboost_thread-vc110-mt-s-1_52:thread.obj
 0001:00026a18       $LN48                      10027a18     libboost_thread-vc110-mt-s-1_52:thread.obj
 0001:00026a9c       $LN49                      10027a9c     libboost_thread-vc110-mt-s-1_52:thread.obj
 0001:00027ab5       __catch$?thread_start_function@?A0xad6650d6@boost@@YGIPAX@Z$0 10028ab5 f   libboost_thread-vc110-mt-s-1_52:thread.obj
 0001:00027ae0       ?on_tls_prepare@?A0x7bab35e0@@YAHXZ 10028ae0 f   libboost_thread-vc110-mt-s-1_52:tss_pe.obj
 0001:00027af0       ?on_process_init@?A0x7bab35e0@@YAHXZ 10028af0 f   libboost_thread-vc110-mt-s-1_52:tss_pe.obj
 0001:00027b10       ?on_process_term@?A0x7bab35e0@@YAHXZ 10028b10 f   libboost_thread-vc110-mt-s-1_52:tss_pe.obj
 0001:00027b20       ?on_tls_callback@?A0x7bab35e0@@YGXPAUHINSTANCE__@@KPAX@Z 10028b20 f   libboost_thread-vc110-mt-s-1_52:tss_pe.obj
 0001:000283e0       $LN110                     100293e0     libboost_system-vc110-mt-s-1_52:error_code.obj
 0001:00028428       $LN106                     10029428     libboost_system-vc110-mt-s-1_52:error_code.obj
 0001:00028500       $LN111                     10029500     libboost_system-vc110-mt-s-1_52:error_code.obj
 0001:00028510       $LN107                     10029510     libboost_system-vc110-mt-s-1_52:error_code.obj
 0001:00028524       $LN112                     10029524     libboost_system-vc110-mt-s-1_52:error_code.obj
 0001:000285a0       $LN108                     100295a0     libboost_system-vc110-mt-s-1_52:error_code.obj
 0001:00028bc8       ?CatchGuardHandler@@YA?AW4_EXCEPTION_DISPOSITION@@PAUEHExceptionRecord@@PAUCatchGuardRN@@PAX2@Z 10029bc8 f   LIBCMT:_trnsctrl_.obj
 0001:00028bf9       ?TranslatorGuardHandler@@YA?AW4_EXCEPTION_DISPOSITION@@PAUEHExceptionRecord@@PAUTranslatorGuardRN@@PAX2@Z 10029bf9 f   LIBCMT:_trnsctrl_.obj
 0001:00029044       __callthreadstartex        1002a044 f   LIBCMT:threadex.obj
 0001:000290b3       __initMTAoncurrentthread   1002a0b3 f   LIBCMT:threadex.obj
 0001:0002910b       __threadstartex@4          1002a10b f   LIBCMT:threadex.obj
 0001:00029188       __uninitMTAoncurrentthread 1002a188 f   LIBCMT:threadex.obj
 0001:00029270       $$000000                   1002a270     LIBCMT:lowhelpr.obj
 0001:00029392       ?CallCatchBlock@@YAPAXPAUEHExceptionRecord@@PAUEHRegistrationNode@@PAU_CONTEXT@@PBU_s_FuncInfo@@PAXHK@Z 1002a392 f   LIBCMT:frame.obj
 0001:00029560       ?CallUnexpected@@YAXPBU_s_ESTypeList@@@Z 1002a560 f   LIBCMT:frame.obj
 0001:00029588       __catch$?CallUnexpected@@YAXPBU_s_ESTypeList@@@Z$0 1002a588 f   LIBCMT:frame.obj
 0001:000295a0       ?CatchIt@@YAXPAUEHExceptionRecord@@PAUEHRegistrationNode@@PAU_CONTEXT@@PAXPBU_s_FuncInfo@@PBU_s_HandlerType@@PBU_s_CatchableType@@PBU_s_TryBlockMapEntry@@H1E@Z 1002a5a0 f   LIBCMT:frame.obj
 0001:0002961b       ?ExFilterRethrow@@YAHPAU_EXCEPTION_POINTERS@@@Z 1002a61b f   LIBCMT:frame.obj
 0001:00029668       ?FindHandler@@YAXPAUEHExceptionRecord@@PAUEHRegistrationNode@@PAU_CONTEXT@@PAXPBU_s_FuncInfo@@EH1@Z 1002a668 f   LIBCMT:frame.obj
 0001:00029a03       ?FindHandlerForForeignException@@YAXPAUEHExceptionRecord@@PAUEHRegistrationNode@@PAU_CONTEXT@@PAXPBU_s_FuncInfo@@HH1@Z 1002aa03 f   LIBCMT:frame.obj
 0001:00029b1d       ?IsInExceptionSpec@@YAEPAUEHExceptionRecord@@PBU_s_ESTypeList@@@Z 1002ab1d f   LIBCMT:frame.obj
 0001:0002a060       $$000000                   1002b060     LIBCMT:ullrem.obj
 0001:0002a0e0       $$000000                   1002b0e0     LIBCMT:sqrt_sse2_precise.obj
 0001:0002a1e0       $$000000                   1002b1e0     LIBCMT:sqrt.obj
 0001:0002a2a0       __unwindfunclet$??$_Destroy_range@U?$_Wrap_alloc@V?$allocator@V?$intrusive_ptr@Vbasic_cv_list_entry@detail@boost@@@boost@@@std@@@std@@@std@@YAXPAV?$intrusive_ptr@Vbasic_cv_list_entry@detail@boost@@@boost@@0AAU?$_Wrap_alloc@V?$allocator@V?$intrusive_ptr@Vbasic_cv_list_entry@detail@boost@@@boost@@@std@@@0@U_Nonscalar_ptr_iterator_tag@0@@Z$0 1002b2a0 f   libboost_thread-vc110-mt-s-1_52:thread.obj
 0001:0002a2a8       __ehhandler$??$_Destroy_range@U?$_Wrap_alloc@V?$allocator@V?$intrusive_ptr@Vbasic_cv_list_entry@detail@boost@@@boost@@@std@@@std@@@std@@YAXPAV?$intrusive_ptr@Vbasic_cv_list_entry@detail@boost@@@boost@@0AAU?$_Wrap_alloc@V?$allocator@V?$intrusive_ptr@Vbasic_cv_list_entry@detail@boost@@@boost@@@std@@@0@U_Nonscalar_ptr_iterator_tag@0@@Z 1002b2a8 f   libboost_thread-vc110-mt-s-1_52:thread.obj
 0001:0002a2d0       __unwindfunclet$??$call_once@P6AXXZ@boost@@YAXAAUonce_flag@0@P6AXXZ@Z$2 1002b2d0 f   libboost_thread-vc110-mt-s-1_52:thread.obj
 0001:0002a2d8       __ehhandler$??$call_once@P6AXXZ@boost@@YAXAAUonce_flag@0@P6AXXZ@Z 1002b2d8 f   libboost_thread-vc110-mt-s-1_52:thread.obj
 0001:0002a300       __ehhandler$??0date@gregorian@boost@@QAE@W4special_values@date_time@2@@Z 1002b300 f   libboost_thread-vc110-mt-s-1_52:thread.obj
 0001:0002a320       __unwindfunclet$??1thread_data_base@detail@boost@@UAE@XZ$0 1002b320 f   libboost_thread-vc110-mt-s-1_52:thread.obj
 0001:0002a32b       __unwindfunclet$??1thread_data_base@detail@boost@@UAE@XZ$1 1002b32b f   libboost_thread-vc110-mt-s-1_52:thread.obj
 0001:0002a336       __unwindfunclet$??1thread_data_base@detail@boost@@UAE@XZ$2 1002b336 f   libboost_thread-vc110-mt-s-1_52:thread.obj
 0001:0002a341       __unwindfunclet$??1thread_data_base@detail@boost@@UAE@XZ$3 1002b341 f   libboost_thread-vc110-mt-s-1_52:thread.obj
 0001:0002a34c       __ehhandler$??1thread_data_base@detail@boost@@UAE@XZ 1002b34c f   libboost_thread-vc110-mt-s-1_52:thread.obj
 0001:0002a370       __unwindfunclet$?do_try_join_until@thread@boost@@AAE_N_K@Z$0 1002b370 f   libboost_thread-vc110-mt-s-1_52:thread.obj
 0001:0002a378       __unwindfunclet$?do_try_join_until@thread@boost@@AAE_N_K@Z$1 1002b378 f   libboost_thread-vc110-mt-s-1_52:thread.obj
 0001:0002a380       __unwindfunclet$?do_try_join_until@thread@boost@@AAE_N_K@Z$2 1002b380 f   libboost_thread-vc110-mt-s-1_52:thread.obj
 0001:0002a388       __ehhandler$?do_try_join_until@thread@boost@@AAE_N_K@Z 1002b388 f   libboost_thread-vc110-mt-s-1_52:thread.obj
 0001:0002a3b0       __unwindfunclet$?interruptible_wait@this_thread@boost@@YA_NPAXUtimeout@detail@2@@Z$0 1002b3b0 f   libboost_thread-vc110-mt-s-1_52:thread.obj
 0001:0002a3b8       __ehhandler$?interruptible_wait@this_thread@boost@@YA_NPAXUtimeout@detail@2@@Z 1002b3b8 f   libboost_thread-vc110-mt-s-1_52:thread.obj
 0001:0002a3e0       __unwindfunclet$?notify_all@basic_condition_variable@detail@boost@@QAEXXZ$0 1002b3e0 f   libboost_thread-vc110-mt-s-1_52:thread.obj
 0001:0002a3e8       __ehhandler$?notify_all@basic_condition_variable@detail@boost@@QAEXXZ 1002b3e8 f   libboost_thread-vc110-mt-s-1_52:thread.obj
 0001:0002a410       __unwindfunclet$?run_thread_exit_callbacks@?A0xad6650d6@boost@@YAXXZ$0 1002b410 f   libboost_thread-vc110-mt-s-1_52:thread.obj
 0001:0002a418       __ehhandler$?run_thread_exit_callbacks@?A0xad6650d6@boost@@YAXXZ 1002b418 f   libboost_thread-vc110-mt-s-1_52:thread.obj
 0001:0002a440       __unwindfunclet$?set_current_thread_data@?A0xad6650d6@boost@@YAXPAUthread_data_base@detail@2@@Z$0 1002b440 f   libboost_thread-vc110-mt-s-1_52:thread.obj
 0001:0002a448       __ehhandler$?set_current_thread_data@?A0xad6650d6@boost@@YAXPAUthread_data_base@detail@2@@Z 1002b448 f   libboost_thread-vc110-mt-s-1_52:thread.obj
 0001:0002a470       __unwindfunclet$?start_thread@thread@boost@@AAEXXZ$0 1002b470 f   libboost_thread-vc110-mt-s-1_52:thread.obj
 0001:0002a478       __ehhandler$?start_thread@thread@boost@@AAEXXZ 1002b478 f   libboost_thread-vc110-mt-s-1_52:thread.obj
 0001:0002a4a0       __ehhandler$?thread_start_function@?A0xad6650d6@boost@@YGIPAX@Z 1002b4a0 f   libboost_thread-vc110-mt-s-1_52:thread.obj
 0001:0002a4c0       __unwindfunclet$?system_category@system@boost@@YAABVerror_category@12@XZ$0 1002b4c0 f   libboost_system-vc110-mt-s-1_52:error_code.obj
 0001:0002a4c0       __unwindfunclet$??__Enative_ecat@system@boost@@YAXXZ$0 1002b4c0 f   libboost_system-vc110-mt-s-1_52:error_code.obj
 0001:0002a4c0       __unwindfunclet$??__Ethrows@system@boost@@YAXXZ$0 1002b4c0 f   libboost_system-vc110-mt-s-1_52:error_code.obj
 0001:0002a4ce       __ehhandler$??__Enative_ecat@system@boost@@YAXXZ 1002b4ce f   libboost_system-vc110-mt-s-1_52:error_code.obj
 0001:0002a4ce       __ehhandler$??__Ethrows@system@boost@@YAXXZ 1002b4ce f   libboost_system-vc110-mt-s-1_52:error_code.obj
 0001:0002a4ce       __ehhandler$?system_category@system@boost@@YAABVerror_category@12@XZ 1002b4ce f   libboost_system-vc110-mt-s-1_52:error_code.obj
 0001:0002a4f0       __unwindfunclet$?default_error_condition@system_error_category@?A0xe218785f@@UBE?AVerror_condition@system@boost@@H@Z$0 1002b4f0 f   libboost_system-vc110-mt-s-1_52:error_code.obj
 0001:0002a4fe       __unwindfunclet$?default_error_condition@system_error_category@?A0xe218785f@@UBE?AVerror_condition@system@boost@@H@Z$1 1002b4fe f   libboost_system-vc110-mt-s-1_52:error_code.obj
 0001:0002a50c       __ehhandler$?default_error_condition@system_error_category@?A0xe218785f@@UBE?AVerror_condition@system@boost@@H@Z 1002b50c f   libboost_system-vc110-mt-s-1_52:error_code.obj
 0001:0002a530       __unwindfunclet$??__Eposix_category@system@boost@@YAXXZ$0 1002b530 f   libboost_system-vc110-mt-s-1_52:error_code.obj
 0001:0002a530       __unwindfunclet$?generic_category@system@boost@@YAABVerror_category@12@XZ$0 1002b530 f   libboost_system-vc110-mt-s-1_52:error_code.obj
 0001:0002a530       __unwindfunclet$??__Eerrno_ecat@system@boost@@YAXXZ$0 1002b530 f   libboost_system-vc110-mt-s-1_52:error_code.obj
 0001:0002a530       __unwindfunclet$?make_error_condition@errc@system@boost@@YA?AVerror_condition@23@W4errc_t@123@@Z$0 1002b530 f   libboost_system-vc110-mt-s-1_52:error_code.obj
 0001:0002a53e       __ehhandler$??__Eerrno_ecat@system@boost@@YAXXZ 1002b53e f   libboost_system-vc110-mt-s-1_52:error_code.obj
 0001:0002a53e       __ehhandler$?generic_category@system@boost@@YAABVerror_category@12@XZ 1002b53e f   libboost_system-vc110-mt-s-1_52:error_code.obj
 0001:0002a53e       __ehhandler$??__Eposix_category@system@boost@@YAXXZ 1002b53e f   libboost_system-vc110-mt-s-1_52:error_code.obj
 0001:0002a53e       __ehhandler$?make_error_condition@errc@system@boost@@YA?AVerror_condition@23@W4errc_t@123@@Z 1002b53e f   libboost_system-vc110-mt-s-1_52:error_code.obj
 0001:0002a560       __unwindfunclet$?message@generic_error_category@?A0xe218785f@@UBE?AV?$basic_string@DU?$char_traits@D@std@@V?$allocator@D@2@@std@@H@Z$0 1002b560 f   libboost_system-vc110-mt-s-1_52:error_code.obj
 0001:0002a56e       __unwindfunclet$?message@generic_error_category@?A0xe218785f@@UBE?AV?$basic_string@DU?$char_traits@D@std@@V?$allocator@D@2@@std@@H@Z$1 1002b56e f   libboost_system-vc110-mt-s-1_52:error_code.obj
 0001:0002a587       __ehhandler$?message@generic_error_category@?A0xe218785f@@UBE?AV?$basic_string@DU?$char_traits@D@std@@V?$allocator@D@2@@std@@H@Z 1002b587 f   libboost_system-vc110-mt-s-1_52:error_code.obj
 0001:0002a5b0       __unwindfunclet$?message@system_error_category@?A0xe218785f@@UBE?AV?$basic_string@DU?$char_traits@D@std@@V?$allocator@D@2@@std@@H@Z$0 1002b5b0 f   libboost_system-vc110-mt-s-1_52:error_code.obj
 0001:0002a5b8       __unwindfunclet$?message@system_error_category@?A0xe218785f@@UBE?AV?$basic_string@DU?$char_traits@D@std@@V?$allocator@D@2@@std@@H@Z$1 1002b5b8 f   libboost_system-vc110-mt-s-1_52:error_code.obj
 0001:0002a5d1       __unwindfunclet$?message@system_error_category@?A0xe218785f@@UBE?AV?$basic_string@DU?$char_traits@D@std@@V?$allocator@D@2@@std@@H@Z$2 1002b5d1 f   libboost_system-vc110-mt-s-1_52:error_code.obj
 0001:0002a5d9       __ehhandler$?message@system_error_category@?A0xe218785f@@UBE?AV?$basic_string@DU?$char_traits@D@std@@V?$allocator@D@2@@std@@H@Z 1002b5d9 f   libboost_system-vc110-mt-s-1_52:error_code.obj
 0001:0002a601       __ehhandler$?CallUnexpected@@YAXPBU_s_ESTypeList@@@Z 1002b601 f   LIBCMT:frame.obj
 0001:0002a61c       __unwindfunclet$??0ILuaInterface@@QAE@PAUlua_State@@@Z$0 1002b61c f   * CIL library *:* CIL module *
 0001:0002a626       __unwindfunclet$??0ILuaInterface@@QAE@PAUlua_State@@@Z$1 1002b626 f   * CIL library *:* CIL module *
 0001:0002a630       __unwindfunclet$??0ILuaInterface@@QAE@PAUlua_State@@@Z$2 1002b630 f   * CIL library *:* CIL module *
 0001:0002a63a       __ehhandler$??0ILuaInterface@@QAE@PAUlua_State@@@Z 1002b63a f   * CIL library *:* CIL module *
 0001:0002a655       __unwindfunclet$?GetNewTable@ILuaInterface@@QAEPAVILuaObject@@XZ$0 1002b655 f   * CIL library *:* CIL module *
 0001:0002a655       __unwindfunclet$?GetMetaTable@ILuaInterface@@QAEPAVILuaObject@@PBDH@Z$0 1002b655 f   * CIL library *:* CIL module *
 0001:0002a655       __unwindfunclet$?GetObject@ILuaInterface@@QAEPAVILuaObject@@H@Z$0 1002b655 f   * CIL library *:* CIL module *
 0001:0002a65f       __ehhandler$?GetMetaTable@ILuaInterface@@QAEPAVILuaObject@@PBDH@Z 1002b65f f   * CIL library *:* CIL module *
 0001:0002a65f       __ehhandler$?GetNewTable@ILuaInterface@@QAEPAVILuaObject@@XZ 1002b65f f   * CIL library *:* CIL module *
 0001:0002a65f       __ehhandler$?GetObject@ILuaInterface@@QAEPAVILuaObject@@H@Z 1002b65f f   * CIL library *:* CIL module *
 0001:0002a67a       __ehhandler$??$_Buynode@U?$pair@PAUlua_State@@PAVILuaInterface@@@std@@@?$_Tree_buy@U?$pair@QAUlua_State@@PAVILuaInterface@@@std@@V?$allocator@U?$pair@QAUlua_State@@PAVILuaInterface@@@std@@@2@@std@@QAEPAU?$_Tree_node@U?$pair@QAUlua_State@@PAVILuaInterface@@@std@@PAX@1@$$QAU?$pair@PAUlua_State@@PAVILuaInterface@@@1@@Z 1002b67a f   * CIL library *:* CIL module *
 0001:0002a695       __ehhandler$??$_Insert_hint@AAU?$pair@QAUlua_State@@PAVILuaInterface@@@std@@PAU?$_Tree_node@U?$pair@QAUlua_State@@PAVILuaInterface@@@std@@PAX@2@@?$_Tree@V?$_Tmap_traits@PAUlua_State@@PAVILuaInterface@@U?$less@PAUlua_State@@@std@@V?$allocator@U?$pair@QAUlua_State@@PAVILuaInterface@@@std@@@4@$0A@@std@@@std@@IAE?AV?$_Tree_iterator@V?$_Tree_val@U?$_Tree_simple_types@U?$pair@QAUlua_State@@PAVILuaInterface@@@std@@@std@@@std@@@1@V?$_Tree_const_iterator@V?$_Tree_val@U?$_Tree_simple_types@U?$pair@QAUlua_State@@PAVILuaInterface@@@std@@@std@@@std@@@1@AAU?$pair@QAUlua_State@@PAVILuaInterface@@@1@PAU?$_Tree_node@U?$pair@QAUlua_State@@PAVILuaInterface@@@std@@PAX@1@@Z 1002b695 f   * CIL library *:* CIL module *
 0001:0002a6b3       __ehhandler$??$_Insert_nohint@AAU?$pair@QAUlua_State@@PAVILuaInterface@@@std@@PAU?$_Tree_node@U?$pair@QAUlua_State@@PAVILuaInterface@@@std@@PAX@2@@?$_Tree@V?$_Tmap_traits@PAUlua_State@@PAVILuaInterface@@U?$less@PAUlua_State@@@std@@V?$allocator@U?$pair@QAUlua_State@@PAVILuaInterface@@@std@@@4@$0A@@std@@@std@@IAE?AU?$pair@V?$_Tree_iterator@V?$_Tree_val@U?$_Tree_simple_types@U?$pair@QAUlua_State@@PAVILuaInterface@@@std@@@std@@@std@@@std@@_N@1@_NAAU?$pair@QAUlua_State@@PAVILuaInterface@@@1@PAU?$_Tree_node@U?$pair@QAUlua_State@@PAVILuaInterface@@@std@@PAX@1@@Z 1002b6b3 f   * CIL library *:* CIL module *
 0001:0002a6d1       __unwindfunclet$??$construct@PADAAPAD@?$allocator@D@std@@QAEXPAPADAAPAD@Z$0 1002b6d1 f   * CIL library *:* CIL module *
 0001:0002a6d1       __unwindfunclet$??$construct@PAU?$_Tree_node@U?$pair@QBXUtss_data_node@detail@boost@@@std@@PAX@std@@AAPAU12@@?$allocator@U?$_Tree_node@U?$pair@QBXUtss_data_node@detail@boost@@@std@@PAX@std@@@std@@QAEXPAPAU?$_Tree_node@U?$pair@QBXUtss_data_node@detail@boost@@@std@@PAX@1@AAPAU21@@Z$0 1002b6d1 f   * CIL library *:* CIL module *
 0001:0002a6d1       __unwindfunclet$??$construct@PAU?$_Tree_node@U?$pair@QAUlua_State@@PAVILuaInterface@@@std@@PAX@std@@AAPAU12@@?$allocator@U?$_Tree_node@U?$pair@QAUlua_State@@PAVILuaInterface@@@std@@PAX@std@@@std@@QAEXPAPAU?$_Tree_node@U?$pair@QAUlua_State@@PAVILuaInterface@@@std@@PAX@1@AAPAU21@@Z$0 1002b6d1 f   * CIL library *:* CIL module *
 0001:0002a6d1       __unwindfunclet$??$construct@U?$pair@QAUlua_State@@PAVILuaInterface@@@std@@U?$pair@PAUlua_State@@PAVILuaInterface@@@2@@?$allocator@U?$_Tree_node@U?$pair@QAUlua_State@@PAVILuaInterface@@@std@@PAX@std@@@std@@QAEXPAU?$pair@QAUlua_State@@PAVILuaInterface@@@1@$$QAU?$pair@PAUlua_State@@PAVILuaInterface@@@1@@Z$0 1002b6d1 f   * CIL library *:* CIL module *
 0001:0002a6df       __ehhandler$??$construct@PAU?$_Tree_node@U?$pair@QAUlua_State@@PAVILuaInterface@@@std@@PAX@std@@AAPAU12@@?$allocator@U?$_Tree_node@U?$pair@QAUlua_State@@PAVILuaInterface@@@std@@PAX@std@@@std@@QAEXPAPAU?$_Tree_node@U?$pair@QAUlua_State@@PAVILuaInterface@@@std@@PAX@1@AAPAU21@@Z 1002b6df f   * CIL library *:* CIL module *
 0001:0002a6df       __ehhandler$??$construct@PADAAPAD@?$allocator@D@std@@QAEXPAPADAAPAD@Z 1002b6df f   * CIL library *:* CIL module *
 0001:0002a6df       __ehhandler$??$construct@PAU?$_Tree_node@U?$pair@QBXUtss_data_node@detail@boost@@@std@@PAX@std@@AAPAU12@@?$allocator@U?$_Tree_node@U?$pair@QBXUtss_data_node@detail@boost@@@std@@PAX@std@@@std@@QAEXPAPAU?$_Tree_node@U?$pair@QBXUtss_data_node@detail@boost@@@std@@PAX@1@AAPAU21@@Z 1002b6df f   * CIL library *:* CIL module *
 0001:0002a6df       __ehhandler$??$construct@U?$pair@QAUlua_State@@PAVILuaInterface@@@std@@U?$pair@PAUlua_State@@PAVILuaInterface@@@2@@?$allocator@U?$_Tree_node@U?$pair@QAUlua_State@@PAVILuaInterface@@@std@@PAX@std@@@std@@QAEXPAU?$pair@QAUlua_State@@PAVILuaInterface@@@1@$$QAU?$pair@PAUlua_State@@PAVILuaInterface@@@1@@Z 1002b6df f   * CIL library *:* CIL module *
 0001:0002a6fa       __unwindfunclet$?nav_Create@@YAHPAUlua_State@@@Z$0 1002b6fa f   * CIL library *:* CIL module *
 0001:0002a6fa       __unwindfunclet$??__Emodulemanager@@YAXXZ$0 1002b6fa f   * CIL library *:* CIL module *
 0001:0002a704       __ehhandler$??__Emodulemanager@@YAXXZ 1002b704 f   * CIL library *:* CIL module *
 0001:0002a704       __ehhandler$?nav_Create@@YAHPAUlua_State@@@Z 1002b704 f   * CIL library *:* CIL module *
 0001:0002a71f       __unwindfunclet$?CreateInterface@ILuaModuleManager@@QAEXPAUlua_State@@@Z$0 1002b71f f   * CIL library *:* CIL module *
 0001:0002a729       __ehhandler$?CreateInterface@ILuaModuleManager@@QAEXPAUlua_State@@@Z 1002b729 f   * CIL library *:* CIL module *
 0001:0002a744       __ehhandler$?_Buyheadnode@?$_Tree_alloc@$0A@U?$_Tree_base_types@U?$pair@QAUlua_State@@PAVILuaInterface@@@std@@V?$allocator@U?$pair@QAUlua_State@@PAVILuaInterface@@@std@@@2@@std@@@std@@QAEPAU?$_Tree_node@U?$pair@QAUlua_State@@PAVILuaInterface@@@std@@PAX@2@XZ 1002b744 f   * CIL library *:* CIL module *
 0001:0002a75f       __ehhandler$?_Buynode0@?$_Tree_buy@U?$pair@QAUlua_State@@PAVILuaInterface@@@std@@V?$allocator@U?$pair@QAUlua_State@@PAVILuaInterface@@@std@@@2@@std@@QAEPAU?$_Tree_node@U?$pair@QAUlua_State@@PAVILuaInterface@@@std@@PAX@2@XZ 1002b75f f   * CIL library *:* CIL module *
 0001:0002a77a       __ehhandler$?_Copy@?$basic_string@DU?$char_traits@D@std@@V?$allocator@D@2@@std@@QAEXII@Z 1002b77a f   * CIL library *:* CIL module *
 0001:0002a795       __unwindfunclet$??$throw_exception@Ubad_day_of_month@gregorian@boost@@@boost@@YAXABUbad_day_of_month@gregorian@0@@Z$0 1002b795 f   * CIL library *:* CIL module *
 0001:0002a79d       __ehhandler$??$throw_exception@Ubad_day_of_month@gregorian@boost@@@boost@@YAXABUbad_day_of_month@gregorian@0@@Z 1002b79d f   * CIL library *:* CIL module *
 0001:0002a7b8       __unwindfunclet$??$throw_exception@Ubad_month@gregorian@boost@@@boost@@YAXABUbad_month@gregorian@0@@Z$0 1002b7b8 f   * CIL library *:* CIL module *
 0001:0002a7c0       __ehhandler$??$throw_exception@Ubad_month@gregorian@boost@@@boost@@YAXABUbad_month@gregorian@0@@Z 1002b7c0 f   * CIL library *:* CIL module *
 0001:0002a7db       __unwindfunclet$??$throw_exception@Ubad_year@gregorian@boost@@@boost@@YAXABUbad_year@gregorian@0@@Z$0 1002b7db f   * CIL library *:* CIL module *
 0001:0002a7e3       __ehhandler$??$throw_exception@Ubad_year@gregorian@boost@@@boost@@YAXABUbad_year@gregorian@0@@Z 1002b7e3 f   * CIL library *:* CIL module *
 0001:0002a7fe       __unwindfunclet$??$throw_exception@Vruntime_error@std@@@boost@@YAXABVruntime_error@std@@@Z$0 1002b7fe f   * CIL library *:* CIL module *
 0001:0002a806       __ehhandler$??$throw_exception@Vruntime_error@std@@@boost@@YAXABVruntime_error@std@@@Z 1002b806 f   * CIL library *:* CIL module *
 0001:0002a821       __unwindfunclet$??1?$CUtlVector@PAUJobInfo_t@@V?$CUtlMemory@PAUJobInfo_t@@H@@@@QAE@XZ$0 1002b821 f   * CIL library *:* CIL module *
 0001:0002a821       __unwindfunclet$??0?$CUtlVector@PAUJobInfo_t@@V?$CUtlMemory@PAUJobInfo_t@@H@@@@QAE@HH@Z$0 1002b821 f   * CIL library *:* CIL module *
 0001:0002a821       __unwindfunclet$??1?$CUtlVector@PAVNode@@V?$CUtlMemory@PAVNode@@H@@@@QAE@XZ$0 1002b821 f   * CIL library *:* CIL module *
 0001:0002a821       __unwindfunclet$??0?$CUtlVector@PAVNode@@V?$CUtlMemory@PAVNode@@H@@@@QAE@HH@Z$0 1002b821 f   * CIL library *:* CIL module *
 0001:0002a821       __unwindfunclet$??1?$CUtlLinkedList@UAirSeedSpot@@H$0A@HV?$CUtlMemory@U?$UtlLinkedListElem_t@UAirSeedSpot@@H@@H@@@@QAE@XZ$0 1002b821 f   * CIL library *:* CIL module *
 0001:0002a821       __unwindfunclet$??1?$CUtlLinkedList@UGroundSeedSpot@@H$0A@HV?$CUtlMemory@U?$UtlLinkedListElem_t@UGroundSeedSpot@@H@@H@@@@QAE@XZ$0 1002b821 f   * CIL library *:* CIL module *
 0001:0002a821       __unwindfunclet$??0?$CUtlLinkedList@UGroundSeedSpot@@H$0A@HV?$CUtlMemory@U?$UtlLinkedListElem_t@UGroundSeedSpot@@H@@H@@@@QAE@HH@Z$0 1002b821 f   * CIL library *:* CIL module *
 0001:0002a821       __unwindfunclet$??0?$CUtlLinkedList@UAirSeedSpot@@H$0A@HV?$CUtlMemory@U?$UtlLinkedListElem_t@UAirSeedSpot@@H@@H@@@@QAE@HH@Z$0 1002b821 f   * CIL library *:* CIL module *
 0001:0002a829       __ehhandler$??0?$CUtlLinkedList@UGroundSeedSpot@@H$0A@HV?$CUtlMemory@U?$UtlLinkedListElem_t@UGroundSeedSpot@@H@@H@@@@QAE@HH@Z 1002b829 f   * CIL library *:* CIL module *
 0001:0002a829       __ehhandler$??1?$CUtlVector@PAVNode@@V?$CUtlMemory@PAVNode@@H@@@@QAE@XZ 1002b829 f   * CIL library *:* CIL module *
 0001:0002a829       __ehhandler$??1?$CUtlVector@PAUJobInfo_t@@V?$CUtlMemory@PAUJobInfo_t@@H@@@@QAE@XZ 1002b829 f   * CIL library *:* CIL module *
 0001:0002a829       __ehhandler$??1?$CUtlLinkedList@UAirSeedSpot@@H$0A@HV?$CUtlMemory@U?$UtlLinkedListElem_t@UAirSeedSpot@@H@@H@@@@QAE@XZ 1002b829 f   * CIL library *:* CIL module *
 0001:0002a829       __ehhandler$??1?$CUtlLinkedList@UGroundSeedSpot@@H$0A@HV?$CUtlMemory@U?$UtlLinkedListElem_t@UGroundSeedSpot@@H@@H@@@@QAE@XZ 1002b829 f   * CIL library *:* CIL module *
 0001:0002a829       __ehhandler$??0?$CUtlVector@PAVNode@@V?$CUtlMemory@PAVNode@@H@@@@QAE@HH@Z 1002b829 f   * CIL library *:* CIL module *
 0001:0002a829       __ehhandler$??0?$CUtlLinkedList@UAirSeedSpot@@H$0A@HV?$CUtlMemory@U?$UtlLinkedListElem_t@UAirSeedSpot@@H@@H@@@@QAE@HH@Z 1002b829 f   * CIL library *:* CIL module *
 0001:0002a829       __ehhandler$??0?$CUtlVector@PAUJobInfo_t@@V?$CUtlMemory@PAUJobInfo_t@@H@@@@QAE@HH@Z 1002b829 f   * CIL library *:* CIL module *
 0001:0002a844       __unwindfunclet$??0?$clone_impl@U?$error_info_injector@Ubad_day_of_month@gregorian@boost@@@exception_detail@boost@@@exception_detail@boost@@QAE@ABU?$error_info_injector@Ubad_day_of_month@gregorian@boost@@@12@@Z$0 1002b844 f   * CIL library *:* CIL module *
 0001:0002a844       __unwindfunclet$??0?$clone_impl@U?$error_info_injector@Ubad_day_of_month@gregorian@boost@@@exception_detail@boost@@@exception_detail@boost@@AAE@ABV012@Uclone_tag@012@@Z$0 1002b844 f   * CIL library *:* CIL module *
 0001:0002a860       __unwindfunclet$??0?$clone_impl@U?$error_info_injector@Ubad_day_of_month@gregorian@boost@@@exception_detail@boost@@@exception_detail@boost@@AAE@ABV012@Uclone_tag@012@@Z$1 1002b860 f   * CIL library *:* CIL module *
 0001:0002a860       __unwindfunclet$??0?$clone_impl@U?$error_info_injector@Ubad_day_of_month@gregorian@boost@@@exception_detail@boost@@@exception_detail@boost@@QAE@ABU?$error_info_injector@Ubad_day_of_month@gregorian@boost@@@12@@Z$1 1002b860 f   * CIL library *:* CIL module *
 0001:0002a868       __ehhandler$??0?$clone_impl@U?$error_info_injector@Ubad_day_of_month@gregorian@boost@@@exception_detail@boost@@@exception_detail@boost@@AAE@ABV012@Uclone_tag@012@@Z 1002b868 f   * CIL library *:* CIL module *
 0001:0002a868       __ehhandler$??0?$clone_impl@U?$error_info_injector@Ubad_day_of_month@gregorian@boost@@@exception_detail@boost@@@exception_detail@boost@@QAE@ABU?$error_info_injector@Ubad_day_of_month@gregorian@boost@@@12@@Z 1002b868 f   * CIL library *:* CIL module *
 0001:0002a883       __unwindfunclet$??0?$clone_impl@U?$error_info_injector@Ubad_month@gregorian@boost@@@exception_detail@boost@@@exception_detail@boost@@QAE@ABU?$error_info_injector@Ubad_month@gregorian@boost@@@12@@Z$0 1002b883 f   * CIL library *:* CIL module *
 0001:0002a883       __unwindfunclet$??0?$clone_impl@U?$error_info_injector@Ubad_month@gregorian@boost@@@exception_detail@boost@@@exception_detail@boost@@AAE@ABV012@Uclone_tag@012@@Z$0 1002b883 f   * CIL library *:* CIL module *
 0001:0002a89f       __unwindfunclet$??0?$clone_impl@U?$error_info_injector@Ubad_month@gregorian@boost@@@exception_detail@boost@@@exception_detail@boost@@AAE@ABV012@Uclone_tag@012@@Z$1 1002b89f f   * CIL library *:* CIL module *
 0001:0002a89f       __unwindfunclet$??0?$clone_impl@U?$error_info_injector@Ubad_month@gregorian@boost@@@exception_detail@boost@@@exception_detail@boost@@QAE@ABU?$error_info_injector@Ubad_month@gregorian@boost@@@12@@Z$1 1002b89f f   * CIL library *:* CIL module *
 0001:0002a8a7       __ehhandler$??0?$clone_impl@U?$error_info_injector@Ubad_month@gregorian@boost@@@exception_detail@boost@@@exception_detail@boost@@AAE@ABV012@Uclone_tag@012@@Z 1002b8a7 f   * CIL library *:* CIL module *
 0001:0002a8a7       __ehhandler$??0?$clone_impl@U?$error_info_injector@Ubad_month@gregorian@boost@@@exception_detail@boost@@@exception_detail@boost@@QAE@ABU?$error_info_injector@Ubad_month@gregorian@boost@@@12@@Z 1002b8a7 f   * CIL library *:* CIL module *
 0001:0002a8c2       __unwindfunclet$??0?$clone_impl@U?$error_info_injector@Ubad_year@gregorian@boost@@@exception_detail@boost@@@exception_detail@boost@@QAE@ABU?$error_info_injector@Ubad_year@gregorian@boost@@@12@@Z$0 1002b8c2 f   * CIL library *:* CIL module *
 0001:0002a8c2       __unwindfunclet$??0?$clone_impl@U?$error_info_injector@Ubad_year@gregorian@boost@@@exception_detail@boost@@@exception_detail@boost@@AAE@ABV012@Uclone_tag@012@@Z$0 1002b8c2 f   * CIL library *:* CIL module *
 0001:0002a8de       __unwindfunclet$??0?$clone_impl@U?$error_info_injector@Ubad_year@gregorian@boost@@@exception_detail@boost@@@exception_detail@boost@@QAE@ABU?$error_info_injector@Ubad_year@gregorian@boost@@@12@@Z$1 1002b8de f   * CIL library *:* CIL module *
 0001:0002a8de       __unwindfunclet$??0?$clone_impl@U?$error_info_injector@Ubad_year@gregorian@boost@@@exception_detail@boost@@@exception_detail@boost@@AAE@ABV012@Uclone_tag@012@@Z$1 1002b8de f   * CIL library *:* CIL module *
 0001:0002a8e6       __ehhandler$??0?$clone_impl@U?$error_info_injector@Ubad_year@gregorian@boost@@@exception_detail@boost@@@exception_detail@boost@@AAE@ABV012@Uclone_tag@012@@Z 1002b8e6 f   * CIL library *:* CIL module *
 0001:0002a8e6       __ehhandler$??0?$clone_impl@U?$error_info_injector@Ubad_year@gregorian@boost@@@exception_detail@boost@@@exception_detail@boost@@QAE@ABU?$error_info_injector@Ubad_year@gregorian@boost@@@12@@Z 1002b8e6 f   * CIL library *:* CIL module *
 0001:0002a901       __unwindfunclet$??0?$clone_impl@U?$error_info_injector@Vruntime_error@std@@@exception_detail@boost@@@exception_detail@boost@@QAE@ABU?$error_info_injector@Vruntime_error@std@@@12@@Z$0 1002b901 f   * CIL library *:* CIL module *
 0001:0002a901       __unwindfunclet$??0?$clone_impl@U?$error_info_injector@Vruntime_error@std@@@exception_detail@boost@@@exception_detail@boost@@AAE@ABV012@Uclone_tag@012@@Z$0 1002b901 f   * CIL library *:* CIL module *
 0001:0002a91d       __unwindfunclet$??0?$clone_impl@U?$error_info_injector@Vruntime_error@std@@@exception_detail@boost@@@exception_detail@boost@@QAE@ABU?$error_info_injector@Vruntime_error@std@@@12@@Z$1 1002b91d f   * CIL library *:* CIL module *
 0001:0002a91d       __unwindfunclet$??0?$clone_impl@U?$error_info_injector@Vruntime_error@std@@@exception_detail@boost@@@exception_detail@boost@@AAE@ABV012@Uclone_tag@012@@Z$1 1002b91d f   * CIL library *:* CIL module *
 0001:0002a925       __ehhandler$??0?$clone_impl@U?$error_info_injector@Vruntime_error@std@@@exception_detail@boost@@@exception_detail@boost@@QAE@ABU?$error_info_injector@Vruntime_error@std@@@12@@Z 1002b925 f   * CIL library *:* CIL module *
 0001:0002a925       __ehhandler$??0?$clone_impl@U?$error_info_injector@Vruntime_error@std@@@exception_detail@boost@@@exception_detail@boost@@AAE@ABV012@Uclone_tag@012@@Z 1002b925 f   * CIL library *:* CIL module *
 0001:0002a940       __unwindfunclet$??0?$clone_impl@U?$error_info_injector@Vbad_alloc@std@@@exception_detail@boost@@@exception_detail@boost@@QAE@ABV012@@Z$0 1002b940 f   * CIL library *:* CIL module *
 0001:0002a940       __unwindfunclet$??0?$clone_impl@U?$error_info_injector@Ubad_day_of_month@gregorian@boost@@@exception_detail@boost@@@exception_detail@boost@@QAE@ABV012@@Z$0 1002b940 f   * CIL library *:* CIL module *
 0001:0002a940       __unwindfunclet$??0?$clone_impl@U?$error_info_injector@Ubad_month@gregorian@boost@@@exception_detail@boost@@@exception_detail@boost@@QAE@ABV012@@Z$0 1002b940 f   * CIL library *:* CIL module *
 0001:0002a940       __unwindfunclet$??0?$clone_impl@U?$error_info_injector@Vruntime_error@std@@@exception_detail@boost@@@exception_detail@boost@@QAE@ABV012@@Z$0 1002b940 f   * CIL library *:* CIL module *
 0001:0002a940       __unwindfunclet$??0?$clone_impl@U?$error_info_injector@Ubad_year@gregorian@boost@@@exception_detail@boost@@@exception_detail@boost@@QAE@ABV012@@Z$0 1002b940 f   * CIL library *:* CIL module *
 0001:0002a95c       __ehhandler$??0?$clone_impl@U?$error_info_injector@Ubad_day_of_month@gregorian@boost@@@exception_detail@boost@@@exception_detail@boost@@QAE@ABV012@@Z 1002b95c f   * CIL library *:* CIL module *
 0001:0002a95c       __ehhandler$??0?$clone_impl@U?$error_info_injector@Ubad_month@gregorian@boost@@@exception_detail@boost@@@exception_detail@boost@@QAE@ABV012@@Z 1002b95c f   * CIL library *:* CIL module *
 0001:0002a95c       __ehhandler$??0?$clone_impl@U?$error_info_injector@Vruntime_error@std@@@exception_detail@boost@@@exception_detail@boost@@QAE@ABV012@@Z 1002b95c f   * CIL library *:* CIL module *
 0001:0002a95c       __ehhandler$??0?$clone_impl@U?$error_info_injector@Ubad_year@gregorian@boost@@@exception_detail@boost@@@exception_detail@boost@@QAE@ABV012@@Z 1002b95c f   * CIL library *:* CIL module *
 0001:0002a95c       __ehhandler$??0?$clone_impl@U?$error_info_injector@Vbad_alloc@std@@@exception_detail@boost@@@exception_detail@boost@@QAE@ABV012@@Z 1002b95c f   * CIL library *:* CIL module *
 0001:0002a977       __unwindfunclet$??0?$error_info_injector@Ubad_day_of_month@gregorian@boost@@@exception_detail@boost@@QAE@ABU012@@Z$0 1002b977 f   * CIL library *:* CIL module *
 0001:0002a977       __unwindfunclet$??0?$error_info_injector@Ubad_year@gregorian@boost@@@exception_detail@boost@@QAE@ABU012@@Z$0 1002b977 f   * CIL library *:* CIL module *
 0001:0002a977       __unwindfunclet$??0?$error_info_injector@Ubad_month@gregorian@boost@@@exception_detail@boost@@QAE@ABU012@@Z$0 1002b977 f   * CIL library *:* CIL module *
 0001:0002a97f       __ehhandler$??0?$error_info_injector@Ubad_year@gregorian@boost@@@exception_detail@boost@@QAE@ABU012@@Z 1002b97f f   * CIL library *:* CIL module *
 0001:0002a97f       __ehhandler$??0?$error_info_injector@Ubad_day_of_month@gregorian@boost@@@exception_detail@boost@@QAE@ABU012@@Z 1002b97f f   * CIL library *:* CIL module *
 0001:0002a97f       __ehhandler$??0?$error_info_injector@Ubad_month@gregorian@boost@@@exception_detail@boost@@QAE@ABU012@@Z 1002b97f f   * CIL library *:* CIL module *
 0001:0002a99a       __unwindfunclet$??0?$error_info_injector@Ubad_month@gregorian@boost@@@exception_detail@boost@@QAE@ABUbad_month@gregorian@2@@Z$0 1002b99a f   * CIL library *:* CIL module *
 0001:0002a99a       __unwindfunclet$??0?$error_info_injector@Ubad_day_of_month@gregorian@boost@@@exception_detail@boost@@QAE@ABUbad_day_of_month@gregorian@2@@Z$0 1002b99a f   * CIL library *:* CIL module *
 0001:0002a99a       __unwindfunclet$??0?$error_info_injector@Ubad_year@gregorian@boost@@@exception_detail@boost@@QAE@ABUbad_year@gregorian@2@@Z$0 1002b99a f   * CIL library *:* CIL module *
 0001:0002a9a2       __ehhandler$??0?$error_info_injector@Ubad_day_of_month@gregorian@boost@@@exception_detail@boost@@QAE@ABUbad_day_of_month@gregorian@2@@Z 1002b9a2 f   * CIL library *:* CIL module *
 0001:0002a9a2       __ehhandler$??0?$error_info_injector@Ubad_month@gregorian@boost@@@exception_detail@boost@@QAE@ABUbad_month@gregorian@2@@Z 1002b9a2 f   * CIL library *:* CIL module *
 0001:0002a9a2       __ehhandler$??0?$error_info_injector@Ubad_year@gregorian@boost@@@exception_detail@boost@@QAE@ABUbad_year@gregorian@2@@Z 1002b9a2 f   * CIL library *:* CIL module *
 0001:0002a9bd       __unwindfunclet$??0?$error_info_injector@Vruntime_error@std@@@exception_detail@boost@@QAE@ABU012@@Z$0 1002b9bd f   * CIL library *:* CIL module *
 0001:0002a9c5       __ehhandler$??0?$error_info_injector@Vruntime_error@std@@@exception_detail@boost@@QAE@ABU012@@Z 1002b9c5 f   * CIL library *:* CIL module *
 0001:0002a9e0       __unwindfunclet$??1JobInfo_t@@QAE@XZ$0 1002b9e0 f   * CIL library *:* CIL module *
 0001:0002a9e0       __unwindfunclet$??0JobInfo_t@@QAE@XZ$0 1002b9e0 f   * CIL library *:* CIL module *
 0001:0002a9e8       __ehhandler$??1JobInfo_t@@QAE@XZ 1002b9e8 f   * CIL library *:* CIL module *
 0001:0002a9e8       __ehhandler$??0JobInfo_t@@QAE@XZ 1002b9e8 f   * CIL library *:* CIL module *
 0001:0002aa03       __unwindfunclet$??0bad_day_of_month@gregorian@boost@@QAE@XZ$0 1002ba03 f   * CIL library *:* CIL module *
 0001:0002aa03       __unwindfunclet$??0bad_year@gregorian@boost@@QAE@XZ$0 1002ba03 f   * CIL library *:* CIL module *
 0001:0002aa03       __unwindfunclet$??0bad_month@gregorian@boost@@QAE@XZ$0 1002ba03 f   * CIL library *:* CIL module *
 0001:0002aa0b       __ehhandler$??0bad_month@gregorian@boost@@QAE@XZ 1002ba0b f   * CIL library *:* CIL module *
 0001:0002aa0b       __ehhandler$??0bad_year@gregorian@boost@@QAE@XZ 1002ba0b f   * CIL library *:* CIL module *
 0001:0002aa0b       __ehhandler$??0bad_day_of_month@gregorian@boost@@QAE@XZ 1002ba0b f   * CIL library *:* CIL module *
 0001:0002aa30       __unwindfunclet$??0date@gregorian@boost@@QAE@Vgreg_year@12@Vgreg_month@12@Vgreg_day@12@@Z$0 1002ba30 f   * CIL library *:* CIL module *
 0001:0002aa38       __unwindfunclet$??0date@gregorian@boost@@QAE@Vgreg_year@12@Vgreg_month@12@Vgreg_day@12@@Z$1 1002ba38 f   * CIL library *:* CIL module *
 0001:0002aa40       __ehhandler$??0date@gregorian@boost@@QAE@Vgreg_year@12@Vgreg_month@12@Vgreg_day@12@@Z 1002ba40 f   * CIL library *:* CIL module *
 0001:0002aa65       __unwindfunclet$??1thread@boost@@QAE@XZ$0 1002ba65 f   * CIL library *:* CIL module *
 0001:0002aa6d       __ehhandler$??1thread@boost@@QAE@XZ 1002ba6d f   * CIL library *:* CIL module *
 0001:0002aa88       __unwindfunclet$?Nav_FindPath@@YAHPAUlua_State@@@Z$0 1002ba88 f   * CIL library *:* CIL module *
 0001:0002aa88       __unwindfunclet$?GetGlobal@ILuaInterface@@QAEPAVILuaObject@@PBD@Z$0 1002ba88 f   * CIL library *:* CIL module *
 0001:0002aa88       __unwindfunclet$?GetMember@ILuaObject@@QAEPAV1@PBD@Z$0 1002ba88 f   * CIL library *:* CIL module *
 0001:0002aa88       __unwindfunclet$?Nav_FindPathHull@@YAHPAUlua_State@@@Z$0 1002ba88 f   * CIL library *:* CIL module *
 0001:0002aa88       __unwindfunclet$?Nav_Generate@@YAHPAUlua_State@@@Z$0 1002ba88 f   * CIL library *:* CIL module *
 0001:0002aa92       __ehhandler$?GetMember@ILuaObject@@QAEPAV1@PBD@Z 1002ba92 f   * CIL library *:* CIL module *
 0001:0002aa92       __ehhandler$?GetGlobal@ILuaInterface@@QAEPAVILuaObject@@PBD@Z 1002ba92 f   * CIL library *:* CIL module *
 0001:0002aa92       __ehhandler$?Nav_FindPath@@YAHPAUlua_State@@@Z 1002ba92 f   * CIL library *:* CIL module *
 0001:0002aa92       __ehhandler$?Nav_Generate@@YAHPAUlua_State@@@Z 1002ba92 f   * CIL library *:* CIL module *
 0001:0002aa92       __ehhandler$?Nav_FindPathHull@@YAHPAUlua_State@@@Z 1002ba92 f   * CIL library *:* CIL module *
 0001:0002aaad       __unwindfunclet$?Nav_FindPathImmediate@@YAHPAUlua_State@@@Z$0 1002baad f   * CIL library *:* CIL module *
 0001:0002aab7       __ehhandler$?Nav_FindPathImmediate@@YAHPAUlua_State@@@Z 1002bab7 f   * CIL library *:* CIL module *
 0001:0002aad2       __unwindfunclet$?copy_boost_exception@exception_detail@boost@@YAXPAVexception@2@PBV32@@Z$0 1002bad2 f   * CIL library *:* CIL module *
 0001:0002aada       __unwindfunclet$?copy_boost_exception@exception_detail@boost@@YAXPAVexception@2@PBV32@@Z$1 1002bada f   * CIL library *:* CIL module *
 0001:0002aae2       __ehhandler$?copy_boost_exception@exception_detail@boost@@YAXPAVexception@2@PBV32@@Z 1002bae2 f   * CIL library *:* CIL module *
 0001:0002aafd       __unwindfunclet$?gmtime@c_time@date_time@boost@@SAPAUtm@@PB_JPAU4@@Z$0 1002bafd f   * CIL library *:* CIL module *
 0001:0002ab05       __ehhandler$?gmtime@c_time@date_time@boost@@SAPAUtm@@PB_JPAU4@@Z 1002bb05 f   * CIL library *:* CIL module *
 0001:0002ab20       __unwindfunclet$?on_error@?$simple_exception_policy@G$0FHI@$0CHBA@Ubad_year@gregorian@boost@@@CV@boost@@SAXGGW4violation_enum@23@@Z$0 1002bb20 f   * CIL library *:* CIL module *
 0001:0002ab20       __unwindfunclet$?on_error@?$simple_exception_policy@G$00$0M@Ubad_month@gregorian@boost@@@CV@boost@@SAXGGW4violation_enum@23@@Z$0 1002bb20 f   * CIL library *:* CIL module *
 0001:0002ab20       __unwindfunclet$?on_error@?$simple_exception_policy@G$00$0BP@Ubad_day_of_month@gregorian@boost@@@CV@boost@@SAXGGW4violation_enum@23@@Z$0 1002bb20 f   * CIL library *:* CIL module *
 0001:0002ab28       __ehhandler$?on_error@?$simple_exception_policy@G$00$0M@Ubad_month@gregorian@boost@@@CV@boost@@SAXGGW4violation_enum@23@@Z 1002bb28 f   * CIL library *:* CIL module *
 0001:0002ab28       __ehhandler$?on_error@?$simple_exception_policy@G$0FHI@$0CHBA@Ubad_year@gregorian@boost@@@CV@boost@@SAXGGW4violation_enum@23@@Z 1002bb28 f   * CIL library *:* CIL module *
 0001:0002ab28       __ehhandler$?on_error@?$simple_exception_policy@G$00$0BP@Ubad_day_of_month@gregorian@boost@@@CV@boost@@SAXGGW4violation_enum@23@@Z 1002bb28 f   * CIL library *:* CIL module *
 0001:0002ab43       __unwindfunclet$??$?0P8Nav@@AEXPAUJobInfo_t@@PAVNode@@1@ZPAV0@PAU1@PAV2@PAV2@@thread@boost@@QAE@P8Nav@@AEXPAUJobInfo_t@@PAVNode@@1@ZPAV2@011@Z$0 1002bb43 f   * CIL library *:* CIL module *
 0001:0002ab4b       __ehhandler$??$?0P8Nav@@AEXPAUJobInfo_t@@PAVNode@@1@ZPAV0@PAU1@PAV2@PAV2@@thread@boost@@QAE@P8Nav@@AEXPAUJobInfo_t@@PAVNode@@1@ZPAV2@011@Z 1002bb4b f   * CIL library *:* CIL module *
 0001:0002ab66       __unwindfunclet$??$?0P8Nav@@AEXPA_N@ZPAV0@PA_N@thread@boost@@QAE@P8Nav@@AEXPA_N@ZPAV2@0@Z$0 1002bb66 f   * CIL library *:* CIL module *
 0001:0002ab6e       __ehhandler$??$?0P8Nav@@AEXPA_N@ZPAV0@PA_N@thread@boost@@QAE@P8Nav@@AEXPA_N@ZPAV2@0@Z 1002bb6e f   * CIL library *:* CIL module *
 0001:0002ab89       __unwindfunclet$??$heap_new@V?$thread_data@V?$bind_t@XV?$mf1@XVNav@@PA_N@_mfi@boost@@V?$list2@V?$value@PAVNav@@@_bi@boost@@V?$value@PA_N@23@@_bi@3@@_bi@boost@@@detail@boost@@V?$bind_t@XV?$mf1@XVNav@@PA_N@_mfi@boost@@V?$list2@V?$value@PAVNav@@@_bi@boost@@V?$value@PA_N@23@@_bi@3@@_bi@3@@detail@boost@@YAPAV?$thread_data@V?$bind_t@XV?$mf1@XVNav@@PA_N@_mfi@boost@@V?$list2@V?$value@PAVNav@@@_bi@boost@@V?$value@PA_N@23@@_bi@3@@_bi@boost@@@01@$$QAV?$bind_t@XV?$mf1@XVNav@@PA_N@_mfi@boost@@V?$list2@V?$value@PAVNav@@@_bi@boost@@V?$value@PA_N@23@@_bi@3@@_bi@1@@Z$2 1002bb89 f   * CIL library *:* CIL module *
 0001:0002ab97       __ehhandler$??$heap_new@V?$thread_data@V?$bind_t@XV?$mf1@XVNav@@PA_N@_mfi@boost@@V?$list2@V?$value@PAVNav@@@_bi@boost@@V?$value@PA_N@23@@_bi@3@@_bi@boost@@@detail@boost@@V?$bind_t@XV?$mf1@XVNav@@PA_N@_mfi@boost@@V?$list2@V?$value@PAVNav@@@_bi@boost@@V?$value@PA_N@23@@_bi@3@@_bi@3@@detail@boost@@YAPAV?$thread_data@V?$bind_t@XV?$mf1@XVNav@@PA_N@_mfi@boost@@V?$list2@V?$value@PAVNav@@@_bi@boost@@V?$value@PA_N@23@@_bi@3@@_bi@boost@@@01@$$QAV?$bind_t@XV?$mf1@XVNav@@PA_N@_mfi@boost@@V?$list2@V?$value@PAVNav@@@_bi@boost@@V?$value@PA_N@23@@_bi@3@@_bi@1@@Z 1002bb97 f   * CIL library *:* CIL module *
 0001:0002abb2       __unwindfunclet$??$heap_new@V?$thread_data@V?$bind_t@XV?$mf3@XVNav@@PAUJobInfo_t@@PAVNode@@PAV3@@_mfi@boost@@V?$list4@V?$value@PAVNav@@@_bi@boost@@V?$value@PAUJobInfo_t@@@23@V?$value@PAVNode@@@23@V523@@_bi@3@@_bi@boost@@@detail@boost@@V?$bind_t@XV?$mf3@XVNav@@PAUJobInfo_t@@PAVNode@@PAV3@@_mfi@boost@@V?$list4@V?$value@PAVNav@@@_bi@boost@@V?$value@PAUJobInfo_t@@@23@V?$value@PAVNode@@@23@V523@@_bi@3@@_bi@3@@detail@boost@@YAPAV?$thread_data@V?$bind_t@XV?$mf3@XVNav@@PAUJobInfo_t@@PAVNode@@PAV3@@_mfi@boost@@V?$list4@V?$value@PAVNav@@@_bi@boost@@V?$value@PAUJobInfo_t@@@23@V?$value@PAVNode@@@23@V523@@_bi@3@@_bi@boost@@@01@$$QAV?$bind_t@XV?$mf3@XVNav@@PAUJobInfo_t@@PAVNode@@PAV3@@_mfi@boost@@V?$list4@V?$value@PAVNav@@@_bi@boost@@V?$value@PAUJobInfo_t@@@23@V?$value@PAVNode@@@23@V523@@_bi@3@@_bi@1@@Z$2 1002bbb2 f   * CIL library *:* CIL module *
 0001:0002abc0       __ehhandler$??$heap_new@V?$thread_data@V?$bind_t@XV?$mf3@XVNav@@PAUJobInfo_t@@PAVNode@@PAV3@@_mfi@boost@@V?$list4@V?$value@PAVNav@@@_bi@boost@@V?$value@PAUJobInfo_t@@@23@V?$value@PAVNode@@@23@V523@@_bi@3@@_bi@boost@@@detail@boost@@V?$bind_t@XV?$mf3@XVNav@@PAUJobInfo_t@@PAVNode@@PAV3@@_mfi@boost@@V?$list4@V?$value@PAVNav@@@_bi@boost@@V?$value@PAUJobInfo_t@@@23@V?$value@PAVNode@@@23@V523@@_bi@3@@_bi@3@@detail@boost@@YAPAV?$thread_data@V?$bind_t@XV?$mf3@XVNav@@PAUJobInfo_t@@PAVNode@@PAV3@@_mfi@boost@@V?$list4@V?$value@PAVNav@@@_bi@boost@@V?$value@PAUJobInfo_t@@@23@V?$value@PAVNode@@@23@V523@@_bi@3@@_bi@boost@@@01@$$QAV?$bind_t@XV?$mf3@XVNav@@PAUJobInfo_t@@PAVNode@@PAV3@@_mfi@boost@@V?$list4@V?$value@PAVNav@@@_bi@boost@@V?$value@PAUJobInfo_t@@@23@V?$value@PAVNode@@@23@V523@@_bi@3@@_bi@1@@Z 1002bbc0 f   * CIL library *:* CIL module *
 0001:0002abdb       __unwindfunclet$??$throw_exception@Vbad_alloc@std@@@boost@@YAXABVbad_alloc@std@@@Z$0 1002bbdb f   * CIL library *:* CIL module *
 0001:0002abe3       __ehhandler$??$throw_exception@Vbad_alloc@std@@@boost@@YAXABVbad_alloc@std@@@Z 1002bbe3 f   * CIL library *:* CIL module *
 0001:0002abfe       __unwindfunclet$??$throw_exception@Vthread_resource_error@boost@@@boost@@YAXABVthread_resource_error@0@@Z$0 1002bbfe f   * CIL library *:* CIL module *
 0001:0002ac06       __ehhandler$??$throw_exception@Vthread_resource_error@boost@@@boost@@YAXABVthread_resource_error@0@@Z 1002bc06 f   * CIL library *:* CIL module *
 0001:0002ac24       __unwindfunclet$??0?$clone_impl@U?$error_info_injector@Vbad_alloc@std@@@exception_detail@boost@@@exception_detail@boost@@AAE@ABV012@Uclone_tag@012@@Z$0 1002bc24 f   * CIL library *:* CIL module *
 0001:0002ac24       __unwindfunclet$??0?$clone_impl@U?$error_info_injector@Vbad_alloc@std@@@exception_detail@boost@@@exception_detail@boost@@QAE@ABU?$error_info_injector@Vbad_alloc@std@@@12@@Z$0 1002bc24 f   * CIL library *:* CIL module *
 0001:0002ac40       __unwindfunclet$??0?$clone_impl@U?$error_info_injector@Vbad_alloc@std@@@exception_detail@boost@@@exception_detail@boost@@QAE@ABU?$error_info_injector@Vbad_alloc@std@@@12@@Z$1 1002bc40 f   * CIL library *:* CIL module *
 0001:0002ac40       __unwindfunclet$??0?$clone_impl@U?$error_info_injector@Vbad_alloc@std@@@exception_detail@boost@@@exception_detail@boost@@AAE@ABV012@Uclone_tag@012@@Z$1 1002bc40 f   * CIL library *:* CIL module *
 0001:0002ac48       __ehhandler$??0?$clone_impl@U?$error_info_injector@Vbad_alloc@std@@@exception_detail@boost@@@exception_detail@boost@@AAE@ABV012@Uclone_tag@012@@Z 1002bc48 f   * CIL library *:* CIL module *
 0001:0002ac48       __ehhandler$??0?$clone_impl@U?$error_info_injector@Vbad_alloc@std@@@exception_detail@boost@@@exception_detail@boost@@QAE@ABU?$error_info_injector@Vbad_alloc@std@@@12@@Z 1002bc48 f   * CIL library *:* CIL module *
 0001:0002ac63       __unwindfunclet$??0?$clone_impl@U?$error_info_injector@Vthread_resource_error@boost@@@exception_detail@boost@@@exception_detail@boost@@AAE@ABV012@Uclone_tag@012@@Z$0 1002bc63 f   * CIL library *:* CIL module *
 0001:0002ac63       __unwindfunclet$??0?$clone_impl@U?$error_info_injector@Vthread_resource_error@boost@@@exception_detail@boost@@@exception_detail@boost@@QAE@ABU?$error_info_injector@Vthread_resource_error@boost@@@12@@Z$0 1002bc63 f   * CIL library *:* CIL module *
 0001:0002ac7f       __unwindfunclet$??0?$clone_impl@U?$error_info_injector@Vthread_resource_error@boost@@@exception_detail@boost@@@exception_detail@boost@@AAE@ABV012@Uclone_tag@012@@Z$1 1002bc7f f   * CIL library *:* CIL module *
 0001:0002ac7f       __unwindfunclet$??0?$clone_impl@U?$error_info_injector@Vthread_resource_error@boost@@@exception_detail@boost@@@exception_detail@boost@@QAE@ABU?$error_info_injector@Vthread_resource_error@boost@@@12@@Z$1 1002bc7f f   * CIL library *:* CIL module *
 0001:0002ac87       __ehhandler$??0?$clone_impl@U?$error_info_injector@Vthread_resource_error@boost@@@exception_detail@boost@@@exception_detail@boost@@QAE@ABU?$error_info_injector@Vthread_resource_error@boost@@@12@@Z 1002bc87 f   * CIL library *:* CIL module *
 0001:0002ac87       __ehhandler$??0?$clone_impl@U?$error_info_injector@Vthread_resource_error@boost@@@exception_detail@boost@@@exception_detail@boost@@AAE@ABV012@Uclone_tag@012@@Z 1002bc87 f   * CIL library *:* CIL module *
 0001:0002aca2       __unwindfunclet$??0?$clone_impl@U?$error_info_injector@Vthread_resource_error@boost@@@exception_detail@boost@@@exception_detail@boost@@QAE@ABV012@@Z$0 1002bca2 f   * CIL library *:* CIL module *
 0001:0002acbe       __ehhandler$??0?$clone_impl@U?$error_info_injector@Vthread_resource_error@boost@@@exception_detail@boost@@@exception_detail@boost@@QAE@ABV012@@Z 1002bcbe f   * CIL library *:* CIL module *
 0001:0002acd9       __unwindfunclet$??0?$error_info_injector@Vbad_alloc@std@@@exception_detail@boost@@QAE@ABU012@@Z$0 1002bcd9 f   * CIL library *:* CIL module *
 0001:0002ace1       __ehhandler$??0?$error_info_injector@Vbad_alloc@std@@@exception_detail@boost@@QAE@ABU012@@Z 1002bce1 f   * CIL library *:* CIL module *
 0001:0002acfc       __unwindfunclet$??0?$error_info_injector@Vbad_alloc@std@@@exception_detail@boost@@QAE@ABVbad_alloc@std@@@Z$0 1002bcfc f   * CIL library *:* CIL module *
 0001:0002ad04       __ehhandler$??0?$error_info_injector@Vbad_alloc@std@@@exception_detail@boost@@QAE@ABVbad_alloc@std@@@Z 1002bd04 f   * CIL library *:* CIL module *
 0001:0002ad1f       __unwindfunclet$??0?$error_info_injector@Vthread_resource_error@boost@@@exception_detail@boost@@QAE@ABU012@@Z$0 1002bd1f f   * CIL library *:* CIL module *
 0001:0002ad27       __ehhandler$??0?$error_info_injector@Vthread_resource_error@boost@@@exception_detail@boost@@QAE@ABU012@@Z 1002bd27 f   * CIL library *:* CIL module *
 0001:0002ad42       __unwindfunclet$??0?$error_info_injector@Vthread_resource_error@boost@@@exception_detail@boost@@QAE@ABVthread_resource_error@2@@Z$0 1002bd42 f   * CIL library *:* CIL module *
 0001:0002ad4a       __ehhandler$??0?$error_info_injector@Vthread_resource_error@boost@@@exception_detail@boost@@QAE@ABVthread_resource_error@2@@Z 1002bd4a f   * CIL library *:* CIL module *
 0001:0002ad65       __unwindfunclet$??0?$thread_data@V?$bind_t@XV?$mf1@XVNav@@PA_N@_mfi@boost@@V?$list2@V?$value@PAVNav@@@_bi@boost@@V?$value@PA_N@23@@_bi@3@@_bi@boost@@@detail@boost@@QAE@$$QAV?$bind_t@XV?$mf1@XVNav@@PA_N@_mfi@boost@@V?$list2@V?$value@PAVNav@@@_bi@boost@@V?$value@PA_N@23@@_bi@3@@_bi@2@@Z$0 1002bd65 f   * CIL library *:* CIL module *
 0001:0002ad65       __unwindfunclet$??0?$thread_data@V?$bind_t@XV?$mf3@XVNav@@PAUJobInfo_t@@PAVNode@@PAV3@@_mfi@boost@@V?$list4@V?$value@PAVNav@@@_bi@boost@@V?$value@PAUJobInfo_t@@@23@V?$value@PAVNode@@@23@V523@@_bi@3@@_bi@boost@@@detail@boost@@QAE@$$QAV?$bind_t@XV?$mf3@XVNav@@PAUJobInfo_t@@PAVNode@@PAV3@@_mfi@boost@@V?$list4@V?$value@PAVNav@@@_bi@boost@@V?$value@PAUJobInfo_t@@@23@V?$value@PAVNode@@@23@V523@@_bi@3@@_bi@2@@Z$0 1002bd65 f   * CIL library *:* CIL module *
 0001:0002ad6d       __ehhandler$??0?$thread_data@V?$bind_t@XV?$mf3@XVNav@@PAUJobInfo_t@@PAVNode@@PAV3@@_mfi@boost@@V?$list4@V?$value@PAVNav@@@_bi@boost@@V?$value@PAUJobInfo_t@@@23@V?$value@PAVNode@@@23@V523@@_bi@3@@_bi@boost@@@detail@boost@@QAE@$$QAV?$bind_t@XV?$mf3@XVNav@@PAUJobInfo_t@@PAVNode@@PAV3@@_mfi@boost@@V?$list4@V?$value@PAVNav@@@_bi@boost@@V?$value@PAUJobInfo_t@@@23@V?$value@PAVNode@@@23@V523@@_bi@3@@_bi@2@@Z 1002bd6d f   * CIL library *:* CIL module *
 0001:0002ad6d       __ehhandler$??0?$thread_data@V?$bind_t@XV?$mf1@XVNav@@PA_N@_mfi@boost@@V?$list2@V?$value@PAVNav@@@_bi@boost@@V?$value@PA_N@23@@_bi@3@@_bi@boost@@@detail@boost@@QAE@$$QAV?$bind_t@XV?$mf1@XVNav@@PA_N@_mfi@boost@@V?$list2@V?$value@PAVNav@@@_bi@boost@@V?$value@PA_N@23@@_bi@3@@_bi@2@@Z 1002bd6d f   * CIL library *:* CIL module *
 0001:0002ad88       __unwindfunclet$??0Nav@@QAE@H@Z$0 1002bd88 f   * CIL library *:* CIL module *
 0001:0002ad94       __unwindfunclet$??0Nav@@QAE@H@Z$1 1002bd94 f   * CIL library *:* CIL module *
 0001:0002ad9f       __unwindfunclet$??0Nav@@QAE@H@Z$2 1002bd9f f   * CIL library *:* CIL module *
 0001:0002adaa       __unwindfunclet$??0Nav@@QAE@H@Z$3 1002bdaa f   * CIL library *:* CIL module *
 0001:0002adb8       __unwindfunclet$??0Nav@@QAE@H@Z$4 1002bdb8 f   * CIL library *:* CIL module *
 0001:0002adc6       __unwindfunclet$??0Nav@@QAE@H@Z$5 1002bdc6 f   * CIL library *:* CIL module *
 0001:0002add4       __ehhandler$??0Nav@@QAE@H@Z 1002bdd4 f   * CIL library *:* CIL module *
 0001:0002adef       __unwindfunclet$??0system_error@system@boost@@QAE@Verror_code@12@PBD@Z$0 1002bdef f   * CIL library *:* CIL module *
 0001:0002adef       __unwindfunclet$??0system_error@system@boost@@QAE@ABV012@@Z$0 1002bdef f   * CIL library *:* CIL module *
 0001:0002adef       __unwindfunclet$??0?$error_info_injector@Vruntime_error@std@@@exception_detail@boost@@QAE@ABVruntime_error@std@@@Z$0 1002bdef f   * CIL library *:* CIL module *
 0001:0002adf7       __ehhandler$??0system_error@system@boost@@QAE@ABV012@@Z 1002bdf7 f   * CIL library *:* CIL module *
 0001:0002adf7       __ehhandler$??0system_error@system@boost@@QAE@Verror_code@12@PBD@Z 1002bdf7 f   * CIL library *:* CIL module *
 0001:0002adf7       __ehhandler$??0?$error_info_injector@Vruntime_error@std@@@exception_detail@boost@@QAE@ABVruntime_error@std@@@Z 1002bdf7 f   * CIL library *:* CIL module *
 0001:0002ae12       __unwindfunclet$??0thread_data_base@detail@boost@@QAE@XZ$0 1002be12 f   * CIL library *:* CIL module *
 0001:0002ae1d       __unwindfunclet$??0thread_data_base@detail@boost@@QAE@XZ$1 1002be1d f   * CIL library *:* CIL module *
 0001:0002ae28       __unwindfunclet$??0thread_data_base@detail@boost@@QAE@XZ$2 1002be28 f   * CIL library *:* CIL module *
 0001:0002ae33       __ehhandler$??0thread_data_base@detail@boost@@QAE@XZ 1002be33 f   * CIL library *:* CIL module *
 0001:0002ae4e       __unwindfunclet$?reset@?$intrusive_ptr@Uthread_data_base@detail@boost@@@boost@@QAEXXZ$0 1002be4e f   * CIL library *:* CIL module *
 0001:0002ae4e       __unwindfunclet$??4?$intrusive_ptr@Uthread_data_base@detail@boost@@@boost@@QAEAAV01@ABV01@@Z$0 1002be4e f   * CIL library *:* CIL module *
 0001:0002ae56       __ehhandler$?reset@?$intrusive_ptr@Uthread_data_base@detail@boost@@@boost@@QAEXXZ 1002be56 f   * CIL library *:* CIL module *
 0001:0002ae56       __ehhandler$??4?$intrusive_ptr@Uthread_data_base@detail@boost@@@boost@@QAEAAV01@ABV01@@Z 1002be56 f   * CIL library *:* CIL module *
 0001:0002ae71       __unwindfunclet$?AddNode@Nav@@QAEPAVNode@@ABVVector@@0W4NavDirType@@PAV2@@Z$0 1002be71 f   * CIL library *:* CIL module *
 0001:0002ae7b       __ehhandler$?AddNode@Nav@@QAEPAVNode@@ABVVector@@0W4NavDirType@@PAV2@@Z 1002be7b f   * CIL library *:* CIL module *
 0001:0002ae96       __unwindfunclet$?FindPathQueue@Nav@@QAEXPAUJobInfo_t@@@Z$0 1002be96 f   * CIL library *:* CIL module *
 0001:0002ae96       __unwindfunclet$?GenerateQueue@Nav@@QAEXPAUJobInfo_t@@@Z$0 1002be96 f   * CIL library *:* CIL module *
 0001:0002ae9e       __ehhandler$?FindPathQueue@Nav@@QAEXPAUJobInfo_t@@@Z 1002be9e f   * CIL library *:* CIL module *
 0001:0002ae9e       __ehhandler$?GenerateQueue@Nav@@QAEXPAUJobInfo_t@@@Z 1002be9e f   * CIL library *:* CIL module *
 0001:0002aeb9       __unwindfunclet$?GetNextAirSeedNode@Nav@@QAEPAVNode@@XZ$0 1002beb9 f   * CIL library *:* CIL module *
 0001:0002aeb9       __unwindfunclet$?GetNextGroundSeedNode@Nav@@QAEPAVNode@@XZ$0 1002beb9 f   * CIL library *:* CIL module *
 0001:0002aec3       __ehhandler$?GetNextAirSeedNode@Nav@@QAEPAVNode@@XZ 1002bec3 f   * CIL library *:* CIL module *
 0001:0002aec3       __ehhandler$?GetNextGroundSeedNode@Nav@@QAEPAVNode@@XZ 1002bec3 f   * CIL library *:* CIL module *
 0001:0002aede       __unwindfunclet$?Load@Nav@@QAE_NPBD@Z$0 1002bede f   * CIL library *:* CIL module *
 0001:0002aee9       __unwindfunclet$?Load@Nav@@QAE_NPBD@Z$1 1002bee9 f   * CIL library *:* CIL module *
 0001:0002aef4       __unwindfunclet$?Load@Nav@@QAE_NPBD@Z$2 1002bef4 f   * CIL library *:* CIL module *
 0001:0002af01       __ehhandler$?Load@Nav@@QAE_NPBD@Z 1002bf01 f   * CIL library *:* CIL module *
 0001:0002af29       __unwindfunclet$?Save@Nav@@QAE_NPBD@Z$0 1002bf29 f   * CIL library *:* CIL module *
 0001:0002af31       __ehhandler$?Save@Nav@@QAE_NPBD@Z 1002bf31 f   * CIL library *:* CIL module *
 0001:0002af4c       __ehhandler$?_Buyheadnode@?$_Tree_alloc@$0A@U?$_Tree_base_types@U?$pair@QBXUtss_data_node@detail@boost@@@std@@V?$allocator@U?$pair@QBXUtss_data_node@detail@boost@@@std@@@2@@std@@@std@@QAEPAU?$_Tree_node@U?$pair@QBXUtss_data_node@detail@boost@@@std@@PAX@2@XZ 1002bf4c f   * CIL library *:* CIL module *
 0001:0002af67       __unwindfunclet$?allocate_raw_heap_memory@detail@boost@@YAPAXI@Z$0 1002bf67 f   * CIL library *:* CIL module *
 0001:0002af6f       __ehhandler$?allocate_raw_heap_memory@detail@boost@@YAPAXI@Z 1002bf6f f   * CIL library *:* CIL module *
 0001:0002af8a       __unwindfunclet$?clone@?$clone_impl@U?$error_info_injector@Ubad_month@gregorian@boost@@@exception_detail@boost@@@exception_detail@boost@@EBEPBVclone_base@23@XZ$0 1002bf8a f   * CIL library *:* CIL module *
 0001:0002af8a       __unwindfunclet$?clone@?$clone_impl@U?$error_info_injector@Vthread_resource_error@boost@@@exception_detail@boost@@@exception_detail@boost@@EBEPBVclone_base@23@XZ$0 1002bf8a f   * CIL library *:* CIL module *
 0001:0002af8a       __unwindfunclet$?clone@?$clone_impl@U?$error_info_injector@Vbad_alloc@std@@@exception_detail@boost@@@exception_detail@boost@@EBEPBVclone_base@23@XZ$0 1002bf8a f   * CIL library *:* CIL module *
 0001:0002af8a       __unwindfunclet$?clone@?$clone_impl@U?$error_info_injector@Ubad_day_of_month@gregorian@boost@@@exception_detail@boost@@@exception_detail@boost@@EBEPBVclone_base@23@XZ$0 1002bf8a f   * CIL library *:* CIL module *
 0001:0002af8a       __unwindfunclet$?clone@?$clone_impl@U?$error_info_injector@Ubad_year@gregorian@boost@@@exception_detail@boost@@@exception_detail@boost@@EBEPBVclone_base@23@XZ$0 1002bf8a f   * CIL library *:* CIL module *
 0001:0002af8a       __unwindfunclet$?clone@?$clone_impl@U?$error_info_injector@Vruntime_error@std@@@exception_detail@boost@@@exception_detail@boost@@EBEPBVclone_base@23@XZ$0 1002bf8a f   * CIL library *:* CIL module *
 0001:0002af94       __ehhandler$?clone@?$clone_impl@U?$error_info_injector@Ubad_day_of_month@gregorian@boost@@@exception_detail@boost@@@exception_detail@boost@@EBEPBVclone_base@23@XZ 1002bf94 f   * CIL library *:* CIL module *
 0001:0002af94       __ehhandler$?clone@?$clone_impl@U?$error_info_injector@Vruntime_error@std@@@exception_detail@boost@@@exception_detail@boost@@EBEPBVclone_base@23@XZ 1002bf94 f   * CIL library *:* CIL module *
 0001:0002af94       __ehhandler$?clone@?$clone_impl@U?$error_info_injector@Vbad_alloc@std@@@exception_detail@boost@@@exception_detail@boost@@EBEPBVclone_base@23@XZ 1002bf94 f   * CIL library *:* CIL module *
 0001:0002af94       __ehhandler$?clone@?$clone_impl@U?$error_info_injector@Vthread_resource_error@boost@@@exception_detail@boost@@@exception_detail@boost@@EBEPBVclone_base@23@XZ 1002bf94 f   * CIL library *:* CIL module *
 0001:0002af94       __ehhandler$?clone@?$clone_impl@U?$error_info_injector@Ubad_year@gregorian@boost@@@exception_detail@boost@@@exception_detail@boost@@EBEPBVclone_base@23@XZ 1002bf94 f   * CIL library *:* CIL module *
 0001:0002af94       __ehhandler$?clone@?$clone_impl@U?$error_info_injector@Ubad_month@gregorian@boost@@@exception_detail@boost@@@exception_detail@boost@@EBEPBVclone_base@23@XZ 1002bf94 f   * CIL library *:* CIL module *
 0001:0002afaf       __unwindfunclet$?create_anonymous_event@win32@detail@boost@@YAPAXW4event_type@123@W4initial_event_state@123@@Z$0 1002bfaf f   * CIL library *:* CIL module *
 0001:0002afb7       __ehhandler$?create_anonymous_event@win32@detail@boost@@YAPAXW4event_type@123@W4initial_event_state@123@@Z 1002bfb7 f   * CIL library *:* CIL module *
 0001:0002afdc       __unwindfunclet$?what@system_error@system@boost@@UBEPBDXZ$2 1002bfdc f   * CIL library *:* CIL module *
 0001:0002afe4       __ehhandler$?what@system_error@system@boost@@UBEPBDXZ 1002bfe4 f   * CIL library *:* CIL module *
 0001:0002b010       ??__Evec2_origin@@YAXXZ    1002c010 f   * CIL library *:* CIL module *
 0001:0002b03b       ??__Evec2_invalid@@YAXXZ   1002c03b f   * CIL library *:* CIL module *
 0001:0002b066       ??__Evec2_origin@@YAXXZ    1002c066 f   * CIL library *:* CIL module *
 0001:0002b091       ??__Evec2_invalid@@YAXXZ   1002c091 f   * CIL library *:* CIL module *
 0001:0002b0bc       ??__Epiecewise_construct@std@@YAXXZ 1002c0bc f   * CIL library *:* CIL module *
 0001:0002b0c7       ??__Eallocator_arg@std@@YAXXZ 1002c0c7 f   * CIL library *:* CIL module *
 0001:0002b0d2       ??__Emodulemanager@@YAXXZ  1002c0d2 f   * CIL library *:* CIL module *
 0001:0002b13c       ??__Evec2_origin@@YAXXZ    1002c13c f   * CIL library *:* CIL module *
 0001:0002b167       ??__Evec2_invalid@@YAXXZ   1002c167 f   * CIL library *:* CIL module *
 0001:0002b192       ??__Epiecewise_construct@std@@YAXXZ 1002c192 f   * CIL library *:* CIL module *
 0001:0002b19d       ??__Eallocator_arg@std@@YAXXZ 1002c19d f   * CIL library *:* CIL module *
 0001:0002b1a8       ??__E?_Generic_object@?$_Error_objects@H@std@@2V_Generic_error_category@2@A@@YAXXZ 1002c1a8 f   * CIL library *:* CIL module *
 0001:0002b1c2       ??__E?_Iostream_object@?$_Error_objects@H@std@@2V_Iostream_error_category@2@A@@YAXXZ 1002c1c2 f   * CIL library *:* CIL module *
 0001:0002b1dc       ??__E?_System_object@?$_Error_objects@H@std@@2V_System_error_category@2@A@@YAXXZ 1002c1dc f   * CIL library *:* CIL module *
 0001:0002b1f6       ??__E?id@?$num_put@DV?$back_insert_iterator@V?$basic_string@DU?$char_traits@D@std@@V?$allocator@D@2@@std@@@std@@@std@@2V0locale@2@A@@YAXXZ 1002c1f6 f   * CIL library *:* CIL module *
 0001:0002b207       ??__E?id@?$num_put@_WV?$back_insert_iterator@V?$basic_string@_WU?$char_traits@_W@std@@V?$allocator@_W@2@@std@@@std@@@std@@2V0locale@2@A@@YAXXZ 1002c207 f   * CIL library *:* CIL module *
 0001:0002b218       ??__E?id@?$numpunct@D@std@@2V0locale@2@A@@YAXXZ 1002c218 f   * CIL library *:* CIL module *
 0001:0002b229       ??__E?id@?$numpunct@_W@std@@2V0locale@2@A@@YAXXZ 1002c229 f   * CIL library *:* CIL module *
 0001:0002b23a       ??__Evec2_origin@@YAXXZ    1002c23a f   * CIL library *:* CIL module *
 0001:0002b265       ??__Evec2_invalid@@YAXXZ   1002c265 f   * CIL library *:* CIL module *
 0001:0002b290       ??__Evec4_origin@@YAXXZ    1002c290 f   * CIL library *:* CIL module *
 0001:0002b2d7       ??__Evec4_invalid@@YAXXZ   1002c2d7 f   * CIL library *:* CIL module *
 0001:0002b31e       ??__Epiecewise_construct@std@@YAXXZ 1002c31e f   * CIL library *:* CIL module *
 0001:0002b329       ??__Eallocator_arg@std@@YAXXZ 1002c329 f   * CIL library *:* CIL module *
 0001:0002b334       ??__Eignore@std@@YAXXZ     1002c334 f   * CIL library *:* CIL module *
 0001:0002b343       ??__E_Tuple_alloc@std@@YAXXZ 1002c343 f   * CIL library *:* CIL module *
 0001:0002b34e       ??__Eposix_category@system@boost@@YAXXZ 1002c34e f   * CIL library *:* CIL module *
 0001:0002b35d       ??__Eerrno_ecat@system@boost@@YAXXZ 1002c35d f   * CIL library *:* CIL module *
 0001:0002b36c       ??__Enative_ecat@system@boost@@YAXXZ 1002c36c f   * CIL library *:* CIL module *
 0001:0002b37b       ??__E_1@?A0x365863d8@@YAXXZ 1002c37b f   * CIL library *:* CIL module *
 0001:0002b38a       ??__E_2@?A0x365863d8@@YAXXZ 1002c38a f   * CIL library *:* CIL module *
 0001:0002b399       ??__E_3@?A0x365863d8@@YAXXZ 1002c399 f   * CIL library *:* CIL module *
 0001:0002b3a8       ??__E_4@?A0x365863d8@@YAXXZ 1002c3a8 f   * CIL library *:* CIL module *
 0001:0002b3b7       ??__E_5@?A0x365863d8@@YAXXZ 1002c3b7 f   * CIL library *:* CIL module *
 0001:0002b3c6       ??__E_6@?A0x365863d8@@YAXXZ 1002c3c6 f   * CIL library *:* CIL module *
 0001:0002b3d5       ??__E_7@?A0x365863d8@@YAXXZ 1002c3d5 f   * CIL library *:* CIL module *
 0001:0002b3e4       ??__E_8@?A0x365863d8@@YAXXZ 1002c3e4 f   * CIL library *:* CIL module *
 0001:0002b3f3       ??__E_9@?A0x365863d8@@YAXXZ 1002c3f3 f   * CIL library *:* CIL module *
 0001:0002b402       ??__Evector_origin@@YAXXZ  1002c402 f   * CIL library *:* CIL module *
 0001:0002b43b       ??__EJobQueue@@YAXXZ       1002c43b f   * CIL library *:* CIL module *
 0001:0002b459       ??__Etimeout@@YAXXZ        1002c459 f   * CIL library *:* CIL module *
 0001:0002b477       ??__Esleep_time@@YAXXZ     1002c477 f   * CIL library *:* CIL module *
 0001:0002b495       ??__Evec2_origin@@YAXXZ    1002c495 f   * CIL library *:* CIL module *
 0001:0002b4c0       ??__Evec2_invalid@@YAXXZ   1002c4c0 f   * CIL library *:* CIL module *
 0001:0002b4eb       ??__Epiecewise_construct@std@@YAXXZ 1002c4eb f   * CIL library *:* CIL module *
 0001:0002b4f6       ??__Eallocator_arg@std@@YAXXZ 1002c4f6 f   * CIL library *:* CIL module *
 0001:0002b501       ??__Eignore@std@@YAXXZ     1002c501 f   * CIL library *:* CIL module *
 0001:0002b510       ??__E_Tuple_alloc@std@@YAXXZ 1002c510 f   * CIL library *:* CIL module *
 0001:0002b51b       ??__Eposix_category@system@boost@@YAXXZ 1002c51b f   * CIL library *:* CIL module *
 0001:0002b52a       ??__Eerrno_ecat@system@boost@@YAXXZ 1002c52a f   * CIL library *:* CIL module *
 0001:0002b539       ??__Enative_ecat@system@boost@@YAXXZ 1002c539 f   * CIL library *:* CIL module *
 0001:0002b548       ??__E_1@?A0x58ce2dbb@@YAXXZ 1002c548 f   * CIL library *:* CIL module *
 0001:0002b557       ??__E_2@?A0x58ce2dbb@@YAXXZ 1002c557 f   * CIL library *:* CIL module *
 0001:0002b566       ??__E_3@?A0x58ce2dbb@@YAXXZ 1002c566 f   * CIL library *:* CIL module *
 0001:0002b575       ??__E_4@?A0x58ce2dbb@@YAXXZ 1002c575 f   * CIL library *:* CIL module *
 0001:0002b584       ??__E_5@?A0x58ce2dbb@@YAXXZ 1002c584 f   * CIL library *:* CIL module *
 0001:0002b593       ??__E_6@?A0x58ce2dbb@@YAXXZ 1002c593 f   * CIL library *:* CIL module *
 0001:0002b5a2       ??__E_7@?A0x58ce2dbb@@YAXXZ 1002c5a2 f   * CIL library *:* CIL module *
 0001:0002b5b1       ??__E_8@?A0x58ce2dbb@@YAXXZ 1002c5b1 f   * CIL library *:* CIL module *
 0001:0002b5c0       ??__E_9@?A0x58ce2dbb@@YAXXZ 1002c5c0 f   * CIL library *:* CIL module *
 0001:0002b5cf       ??__Evec4_origin@@YAXXZ    1002c5cf f   * CIL library *:* CIL module *
 0001:0002b616       ??__Evec4_invalid@@YAXXZ   1002c616 f   * CIL library *:* CIL module *
 0001:0002b65d       ??__Evector_origin@@YAXXZ  1002c65d f   * CIL library *:* CIL module *
 0001:0002b696       ??__Evec2_origin@@YAXXZ    1002c696 f   * CIL library *:* CIL module *
 0001:0002b6c1       ??__Evec2_invalid@@YAXXZ   1002c6c1 f   * CIL library *:* CIL module *
 0001:0002b6ec       ??__Epiecewise_construct@std@@YAXXZ 1002c6ec f   * CIL library *:* CIL module *
 0001:0002b6f7       ??__Eallocator_arg@std@@YAXXZ 1002c6f7 f   * CIL library *:* CIL module *
 0001:0002b702       ??__Eignore@std@@YAXXZ     1002c702 f   * CIL library *:* CIL module *
 0001:0002b711       ??__E_Tuple_alloc@std@@YAXXZ 1002c711 f   * CIL library *:* CIL module *
 0001:0002b71c       ??__Eposix_category@system@boost@@YAXXZ 1002c71c f   * CIL library *:* CIL module *
 0001:0002b72b       ??__Eerrno_ecat@system@boost@@YAXXZ 1002c72b f   * CIL library *:* CIL module *
 0001:0002b73a       ??__Enative_ecat@system@boost@@YAXXZ 1002c73a f   * CIL library *:* CIL module *
 0001:0002b749       ??__E_1@?A0x114fdc2c@@YAXXZ 1002c749 f   * CIL library *:* CIL module *
 0001:0002b758       ??__E_2@?A0x114fdc2c@@YAXXZ 1002c758 f   * CIL library *:* CIL module *
 0001:0002b767       ??__E_3@?A0x114fdc2c@@YAXXZ 1002c767 f   * CIL library *:* CIL module *
 0001:0002b776       ??__E_4@?A0x114fdc2c@@YAXXZ 1002c776 f   * CIL library *:* CIL module *
 0001:0002b785       ??__E_5@?A0x114fdc2c@@YAXXZ 1002c785 f   * CIL library *:* CIL module *
 0001:0002b794       ??__E_6@?A0x114fdc2c@@YAXXZ 1002c794 f   * CIL library *:* CIL module *
 0001:0002b7a3       ??__E_7@?A0x114fdc2c@@YAXXZ 1002c7a3 f   * CIL library *:* CIL module *
 0001:0002b7b2       ??__E_8@?A0x114fdc2c@@YAXXZ 1002c7b2 f   * CIL library *:* CIL module *
 0001:0002b7c1       ??__E_9@?A0x114fdc2c@@YAXXZ 1002c7c1 f   * CIL library *:* CIL module *
 0001:0002b7d0       ??__Es_StringCharConversion@@YAXXZ 1002c7d0 f   tier1:utlbuffer.obj
 0001:0002b830       ??__Es_NoEscConversion@@YAXXZ 1002c830 f   tier1:utlbuffer.obj
 0001:0002b860       ??__Epiecewise_construct@std@@YAXXZ 1002c860 f   libboost_thread-vc110-mt-s-1_52:tss_pe.obj
 0001:0002b870       ??__Eerrno_ecat@system@boost@@YAXXZ 1002c870 f   libboost_system-vc110-mt-s-1_52:error_code.obj
 0001:0002b8e0       ??__Enative_ecat@system@boost@@YAXXZ 1002c8e0 f   libboost_system-vc110-mt-s-1_52:error_code.obj
 0001:0002b950       ??__Eposix_category@system@boost@@YAXXZ 1002c950 f   libboost_system-vc110-mt-s-1_52:error_code.obj
 0001:0002b9c0       ??__Ethrows@system@boost@@YAXXZ 1002c9c0 f   libboost_system-vc110-mt-s-1_52:error_code.obj
 0001:0002ba30       ??__F?_System_object@?$_Error_objects@H@std@@2V_System_error_category@2@A@@YAXXZ 1002ca30 f   * CIL library *:* CIL module *
 0001:0002ba3f       ??__F?_Iostream_object@?$_Error_objects@H@std@@2V_Iostream_error_category@2@A@@YAXXZ 1002ca3f f   * CIL library *:* CIL module *
 0001:0002ba4e       ??__F?_Generic_object@?$_Error_objects@H@std@@2V_Generic_error_category@2@A@@YAXXZ 1002ca4e f   * CIL library *:* CIL module *
 0001:0002ba5d       ??__FJobQueue@@YAXXZ       1002ca5d f   * CIL library *:* CIL module *
 0001:0002ba70       ??__Fgeneric_category_const@?1??generic_category@system@boost@@YAABVerror_category@12@XZ@YAXXZ 1002ca70 f   libboost_system-vc110-mt-s-1_52:error_code.obj
 0001:0002ba80       ??__Fsystem_category_const@?1??system_category@system@boost@@YAABVerror_category@12@XZ@YAXXZ 1002ca80 f   libboost_system-vc110-mt-s-1_52:error_code.obj
 0001:0002ba90       ??__Funknown_err@?1??message@generic_error_category@?A0xe218785f@@UBE?AV?$basic_string@DU?$char_traits@D@std@@V?$allocator@D@2@@std@@H@Z@YAXXZ 1002ca90 f   libboost_system-vc110-mt-s-1_52:error_code.obj
 0002:00000188       _s_StringCharConversion$initializer$ 1002d188     tier1:utlbuffer.obj
 0002:0000018c       _s_NoEscConversion$initializer$ 1002d18c     tier1:utlbuffer.obj
 0002:00000190       _piecewise_construct$initializer$ 1002d190     libboost_thread-vc110-mt-s-1_52:tss_pe.obj
 0002:00000198       _posix_category$initializer$ 1002d198     libboost_system-vc110-mt-s-1_52:error_code.obj
 0002:0000019c       _errno_ecat$initializer$   1002d19c     libboost_system-vc110-mt-s-1_52:error_code.obj
 0002:000001a0       _native_ecat$initializer$  1002d1a0     libboost_system-vc110-mt-s-1_52:error_code.obj
 0002:000001a4       _throws$initializer$       1002d1a4     libboost_system-vc110-mt-s-1_52:error_code.obj
 0002:000001a8       _vec2_origin$initializer$  1002d1a8     * CIL library *:* CIL module *
 0002:000001ac       _vec2_invalid$initializer$ 1002d1ac     * CIL library *:* CIL module *
 0002:000001b0       _vec2_origin$initializer$  1002d1b0     * CIL library *:* CIL module *
 0002:000001b4       _vec2_invalid$initializer$ 1002d1b4     * CIL library *:* CIL module *
 0002:000001b8       _piecewise_construct$initializer$ 1002d1b8     * CIL library *:* CIL module *
 0002:000001bc       _allocator_arg$initializer$ 1002d1bc     * CIL library *:* CIL module *
 0002:000001c0       _modulemanager$initializer$ 1002d1c0     * CIL library *:* CIL module *
 0002:000001c4       _vec2_origin$initializer$  1002d1c4     * CIL library *:* CIL module *
 0002:000001c8       _vec2_invalid$initializer$ 1002d1c8     * CIL library *:* CIL module *
 0002:000001cc       _piecewise_construct$initializer$ 1002d1cc     * CIL library *:* CIL module *
 0002:000001d0       _allocator_arg$initializer$ 1002d1d0     * CIL library *:* CIL module *
 0002:000001d4       ?_Generic_object$initializer$@?$_Error_objects@H@std@@2P6AXXZA 1002d1d4     * CIL library *:* CIL module *
 0002:000001d8       ?_Iostream_object$initializer$@?$_Error_objects@H@std@@2P6AXXZA 1002d1d8     * CIL library *:* CIL module *
 0002:000001dc       ?_System_object$initializer$@?$_Error_objects@H@std@@2P6AXXZA 1002d1dc     * CIL library *:* CIL module *
 0002:000001e0       ?id$initializer$@?$num_put@DV?$back_insert_iterator@V?$basic_string@DU?$char_traits@D@std@@V?$allocator@D@2@@std@@@std@@@std@@2P6AXXZA 1002d1e0     * CIL library *:* CIL module *
 0002:000001e4       ?id$initializer$@?$num_put@_WV?$back_insert_iterator@V?$basic_string@_WU?$char_traits@_W@std@@V?$allocator@_W@2@@std@@@std@@@std@@2P6AXXZA 1002d1e4     * CIL library *:* CIL module *
 0002:000001e8       ?id$initializer$@?$numpunct@D@std@@2P6AXXZA 1002d1e8     * CIL library *:* CIL module *
 0002:000001ec       ?id$initializer$@?$numpunct@_W@std@@2P6AXXZA 1002d1ec     * CIL library *:* CIL module *
 0002:000001f0       _vec2_origin$initializer$  1002d1f0     * CIL library *:* CIL module *
 0002:000001f4       _vec2_invalid$initializer$ 1002d1f4     * CIL library *:* CIL module *
 0002:000001f8       _vec4_origin$initializer$  1002d1f8     * CIL library *:* CIL module *
 0002:000001fc       _vec4_invalid$initializer$ 1002d1fc     * CIL library *:* CIL module *
 0002:00000200       _piecewise_construct$initializer$ 1002d200     * CIL library *:* CIL module *
 0002:00000204       _allocator_arg$initializer$ 1002d204     * CIL library *:* CIL module *
 0002:00000208       _ignore$initializer$       1002d208     * CIL library *:* CIL module *
 0002:0000020c       __Tuple_alloc$initializer$ 1002d20c     * CIL library *:* CIL module *
 0002:00000210       _posix_category$initializer$ 1002d210     * CIL library *:* CIL module *
 0002:00000214       _errno_ecat$initializer$   1002d214     * CIL library *:* CIL module *
 0002:00000218       _native_ecat$initializer$  1002d218     * CIL library *:* CIL module *
 0002:0000021c       __1$initializer$           1002d21c     * CIL library *:* CIL module *
 0002:00000220       __2$initializer$           1002d220     * CIL library *:* CIL module *
 0002:00000224       __3$initializer$           1002d224     * CIL library *:* CIL module *
 0002:00000228       __4$initializer$           1002d228     * CIL library *:* CIL module *
 0002:0000022c       __5$initializer$           1002d22c     * CIL library *:* CIL module *
 0002:00000230       __6$initializer$           1002d230     * CIL library *:* CIL module *
 0002:00000234       __7$initializer$           1002d234     * CIL library *:* CIL module *
 0002:00000238       __8$initializer$           1002d238     * CIL library *:* CIL module *
 0002:0000023c       __9$initializer$           1002d23c     * CIL library *:* CIL module *
 0002:00000240       _vector_origin$initializer$ 1002d240     * CIL library *:* CIL module *
 0002:00000244       _JobQueue$initializer$     1002d244     * CIL library *:* CIL module *
 0002:00000248       _timeout$initializer$      1002d248     * CIL library *:* CIL module *
 0002:0000024c       _sleep_time$initializer$   1002d24c     * CIL library *:* CIL module *
 0002:00000250       _vec2_origin$initializer$  1002d250     * CIL library *:* CIL module *
 0002:00000254       _vec2_invalid$initializer$ 1002d254     * CIL library *:* CIL module *
 0002:00000258       _piecewise_construct$initializer$ 1002d258     * CIL library *:* CIL module *
 0002:0000025c       _allocator_arg$initializer$ 1002d25c     * CIL library *:* CIL module *
 0002:00000260       _ignore$initializer$       1002d260     * CIL library *:* CIL module *
 0002:00000264       __Tuple_alloc$initializer$ 1002d264     * CIL library *:* CIL module *
 0002:00000268       _posix_category$initializer$ 1002d268     * CIL library *:* CIL module *
 0002:0000026c       _errno_ecat$initializer$   1002d26c     * CIL library *:* CIL module *
 0002:00000270       _native_ecat$initializer$  1002d270     * CIL library *:* CIL module *
 0002:00000274       __1$initializer$           1002d274     * CIL library *:* CIL module *
 0002:00000278       __2$initializer$           1002d278     * CIL library *:* CIL module *
 0002:0000027c       __3$initializer$           1002d27c     * CIL library *:* CIL module *
 0002:00000280       __4$initializer$           1002d280     * CIL library *:* CIL module *
 0002:00000284       __5$initializer$           1002d284     * CIL library *:* CIL module *
 0002:00000288       __6$initializer$           1002d288     * CIL library *:* CIL module *
 0002:0000028c       __7$initializer$           1002d28c     * CIL library *:* CIL module *
 0002:00000290       __8$initializer$           1002d290     * CIL library *:* CIL module *
 0002:00000294       __9$initializer$           1002d294     * CIL library *:* CIL module *
 0002:00000298       _vec4_origin$initializer$  1002d298     * CIL library *:* CIL module *
 0002:0000029c       _vec4_invalid$initializer$ 1002d29c     * CIL library *:* CIL module *
 0002:000002a0       _vector_origin$initializer$ 1002d2a0     * CIL library *:* CIL module *
 0002:000002a4       _vec2_origin$initializer$  1002d2a4     * CIL library *:* CIL module *
 0002:000002a8       _vec2_invalid$initializer$ 1002d2a8     * CIL library *:* CIL module *
 0002:000002ac       _piecewise_construct$initializer$ 1002d2ac     * CIL library *:* CIL module *
 0002:000002b0       _allocator_arg$initializer$ 1002d2b0     * CIL library *:* CIL module *
 0002:000002b4       _ignore$initializer$       1002d2b4     * CIL library *:* CIL module *
 0002:000002b8       __Tuple_alloc$initializer$ 1002d2b8     * CIL library *:* CIL module *
 0002:000002bc       _posix_category$initializer$ 1002d2bc     * CIL library *:* CIL module *
 0002:000002c0       _errno_ecat$initializer$   1002d2c0     * CIL library *:* CIL module *
 0002:000002c4       _native_ecat$initializer$  1002d2c4     * CIL library *:* CIL module *
 0002:000002c8       __1$initializer$           1002d2c8     * CIL library *:* CIL module *
 0002:000002cc       __2$initializer$           1002d2cc     * CIL library *:* CIL module *
 0002:000002d0       __3$initializer$           1002d2d0     * CIL library *:* CIL module *
 0002:000002d4       __4$initializer$           1002d2d4     * CIL library *:* CIL module *
 0002:000002d8       __5$initializer$           1002d2d8     * CIL library *:* CIL module *
 0002:000002dc       __6$initializer$           1002d2dc     * CIL library *:* CIL module *
 0002:000002e0       __7$initializer$           1002d2e0     * CIL library *:* CIL module *
 0002:000002e4       __8$initializer$           1002d2e4     * CIL library *:* CIL module *
 0002:000002e8       __9$initializer$           1002d2e8     * CIL library *:* CIL module *
 0002:000002f4       _pinit                     1002d2f4     LIBCMT:onexit.obj
 0002:000002f8       _pinit                     1002d2f8     LIBCMT:cpu_disp.obj
 0002:000002fc       _pinit                     1002d2fc     LIBCMT:_file.obj
 0002:00000300       _pinit                     1002d300     LIBCMT:mathfcns.obj
 0002:00000304       _pinit                     1002d304     LIBCMT:mbctype.obj
 0002:00000320       _pterm                     1002d320     LIBCMT:wsetloca.obj
 0002:00000324       _pterm                     1002d324     LIBCMT:initcon.obj
 0002:00000328       _pterm                     1002d328     LIBCMT:_file.obj
 0002:00000390       __sincos_masks             1002d390     mathlib:sse.obj
 0002:00000398       __sincos_inv_masks         1002d398     mathlib:sse.obj
 0002:000003a0       __ps_am_1                  1002d3a0     mathlib:sse.obj
 0002:000003b0       __ps_am_pi_o_2             1002d3b0     mathlib:sse.obj
 0002:000003c0       __ps_am_2_o_pi             1002d3c0     mathlib:sse.obj
 0002:000003d0       __ps_am_sign_mask          1002d3d0     mathlib:sse.obj
 0002:000003e0       __ps_am_inv_sign_mask      1002d3e0     mathlib:sse.obj
 0002:000003f0       __epi32_1                  1002d3f0     mathlib:sse.obj
 0002:00000400       __epi32_2                  1002d400     mathlib:sse.obj
 0002:00000410       __ps_sincos_p0             1002d410     mathlib:sse.obj
 0002:00000420       __ps_sincos_p1             1002d420     mathlib:sse.obj
 0002:00000430       __ps_sincos_p2             1002d430     mathlib:sse.obj
 0002:00000440       __ps_sincos_p3             1002d440     mathlib:sse.obj
 0002:00000540       _One                       1002d540     LIBCMT:floor_pentium4.obj
 0002:00000550       _Bns                       1002d550     LIBCMT:floor_pentium4.obj
 0002:00000560       _NegOne                    1002d560     LIBCMT:floor_pentium4.obj
 0002:00000570       _NegZero                   1002d570     LIBCMT:floor_pentium4.obj
 0002:00000580       _S                         1002d580     LIBCMT:floor_pentium4.obj
 0002:00000590       _GS_ExceptionPointers      1002d590     LIBCMT:gs_report.obj
 0002:0000066c       ?ExceptionTemplate@?1??_CxxThrowException@@9@8@4UEHExceptionRecord@@B 1002d66c     LIBCMT:throw.obj
 0002:00000f40       _rterrs                    1002df40     LIBCMT:crt0msg.obj
 0002:00001114       ?ccsField@?P@??_openfile@@9@9 1002e114     LIBCMT:_open.obj
 0002:00001118       ?utf8encoding@?P@??_openfile@@9@9 1002e118     LIBCMT:_open.obj
 0002:00001120       ?utf16encoding@?P@??_openfile@@9@9 1002e120     LIBCMT:_open.obj
 0002:0000112c       ?unicodeencoding@?P@??_openfile@@9@9 1002e12c     LIBCMT:_open.obj
 0002:00001470       Shifter                    1002e470     LIBCMT:acos_pentium4.obj
 0002:00001480       Tbl_addr                   1002e480     LIBCMT:acos_pentium4.obj
 0002:00002380       T_table                    1002f380     LIBCMT:acos_pentium4.obj
 0002:00002b80       PI_BY_2                    1002fb80     LIBCMT:acos_pentium4.obj
 0002:00002b90       NEG_PI                     1002fb90     LIBCMT:acos_pentium4.obj
 0002:00002ba0       PI                         1002fba0     LIBCMT:acos_pentium4.obj
 0002:00002bb0       SIGNMASK                   1002fbb0     LIBCMT:acos_pentium4.obj
 0002:00002bc0       HALFMASK                   1002fbc0     LIBCMT:acos_pentium4.obj
 0002:00002bd0       HALFMASK2                  1002fbd0     LIBCMT:acos_pentium4.obj
 0002:00002be0       cv                         1002fbe0     LIBCMT:acos_pentium4.obj
 0002:00002c00       cv2                        1002fc00     LIBCMT:acos_pentium4.obj
 0002:00002c40       ABSVALMASK                 1002fc40     LIBCMT:acos_pentium4.obj
 0002:00002c48       TMASK                      1002fc48     LIBCMT:acos_pentium4.obj
 0002:00002c50       ONEMASK                    1002fc50     LIBCMT:acos_pentium4.obj
 0002:00002c58       ONE_BY_2                   1002fc58     LIBCMT:acos_pentium4.obj
 0002:00002c60       EMIN                       1002fc60     LIBCMT:acos_pentium4.obj
 0002:00002c68       MAX_ARG                    1002fc68     LIBCMT:acos_pentium4.obj
 0002:00002c70       MIN_ARG                    1002fc70     LIBCMT:acos_pentium4.obj
 0002:00002c78       INF                        1002fc78     LIBCMT:acos_pentium4.obj
 0002:00002c80       ZERO                       1002fc80     LIBCMT:acos_pentium4.obj
 0002:00002c88       ALPHA                      1002fc88     LIBCMT:acos_pentium4.obj
 0002:00002ca4       One                        1002fca4     LIBCMT:87disp.obj
 0002:00002cac       XAMtoTagTab                1002fcac     LIBCMT:87disp.obj
 0002:00002cc0       One                        1002fcc0     LIBCMT:common.obj
 0002:00002cd4       DblMax                     1002fcd4     LIBCMT:common.obj
 0002:00002cdc       DblMin                     1002fcdc     LIBCMT:common.obj
 0002:00002ce4       IeeeAdjO                   1002fce4     LIBCMT:common.obj
 0002:00002cec       IeeeAdjU                   1002fcec     LIBCMT:common.obj
 0002:00002cf4       _infinity                  1002fcf4     LIBCMT:common.obj
 0002:00002cfc       _zero                      1002fcfc     LIBCMT:common.obj
 0002:00002d10       Shifter                    1002fd10     LIBCMT:asin_pentium4.obj
 0002:00002d20       Tbl_addr                   1002fd20     LIBCMT:asin_pentium4.obj
 0002:00003c20       T_table                    10030c20     LIBCMT:asin_pentium4.obj
 0002:00004420       PI_BY_2                    10031420     LIBCMT:asin_pentium4.obj
 0002:00004430       SIGNMASK                   10031430     LIBCMT:asin_pentium4.obj
 0002:00004440       HALFMASK                   10031440     LIBCMT:asin_pentium4.obj
 0002:00004450       HALFMASK2                  10031450     LIBCMT:asin_pentium4.obj
 0002:00004458       cv                         10031458     LIBCMT:asin_pentium4.obj
 0002:00004470       cv2                        10031470     LIBCMT:asin_pentium4.obj
 0002:000044b0       ABSVALMASK                 100314b0     LIBCMT:asin_pentium4.obj
 0002:000044b8       TMASK                      100314b8     LIBCMT:asin_pentium4.obj
 0002:000044c0       ONEMASK                    100314c0     LIBCMT:asin_pentium4.obj
 0002:000044c8       EMIN                       100314c8     LIBCMT:asin_pentium4.obj
 0002:000044d0       MAX_ARG                    100314d0     LIBCMT:asin_pentium4.obj
 0002:000044d8       MIN_ARG                    100314d8     LIBCMT:asin_pentium4.obj
 0002:000044e0       INF                        100314e0     LIBCMT:asin_pentium4.obj
 0002:000044e8       ZERO                       100314e8     LIBCMT:asin_pentium4.obj
 0002:000044f0       DblMax                     100314f0     LIBCMT:87cdisp.obj
 0002:000044f8       DblMin                     100314f8     LIBCMT:87cdisp.obj
 0002:00004500       IeeeAdjO                   10031500     LIBCMT:87cdisp.obj
 0002:00004508       IeeeAdjU                   10031508     LIBCMT:87cdisp.obj
 0002:00004510       _infinity                  10031510     LIBCMT:87cdisp.obj
 0002:00004518       _zero                      10031518     LIBCMT:87cdisp.obj
 0002:00004520       rcp_t1                     10031520     LIBCMT:pow_pentium4.obj
 0002:00004930       log2_t1                    10031930     LIBCMT:pow_pentium4.obj
 0002:00005140       rcp_t2                     10032140     LIBCMT:pow_pentium4.obj
 0002:00005550       log2_t2                    10032550     LIBCMT:pow_pentium4.obj
 0002:00005d60       rcp_t3                     10032d60     LIBCMT:pow_pentium4.obj
 0002:00006570       log2_t3                    10033570     LIBCMT:pow_pentium4.obj
 0002:00007580       clv                        10034580     LIBCMT:pow_pentium4.obj
 0002:000075a0       exp2_tbl                   100345a0     LIBCMT:pow_pentium4.obj
 0002:00007da0       Shifter                    10034da0     LIBCMT:pow_pentium4.obj
 0002:00007db0       SIGMASK                    10034db0     LIBCMT:pow_pentium4.obj
 0002:00007dc0       ONEMASK                    10034dc0     LIBCMT:pow_pentium4.obj
 0002:00007dd0       ABSVALMASK                 10034dd0     LIBCMT:pow_pentium4.obj
 0002:00007de0       cev                        10034de0     LIBCMT:pow_pentium4.obj
 0002:00007e08       HALFSIG                    10034e08     LIBCMT:pow_pentium4.obj
 0002:00007e10       LHN                        10034e10     LIBCMT:pow_pentium4.obj
 0002:00007e18       sNaN                       10034e18     LIBCMT:pow_pentium4.obj
 0002:00007e20       INF                        10034e20     LIBCMT:pow_pentium4.obj
 0002:00007e28       NEG_INF                    10034e28     LIBCMT:pow_pentium4.obj
 0002:00007e30       NEG_ZERO                   10034e30     LIBCMT:pow_pentium4.obj
 0002:00007e38       NEG_BIG                    10034e38     LIBCMT:pow_pentium4.obj
 0002:00007e40       POS_BIG                    10034e40     LIBCMT:pow_pentium4.obj
 0002:00007e48       EMIN                       10034e48     LIBCMT:pow_pentium4.obj
 0002:00007e50       QIND                       10034e50     LIBCMT:pow_pentium4.obj
 0002:00007e7e       _log2max                   10034e7e     LIBCMT:87tran.obj
 0002:00007e88       _smallarg                  10034e88     LIBCMT:87tran.obj
 0002:00007e92       _half                      10034e92     LIBCMT:87tran.obj
 0002:00007ec0       _INF                       10034ec0     LIBCMT:libm_error.obj
 0002:00007ed0       _BIG                       10034ed0     LIBCMT:libm_error.obj
 0002:00007ee0       _ZERO                      10034ee0     LIBCMT:libm_error.obj
 0002:00007ef0       _INF_32                    10034ef0     LIBCMT:libm_error.obj
 0002:00007ef8       _NAN_32                    10034ef8     LIBCMT:libm_error.obj
 0002:00007f00       _ZERO_32                   10034f00     LIBCMT:libm_error.obj
 0002:00007f08       _libm_largef               10034f08     LIBCMT:libm_error.obj
 0002:00007f10       _libm_smallf               10034f10     LIBCMT:libm_error.obj
 0002:00007f18       _libm_small                10034f18     LIBCMT:libm_error.obj
 0002:00007f88       __mb_locale_names          10034f88     LIBCMT:mbctype.obj
 0002:00008328       __first_127char            10035328     LIBCMT:wsetloca.obj
 0002:0000a4a0       _tokenTable                100374a0     LIBCMT:undname.obj
 0002:0000a4d4       _rttiTable                 100374d4     LIBCMT:undname.obj
 0002:0000a4e8       _nameTable                 100374e8     LIBCMT:undname.obj
 0002:0000b538       __Win_errtab               10038538     libcpmt:syserror.obj
 0002:0000b790       __Sys_errtab               10038790     libcpmt:syserror.obj
 0002:0000c9a8       $SG4294967291              100399a8     * CIL library *:* CIL module *
 0002:0000c9ac       $SG4294967290              100399ac     * CIL library *:* CIL module *
 0002:0000c9b4       $SG4294967289              100399b4     * CIL library *:* CIL module *
 0002:0000c9c4       $SG4294967288              100399c4     * CIL library *:* CIL module *
 0002:0000c9cc       $SG4294967287              100399cc     * CIL library *:* CIL module *
 0002:0000c9d4       $SG4294967286              100399d4     * CIL library *:* CIL module *
 0002:0000c9dc       $SG4294967285              100399dc     * CIL library *:* CIL module *
 0002:0000c9e8       $SG4294967284              100399e8     * CIL library *:* CIL module *
 0002:0000c9f4       $SG4294967283              100399f4     * CIL library *:* CIL module *
 0002:0000c9fc       $SG4294967282              100399fc     * CIL library *:* CIL module *
 0002:0000ca04       $SG4294967281              10039a04     * CIL library *:* CIL module *
 0002:0000ca0c       $SG4294967280              10039a0c     * CIL library *:* CIL module *
 0002:0000ca14       $SG4294967279              10039a14     * CIL library *:* CIL module *
 0002:0000ca1c       $SG4294967278              10039a1c     * CIL library *:* CIL module *
 0002:0000ca24       $SG4294967277              10039a24     * CIL library *:* CIL module *
 0002:0000ca2c       $SG4294967276              10039a2c     * CIL library *:* CIL module *
 0002:0000ca38       $SG4294967275              10039a38     * CIL library *:* CIL module *
 0002:0000ca44       $SG4294967274              10039a44     * CIL library *:* CIL module *
 0002:0000ca50       $SG4294967273              10039a50     * CIL library *:* CIL module *
 0002:0000ca60       $SG4294967272              10039a60     * CIL library *:* CIL module *
 0002:0000ca68       $SG4294967271              10039a68     * CIL library *:* CIL module *
 0002:0000ca70       $SG4294967270              10039a70     * CIL library *:* CIL module *
 0002:0000ca7c       $SG4294967269              10039a7c     * CIL library *:* CIL module *
 0002:0000ca84       $SG4294967268              10039a84     * CIL library *:* CIL module *
 0002:0000ca90       $SG4294967267              10039a90     * CIL library *:* CIL module *
 0002:0000caa0       $SG4294967266              10039aa0     * CIL library *:* CIL module *
 0002:0000caa8       $SG4294967265              10039aa8     * CIL library *:* CIL module *
 0002:0000cab0       $SG4294967264              10039ab0     * CIL library *:* CIL module *
 0002:0000cab8       $SG4294967263              10039ab8     * CIL library *:* CIL module *
 0002:0000cac0       $SG4294967262              10039ac0     * CIL library *:* CIL module *
 0002:0000cac8       $SG4294967261              10039ac8     * CIL library *:* CIL module *
 0002:0000cad0       $SG4294967260              10039ad0     * CIL library *:* CIL module *
 0002:0000cae0       $SG4294967259              10039ae0     * CIL library *:* CIL module *
 0002:0000cae8       $SG4294967258              10039ae8     * CIL library *:* CIL module *
 0002:0000caf0       $SG4294967257              10039af0     * CIL library *:* CIL module *
 0002:0000caf8       $SG4294967245              10039af8     * CIL library *:* CIL module *
 0002:0000cb04       $SG4294967244              10039b04     * CIL library *:* CIL module *
 0002:0000cb24       $SG4294967242              10039b24     * CIL library *:* CIL module *
 0002:0000cb5c       $SG4294966453              10039b5c     * CIL library *:* CIL module *
 0002:0000cb60       $SG4294967243              10039b60     * CIL library *:* CIL module *
 0002:0000cbb8       $SG4294966452              10039bb8     * CIL library *:* CIL module *
 0002:0000cbc0       $SG4294966451              10039bc0     * CIL library *:* CIL module *
 0002:0000cbd0       $SG4294966450              10039bd0     * CIL library *:* CIL module *
 0002:0000cbd8       $SG4294966449              10039bd8     * CIL library *:* CIL module *
 0002:0000cbe0       $SG4294966448              10039be0     * CIL library *:* CIL module *
 0002:0000cbe8       $SG4294966447              10039be8     * CIL library *:* CIL module *
 0002:0000cbf4       $SG4294966446              10039bf4     * CIL library *:* CIL module *
 0002:0000cc00       $SG4294966445              10039c00     * CIL library *:* CIL module *
 0002:0000cc08       $SG4294966444              10039c08     * CIL library *:* CIL module *
 0002:0000cc10       $SG4294966443              10039c10     * CIL library *:* CIL module *
 0002:0000cc18       $SG4294966442              10039c18     * CIL library *:* CIL module *
 0002:0000cc20       $SG4294966441              10039c20     * CIL library *:* CIL module *
 0002:0000cc28       $SG4294966440              10039c28     * CIL library *:* CIL module *
 0002:0000cc30       $SG4294966439              10039c30     * CIL library *:* CIL module *
 0002:0000cc38       $SG4294966438              10039c38     * CIL library *:* CIL module *
 0002:0000cc44       $SG4294966437              10039c44     * CIL library *:* CIL module *
 0002:0000cc50       $SG4294966436              10039c50     * CIL library *:* CIL module *
 0002:0000cc5c       $SG4294966435              10039c5c     * CIL library *:* CIL module *
 0002:0000cc6c       $SG4294966434              10039c6c     * CIL library *:* CIL module *
 0002:0000cc74       $SG4294966433              10039c74     * CIL library *:* CIL module *
 0002:0000cc7c       $SG4294966432              10039c7c     * CIL library *:* CIL module *
 0002:0000cc88       $SG4294966431              10039c88     * CIL library *:* CIL module *
 0002:0000cc90       $SG4294966430              10039c90     * CIL library *:* CIL module *
 0002:0000cc9c       $SG4294966429              10039c9c     * CIL library *:* CIL module *
 0002:0000ccac       $SG4294966428              10039cac     * CIL library *:* CIL module *
 0002:0000ccb4       $SG4294966427              10039cb4     * CIL library *:* CIL module *
 0002:0000ccbc       $SG4294966426              10039cbc     * CIL library *:* CIL module *
 0002:0000ccc4       $SG4294966425              10039cc4     * CIL library *:* CIL module *
 0002:0000cccc       $SG4294966424              10039ccc     * CIL library *:* CIL module *
 0002:0000ccd4       $SG4294966423              10039cd4     * CIL library *:* CIL module *
 0002:0000ccdc       $SG4294966422              10039cdc     * CIL library *:* CIL module *
 0002:0000ccec       $SG4294966421              10039cec     * CIL library *:* CIL module *
 0002:0000ccf4       $SG4294966420              10039cf4     * CIL library *:* CIL module *
 0002:0000ccfc       $SG4294966419              10039cfc     * CIL library *:* CIL module *
 0002:0000cd04       $SG4294965006              10039d04     * CIL library *:* CIL module *
 0002:0000cd08       $SG4294965005              10039d08     * CIL library *:* CIL module *
 0002:0000cd10       $SG4294965004              10039d10     * CIL library *:* CIL module *
 0002:0000cd20       $SG4294965003              10039d20     * CIL library *:* CIL module *
 0002:0000cd28       $SG4294965002              10039d28     * CIL library *:* CIL module *
 0002:0000cd30       $SG4294965001              10039d30     * CIL library *:* CIL module *
 0002:0000cd38       $SG4294965000              10039d38     * CIL library *:* CIL module *
 0002:0000cd44       $SG4294964999              10039d44     * CIL library *:* CIL module *
 0002:0000cd50       $SG4294964998              10039d50     * CIL library *:* CIL module *
 0002:0000cd58       $SG4294964997              10039d58     * CIL library *:* CIL module *
 0002:0000cd60       $SG4294964996              10039d60     * CIL library *:* CIL module *
 0002:0000cd68       $SG4294964995              10039d68     * CIL library *:* CIL module *
 0002:0000cd70       $SG4294964994              10039d70     * CIL library *:* CIL module *
 0002:0000cd78       $SG4294964993              10039d78     * CIL library *:* CIL module *
 0002:0000cd80       $SG4294964992              10039d80     * CIL library *:* CIL module *
 0002:0000cd88       $SG4294964991              10039d88     * CIL library *:* CIL module *
 0002:0000cd94       $SG4294964990              10039d94     * CIL library *:* CIL module *
 0002:0000cda0       $SG4294964989              10039da0     * CIL library *:* CIL module *
 0002:0000cdac       $SG4294964988              10039dac     * CIL library *:* CIL module *
 0002:0000cdbc       $SG4294964987              10039dbc     * CIL library *:* CIL module *
 0002:0000cdc4       $SG4294964986              10039dc4     * CIL library *:* CIL module *
 0002:0000cdcc       $SG4294964985              10039dcc     * CIL library *:* CIL module *
 0002:0000cdd8       $SG4294964984              10039dd8     * CIL library *:* CIL module *
 0002:0000cde0       $SG4294964983              10039de0     * CIL library *:* CIL module *
 0002:0000cdec       $SG4294964982              10039dec     * CIL library *:* CIL module *
 0002:0000cdfc       $SG4294964981              10039dfc     * CIL library *:* CIL module *
 0002:0000ce04       $SG4294964980              10039e04     * CIL library *:* CIL module *
 0002:0000ce0c       $SG4294964979              10039e0c     * CIL library *:* CIL module *
 0002:0000ce14       $SG4294964978              10039e14     * CIL library *:* CIL module *
 0002:0000ce1c       $SG4294964977              10039e1c     * CIL library *:* CIL module *
 0002:0000ce24       $SG4294964976              10039e24     * CIL library *:* CIL module *
 0002:0000ce2c       $SG4294964975              10039e2c     * CIL library *:* CIL module *
 0002:0000ce3c       $SG4294964974              10039e3c     * CIL library *:* CIL module *
 0002:0000ce44       $SG4294964973              10039e44     * CIL library *:* CIL module *
 0002:0000ce4c       $SG4294964972              10039e4c     * CIL library *:* CIL module *
 0002:0000ce54       $SG4294964866              10039e54     * CIL library *:* CIL module *
 0002:0000ce80       $SG4294961519              10039e80     * CIL library *:* CIL module *
 0002:0000ce84       $SG4294961518              10039e84     * CIL library *:* CIL module *
 0002:0000ce8c       $SG4294961517              10039e8c     * CIL library *:* CIL module *
 0002:0000ce9c       $SG4294961516              10039e9c     * CIL library *:* CIL module *
 0002:0000cea4       $SG4294961515              10039ea4     * CIL library *:* CIL module *
 0002:0000ceac       $SG4294961514              10039eac     * CIL library *:* CIL module *
 0002:0000ceb4       $SG4294961513              10039eb4     * CIL library *:* CIL module *
 0002:0000cec0       $SG4294961512              10039ec0     * CIL library *:* CIL module *
 0002:0000cecc       $SG4294961511              10039ecc     * CIL library *:* CIL module *
 0002:0000ced4       $SG4294961510              10039ed4     * CIL library *:* CIL module *
 0002:0000cedc       $SG4294961509              10039edc     * CIL library *:* CIL module *
 0002:0000cee4       $SG4294961508              10039ee4     * CIL library *:* CIL module *
 0002:0000ceec       $SG4294961507              10039eec     * CIL library *:* CIL module *
 0002:0000cef4       $SG4294961506              10039ef4     * CIL library *:* CIL module *
 0002:0000cefc       $SG4294961505              10039efc     * CIL library *:* CIL module *
 0002:0000cf04       $SG4294961504              10039f04     * CIL library *:* CIL module *
 0002:0000cf10       $SG4294961503              10039f10     * CIL library *:* CIL module *
 0002:0000cf1c       $SG4294961502              10039f1c     * CIL library *:* CIL module *
 0002:0000cf28       $SG4294961501              10039f28     * CIL library *:* CIL module *
 0002:0000cf38       $SG4294961500              10039f38     * CIL library *:* CIL module *
 0002:0000cf40       $SG4294961499              10039f40     * CIL library *:* CIL module *
 0002:0000cf48       $SG4294961498              10039f48     * CIL library *:* CIL module *
 0002:0000cf54       $SG4294961497              10039f54     * CIL library *:* CIL module *
 0002:0000cf5c       $SG4294961496              10039f5c     * CIL library *:* CIL module *
 0002:0000cf68       $SG4294961495              10039f68     * CIL library *:* CIL module *
 0002:0000cf78       $SG4294961494              10039f78     * CIL library *:* CIL module *
 0002:0000cf80       $SG4294961493              10039f80     * CIL library *:* CIL module *
 0002:0000cf88       $SG4294961492              10039f88     * CIL library *:* CIL module *
 0002:0000cf90       $SG4294961491              10039f90     * CIL library *:* CIL module *
 0002:0000cf98       $SG4294961490              10039f98     * CIL library *:* CIL module *
 0002:0000cfa0       $SG4294961489              10039fa0     * CIL library *:* CIL module *
 0002:0000cfa8       $SG4294961488              10039fa8     * CIL library *:* CIL module *
 0002:0000cfb8       $SG4294961487              10039fb8     * CIL library *:* CIL module *
 0002:0000cfc0       $SG4294961486              10039fc0     * CIL library *:* CIL module *
 0002:0000cfc8       $SG4294961485              10039fc8     * CIL library *:* CIL module *
 0002:0000cfd0       $SG4294961476              10039fd0     * CIL library *:* CIL module *
 0002:0000cfd8       $SG4294961475              10039fd8     * CIL library *:* CIL module *
 0002:0000cfe0       $SG4294961474              10039fe0     * CIL library *:* CIL module *
 0002:0000cfec       $SG4294961473              10039fec     * CIL library *:* CIL module *
 0002:0000cff0       $SG4294961472              10039ff0     * CIL library *:* CIL module *
 0002:0000cff8       $SG4294961471              10039ff8     * CIL library *:* CIL module *
 0002:0000d004       $SG4294961470              1003a004     * CIL library *:* CIL module *
 0002:0000d018       $SG4294961469              1003a018     * CIL library *:* CIL module *
 0002:0000d04c       $SG4294961468              1003a04c     * CIL library *:* CIL module *
 0002:0000d064       $SG4294961467              1003a064     * CIL library *:* CIL module *
 0002:0000d094       $SG4294961466              1003a094     * CIL library *:* CIL module *
 0002:0000d0ac       $SG4294961465              1003a0ac     * CIL library *:* CIL module *
 0002:0000d0bc       $SG4294961464              1003a0bc     * CIL library *:* CIL module *
 0002:0000d0ec       $SG4294961463              1003a0ec     * CIL library *:* CIL module *
 0002:0000d110       $SG4294961462              1003a110     * CIL library *:* CIL module *
 0002:0000d118       $SG4294961461              1003a118     * CIL library *:* CIL module *
 0002:0000d120       $SG4294961460              1003a120     * CIL library *:* CIL module *
 0002:0000d128       $SG4294961459              1003a128     * CIL library *:* CIL module *
 0002:0000d130       $SG4294961458              1003a130     * CIL library *:* CIL module *
 0002:0000d138       $SG4294961457              1003a138     * CIL library *:* CIL module *
 0002:0000d140       $SG4294961456              1003a140     * CIL library *:* CIL module *
 0002:0000d14c       $SG4294961455              1003a14c     * CIL library *:* CIL module *
 0002:0000d158       $SG4294961454              1003a158     * CIL library *:* CIL module *
 0002:0000d164       $SG4294961453              1003a164     * CIL library *:* CIL module *
 0002:0000d170       $SG4294961452              1003a170     * CIL library *:* CIL module *
 0002:0000d174       $SG4294961451              1003a174     * CIL library *:* CIL module *
 0002:0000d17c       $SG4294961450              1003a17c     * CIL library *:* CIL module *
 0002:0000d184       $SG4294961449              1003a184     * CIL library *:* CIL module *
 0002:0000d18c       $SG4294961448              1003a18c     * CIL library *:* CIL module *
 0002:0000d194       $SG4294961447              1003a194     * CIL library *:* CIL module *
 0002:0000d1a0       $SG4294961446              1003a1a0     * CIL library *:* CIL module *
 0002:0000d1b0       $SG4294961445              1003a1b0     * CIL library *:* CIL module *
 0002:0000d1c8       $SG4294961444              1003a1c8     * CIL library *:* CIL module *
 0002:0000d1dc       $SG4294961443              1003a1dc     * CIL library *:* CIL module *
 0002:0000d1f0       $SG4294961442              1003a1f0     * CIL library *:* CIL module *
 0002:0000d204       $SG4294961441              1003a204     * CIL library *:* CIL module *
 0002:0000d218       $SG4294961440              1003a218     * CIL library *:* CIL module *
 0002:0000d21c       $SG4294961439              1003a21c     * CIL library *:* CIL module *
 0002:0000d220       $SG4294961438              1003a220     * CIL library *:* CIL module *
 0002:0000d22c       $SG4294961437              1003a22c     * CIL library *:* CIL module *
 0002:0000d238       $SG4294961436              1003a238     * CIL library *:* CIL module *
 0002:0000d248       $SG4294961435              1003a248     * CIL library *:* CIL module *
 0002:0000d258       $SG4294961434              1003a258     * CIL library *:* CIL module *
 0002:0000d268       $SG4294961433              1003a268     * CIL library *:* CIL module *
 0002:0000d274       $SG4294961432              1003a274     * CIL library *:* CIL module *
 0002:0000d288       $SG4294961431              1003a288     * CIL library *:* CIL module *
 0002:0000d29c       $SG4294961430              1003a29c     * CIL library *:* CIL module *
 0002:0000d2ac       $SG4294961429              1003a2ac     * CIL library *:* CIL module *
 0002:0000d2c0       $SG4294961428              1003a2c0     * CIL library *:* CIL module *
 0002:0000d2cc       $SG4294961427              1003a2cc     * CIL library *:* CIL module *
 0002:0000d2dc       $SG4294961426              1003a2dc     * CIL library *:* CIL module *
 0002:0000d2e8       $SG4294961425              1003a2e8     * CIL library *:* CIL module *
 0002:0000d2f4       $SG4294961424              1003a2f4     * CIL library *:* CIL module *
 0002:0000d308       $SG4294961423              1003a308     * CIL library *:* CIL module *
 0002:0000d318       $SG4294961422              1003a318     * CIL library *:* CIL module *
 0002:0000d328       $SG4294961421              1003a328     * CIL library *:* CIL module *
 0002:0000d334       $SG4294961420              1003a334     * CIL library *:* CIL module *
 0002:0000d33c       $SG4294961419              1003a33c     * CIL library *:* CIL module *
 0002:0000d34c       $SG4294961418              1003a34c     * CIL library *:* CIL module *
 0002:0000d358       $SG4294961417              1003a358     * CIL library *:* CIL module *
 0002:0000d360       $SG4294961416              1003a360     * CIL library *:* CIL module *
 0002:0000d368       $SG4294961415              1003a368     * CIL library *:* CIL module *
 0002:0000d378       $SG4294961414              1003a378     * CIL library *:* CIL module *
 0002:0000d38c       $SG4294961413              1003a38c     * CIL library *:* CIL module *
 0002:0000d394       $SG4294961412              1003a394     * CIL library *:* CIL module *
 0002:0000d39c       $SG4294961411              1003a39c     * CIL library *:* CIL module *
 0002:0000d3a8       $SG4294961410              1003a3a8     * CIL library *:* CIL module *
 0002:0000d3b4       $SG4294961409              1003a3b4     * CIL library *:* CIL module *
 0002:0000d3c0       $SG4294961408              1003a3c0     * CIL library *:* CIL module *
 0002:0000d3cc       $SG4294961407              1003a3cc     * CIL library *:* CIL module *
 0002:0000d3d4       $SG4294961406              1003a3d4     * CIL library *:* CIL module *
 0002:0000d3dc       $SG4294961405              1003a3dc     * CIL library *:* CIL module *
 0002:0000d3e8       $SG4294961404              1003a3e8     * CIL library *:* CIL module *
 0002:0000d3f4       $SG4294961403              1003a3f4     * CIL library *:* CIL module *
 0002:0000d3fc       $SG4294961402              1003a3fc     * CIL library *:* CIL module *
 0002:0000d404       $SG4294961401              1003a404     * CIL library *:* CIL module *
 0002:0000d40c       $SG4294961400              1003a40c     * CIL library *:* CIL module *
 0002:0000d418       $SG4294961399              1003a418     * CIL library *:* CIL module *
 0002:0000d420       $SG4294961398              1003a420     * CIL library *:* CIL module *
 0002:0000d42c       $SG4294961397              1003a42c     * CIL library *:* CIL module *
 0002:0000d43c       $SG4294961396              1003a43c     * CIL library *:* CIL module *
 0002:0000d448       $SG4294961395              1003a448     * CIL library *:* CIL module *
 0002:0000d454       $SG4294961394              1003a454     * CIL library *:* CIL module *
 0002:0000d460       $SG4294961393              1003a460     * CIL library *:* CIL module *
 0002:0000d46c       $SG4294961392              1003a46c     * CIL library *:* CIL module *
 0002:0000d478       $SG4294961391              1003a478     * CIL library *:* CIL module *
 0002:0000d484       $SG4294961390              1003a484     * CIL library *:* CIL module *
 0002:0000d498       $SG4294961389              1003a498     * CIL library *:* CIL module *
 0002:0000d4a0       $SG4294961388              1003a4a0     * CIL library *:* CIL module *
 0002:0000d4a8       $SG4294961387              1003a4a8     * CIL library *:* CIL module *
 0002:0000d4b0       $SG4294961386              1003a4b0     * CIL library *:* CIL module *
 0002:0000d4b4       $SG4294961385              1003a4b4     * CIL library *:* CIL module *
 0002:0000d4bc       $SG4294961384              1003a4bc     * CIL library *:* CIL module *
 0002:0000d4c4       $SG4294961383              1003a4c4     * CIL library *:* CIL module *
 0002:0000d4e4       $SG4294961382              1003a4e4     * CIL library *:* CIL module *
 0002:0000d508       $SG4294961381              1003a508     * CIL library *:* CIL module *
 0002:0000d514       $SG4294961380              1003a514     * CIL library *:* CIL module *
 0002:0000d52c       _DeathDrop                 1003a52c     * CIL library *:* CIL module *
 0002:0000d530       _HumanHeight               1003a530     * CIL library *:* CIL module *
 0002:0000d534       $SG4294953171              1003a534     * CIL library *:* CIL module *
 0002:0000d538       $SG4294953170              1003a538     * CIL library *:* CIL module *
 0002:0000d540       $SG4294953169              1003a540     * CIL library *:* CIL module *
 0002:0000d550       $SG4294953168              1003a550     * CIL library *:* CIL module *
 0002:0000d558       $SG4294953167              1003a558     * CIL library *:* CIL module *
 0002:0000d560       $SG4294953166              1003a560     * CIL library *:* CIL module *
 0002:0000d568       $SG4294953165              1003a568     * CIL library *:* CIL module *
 0002:0000d574       $SG4294953164              1003a574     * CIL library *:* CIL module *
 0002:0000d580       $SG4294953163              1003a580     * CIL library *:* CIL module *
 0002:0000d588       $SG4294953162              1003a588     * CIL library *:* CIL module *
 0002:0000d590       $SG4294953161              1003a590     * CIL library *:* CIL module *
 0002:0000d598       $SG4294953160              1003a598     * CIL library *:* CIL module *
 0002:0000d5a0       $SG4294953159              1003a5a0     * CIL library *:* CIL module *
 0002:0000d5a8       $SG4294953158              1003a5a8     * CIL library *:* CIL module *
 0002:0000d5b0       $SG4294953157              1003a5b0     * CIL library *:* CIL module *
 0002:0000d5b8       $SG4294953156              1003a5b8     * CIL library *:* CIL module *
 0002:0000d5c4       $SG4294953155              1003a5c4     * CIL library *:* CIL module *
 0002:0000d5d0       $SG4294953154              1003a5d0     * CIL library *:* CIL module *
 0002:0000d5dc       $SG4294953153              1003a5dc     * CIL library *:* CIL module *
 0002:0000d5ec       $SG4294953152              1003a5ec     * CIL library *:* CIL module *
 0002:0000d5f4       $SG4294953151              1003a5f4     * CIL library *:* CIL module *
 0002:0000d5fc       $SG4294953150              1003a5fc     * CIL library *:* CIL module *
 0002:0000d608       $SG4294953149              1003a608     * CIL library *:* CIL module *
 0002:0000d610       $SG4294953148              1003a610     * CIL library *:* CIL module *
 0002:0000d61c       $SG4294953147              1003a61c     * CIL library *:* CIL module *
 0002:0000d62c       $SG4294953146              1003a62c     * CIL library *:* CIL module *
 0002:0000d634       $SG4294953145              1003a634     * CIL library *:* CIL module *
 0002:0000d63c       $SG4294953144              1003a63c     * CIL library *:* CIL module *
 0002:0000d644       $SG4294953143              1003a644     * CIL library *:* CIL module *
 0002:0000d64c       $SG4294953142              1003a64c     * CIL library *:* CIL module *
 0002:0000d654       $SG4294953141              1003a654     * CIL library *:* CIL module *
 0002:0000d65c       $SG4294953140              1003a65c     * CIL library *:* CIL module *
 0002:0000d66c       $SG4294953139              1003a66c     * CIL library *:* CIL module *
 0002:0000d674       $SG4294953138              1003a674     * CIL library *:* CIL module *
 0002:0000d67c       $SG4294953137              1003a67c     * CIL library *:* CIL module *
 0002:0000d684       $SG4294953006              1003a684     * CIL library *:* CIL module *
 0002:0000d69c       $SG4294953005              1003a69c     * CIL library *:* CIL module *
 0002:0000d6a0       $SG4294953004              1003a6a0     * CIL library *:* CIL module *
 0002:0000d6a4       $SG4294953003              1003a6a4     * CIL library *:* CIL module *
 0002:0000d6b4       $SG4294953002              1003a6b4     * CIL library *:* CIL module *
 0002:0000d6b8       $SG4294953001              1003a6b8     * CIL library *:* CIL module *
 0002:0000d6d4       $SG4294952968              1003a6d4     * CIL library *:* CIL module *
 0002:0000d6f0       $SG4294952967              1003a6f0     * CIL library *:* CIL module *
 0002:0000d70c       $SG4294945954              1003a70c     * CIL library *:* CIL module *
 0002:0000d710       $SG4294945953              1003a710     * CIL library *:* CIL module *
 0002:0000d718       $SG4294945952              1003a718     * CIL library *:* CIL module *
 0002:0000d728       $SG4294945951              1003a728     * CIL library *:* CIL module *
 0002:0000d730       $SG4294945950              1003a730     * CIL library *:* CIL module *
 0002:0000d738       $SG4294945949              1003a738     * CIL library *:* CIL module *
 0002:0000d740       $SG4294945948              1003a740     * CIL library *:* CIL module *
 0002:0000d74c       $SG4294945947              1003a74c     * CIL library *:* CIL module *
 0002:0000d758       $SG4294945946              1003a758     * CIL library *:* CIL module *
 0002:0000d760       $SG4294945945              1003a760     * CIL library *:* CIL module *
 0002:0000d768       $SG4294945944              1003a768     * CIL library *:* CIL module *
 0002:0000d770       $SG4294945943              1003a770     * CIL library *:* CIL module *
 0002:0000d778       $SG4294945942              1003a778     * CIL library *:* CIL module *
 0002:0000d780       $SG4294945941              1003a780     * CIL library *:* CIL module *
 0002:0000d788       $SG4294945940              1003a788     * CIL library *:* CIL module *
 0002:0000d790       $SG4294945939              1003a790     * CIL library *:* CIL module *
 0002:0000d79c       $SG4294945938              1003a79c     * CIL library *:* CIL module *
 0002:0000d7a8       $SG4294945937              1003a7a8     * CIL library *:* CIL module *
 0002:0000d7b4       $SG4294945936              1003a7b4     * CIL library *:* CIL module *
 0002:0000d7c4       $SG4294945935              1003a7c4     * CIL library *:* CIL module *
 0002:0000d7cc       $SG4294945934              1003a7cc     * CIL library *:* CIL module *
 0002:0000d7d4       $SG4294945933              1003a7d4     * CIL library *:* CIL module *
 0002:0000d7e0       $SG4294945932              1003a7e0     * CIL library *:* CIL module *
 0002:0000d7e8       $SG4294945931              1003a7e8     * CIL library *:* CIL module *
 0002:0000d7f4       $SG4294945930              1003a7f4     * CIL library *:* CIL module *
 0002:0000d804       $SG4294945929              1003a804     * CIL library *:* CIL module *
 0002:0000d80c       $SG4294945928              1003a80c     * CIL library *:* CIL module *
 0002:0000d814       $SG4294945927              1003a814     * CIL library *:* CIL module *
 0002:0000d81c       $SG4294945926              1003a81c     * CIL library *:* CIL module *
 0002:0000d824       $SG4294945925              1003a824     * CIL library *:* CIL module *
 0002:0000d82c       $SG4294945924              1003a82c     * CIL library *:* CIL module *
 0002:0000d834       $SG4294945923              1003a834     * CIL library *:* CIL module *
 0002:0000d844       $SG4294945922              1003a844     * CIL library *:* CIL module *
 0002:0000d84c       $SG4294945921              1003a84c     * CIL library *:* CIL module *
 0002:0000d854       $SG4294945920              1003a854     * CIL library *:* CIL module *
 0002:0000d85c       $SG4294945807              1003a85c     * CIL library *:* CIL module *
 0002:0000ee00       __sehtable$__onexit        1003be00     LIBCMT:onexit.obj
 0002:0000ee20       __sehtable$__fsopen        1003be20     LIBCMT:fopen.obj
 0002:0000ee40       __sehtable$_fread_s        1003be40     LIBCMT:fread.obj
 0002:0000ee60       __sehtable$_ftell          1003be60     LIBCMT:ftell.obj
 0002:0000ee80       __sehtable$_fseek          1003be80     LIBCMT:fseek.obj
 0002:0000eea0       __sehtable$_fclose         1003bea0     LIBCMT:fclose.obj
 0002:0000eec0       __sehtable$__CRT_INIT@12   1003bec0     LIBCMT:dllcrt0.obj
 0002:0000eee0       __sehtable$___DllMainCRTStartup 1003bee0     LIBCMT:dllcrt0.obj
 0002:0000ef00       __sehtable$_doexit         1003bf00     LIBCMT:crt0dat.obj
 0002:0000ef20       __sehtable$?_Type_info_dtor@type_info@@CAXPAV1@@Z 1003bf20     LIBCMT:typname.obj
 0002:0000ef40       __sehtable$__getstream     1003bf40     LIBCMT:stream.obj
 0002:0000ef60       __sehtable$__read          1003bf60     LIBCMT:read.obj
 0002:0000ef80       __sehtable$__lseek         1003bf80     LIBCMT:lseek.obj
 0002:0000efa0       __sehtable$__lseeki64      1003bfa0     LIBCMT:lseeki64.obj
 0002:0000efc0       __sehtable$__ioinit        1003bfc0     LIBCMT:ioinit.obj
 0002:0000efe0       __sehtable$_flsall         1003bfe0     LIBCMT:fflush.obj
 0002:0000f008       __sehtable$__close         1003c008     LIBCMT:close.obj
 0002:0000f028       __sehtable$__freefls@4     1003c028     LIBCMT:tidtable.obj
 0002:0000f050       __sehtable$__initptd       1003c050     LIBCMT:tidtable.obj
 0002:0000f078       __sehtable$___updatetlocinfo 1003c078     LIBCMT:localref.obj
 0002:0000f098       __sehtable$___updatetmbcinfo 1003c098     LIBCMT:mbctype.obj
 0002:0000f0b8       __sehtable$__setmbcp       1003c0b8     LIBCMT:mbctype.obj
 0002:0000f0d8       __sehtable$__locterm       1003c0d8     LIBCMT:wsetloca.obj
 0002:0000f0f8       __sehtable$__write         1003c0f8     LIBCMT:write.obj
 0002:0000f118       __sehtable$__mtinitlocknum 1003c118     LIBCMT:mlock.obj
 0002:0000f138       __sehtable$__IsNonwritableInCurrentImage 1003c138     LIBCMT:pesect.obj
 0002:0000f158       __sehtable$?terminate@@YAXXZ 1003c158     LIBCMT:hooks.obj
 0002:0000f178       __sehtable$?_inconsistency@@YAXXZ 1003c178     LIBCMT:hooks.obj
 0002:0000f198       __sehtable$_raise          1003c198     LIBCMT:winsig.obj
 0002:0000f1b8       __sehtable$__fcloseall     1003c1b8     LIBCMT:closeall.obj
 0002:0000f1d8       __sehtable$__sopen_helper  1003c1d8     LIBCMT:open.obj
 0002:0000f1f8       __sehtable$__alloc_osfhnd  1003c1f8     LIBCMT:osfinfo.obj
 0002:0000f220       __sehtable$___lock_fhandle 1003c220     LIBCMT:osfinfo.obj
 0002:0000f240       __sehtable$__commit        1003c240     LIBCMT:commit.obj
 0002:0000f260       __sehtable$___set_fpsr_sse2 1003c260     LIBCMT:fpctrl.obj
 0002:0000f2d8       __ehfuncinfo$??0date@gregorian@boost@@QAE@W4special_values@date_time@2@@Z 1003c2d8     libboost_thread-vc110-mt-s-1_52:thread.obj
 0002:0000f2fc       __unwindtable$??0date@gregorian@boost@@QAE@W4special_values@date_time@2@@Z 1003c2fc     libboost_thread-vc110-mt-s-1_52:thread.obj
 0002:0000f35c       __unwindtable$??1thread_data_base@detail@boost@@UAE@XZ 1003c35c     libboost_thread-vc110-mt-s-1_52:thread.obj
 0002:0000f37c       __ehfuncinfo$??1thread_data_base@detail@boost@@UAE@XZ 1003c37c     libboost_thread-vc110-mt-s-1_52:thread.obj
 0002:0000f3a0       __unwindtable$?interruptible_wait@this_thread@boost@@YA_NPAXUtimeout@detail@2@@Z 1003c3a0     libboost_thread-vc110-mt-s-1_52:thread.obj
 0002:0000f3a8       __ehfuncinfo$?interruptible_wait@this_thread@boost@@YA_NPAXUtimeout@detail@2@@Z 1003c3a8     libboost_thread-vc110-mt-s-1_52:thread.obj
 0002:0000f3cc       __unwindtable$?start_thread@thread@boost@@AAEXXZ 1003c3cc     libboost_thread-vc110-mt-s-1_52:thread.obj
 0002:0000f3d4       __ehfuncinfo$?start_thread@thread@boost@@AAEXXZ 1003c3d4     libboost_thread-vc110-mt-s-1_52:thread.obj
 0002:0000f3f8       __unwindtable$?do_try_join_until@thread@boost@@AAE_N_K@Z 1003c3f8     libboost_thread-vc110-mt-s-1_52:thread.obj
 0002:0000f410       __ehfuncinfo$?do_try_join_until@thread@boost@@AAE_N_K@Z 1003c410     libboost_thread-vc110-mt-s-1_52:thread.obj
 0002:0000f434       __unwindtable$?notify_all@basic_condition_variable@detail@boost@@QAEXXZ 1003c434     libboost_thread-vc110-mt-s-1_52:thread.obj
 0002:0000f43c       __ehfuncinfo$?notify_all@basic_condition_variable@detail@boost@@QAEXXZ 1003c43c     libboost_thread-vc110-mt-s-1_52:thread.obj
 0002:0000f460       __catchsym$??$call_once@P6AXXZ@boost@@YAXAAUonce_flag@0@P6AXXZ@Z$3 1003c460     libboost_thread-vc110-mt-s-1_52:thread.obj
 0002:0000f470       __tryblocktable$??$call_once@P6AXXZ@boost@@YAXAAUonce_flag@0@P6AXXZ@Z 1003c470     libboost_thread-vc110-mt-s-1_52:thread.obj
 0002:0000f484       __unwindtable$??$call_once@P6AXXZ@boost@@YAXAAUonce_flag@0@P6AXXZ@Z 1003c484     libboost_thread-vc110-mt-s-1_52:thread.obj
 0002:0000f49c       __ehfuncinfo$??$call_once@P6AXXZ@boost@@YAXAAUonce_flag@0@P6AXXZ@Z 1003c49c     libboost_thread-vc110-mt-s-1_52:thread.obj
 0002:0000f4c0       __unwindtable$?set_current_thread_data@?A0xad6650d6@boost@@YAXPAUthread_data_base@detail@2@@Z 1003c4c0     libboost_thread-vc110-mt-s-1_52:thread.obj
 0002:0000f4c8       __ehfuncinfo$?set_current_thread_data@?A0xad6650d6@boost@@YAXPAUthread_data_base@detail@2@@Z 1003c4c8     libboost_thread-vc110-mt-s-1_52:thread.obj
 0002:0000f4ec       __unwindtable$?run_thread_exit_callbacks@?A0xad6650d6@boost@@YAXXZ 1003c4ec     libboost_thread-vc110-mt-s-1_52:thread.obj
 0002:0000f4f4       __ehfuncinfo$?run_thread_exit_callbacks@?A0xad6650d6@boost@@YAXXZ 1003c4f4     libboost_thread-vc110-mt-s-1_52:thread.obj
 0002:0000f518       __catchsym$?thread_start_function@?A0xad6650d6@boost@@YGIPAX@Z$2 1003c518     libboost_thread-vc110-mt-s-1_52:thread.obj
 0002:0000f528       __unwindtable$?thread_start_function@?A0xad6650d6@boost@@YGIPAX@Z 1003c528     libboost_thread-vc110-mt-s-1_52:thread.obj
 0002:0000f538       __tryblocktable$?thread_start_function@?A0xad6650d6@boost@@YGIPAX@Z 1003c538     libboost_thread-vc110-mt-s-1_52:thread.obj
 0002:0000f54c       __ehfuncinfo$?thread_start_function@?A0xad6650d6@boost@@YGIPAX@Z 1003c54c     libboost_thread-vc110-mt-s-1_52:thread.obj
 0002:0000f570       __unwindtable$??$_Destroy_range@U?$_Wrap_alloc@V?$allocator@V?$intrusive_ptr@Vbasic_cv_list_entry@detail@boost@@@boost@@@std@@@std@@@std@@YAXPAV?$intrusive_ptr@Vbasic_cv_list_entry@detail@boost@@@boost@@0AAU?$_Wrap_alloc@V?$allocator@V?$intrusive_ptr@Vbasic_cv_list_entry@detail@boost@@@boost@@@std@@@0@U_Nonscalar_ptr_iterator_tag@0@@Z 1003c570     libboost_thread-vc110-mt-s-1_52:thread.obj
 0002:0000f578       __ehfuncinfo$??$_Destroy_range@U?$_Wrap_alloc@V?$allocator@V?$intrusive_ptr@Vbasic_cv_list_entry@detail@boost@@@boost@@@std@@@std@@@std@@YAXPAV?$intrusive_ptr@Vbasic_cv_list_entry@detail@boost@@@boost@@0AAU?$_Wrap_alloc@V?$allocator@V?$intrusive_ptr@Vbasic_cv_list_entry@detail@boost@@@boost@@@std@@@0@U_Nonscalar_ptr_iterator_tag@0@@Z 1003c578     libboost_thread-vc110-mt-s-1_52:thread.obj
 0002:0000f5d0       __unwindtable$??__Eerrno_ecat@system@boost@@YAXXZ 1003c5d0     libboost_system-vc110-mt-s-1_52:error_code.obj
 0002:0000f5d0       __unwindtable$?make_error_condition@errc@system@boost@@YA?AVerror_condition@23@W4errc_t@123@@Z 1003c5d0     libboost_system-vc110-mt-s-1_52:error_code.obj
 0002:0000f5d0       __unwindtable$?generic_category@system@boost@@YAABVerror_category@12@XZ 1003c5d0     libboost_system-vc110-mt-s-1_52:error_code.obj
 0002:0000f5d0       __unwindtable$??__Eposix_category@system@boost@@YAXXZ 1003c5d0     libboost_system-vc110-mt-s-1_52:error_code.obj
 0002:0000f5d8       __ehfuncinfo$?generic_category@system@boost@@YAABVerror_category@12@XZ 1003c5d8     libboost_system-vc110-mt-s-1_52:error_code.obj
 0002:0000f5d8       __ehfuncinfo$?make_error_condition@errc@system@boost@@YA?AVerror_condition@23@W4errc_t@123@@Z 1003c5d8     libboost_system-vc110-mt-s-1_52:error_code.obj
 0002:0000f5d8       __ehfuncinfo$??__Eposix_category@system@boost@@YAXXZ 1003c5d8     libboost_system-vc110-mt-s-1_52:error_code.obj
 0002:0000f5d8       __ehfuncinfo$??__Eerrno_ecat@system@boost@@YAXXZ 1003c5d8     libboost_system-vc110-mt-s-1_52:error_code.obj
 0002:0000f5fc       __unwindtable$?message@generic_error_category@?A0xe218785f@@UBE?AV?$basic_string@DU?$char_traits@D@std@@V?$allocator@D@2@@std@@H@Z 1003c5fc     libboost_system-vc110-mt-s-1_52:error_code.obj
 0002:0000f60c       __ehfuncinfo$?message@generic_error_category@?A0xe218785f@@UBE?AV?$basic_string@DU?$char_traits@D@std@@V?$allocator@D@2@@std@@H@Z 1003c60c     libboost_system-vc110-mt-s-1_52:error_code.obj
 0002:0000f630       __unwindtable$?message@system_error_category@?A0xe218785f@@UBE?AV?$basic_string@DU?$char_traits@D@std@@V?$allocator@D@2@@std@@H@Z 1003c630     libboost_system-vc110-mt-s-1_52:error_code.obj
 0002:0000f648       __ehfuncinfo$?message@system_error_category@?A0xe218785f@@UBE?AV?$basic_string@DU?$char_traits@D@std@@V?$allocator@D@2@@std@@H@Z 1003c648     libboost_system-vc110-mt-s-1_52:error_code.obj
 0002:0000f66c       __unwindtable$?default_error_condition@system_error_category@?A0xe218785f@@UBE?AVerror_condition@system@boost@@H@Z 1003c66c     libboost_system-vc110-mt-s-1_52:error_code.obj
 0002:0000f67c       __ehfuncinfo$?default_error_condition@system_error_category@?A0xe218785f@@UBE?AVerror_condition@system@boost@@H@Z 1003c67c     libboost_system-vc110-mt-s-1_52:error_code.obj
 0002:0000f6a0       __unwindtable$??__Ethrows@system@boost@@YAXXZ 1003c6a0     libboost_system-vc110-mt-s-1_52:error_code.obj
 0002:0000f6a0       __unwindtable$??__Enative_ecat@system@boost@@YAXXZ 1003c6a0     libboost_system-vc110-mt-s-1_52:error_code.obj
 0002:0000f6a0       __unwindtable$?system_category@system@boost@@YAABVerror_category@12@XZ 1003c6a0     libboost_system-vc110-mt-s-1_52:error_code.obj
 0002:0000f6a8       __ehfuncinfo$?system_category@system@boost@@YAABVerror_category@12@XZ 1003c6a8     libboost_system-vc110-mt-s-1_52:error_code.obj
 0002:0000f6a8       __ehfuncinfo$??__Ethrows@system@boost@@YAXXZ 1003c6a8     libboost_system-vc110-mt-s-1_52:error_code.obj
 0002:0000f6a8       __ehfuncinfo$??__Enative_ecat@system@boost@@YAXXZ 1003c6a8     libboost_system-vc110-mt-s-1_52:error_code.obj
 0002:0000f6d0       __sehtable$__callthreadstartex 1003c6d0     LIBCMT:threadex.obj
 0002:0000f6f0       __sehtable$___FrameUnwindToState 1003c6f0     LIBCMT:frame.obj
 0002:0000f718       __sehtable$?CallCatchBlock@@YAPAXPAUEHExceptionRecord@@PAUEHRegistrationNode@@PAU_CONTEXT@@PBU_s_FuncInfo@@PAXHK@Z 1003c718     LIBCMT:frame.obj
 0002:0000f740       __sehtable$___BuildCatchObject 1003c740     LIBCMT:frame.obj
 0002:0000f760       __sehtable$___DestructExceptionObject 1003c760     LIBCMT:frame.obj
 0002:0000f77c       __catchsym$?CallUnexpected@@YAXPBU_s_ESTypeList@@@Z$2 1003c77c     LIBCMT:frame.obj
 0002:0000f78c       __unwindtable$?CallUnexpected@@YAXPBU_s_ESTypeList@@@Z 1003c78c     LIBCMT:frame.obj
 0002:0000f79c       __tryblocktable$?CallUnexpected@@YAXPBU_s_ESTypeList@@@Z 1003c79c     LIBCMT:frame.obj
 0002:0000f7b0       __ehfuncinfo$?CallUnexpected@@YAXPBU_s_ESTypeList@@@Z 1003c7b0     LIBCMT:frame.obj
 0002:0000f7d8       __sehtable$___BuildCatchObjectHelper 1003c7d8     LIBCMT:frame.obj
 0002:0000fc4c       __ehfuncinfo$?GetObject@ILuaInterface@@QAEPAVILuaObject@@H@Z 1003cc4c     * CIL library *:* CIL module *
 0002:0000fc4c       __ehfuncinfo$?GetMetaTable@ILuaInterface@@QAEPAVILuaObject@@PBDH@Z 1003cc4c     * CIL library *:* CIL module *
 0002:0000fc4c       __ehfuncinfo$?GetNewTable@ILuaInterface@@QAEPAVILuaObject@@XZ 1003cc4c     * CIL library *:* CIL module *
 0002:0000fc70       __unwindtable$?GetObject@ILuaInterface@@QAEPAVILuaObject@@H@Z 1003cc70     * CIL library *:* CIL module *
 0002:0000fc70       __unwindtable$?GetMetaTable@ILuaInterface@@QAEPAVILuaObject@@PBDH@Z 1003cc70     * CIL library *:* CIL module *
 0002:0000fc70       __unwindtable$?GetNewTable@ILuaInterface@@QAEPAVILuaObject@@XZ 1003cc70     * CIL library *:* CIL module *
 0002:0000fc78       __ehfuncinfo$??0ILuaInterface@@QAE@PAUlua_State@@@Z 1003cc78     * CIL library *:* CIL module *
 0002:0000fc9c       __unwindtable$??0ILuaInterface@@QAE@PAUlua_State@@@Z 1003cc9c     * CIL library *:* CIL module *
 0002:0000fcb4       __ehfuncinfo$??$construct@PAU?$_Tree_node@U?$pair@QBXUtss_data_node@detail@boost@@@std@@PAX@std@@AAPAU12@@?$allocator@U?$_Tree_node@U?$pair@QBXUtss_data_node@detail@boost@@@std@@PAX@std@@@std@@QAEXPAPAU?$_Tree_node@U?$pair@QBXUtss_data_node@detail@boost@@@std@@PAX@1@AAPAU21@@Z 1003ccb4     * CIL library *:* CIL module *
 0002:0000fcb4       __ehfuncinfo$??$construct@PAU?$_Tree_node@U?$pair@QAUlua_State@@PAVILuaInterface@@@std@@PAX@std@@AAPAU12@@?$allocator@U?$_Tree_node@U?$pair@QAUlua_State@@PAVILuaInterface@@@std@@PAX@std@@@std@@QAEXPAPAU?$_Tree_node@U?$pair@QAUlua_State@@PAVILuaInterface@@@std@@PAX@1@AAPAU21@@Z 1003ccb4     * CIL library *:* CIL module *
 0002:0000fcb4       __ehfuncinfo$??$construct@U?$pair@QAUlua_State@@PAVILuaInterface@@@std@@U?$pair@PAUlua_State@@PAVILuaInterface@@@2@@?$allocator@U?$_Tree_node@U?$pair@QAUlua_State@@PAVILuaInterface@@@std@@PAX@std@@@std@@QAEXPAU?$pair@QAUlua_State@@PAVILuaInterface@@@1@$$QAU?$pair@PAUlua_State@@PAVILuaInterface@@@1@@Z 1003ccb4     * CIL library *:* CIL module *
 0002:0000fcb4       __ehfuncinfo$??$construct@PADAAPAD@?$allocator@D@std@@QAEXPAPADAAPAD@Z 1003ccb4     * CIL library *:* CIL module *
 0002:0000fcd8       __unwindtable$??$construct@PADAAPAD@?$allocator@D@std@@QAEXPAPADAAPAD@Z 1003ccd8     * CIL library *:* CIL module *
 0002:0000fcd8       __unwindtable$??$construct@U?$pair@QAUlua_State@@PAVILuaInterface@@@std@@U?$pair@PAUlua_State@@PAVILuaInterface@@@2@@?$allocator@U?$_Tree_node@U?$pair@QAUlua_State@@PAVILuaInterface@@@std@@PAX@std@@@std@@QAEXPAU?$pair@QAUlua_State@@PAVILuaInterface@@@1@$$QAU?$pair@PAUlua_State@@PAVILuaInterface@@@1@@Z 1003ccd8     * CIL library *:* CIL module *
 0002:0000fcd8       __unwindtable$??$construct@PAU?$_Tree_node@U?$pair@QAUlua_State@@PAVILuaInterface@@@std@@PAX@std@@AAPAU12@@?$allocator@U?$_Tree_node@U?$pair@QAUlua_State@@PAVILuaInterface@@@std@@PAX@std@@@std@@QAEXPAPAU?$_Tree_node@U?$pair@QAUlua_State@@PAVILuaInterface@@@std@@PAX@1@AAPAU21@@Z 1003ccd8     * CIL library *:* CIL module *
 0002:0000fcd8       __unwindtable$??$construct@PAU?$_Tree_node@U?$pair@QBXUtss_data_node@detail@boost@@@std@@PAX@std@@AAPAU12@@?$allocator@U?$_Tree_node@U?$pair@QBXUtss_data_node@detail@boost@@@std@@PAX@std@@@std@@QAEXPAPAU?$_Tree_node@U?$pair@QBXUtss_data_node@detail@boost@@@std@@PAX@1@AAPAU21@@Z 1003ccd8     * CIL library *:* CIL module *
 0002:0000fce0       __ehfuncinfo$??$_Insert_nohint@AAU?$pair@QAUlua_State@@PAVILuaInterface@@@std@@PAU?$_Tree_node@U?$pair@QAUlua_State@@PAVILuaInterface@@@std@@PAX@2@@?$_Tree@V?$_Tmap_traits@PAUlua_State@@PAVILuaInterface@@U?$less@PAUlua_State@@@std@@V?$allocator@U?$pair@QAUlua_State@@PAVILuaInterface@@@std@@@4@$0A@@std@@@std@@IAE?AU?$pair@V?$_Tree_iterator@V?$_Tree_val@U?$_Tree_simple_types@U?$pair@QAUlua_State@@PAVILuaInterface@@@std@@@std@@@std@@@std@@_N@1@_NAAU?$pair@QAUlua_State@@PAVILuaInterface@@@1@PAU?$_Tree_node@U?$pair@QAUlua_State@@PAVILuaInterface@@@std@@PAX@1@@Z 1003cce0     * CIL library *:* CIL module *
 0002:0000fd04       __unwindtable$??$_Insert_nohint@AAU?$pair@QAUlua_State@@PAVILuaInterface@@@std@@PAU?$_Tree_node@U?$pair@QAUlua_State@@PAVILuaInterface@@@std@@PAX@2@@?$_Tree@V?$_Tmap_traits@PAUlua_State@@PAVILuaInterface@@U?$less@PAUlua_State@@@std@@V?$allocator@U?$pair@QAUlua_State@@PAVILuaInterface@@@std@@@4@$0A@@std@@@std@@IAE?AU?$pair@V?$_Tree_iterator@V?$_Tree_val@U?$_Tree_simple_types@U?$pair@QAUlua_State@@PAVILuaInterface@@@std@@@std@@@std@@@std@@_N@1@_NAAU?$pair@QAUlua_State@@PAVILuaInterface@@@1@PAU?$_Tree_node@U?$pair@QAUlua_State@@PAVILuaInterface@@@std@@PAX@1@@Z 1003cd04     * CIL library *:* CIL module *
 0002:0000fd14       __tryblocktable$??$_Insert_nohint@AAU?$pair@QAUlua_State@@PAVILuaInterface@@@std@@PAU?$_Tree_node@U?$pair@QAUlua_State@@PAVILuaInterface@@@std@@PAX@2@@?$_Tree@V?$_Tmap_traits@PAUlua_State@@PAVILuaInterface@@U?$less@PAUlua_State@@@std@@V?$allocator@U?$pair@QAUlua_State@@PAVILuaInterface@@@std@@@4@$0A@@std@@@std@@IAE?AU?$pair@V?$_Tree_iterator@V?$_Tree_val@U?$_Tree_simple_types@U?$pair@QAUlua_State@@PAVILuaInterface@@@std@@@std@@@std@@@std@@_N@1@_NAAU?$pair@QAUlua_State@@PAVILuaInterface@@@1@PAU?$_Tree_node@U?$pair@QAUlua_State@@PAVILuaInterface@@@std@@PAX@1@@Z 1003cd14     * CIL library *:* CIL module *
 0002:0000fd28       __catchsym$??$_Insert_nohint@AAU?$pair@QAUlua_State@@PAVILuaInterface@@@std@@PAU?$_Tree_node@U?$pair@QAUlua_State@@PAVILuaInterface@@@std@@PAX@2@@?$_Tree@V?$_Tmap_traits@PAUlua_State@@PAVILuaInterface@@U?$less@PAUlua_State@@@std@@V?$allocator@U?$pair@QAUlua_State@@PAVILuaInterface@@@std@@@4@$0A@@std@@@std@@IAE?AU?$pair@V?$_Tree_iterator@V?$_Tree_val@U?$_Tree_simple_types@U?$pair@QAUlua_State@@PAVILuaInterface@@@std@@@std@@@std@@@std@@_N@1@_NAAU?$pair@QAUlua_State@@PAVILuaInterface@@@1@PAU?$_Tree_node@U?$pair@QAUlua_State@@PAVILuaInterface@@@std@@PAX@1@@Z$2 1003cd28     * CIL library *:* CIL module *
 0002:0000fd38       __ehfuncinfo$?_Buynode0@?$_Tree_buy@U?$pair@QAUlua_State@@PAVILuaInterface@@@std@@V?$allocator@U?$pair@QAUlua_State@@PAVILuaInterface@@@std@@@2@@std@@QAEPAU?$_Tree_node@U?$pair@QAUlua_State@@PAVILuaInterface@@@std@@PAX@2@XZ 1003cd38     * CIL library *:* CIL module *
 0002:0000fd5c       __unwindtable$?_Buynode0@?$_Tree_buy@U?$pair@QAUlua_State@@PAVILuaInterface@@@std@@V?$allocator@U?$pair@QAUlua_State@@PAVILuaInterface@@@std@@@2@@std@@QAEPAU?$_Tree_node@U?$pair@QAUlua_State@@PAVILuaInterface@@@std@@PAX@2@XZ 1003cd5c     * CIL library *:* CIL module *
 0002:0000fd6c       __tryblocktable$?_Buynode0@?$_Tree_buy@U?$pair@QAUlua_State@@PAVILuaInterface@@@std@@V?$allocator@U?$pair@QAUlua_State@@PAVILuaInterface@@@std@@@2@@std@@QAEPAU?$_Tree_node@U?$pair@QAUlua_State@@PAVILuaInterface@@@std@@PAX@2@XZ 1003cd6c     * CIL library *:* CIL module *
 0002:0000fd80       __catchsym$?_Buynode0@?$_Tree_buy@U?$pair@QAUlua_State@@PAVILuaInterface@@@std@@V?$allocator@U?$pair@QAUlua_State@@PAVILuaInterface@@@std@@@2@@std@@QAEPAU?$_Tree_node@U?$pair@QAUlua_State@@PAVILuaInterface@@@std@@PAX@2@XZ$2 1003cd80     * CIL library *:* CIL module *
 0002:0000fd90       __ehfuncinfo$??$_Insert_hint@AAU?$pair@QAUlua_State@@PAVILuaInterface@@@std@@PAU?$_Tree_node@U?$pair@QAUlua_State@@PAVILuaInterface@@@std@@PAX@2@@?$_Tree@V?$_Tmap_traits@PAUlua_State@@PAVILuaInterface@@U?$less@PAUlua_State@@@std@@V?$allocator@U?$pair@QAUlua_State@@PAVILuaInterface@@@std@@@4@$0A@@std@@@std@@IAE?AV?$_Tree_iterator@V?$_Tree_val@U?$_Tree_simple_types@U?$pair@QAUlua_State@@PAVILuaInterface@@@std@@@std@@@std@@@1@V?$_Tree_const_iterator@V?$_Tree_val@U?$_Tree_simple_types@U?$pair@QAUlua_State@@PAVILuaInterface@@@std@@@std@@@std@@@1@AAU?$pair@QAUlua_State@@PAVILuaInterface@@@1@PAU?$_Tree_node@U?$pair@QAUlua_State@@PAVILuaInterface@@@std@@PAX@1@@Z 1003cd90     * CIL library *:* CIL module *
 0002:0000fdb4       __unwindtable$??$_Insert_hint@AAU?$pair@QAUlua_State@@PAVILuaInterface@@@std@@PAU?$_Tree_node@U?$pair@QAUlua_State@@PAVILuaInterface@@@std@@PAX@2@@?$_Tree@V?$_Tmap_traits@PAUlua_State@@PAVILuaInterface@@U?$less@PAUlua_State@@@std@@V?$allocator@U?$pair@QAUlua_State@@PAVILuaInterface@@@std@@@4@$0A@@std@@@std@@IAE?AV?$_Tree_iterator@V?$_Tree_val@U?$_Tree_simple_types@U?$pair@QAUlua_State@@PAVILuaInterface@@@std@@@std@@@std@@@1@V?$_Tree_const_iterator@V?$_Tree_val@U?$_Tree_simple_types@U?$pair@QAUlua_State@@PAVILuaInterface@@@std@@@std@@@std@@@1@AAU?$pair@QAUlua_State@@PAVILuaInterface@@@1@PAU?$_Tree_node@U?$pair@QAUlua_State@@PAVILuaInterface@@@std@@PAX@1@@Z 1003cdb4     * CIL library *:* CIL module *
 0002:0000fdc4       __tryblocktable$??$_Insert_hint@AAU?$pair@QAUlua_State@@PAVILuaInterface@@@std@@PAU?$_Tree_node@U?$pair@QAUlua_State@@PAVILuaInterface@@@std@@PAX@2@@?$_Tree@V?$_Tmap_traits@PAUlua_State@@PAVILuaInterface@@U?$less@PAUlua_State@@@std@@V?$allocator@U?$pair@QAUlua_State@@PAVILuaInterface@@@std@@@4@$0A@@std@@@std@@IAE?AV?$_Tree_iterator@V?$_Tree_val@U?$_Tree_simple_types@U?$pair@QAUlua_State@@PAVILuaInterface@@@std@@@std@@@std@@@1@V?$_Tree_const_iterator@V?$_Tree_val@U?$_Tree_simple_types@U?$pair@QAUlua_State@@PAVILuaInterface@@@std@@@std@@@std@@@1@AAU?$pair@QAUlua_State@@PAVILuaInterface@@@1@PAU?$_Tree_node@U?$pair@QAUlua_State@@PAVILuaInterface@@@std@@PAX@1@@Z 1003cdc4     * CIL library *:* CIL module *
 0002:0000fdd8       __catchsym$??$_Insert_hint@AAU?$pair@QAUlua_State@@PAVILuaInterface@@@std@@PAU?$_Tree_node@U?$pair@QAUlua_State@@PAVILuaInterface@@@std@@PAX@2@@?$_Tree@V?$_Tmap_traits@PAUlua_State@@PAVILuaInterface@@U?$less@PAUlua_State@@@std@@V?$allocator@U?$pair@QAUlua_State@@PAVILuaInterface@@@std@@@4@$0A@@std@@@std@@IAE?AV?$_Tree_iterator@V?$_Tree_val@U?$_Tree_simple_types@U?$pair@QAUlua_State@@PAVILuaInterface@@@std@@@std@@@std@@@1@V?$_Tree_const_iterator@V?$_Tree_val@U?$_Tree_simple_types@U?$pair@QAUlua_State@@PAVILuaInterface@@@std@@@std@@@std@@@1@AAU?$pair@QAUlua_State@@PAVILuaInterface@@@1@PAU?$_Tree_node@U?$pair@QAUlua_State@@PAVILuaInterface@@@std@@PAX@1@@Z$2 1003cdd8     * CIL library *:* CIL module *
 0002:0000fde8       __ehfuncinfo$??$_Buynode@U?$pair@PAUlua_State@@PAVILuaInterface@@@std@@@?$_Tree_buy@U?$pair@QAUlua_State@@PAVILuaInterface@@@std@@V?$allocator@U?$pair@QAUlua_State@@PAVILuaInterface@@@std@@@2@@std@@QAEPAU?$_Tree_node@U?$pair@QAUlua_State@@PAVILuaInterface@@@std@@PAX@1@$$QAU?$pair@PAUlua_State@@PAVILuaInterface@@@1@@Z 1003cde8     * CIL library *:* CIL module *
 0002:0000fe0c       __unwindtable$??$_Buynode@U?$pair@PAUlua_State@@PAVILuaInterface@@@std@@@?$_Tree_buy@U?$pair@QAUlua_State@@PAVILuaInterface@@@std@@V?$allocator@U?$pair@QAUlua_State@@PAVILuaInterface@@@std@@@2@@std@@QAEPAU?$_Tree_node@U?$pair@QAUlua_State@@PAVILuaInterface@@@std@@PAX@1@$$QAU?$pair@PAUlua_State@@PAVILuaInterface@@@1@@Z 1003ce0c     * CIL library *:* CIL module *
 0002:0000fe1c       __tryblocktable$??$_Buynode@U?$pair@PAUlua_State@@PAVILuaInterface@@@std@@@?$_Tree_buy@U?$pair@QAUlua_State@@PAVILuaInterface@@@std@@V?$allocator@U?$pair@QAUlua_State@@PAVILuaInterface@@@std@@@2@@std@@QAEPAU?$_Tree_node@U?$pair@QAUlua_State@@PAVILuaInterface@@@std@@PAX@1@$$QAU?$pair@PAUlua_State@@PAVILuaInterface@@@1@@Z 1003ce1c     * CIL library *:* CIL module *
 0002:0000fe30       __catchsym$??$_Buynode@U?$pair@PAUlua_State@@PAVILuaInterface@@@std@@@?$_Tree_buy@U?$pair@QAUlua_State@@PAVILuaInterface@@@std@@V?$allocator@U?$pair@QAUlua_State@@PAVILuaInterface@@@std@@@2@@std@@QAEPAU?$_Tree_node@U?$pair@QAUlua_State@@PAVILuaInterface@@@std@@PAX@1@$$QAU?$pair@PAUlua_State@@PAVILuaInterface@@@1@@Z$2 1003ce30     * CIL library *:* CIL module *
 0002:0000fe40       __ehfuncinfo$?_Buyheadnode@?$_Tree_alloc@$0A@U?$_Tree_base_types@U?$pair@QAUlua_State@@PAVILuaInterface@@@std@@V?$allocator@U?$pair@QAUlua_State@@PAVILuaInterface@@@std@@@2@@std@@@std@@QAEPAU?$_Tree_node@U?$pair@QAUlua_State@@PAVILuaInterface@@@std@@PAX@2@XZ 1003ce40     * CIL library *:* CIL module *
 0002:0000fe64       __unwindtable$?_Buyheadnode@?$_Tree_alloc@$0A@U?$_Tree_base_types@U?$pair@QAUlua_State@@PAVILuaInterface@@@std@@V?$allocator@U?$pair@QAUlua_State@@PAVILuaInterface@@@std@@@2@@std@@@std@@QAEPAU?$_Tree_node@U?$pair@QAUlua_State@@PAVILuaInterface@@@std@@PAX@2@XZ 1003ce64     * CIL library *:* CIL module *
 0002:0000fe74       __tryblocktable$?_Buyheadnode@?$_Tree_alloc@$0A@U?$_Tree_base_types@U?$pair@QAUlua_State@@PAVILuaInterface@@@std@@V?$allocator@U?$pair@QAUlua_State@@PAVILuaInterface@@@std@@@2@@std@@@std@@QAEPAU?$_Tree_node@U?$pair@QAUlua_State@@PAVILuaInterface@@@std@@PAX@2@XZ 1003ce74     * CIL library *:* CIL module *
 0002:0000fe88       __catchsym$?_Buyheadnode@?$_Tree_alloc@$0A@U?$_Tree_base_types@U?$pair@QAUlua_State@@PAVILuaInterface@@@std@@V?$allocator@U?$pair@QAUlua_State@@PAVILuaInterface@@@std@@@2@@std@@@std@@QAEPAU?$_Tree_node@U?$pair@QAUlua_State@@PAVILuaInterface@@@std@@PAX@2@XZ$2 1003ce88     * CIL library *:* CIL module *
 0002:0000fe98       __ehfuncinfo$?nav_Create@@YAHPAUlua_State@@@Z 1003ce98     * CIL library *:* CIL module *
 0002:0000fe98       __ehfuncinfo$??__Emodulemanager@@YAXXZ 1003ce98     * CIL library *:* CIL module *
 0002:0000febc       __unwindtable$??__Emodulemanager@@YAXXZ 1003cebc     * CIL library *:* CIL module *
 0002:0000febc       __unwindtable$?nav_Create@@YAHPAUlua_State@@@Z 1003cebc     * CIL library *:* CIL module *
 0002:0000fec4       __ehfuncinfo$?CreateInterface@ILuaModuleManager@@QAEXPAUlua_State@@@Z 1003cec4     * CIL library *:* CIL module *
 0002:0000fee8       __unwindtable$?CreateInterface@ILuaModuleManager@@QAEXPAUlua_State@@@Z 1003cee8     * CIL library *:* CIL module *
 0002:0000fef0       __ehfuncinfo$?_Copy@?$basic_string@DU?$char_traits@D@std@@V?$allocator@D@2@@std@@QAEXII@Z 1003cef0     * CIL library *:* CIL module *
 0002:0000ff14       __unwindtable$?_Copy@?$basic_string@DU?$char_traits@D@std@@V?$allocator@D@2@@std@@QAEXII@Z 1003cf14     * CIL library *:* CIL module *
 0002:0000ff34       __tryblocktable$?_Copy@?$basic_string@DU?$char_traits@D@std@@V?$allocator@D@2@@std@@QAEXII@Z 1003cf34     * CIL library *:* CIL module *
 0002:0000ff5c       __catchsym$?_Copy@?$basic_string@DU?$char_traits@D@std@@V?$allocator@D@2@@std@@QAEXII@Z$4 1003cf5c     * CIL library *:* CIL module *
 0002:0000ff6c       __catchsym$?_Copy@?$basic_string@DU?$char_traits@D@std@@V?$allocator@D@2@@std@@QAEXII@Z$5 1003cf6c     * CIL library *:* CIL module *
 0002:0000ff7c       __ehfuncinfo$??0?$clone_impl@U?$error_info_injector@Ubad_month@gregorian@boost@@@exception_detail@boost@@@exception_detail@boost@@AAE@ABV012@Uclone_tag@012@@Z 1003cf7c     * CIL library *:* CIL module *
 0002:0000ff7c       __ehfuncinfo$??0?$clone_impl@U?$error_info_injector@Ubad_month@gregorian@boost@@@exception_detail@boost@@@exception_detail@boost@@QAE@ABU?$error_info_injector@Ubad_month@gregorian@boost@@@12@@Z 1003cf7c     * CIL library *:* CIL module *
 0002:0000ffa0       __unwindtable$??0?$clone_impl@U?$error_info_injector@Ubad_month@gregorian@boost@@@exception_detail@boost@@@exception_detail@boost@@QAE@ABU?$error_info_injector@Ubad_month@gregorian@boost@@@12@@Z 1003cfa0     * CIL library *:* CIL module *
 0002:0000ffa0       __unwindtable$??0?$clone_impl@U?$error_info_injector@Ubad_month@gregorian@boost@@@exception_detail@boost@@@exception_detail@boost@@AAE@ABV012@Uclone_tag@012@@Z 1003cfa0     * CIL library *:* CIL module *
 0002:0000ffb0       __ehfuncinfo$??0?$error_info_injector@Ubad_day_of_month@gregorian@boost@@@exception_detail@boost@@QAE@ABUbad_day_of_month@gregorian@2@@Z 1003cfb0     * CIL library *:* CIL module *
 0002:0000ffb0       __ehfuncinfo$??0?$error_info_injector@Ubad_month@gregorian@boost@@@exception_detail@boost@@QAE@ABUbad_month@gregorian@2@@Z 1003cfb0     * CIL library *:* CIL module *
 0002:0000ffb0       __ehfuncinfo$??0?$error_info_injector@Ubad_year@gregorian@boost@@@exception_detail@boost@@QAE@ABUbad_year@gregorian@2@@Z 1003cfb0     * CIL library *:* CIL module *
 0002:0000ffd4       __unwindtable$??0?$error_info_injector@Ubad_day_of_month@gregorian@boost@@@exception_detail@boost@@QAE@ABUbad_day_of_month@gregorian@2@@Z 1003cfd4     * CIL library *:* CIL module *
 0002:0000ffd4       __unwindtable$??0?$error_info_injector@Ubad_year@gregorian@boost@@@exception_detail@boost@@QAE@ABUbad_year@gregorian@2@@Z 1003cfd4     * CIL library *:* CIL module *
 0002:0000ffd4       __unwindtable$??0?$error_info_injector@Ubad_month@gregorian@boost@@@exception_detail@boost@@QAE@ABUbad_month@gregorian@2@@Z 1003cfd4     * CIL library *:* CIL module *
 0002:0000ffdc       __ehfuncinfo$??0?$clone_impl@U?$error_info_injector@Ubad_day_of_month@gregorian@boost@@@exception_detail@boost@@@exception_detail@boost@@QAE@ABU?$error_info_injector@Ubad_day_of_month@gregorian@boost@@@12@@Z 1003cfdc     * CIL library *:* CIL module *
 0002:0000ffdc       __ehfuncinfo$??0?$clone_impl@U?$error_info_injector@Ubad_day_of_month@gregorian@boost@@@exception_detail@boost@@@exception_detail@boost@@AAE@ABV012@Uclone_tag@012@@Z 1003cfdc     * CIL library *:* CIL module *
 0002:00010000       __unwindtable$??0?$clone_impl@U?$error_info_injector@Ubad_day_of_month@gregorian@boost@@@exception_detail@boost@@@exception_detail@boost@@AAE@ABV012@Uclone_tag@012@@Z 1003d000     * CIL library *:* CIL module *
 0002:00010000       __unwindtable$??0?$clone_impl@U?$error_info_injector@Ubad_day_of_month@gregorian@boost@@@exception_detail@boost@@@exception_detail@boost@@QAE@ABU?$error_info_injector@Ubad_day_of_month@gregorian@boost@@@12@@Z 1003d000     * CIL library *:* CIL module *
 0002:00010010       __ehfuncinfo$??0?$clone_impl@U?$error_info_injector@Vruntime_error@std@@@exception_detail@boost@@@exception_detail@boost@@AAE@ABV012@Uclone_tag@012@@Z 1003d010     * CIL library *:* CIL module *
 0002:00010010       __ehfuncinfo$??0?$clone_impl@U?$error_info_injector@Vruntime_error@std@@@exception_detail@boost@@@exception_detail@boost@@QAE@ABU?$error_info_injector@Vruntime_error@std@@@12@@Z 1003d010     * CIL library *:* CIL module *
 0002:00010034       __unwindtable$??0?$clone_impl@U?$error_info_injector@Vruntime_error@std@@@exception_detail@boost@@@exception_detail@boost@@AAE@ABV012@Uclone_tag@012@@Z 1003d034     * CIL library *:* CIL module *
 0002:00010034       __unwindtable$??0?$clone_impl@U?$error_info_injector@Vruntime_error@std@@@exception_detail@boost@@@exception_detail@boost@@QAE@ABU?$error_info_injector@Vruntime_error@std@@@12@@Z 1003d034     * CIL library *:* CIL module *
 0002:00010044       __ehfuncinfo$??0?$clone_impl@U?$error_info_injector@Ubad_year@gregorian@boost@@@exception_detail@boost@@@exception_detail@boost@@AAE@ABV012@Uclone_tag@012@@Z 1003d044     * CIL library *:* CIL module *
 0002:00010044       __ehfuncinfo$??0?$clone_impl@U?$error_info_injector@Ubad_year@gregorian@boost@@@exception_detail@boost@@@exception_detail@boost@@QAE@ABU?$error_info_injector@Ubad_year@gregorian@boost@@@12@@Z 1003d044     * CIL library *:* CIL module *
 0002:00010068       __unwindtable$??0?$clone_impl@U?$error_info_injector@Ubad_year@gregorian@boost@@@exception_detail@boost@@@exception_detail@boost@@QAE@ABU?$error_info_injector@Ubad_year@gregorian@boost@@@12@@Z 1003d068     * CIL library *:* CIL module *
 0002:00010068       __unwindtable$??0?$clone_impl@U?$error_info_injector@Ubad_year@gregorian@boost@@@exception_detail@boost@@@exception_detail@boost@@AAE@ABV012@Uclone_tag@012@@Z 1003d068     * CIL library *:* CIL module *
 0002:00010078       __ehfuncinfo$??0?$error_info_injector@Ubad_year@gregorian@boost@@@exception_detail@boost@@QAE@ABU012@@Z 1003d078     * CIL library *:* CIL module *
 0002:00010078       __ehfuncinfo$??0?$error_info_injector@Ubad_month@gregorian@boost@@@exception_detail@boost@@QAE@ABU012@@Z 1003d078     * CIL library *:* CIL module *
 0002:00010078       __ehfuncinfo$??0?$error_info_injector@Ubad_day_of_month@gregorian@boost@@@exception_detail@boost@@QAE@ABU012@@Z 1003d078     * CIL library *:* CIL module *
 0002:0001009c       __unwindtable$??0?$error_info_injector@Ubad_month@gregorian@boost@@@exception_detail@boost@@QAE@ABU012@@Z 1003d09c     * CIL library *:* CIL module *
 0002:0001009c       __unwindtable$??0?$error_info_injector@Ubad_day_of_month@gregorian@boost@@@exception_detail@boost@@QAE@ABU012@@Z 1003d09c     * CIL library *:* CIL module *
 0002:0001009c       __unwindtable$??0?$error_info_injector@Ubad_year@gregorian@boost@@@exception_detail@boost@@QAE@ABU012@@Z 1003d09c     * CIL library *:* CIL module *
 0002:000100a4       __ehfuncinfo$??0?$error_info_injector@Vruntime_error@std@@@exception_detail@boost@@QAE@ABU012@@Z 1003d0a4     * CIL library *:* CIL module *
 0002:000100c8       __unwindtable$??0?$error_info_injector@Vruntime_error@std@@@exception_detail@boost@@QAE@ABU012@@Z 1003d0c8     * CIL library *:* CIL module *
 0002:000100d0       __ehfuncinfo$??0?$clone_impl@U?$error_info_injector@Ubad_day_of_month@gregorian@boost@@@exception_detail@boost@@@exception_detail@boost@@QAE@ABV012@@Z 1003d0d0     * CIL library *:* CIL module *
 0002:000100d0       __ehfuncinfo$??0?$clone_impl@U?$error_info_injector@Vruntime_error@std@@@exception_detail@boost@@@exception_detail@boost@@QAE@ABV012@@Z 1003d0d0     * CIL library *:* CIL module *
 0002:000100d0       __ehfuncinfo$??0?$clone_impl@U?$error_info_injector@Ubad_year@gregorian@boost@@@exception_detail@boost@@@exception_detail@boost@@QAE@ABV012@@Z 1003d0d0     * CIL library *:* CIL module *
 0002:000100d0       __ehfuncinfo$??0?$clone_impl@U?$error_info_injector@Vbad_alloc@std@@@exception_detail@boost@@@exception_detail@boost@@QAE@ABV012@@Z 1003d0d0     * CIL library *:* CIL module *
 0002:000100d0       __ehfuncinfo$??0?$clone_impl@U?$error_info_injector@Ubad_month@gregorian@boost@@@exception_detail@boost@@@exception_detail@boost@@QAE@ABV012@@Z 1003d0d0     * CIL library *:* CIL module *
 0002:000100f4       __unwindtable$??0?$clone_impl@U?$error_info_injector@Ubad_day_of_month@gregorian@boost@@@exception_detail@boost@@@exception_detail@boost@@QAE@ABV012@@Z 1003d0f4     * CIL library *:* CIL module *
 0002:000100f4       __unwindtable$??0?$clone_impl@U?$error_info_injector@Vruntime_error@std@@@exception_detail@boost@@@exception_detail@boost@@QAE@ABV012@@Z 1003d0f4     * CIL library *:* CIL module *
 0002:000100f4       __unwindtable$??0?$clone_impl@U?$error_info_injector@Ubad_month@gregorian@boost@@@exception_detail@boost@@@exception_detail@boost@@QAE@ABV012@@Z 1003d0f4     * CIL library *:* CIL module *
 0002:000100f4       __unwindtable$??0?$clone_impl@U?$error_info_injector@Vbad_alloc@std@@@exception_detail@boost@@@exception_detail@boost@@QAE@ABV012@@Z 1003d0f4     * CIL library *:* CIL module *
 0002:000100f4       __unwindtable$??0?$clone_impl@U?$error_info_injector@Ubad_year@gregorian@boost@@@exception_detail@boost@@@exception_detail@boost@@QAE@ABV012@@Z 1003d0f4     * CIL library *:* CIL module *
 0002:000100fc       __ehfuncinfo$??$throw_exception@Ubad_month@gregorian@boost@@@boost@@YAXABUbad_month@gregorian@0@@Z 1003d0fc     * CIL library *:* CIL module *
 0002:00010120       __unwindtable$??$throw_exception@Ubad_month@gregorian@boost@@@boost@@YAXABUbad_month@gregorian@0@@Z 1003d120     * CIL library *:* CIL module *
 0002:00010128       __ehfuncinfo$??$throw_exception@Ubad_year@gregorian@boost@@@boost@@YAXABUbad_year@gregorian@0@@Z 1003d128     * CIL library *:* CIL module *
 0002:0001014c       __unwindtable$??$throw_exception@Ubad_year@gregorian@boost@@@boost@@YAXABUbad_year@gregorian@0@@Z 1003d14c     * CIL library *:* CIL module *
 0002:00010154       __ehfuncinfo$??1?$CUtlLinkedList@UGroundSeedSpot@@H$0A@HV?$CUtlMemory@U?$UtlLinkedListElem_t@UGroundSeedSpot@@H@@H@@@@QAE@XZ 1003d154     * CIL library *:* CIL module *
 0002:00010154       __ehfuncinfo$??1?$CUtlVector@PAVNode@@V?$CUtlMemory@PAVNode@@H@@@@QAE@XZ 1003d154     * CIL library *:* CIL module *
 0002:00010154       __ehfuncinfo$??0?$CUtlVector@PAVNode@@V?$CUtlMemory@PAVNode@@H@@@@QAE@HH@Z 1003d154     * CIL library *:* CIL module *
 0002:00010154       __ehfuncinfo$??0?$CUtlLinkedList@UGroundSeedSpot@@H$0A@HV?$CUtlMemory@U?$UtlLinkedListElem_t@UGroundSeedSpot@@H@@H@@@@QAE@HH@Z 1003d154     * CIL library *:* CIL module *
 0002:00010154       __ehfuncinfo$??0?$CUtlVector@PAUJobInfo_t@@V?$CUtlMemory@PAUJobInfo_t@@H@@@@QAE@HH@Z 1003d154     * CIL library *:* CIL module *
 0002:00010154       __ehfuncinfo$??1?$CUtlVector@PAUJobInfo_t@@V?$CUtlMemory@PAUJobInfo_t@@H@@@@QAE@XZ 1003d154     * CIL library *:* CIL module *
 0002:00010154       __ehfuncinfo$??1?$CUtlLinkedList@UAirSeedSpot@@H$0A@HV?$CUtlMemory@U?$UtlLinkedListElem_t@UAirSeedSpot@@H@@H@@@@QAE@XZ 1003d154     * CIL library *:* CIL module *
 0002:00010154       __ehfuncinfo$??0?$CUtlLinkedList@UAirSeedSpot@@H$0A@HV?$CUtlMemory@U?$UtlLinkedListElem_t@UAirSeedSpot@@H@@H@@@@QAE@HH@Z 1003d154     * CIL library *:* CIL module *
 0002:00010178       __unwindtable$??1?$CUtlLinkedList@UAirSeedSpot@@H$0A@HV?$CUtlMemory@U?$UtlLinkedListElem_t@UAirSeedSpot@@H@@H@@@@QAE@XZ 1003d178     * CIL library *:* CIL module *
 0002:00010178       __unwindtable$??0?$CUtlVector@PAUJobInfo_t@@V?$CUtlMemory@PAUJobInfo_t@@H@@@@QAE@HH@Z 1003d178     * CIL library *:* CIL module *
 0002:00010178       __unwindtable$??1?$CUtlLinkedList@UGroundSeedSpot@@H$0A@HV?$CUtlMemory@U?$UtlLinkedListElem_t@UGroundSeedSpot@@H@@H@@@@QAE@XZ 1003d178     * CIL library *:* CIL module *
 0002:00010178       __unwindtable$??0?$CUtlLinkedList@UAirSeedSpot@@H$0A@HV?$CUtlMemory@U?$UtlLinkedListElem_t@UAirSeedSpot@@H@@H@@@@QAE@HH@Z 1003d178     * CIL library *:* CIL module *
 0002:00010178       __unwindtable$??1?$CUtlVector@PAVNode@@V?$CUtlMemory@PAVNode@@H@@@@QAE@XZ 1003d178     * CIL library *:* CIL module *
 0002:00010178       __unwindtable$??0?$CUtlLinkedList@UGroundSeedSpot@@H$0A@HV?$CUtlMemory@U?$UtlLinkedListElem_t@UGroundSeedSpot@@H@@H@@@@QAE@HH@Z 1003d178     * CIL library *:* CIL module *
 0002:00010178       __unwindtable$??0?$CUtlVector@PAVNode@@V?$CUtlMemory@PAVNode@@H@@@@QAE@HH@Z 1003d178     * CIL library *:* CIL module *
 0002:00010178       __unwindtable$??1?$CUtlVector@PAUJobInfo_t@@V?$CUtlMemory@PAUJobInfo_t@@H@@@@QAE@XZ 1003d178     * CIL library *:* CIL module *
 0002:00010180       __ehfuncinfo$??$throw_exception@Ubad_day_of_month@gregorian@boost@@@boost@@YAXABUbad_day_of_month@gregorian@0@@Z 1003d180     * CIL library *:* CIL module *
 0002:000101a4       __unwindtable$??$throw_exception@Ubad_day_of_month@gregorian@boost@@@boost@@YAXABUbad_day_of_month@gregorian@0@@Z 1003d1a4     * CIL library *:* CIL module *
 0002:000101ac       __ehfuncinfo$??$throw_exception@Vruntime_error@std@@@boost@@YAXABVruntime_error@std@@@Z 1003d1ac     * CIL library *:* CIL module *
 0002:000101d0       __unwindtable$??$throw_exception@Vruntime_error@std@@@boost@@YAXABVruntime_error@std@@@Z 1003d1d0     * CIL library *:* CIL module *
 0002:000101d8       __ehfuncinfo$?on_error@?$simple_exception_policy@G$00$0BP@Ubad_day_of_month@gregorian@boost@@@CV@boost@@SAXGGW4violation_enum@23@@Z 1003d1d8     * CIL library *:* CIL module *
 0002:000101d8       __ehfuncinfo$?on_error@?$simple_exception_policy@G$0FHI@$0CHBA@Ubad_year@gregorian@boost@@@CV@boost@@SAXGGW4violation_enum@23@@Z 1003d1d8     * CIL library *:* CIL module *
 0002:000101d8       __ehfuncinfo$?on_error@?$simple_exception_policy@G$00$0M@Ubad_month@gregorian@boost@@@CV@boost@@SAXGGW4violation_enum@23@@Z 1003d1d8     * CIL library *:* CIL module *
 0002:000101fc       __unwindtable$?on_error@?$simple_exception_policy@G$00$0M@Ubad_month@gregorian@boost@@@CV@boost@@SAXGGW4violation_enum@23@@Z 1003d1fc     * CIL library *:* CIL module *
 0002:000101fc       __unwindtable$?on_error@?$simple_exception_policy@G$00$0BP@Ubad_day_of_month@gregorian@boost@@@CV@boost@@SAXGGW4violation_enum@23@@Z 1003d1fc     * CIL library *:* CIL module *
 0002:000101fc       __unwindtable$?on_error@?$simple_exception_policy@G$0FHI@$0CHBA@Ubad_year@gregorian@boost@@@CV@boost@@SAXGGW4violation_enum@23@@Z 1003d1fc     * CIL library *:* CIL module *
 0002:00010204       __ehfuncinfo$?Nav_FindPathImmediate@@YAHPAUlua_State@@@Z 1003d204     * CIL library *:* CIL module *
 0002:00010228       __unwindtable$?Nav_FindPathImmediate@@YAHPAUlua_State@@@Z 1003d228     * CIL library *:* CIL module *
 0002:00010230       __ehfuncinfo$?GetGlobal@ILuaInterface@@QAEPAVILuaObject@@PBD@Z 1003d230     * CIL library *:* CIL module *
 0002:00010230       __ehfuncinfo$?GetMember@ILuaObject@@QAEPAV1@PBD@Z 1003d230     * CIL library *:* CIL module *
 0002:00010230       __ehfuncinfo$?Nav_FindPath@@YAHPAUlua_State@@@Z 1003d230     * CIL library *:* CIL module *
 0002:00010230       __ehfuncinfo$?Nav_Generate@@YAHPAUlua_State@@@Z 1003d230     * CIL library *:* CIL module *
 0002:00010230       __ehfuncinfo$?Nav_FindPathHull@@YAHPAUlua_State@@@Z 1003d230     * CIL library *:* CIL module *
 0002:00010254       __unwindtable$?Nav_FindPathHull@@YAHPAUlua_State@@@Z 1003d254     * CIL library *:* CIL module *
 0002:00010254       __unwindtable$?Nav_FindPath@@YAHPAUlua_State@@@Z 1003d254     * CIL library *:* CIL module *
 0002:00010254       __unwindtable$?GetMember@ILuaObject@@QAEPAV1@PBD@Z 1003d254     * CIL library *:* CIL module *
 0002:00010254       __unwindtable$?Nav_Generate@@YAHPAUlua_State@@@Z 1003d254     * CIL library *:* CIL module *
 0002:00010254       __unwindtable$?GetGlobal@ILuaInterface@@QAEPAVILuaObject@@PBD@Z 1003d254     * CIL library *:* CIL module *
 0002:0001025c       __ehfuncinfo$??0JobInfo_t@@QAE@XZ 1003d25c     * CIL library *:* CIL module *
 0002:0001025c       __ehfuncinfo$??1JobInfo_t@@QAE@XZ 1003d25c     * CIL library *:* CIL module *
 0002:00010280       __unwindtable$??1JobInfo_t@@QAE@XZ 1003d280     * CIL library *:* CIL module *
 0002:00010280       __unwindtable$??0JobInfo_t@@QAE@XZ 1003d280     * CIL library *:* CIL module *
 0002:00010288       __ehfuncinfo$??1thread@boost@@QAE@XZ 1003d288     * CIL library *:* CIL module *
 0002:000102ac       __unwindtable$??1thread@boost@@QAE@XZ 1003d2ac     * CIL library *:* CIL module *
 0002:000102b4       __ehfuncinfo$??0date@gregorian@boost@@QAE@Vgreg_year@12@Vgreg_month@12@Vgreg_day@12@@Z 1003d2b4     * CIL library *:* CIL module *
 0002:000102d8       __unwindtable$??0date@gregorian@boost@@QAE@Vgreg_year@12@Vgreg_month@12@Vgreg_day@12@@Z 1003d2d8     * CIL library *:* CIL module *
 0002:000102e8       __ehfuncinfo$??0bad_day_of_month@gregorian@boost@@QAE@XZ 1003d2e8     * CIL library *:* CIL module *
 0002:000102e8       __ehfuncinfo$??0bad_month@gregorian@boost@@QAE@XZ 1003d2e8     * CIL library *:* CIL module *
 0002:000102e8       __ehfuncinfo$??0bad_year@gregorian@boost@@QAE@XZ 1003d2e8     * CIL library *:* CIL module *
 0002:0001030c       __unwindtable$??0bad_year@gregorian@boost@@QAE@XZ 1003d30c     * CIL library *:* CIL module *
 0002:0001030c       __unwindtable$??0bad_day_of_month@gregorian@boost@@QAE@XZ 1003d30c     * CIL library *:* CIL module *
 0002:0001030c       __unwindtable$??0bad_month@gregorian@boost@@QAE@XZ 1003d30c     * CIL library *:* CIL module *
 0002:00010314       __ehfuncinfo$?gmtime@c_time@date_time@boost@@SAPAUtm@@PB_JPAU4@@Z 1003d314     * CIL library *:* CIL module *
 0002:00010338       __unwindtable$?gmtime@c_time@date_time@boost@@SAPAUtm@@PB_JPAU4@@Z 1003d338     * CIL library *:* CIL module *
 0002:00010340       __ehfuncinfo$?copy_boost_exception@exception_detail@boost@@YAXPAVexception@2@PBV32@@Z 1003d340     * CIL library *:* CIL module *
 0002:00010364       __unwindtable$?copy_boost_exception@exception_detail@boost@@YAXPAVexception@2@PBV32@@Z 1003d364     * CIL library *:* CIL module *
 0002:00010374       __ehfuncinfo$??0?$thread_data@V?$bind_t@XV?$mf1@XVNav@@PA_N@_mfi@boost@@V?$list2@V?$value@PAVNav@@@_bi@boost@@V?$value@PA_N@23@@_bi@3@@_bi@boost@@@detail@boost@@QAE@$$QAV?$bind_t@XV?$mf1@XVNav@@PA_N@_mfi@boost@@V?$list2@V?$value@PAVNav@@@_bi@boost@@V?$value@PA_N@23@@_bi@3@@_bi@2@@Z 1003d374     * CIL library *:* CIL module *
 0002:00010374       __ehfuncinfo$??0?$thread_data@V?$bind_t@XV?$mf3@XVNav@@PAUJobInfo_t@@PAVNode@@PAV3@@_mfi@boost@@V?$list4@V?$value@PAVNav@@@_bi@boost@@V?$value@PAUJobInfo_t@@@23@V?$value@PAVNode@@@23@V523@@_bi@3@@_bi@boost@@@detail@boost@@QAE@$$QAV?$bind_t@XV?$mf3@XVNav@@PAUJobInfo_t@@PAVNode@@PAV3@@_mfi@boost@@V?$list4@V?$value@PAVNav@@@_bi@boost@@V?$value@PAUJobInfo_t@@@23@V?$value@PAVNode@@@23@V523@@_bi@3@@_bi@2@@Z 1003d374     * CIL library *:* CIL module *
 0002:00010398       __unwindtable$??0?$thread_data@V?$bind_t@XV?$mf1@XVNav@@PA_N@_mfi@boost@@V?$list2@V?$value@PAVNav@@@_bi@boost@@V?$value@PA_N@23@@_bi@3@@_bi@boost@@@detail@boost@@QAE@$$QAV?$bind_t@XV?$mf1@XVNav@@PA_N@_mfi@boost@@V?$list2@V?$value@PAVNav@@@_bi@boost@@V?$value@PA_N@23@@_bi@3@@_bi@2@@Z 1003d398     * CIL library *:* CIL module *
 0002:00010398       __unwindtable$??0?$thread_data@V?$bind_t@XV?$mf3@XVNav@@PAUJobInfo_t@@PAVNode@@PAV3@@_mfi@boost@@V?$list4@V?$value@PAVNav@@@_bi@boost@@V?$value@PAUJobInfo_t@@@23@V?$value@PAVNode@@@23@V523@@_bi@3@@_bi@boost@@@detail@boost@@QAE@$$QAV?$bind_t@XV?$mf3@XVNav@@PAUJobInfo_t@@PAVNode@@PAV3@@_mfi@boost@@V?$list4@V?$value@PAVNav@@@_bi@boost@@V?$value@PAUJobInfo_t@@@23@V?$value@PAVNode@@@23@V523@@_bi@3@@_bi@2@@Z 1003d398     * CIL library *:* CIL module *
 0002:000103a0       __ehfuncinfo$??$heap_new@V?$thread_data@V?$bind_t@XV?$mf3@XVNav@@PAUJobInfo_t@@PAVNode@@PAV3@@_mfi@boost@@V?$list4@V?$value@PAVNav@@@_bi@boost@@V?$value@PAUJobInfo_t@@@23@V?$value@PAVNode@@@23@V523@@_bi@3@@_bi@boost@@@detail@boost@@V?$bind_t@XV?$mf3@XVNav@@PAUJobInfo_t@@PAVNode@@PAV3@@_mfi@boost@@V?$list4@V?$value@PAVNav@@@_bi@boost@@V?$value@PAUJobInfo_t@@@23@V?$value@PAVNode@@@23@V523@@_bi@3@@_bi@3@@detail@boost@@YAPAV?$thread_data@V?$bind_t@XV?$mf3@XVNav@@PAUJobInfo_t@@PAVNode@@PAV3@@_mfi@boost@@V?$list4@V?$value@PAVNav@@@_bi@boost@@V?$value@PAUJobInfo_t@@@23@V?$value@PAVNode@@@23@V523@@_bi@3@@_bi@boost@@@01@$$QAV?$bind_t@XV?$mf3@XVNav@@PAUJobInfo_t@@PAVNode@@PAV3@@_mfi@boost@@V?$list4@V?$value@PAVNav@@@_bi@boost@@V?$value@PAUJobInfo_t@@@23@V?$value@PAVNode@@@23@V523@@_bi@3@@_bi@1@@Z 1003d3a0     * CIL library *:* CIL module *
 0002:000103c4       __unwindtable$??$heap_new@V?$thread_data@V?$bind_t@XV?$mf3@XVNav@@PAUJobInfo_t@@PAVNode@@PAV3@@_mfi@boost@@V?$list4@V?$value@PAVNav@@@_bi@boost@@V?$value@PAUJobInfo_t@@@23@V?$value@PAVNode@@@23@V523@@_bi@3@@_bi@boost@@@detail@boost@@V?$bind_t@XV?$mf3@XVNav@@PAUJobInfo_t@@PAVNode@@PAV3@@_mfi@boost@@V?$list4@V?$value@PAVNav@@@_bi@boost@@V?$value@PAUJobInfo_t@@@23@V?$value@PAVNode@@@23@V523@@_bi@3@@_bi@3@@detail@boost@@YAPAV?$thread_data@V?$bind_t@XV?$mf3@XVNav@@PAUJobInfo_t@@PAVNode@@PAV3@@_mfi@boost@@V?$list4@V?$value@PAVNav@@@_bi@boost@@V?$value@PAUJobInfo_t@@@23@V?$value@PAVNode@@@23@V523@@_bi@3@@_bi@boost@@@01@$$QAV?$bind_t@XV?$mf3@XVNav@@PAUJobInfo_t@@PAVNode@@PAV3@@_mfi@boost@@V?$list4@V?$value@PAVNav@@@_bi@boost@@V?$value@PAUJobInfo_t@@@23@V?$value@PAVNode@@@23@V523@@_bi@3@@_bi@1@@Z 1003d3c4     * CIL library *:* CIL module *
 0002:000103dc       __tryblocktable$??$heap_new@V?$thread_data@V?$bind_t@XV?$mf3@XVNav@@PAUJobInfo_t@@PAVNode@@PAV3@@_mfi@boost@@V?$list4@V?$value@PAVNav@@@_bi@boost@@V?$value@PAUJobInfo_t@@@23@V?$value@PAVNode@@@23@V523@@_bi@3@@_bi@boost@@@detail@boost@@V?$bind_t@XV?$mf3@XVNav@@PAUJobInfo_t@@PAVNode@@PAV3@@_mfi@boost@@V?$list4@V?$value@PAVNav@@@_bi@boost@@V?$value@PAUJobInfo_t@@@23@V?$value@PAVNode@@@23@V523@@_bi@3@@_bi@3@@detail@boost@@YAPAV?$thread_data@V?$bind_t@XV?$mf3@XVNav@@PAUJobInfo_t@@PAVNode@@PAV3@@_mfi@boost@@V?$list4@V?$value@PAVNav@@@_bi@boost@@V?$value@PAUJobInfo_t@@@23@V?$value@PAVNode@@@23@V523@@_bi@3@@_bi@boost@@@01@$$QAV?$bind_t@XV?$mf3@XVNav@@PAUJobInfo_t@@PAVNode@@PAV3@@_mfi@boost@@V?$list4@V?$value@PAVNav@@@_bi@boost@@V?$value@PAUJobInfo_t@@@23@V?$value@PAVNode@@@23@V523@@_bi@3@@_bi@1@@Z 1003d3dc     * CIL library *:* CIL module *
 0002:000103f0       __catchsym$??$heap_new@V?$thread_data@V?$bind_t@XV?$mf3@XVNav@@PAUJobInfo_t@@PAVNode@@PAV3@@_mfi@boost@@V?$list4@V?$value@PAVNav@@@_bi@boost@@V?$value@PAUJobInfo_t@@@23@V?$value@PAVNode@@@23@V523@@_bi@3@@_bi@boost@@@detail@boost@@V?$bind_t@XV?$mf3@XVNav@@PAUJobInfo_t@@PAVNode@@PAV3@@_mfi@boost@@V?$list4@V?$value@PAVNav@@@_bi@boost@@V?$value@PAUJobInfo_t@@@23@V?$value@PAVNode@@@23@V523@@_bi@3@@_bi@3@@detail@boost@@YAPAV?$thread_data@V?$bind_t@XV?$mf3@XVNav@@PAUJobInfo_t@@PAVNode@@PAV3@@_mfi@boost@@V?$list4@V?$value@PAVNav@@@_bi@boost@@V?$value@PAUJobInfo_t@@@23@V?$value@PAVNode@@@23@V523@@_bi@3@@_bi@boost@@@01@$$QAV?$bind_t@XV?$mf3@XVNav@@PAUJobInfo_t@@PAVNode@@PAV3@@_mfi@boost@@V?$list4@V?$value@PAVNav@@@_bi@boost@@V?$value@PAUJobInfo_t@@@23@V?$value@PAVNode@@@23@V523@@_bi@3@@_bi@1@@Z$3 1003d3f0     * CIL library *:* CIL module *
 0002:00010400       __ehfuncinfo$??$heap_new@V?$thread_data@V?$bind_t@XV?$mf1@XVNav@@PA_N@_mfi@boost@@V?$list2@V?$value@PAVNav@@@_bi@boost@@V?$value@PA_N@23@@_bi@3@@_bi@boost@@@detail@boost@@V?$bind_t@XV?$mf1@XVNav@@PA_N@_mfi@boost@@V?$list2@V?$value@PAVNav@@@_bi@boost@@V?$value@PA_N@23@@_bi@3@@_bi@3@@detail@boost@@YAPAV?$thread_data@V?$bind_t@XV?$mf1@XVNav@@PA_N@_mfi@boost@@V?$list2@V?$value@PAVNav@@@_bi@boost@@V?$value@PA_N@23@@_bi@3@@_bi@boost@@@01@$$QAV?$bind_t@XV?$mf1@XVNav@@PA_N@_mfi@boost@@V?$list2@V?$value@PAVNav@@@_bi@boost@@V?$value@PA_N@23@@_bi@3@@_bi@1@@Z 1003d400     * CIL library *:* CIL module *
 0002:00010424       __unwindtable$??$heap_new@V?$thread_data@V?$bind_t@XV?$mf1@XVNav@@PA_N@_mfi@boost@@V?$list2@V?$value@PAVNav@@@_bi@boost@@V?$value@PA_N@23@@_bi@3@@_bi@boost@@@detail@boost@@V?$bind_t@XV?$mf1@XVNav@@PA_N@_mfi@boost@@V?$list2@V?$value@PAVNav@@@_bi@boost@@V?$value@PA_N@23@@_bi@3@@_bi@3@@detail@boost@@YAPAV?$thread_data@V?$bind_t@XV?$mf1@XVNav@@PA_N@_mfi@boost@@V?$list2@V?$value@PAVNav@@@_bi@boost@@V?$value@PA_N@23@@_bi@3@@_bi@boost@@@01@$$QAV?$bind_t@XV?$mf1@XVNav@@PA_N@_mfi@boost@@V?$list2@V?$value@PAVNav@@@_bi@boost@@V?$value@PA_N@23@@_bi@3@@_bi@1@@Z 1003d424     * CIL library *:* CIL module *
 0002:0001043c       __tryblocktable$??$heap_new@V?$thread_data@V?$bind_t@XV?$mf1@XVNav@@PA_N@_mfi@boost@@V?$list2@V?$value@PAVNav@@@_bi@boost@@V?$value@PA_N@23@@_bi@3@@_bi@boost@@@detail@boost@@V?$bind_t@XV?$mf1@XVNav@@PA_N@_mfi@boost@@V?$list2@V?$value@PAVNav@@@_bi@boost@@V?$value@PA_N@23@@_bi@3@@_bi@3@@detail@boost@@YAPAV?$thread_data@V?$bind_t@XV?$mf1@XVNav@@PA_N@_mfi@boost@@V?$list2@V?$value@PAVNav@@@_bi@boost@@V?$value@PA_N@23@@_bi@3@@_bi@boost@@@01@$$QAV?$bind_t@XV?$mf1@XVNav@@PA_N@_mfi@boost@@V?$list2@V?$value@PAVNav@@@_bi@boost@@V?$value@PA_N@23@@_bi@3@@_bi@1@@Z 1003d43c     * CIL library *:* CIL module *
 0002:00010450       __catchsym$??$heap_new@V?$thread_data@V?$bind_t@XV?$mf1@XVNav@@PA_N@_mfi@boost@@V?$list2@V?$value@PAVNav@@@_bi@boost@@V?$value@PA_N@23@@_bi@3@@_bi@boost@@@detail@boost@@V?$bind_t@XV?$mf1@XVNav@@PA_N@_mfi@boost@@V?$list2@V?$value@PAVNav@@@_bi@boost@@V?$value@PA_N@23@@_bi@3@@_bi@3@@detail@boost@@YAPAV?$thread_data@V?$bind_t@XV?$mf1@XVNav@@PA_N@_mfi@boost@@V?$list2@V?$value@PAVNav@@@_bi@boost@@V?$value@PA_N@23@@_bi@3@@_bi@boost@@@01@$$QAV?$bind_t@XV?$mf1@XVNav@@PA_N@_mfi@boost@@V?$list2@V?$value@PAVNav@@@_bi@boost@@V?$value@PA_N@23@@_bi@3@@_bi@1@@Z$3 1003d450     * CIL library *:* CIL module *
 0002:00010460       __ehfuncinfo$??0?$error_info_injector@Vbad_alloc@std@@@exception_detail@boost@@QAE@ABVbad_alloc@std@@@Z 1003d460     * CIL library *:* CIL module *
 0002:00010484       __unwindtable$??0?$error_info_injector@Vbad_alloc@std@@@exception_detail@boost@@QAE@ABVbad_alloc@std@@@Z 1003d484     * CIL library *:* CIL module *
 0002:0001048c       __ehfuncinfo$??0?$error_info_injector@Vthread_resource_error@boost@@@exception_detail@boost@@QAE@ABVthread_resource_error@2@@Z 1003d48c     * CIL library *:* CIL module *
 0002:000104b0       __unwindtable$??0?$error_info_injector@Vthread_resource_error@boost@@@exception_detail@boost@@QAE@ABVthread_resource_error@2@@Z 1003d4b0     * CIL library *:* CIL module *
 0002:000104b8       __ehfuncinfo$??0?$clone_impl@U?$error_info_injector@Vbad_alloc@std@@@exception_detail@boost@@@exception_detail@boost@@AAE@ABV012@Uclone_tag@012@@Z 1003d4b8     * CIL library *:* CIL module *
 0002:000104b8       __ehfuncinfo$??0?$clone_impl@U?$error_info_injector@Vbad_alloc@std@@@exception_detail@boost@@@exception_detail@boost@@QAE@ABU?$error_info_injector@Vbad_alloc@std@@@12@@Z 1003d4b8     * CIL library *:* CIL module *
 0002:000104dc       __unwindtable$??0?$clone_impl@U?$error_info_injector@Vbad_alloc@std@@@exception_detail@boost@@@exception_detail@boost@@AAE@ABV012@Uclone_tag@012@@Z 1003d4dc     * CIL library *:* CIL module *
 0002:000104dc       __unwindtable$??0?$clone_impl@U?$error_info_injector@Vbad_alloc@std@@@exception_detail@boost@@@exception_detail@boost@@QAE@ABU?$error_info_injector@Vbad_alloc@std@@@12@@Z 1003d4dc     * CIL library *:* CIL module *
 0002:000104ec       __ehfuncinfo$??0?$clone_impl@U?$error_info_injector@Vthread_resource_error@boost@@@exception_detail@boost@@@exception_detail@boost@@AAE@ABV012@Uclone_tag@012@@Z 1003d4ec     * CIL library *:* CIL module *
 0002:000104ec       __ehfuncinfo$??0?$clone_impl@U?$error_info_injector@Vthread_resource_error@boost@@@exception_detail@boost@@@exception_detail@boost@@QAE@ABU?$error_info_injector@Vthread_resource_error@boost@@@12@@Z 1003d4ec     * CIL library *:* CIL module *
 0002:00010510       __unwindtable$??0?$clone_impl@U?$error_info_injector@Vthread_resource_error@boost@@@exception_detail@boost@@@exception_detail@boost@@QAE@ABU?$error_info_injector@Vthread_resource_error@boost@@@12@@Z 1003d510     * CIL library *:* CIL module *
 0002:00010510       __unwindtable$??0?$clone_impl@U?$error_info_injector@Vthread_resource_error@boost@@@exception_detail@boost@@@exception_detail@boost@@AAE@ABV012@Uclone_tag@012@@Z 1003d510     * CIL library *:* CIL module *
 0002:00010520       __ehfuncinfo$?clone@?$clone_impl@U?$error_info_injector@Ubad_month@gregorian@boost@@@exception_detail@boost@@@exception_detail@boost@@EBEPBVclone_base@23@XZ 1003d520     * CIL library *:* CIL module *
 0002:00010520       __ehfuncinfo$?clone@?$clone_impl@U?$error_info_injector@Vruntime_error@std@@@exception_detail@boost@@@exception_detail@boost@@EBEPBVclone_base@23@XZ 1003d520     * CIL library *:* CIL module *
 0002:00010520       __ehfuncinfo$?clone@?$clone_impl@U?$error_info_injector@Vbad_alloc@std@@@exception_detail@boost@@@exception_detail@boost@@EBEPBVclone_base@23@XZ 1003d520     * CIL library *:* CIL module *
 0002:00010520       __ehfuncinfo$?clone@?$clone_impl@U?$error_info_injector@Ubad_day_of_month@gregorian@boost@@@exception_detail@boost@@@exception_detail@boost@@EBEPBVclone_base@23@XZ 1003d520     * CIL library *:* CIL module *
 0002:00010520       __ehfuncinfo$?clone@?$clone_impl@U?$error_info_injector@Ubad_year@gregorian@boost@@@exception_detail@boost@@@exception_detail@boost@@EBEPBVclone_base@23@XZ 1003d520     * CIL library *:* CIL module *
 0002:00010520       __ehfuncinfo$?clone@?$clone_impl@U?$error_info_injector@Vthread_resource_error@boost@@@exception_detail@boost@@@exception_detail@boost@@EBEPBVclone_base@23@XZ 1003d520     * CIL library *:* CIL module *
 0002:00010544       __unwindtable$?clone@?$clone_impl@U?$error_info_injector@Vruntime_error@std@@@exception_detail@boost@@@exception_detail@boost@@EBEPBVclone_base@23@XZ 1003d544     * CIL library *:* CIL module *
 0002:00010544       __unwindtable$?clone@?$clone_impl@U?$error_info_injector@Ubad_day_of_month@gregorian@boost@@@exception_detail@boost@@@exception_detail@boost@@EBEPBVclone_base@23@XZ 1003d544     * CIL library *:* CIL module *
 0002:00010544       __unwindtable$?clone@?$clone_impl@U?$error_info_injector@Ubad_month@gregorian@boost@@@exception_detail@boost@@@exception_detail@boost@@EBEPBVclone_base@23@XZ 1003d544     * CIL library *:* CIL module *
 0002:00010544       __unwindtable$?clone@?$clone_impl@U?$error_info_injector@Ubad_year@gregorian@boost@@@exception_detail@boost@@@exception_detail@boost@@EBEPBVclone_base@23@XZ 1003d544     * CIL library *:* CIL module *
 0002:00010544       __unwindtable$?clone@?$clone_impl@U?$error_info_injector@Vthread_resource_error@boost@@@exception_detail@boost@@@exception_detail@boost@@EBEPBVclone_base@23@XZ 1003d544     * CIL library *:* CIL module *
 0002:00010544       __unwindtable$?clone@?$clone_impl@U?$error_info_injector@Vbad_alloc@std@@@exception_detail@boost@@@exception_detail@boost@@EBEPBVclone_base@23@XZ 1003d544     * CIL library *:* CIL module *
 0002:0001054c       __ehfuncinfo$??0?$error_info_injector@Vbad_alloc@std@@@exception_detail@boost@@QAE@ABU012@@Z 1003d54c     * CIL library *:* CIL module *
 0002:00010570       __unwindtable$??0?$error_info_injector@Vbad_alloc@std@@@exception_detail@boost@@QAE@ABU012@@Z 1003d570     * CIL library *:* CIL module *
 0002:00010578       __ehfuncinfo$??0system_error@system@boost@@QAE@Verror_code@12@PBD@Z 1003d578     * CIL library *:* CIL module *
 0002:00010578       __ehfuncinfo$??0?$error_info_injector@Vruntime_error@std@@@exception_detail@boost@@QAE@ABVruntime_error@std@@@Z 1003d578     * CIL library *:* CIL module *
 0002:00010578       __ehfuncinfo$??0system_error@system@boost@@QAE@ABV012@@Z 1003d578     * CIL library *:* CIL module *
 0002:0001059c       __unwindtable$??0system_error@system@boost@@QAE@Verror_code@12@PBD@Z 1003d59c     * CIL library *:* CIL module *
 0002:0001059c       __unwindtable$??0system_error@system@boost@@QAE@ABV012@@Z 1003d59c     * CIL library *:* CIL module *
 0002:0001059c       __unwindtable$??0?$error_info_injector@Vruntime_error@std@@@exception_detail@boost@@QAE@ABVruntime_error@std@@@Z 1003d59c     * CIL library *:* CIL module *
 0002:000105a4       __ehfuncinfo$??0?$error_info_injector@Vthread_resource_error@boost@@@exception_detail@boost@@QAE@ABU012@@Z 1003d5a4     * CIL library *:* CIL module *
 0002:000105c8       __unwindtable$??0?$error_info_injector@Vthread_resource_error@boost@@@exception_detail@boost@@QAE@ABU012@@Z 1003d5c8     * CIL library *:* CIL module *
 0002:000105d0       __ehfuncinfo$??0?$clone_impl@U?$error_info_injector@Vthread_resource_error@boost@@@exception_detail@boost@@@exception_detail@boost@@QAE@ABV012@@Z 1003d5d0     * CIL library *:* CIL module *
 0002:000105f4       __unwindtable$??0?$clone_impl@U?$error_info_injector@Vthread_resource_error@boost@@@exception_detail@boost@@@exception_detail@boost@@QAE@ABV012@@Z 1003d5f4     * CIL library *:* CIL module *
 0002:000105fc       __ehfuncinfo$??$?0P8Nav@@AEXPAUJobInfo_t@@PAVNode@@1@ZPAV0@PAU1@PAV2@PAV2@@thread@boost@@QAE@P8Nav@@AEXPAUJobInfo_t@@PAVNode@@1@ZPAV2@011@Z 1003d5fc     * CIL library *:* CIL module *
 0002:00010620       __unwindtable$??$?0P8Nav@@AEXPAUJobInfo_t@@PAVNode@@1@ZPAV0@PAU1@PAV2@PAV2@@thread@boost@@QAE@P8Nav@@AEXPAUJobInfo_t@@PAVNode@@1@ZPAV2@011@Z 1003d620     * CIL library *:* CIL module *
 0002:00010628       __ehfuncinfo$??$?0P8Nav@@AEXPA_N@ZPAV0@PA_N@thread@boost@@QAE@P8Nav@@AEXPA_N@ZPAV2@0@Z 1003d628     * CIL library *:* CIL module *
 0002:0001064c       __unwindtable$??$?0P8Nav@@AEXPA_N@ZPAV0@PA_N@thread@boost@@QAE@P8Nav@@AEXPA_N@ZPAV2@0@Z 1003d64c     * CIL library *:* CIL module *
 0002:00010654       __ehfuncinfo$??$throw_exception@Vbad_alloc@std@@@boost@@YAXABVbad_alloc@std@@@Z 1003d654     * CIL library *:* CIL module *
 0002:00010678       __unwindtable$??$throw_exception@Vbad_alloc@std@@@boost@@YAXABVbad_alloc@std@@@Z 1003d678     * CIL library *:* CIL module *
 0002:00010680       __ehfuncinfo$??$throw_exception@Vthread_resource_error@boost@@@boost@@YAXABVthread_resource_error@0@@Z 1003d680     * CIL library *:* CIL module *
 0002:000106a4       __unwindtable$??$throw_exception@Vthread_resource_error@boost@@@boost@@YAXABVthread_resource_error@0@@Z 1003d6a4     * CIL library *:* CIL module *
 0002:000106ac       __ehfuncinfo$?_Buyheadnode@?$_Tree_alloc@$0A@U?$_Tree_base_types@U?$pair@QBXUtss_data_node@detail@boost@@@std@@V?$allocator@U?$pair@QBXUtss_data_node@detail@boost@@@std@@@2@@std@@@std@@QAEPAU?$_Tree_node@U?$pair@QBXUtss_data_node@detail@boost@@@std@@PAX@2@XZ 1003d6ac     * CIL library *:* CIL module *
 0002:000106d0       __unwindtable$?_Buyheadnode@?$_Tree_alloc@$0A@U?$_Tree_base_types@U?$pair@QBXUtss_data_node@detail@boost@@@std@@V?$allocator@U?$pair@QBXUtss_data_node@detail@boost@@@std@@@2@@std@@@std@@QAEPAU?$_Tree_node@U?$pair@QBXUtss_data_node@detail@boost@@@std@@PAX@2@XZ 1003d6d0     * CIL library *:* CIL module *
 0002:000106e0       __tryblocktable$?_Buyheadnode@?$_Tree_alloc@$0A@U?$_Tree_base_types@U?$pair@QBXUtss_data_node@detail@boost@@@std@@V?$allocator@U?$pair@QBXUtss_data_node@detail@boost@@@std@@@2@@std@@@std@@QAEPAU?$_Tree_node@U?$pair@QBXUtss_data_node@detail@boost@@@std@@PAX@2@XZ 1003d6e0     * CIL library *:* CIL module *
 0002:000106f4       __catchsym$?_Buyheadnode@?$_Tree_alloc@$0A@U?$_Tree_base_types@U?$pair@QBXUtss_data_node@detail@boost@@@std@@V?$allocator@U?$pair@QBXUtss_data_node@detail@boost@@@std@@@2@@std@@@std@@QAEPAU?$_Tree_node@U?$pair@QBXUtss_data_node@detail@boost@@@std@@PAX@2@XZ$2 1003d6f4     * CIL library *:* CIL module *
 0002:00010704       __ehfuncinfo$?reset@?$intrusive_ptr@Uthread_data_base@detail@boost@@@boost@@QAEXXZ 1003d704     * CIL library *:* CIL module *
 0002:00010704       __ehfuncinfo$??4?$intrusive_ptr@Uthread_data_base@detail@boost@@@boost@@QAEAAV01@ABV01@@Z 1003d704     * CIL library *:* CIL module *
 0002:00010728       __unwindtable$??4?$intrusive_ptr@Uthread_data_base@detail@boost@@@boost@@QAEAAV01@ABV01@@Z 1003d728     * CIL library *:* CIL module *
 0002:00010728       __unwindtable$?reset@?$intrusive_ptr@Uthread_data_base@detail@boost@@@boost@@QAEXXZ 1003d728     * CIL library *:* CIL module *
 0002:00010730       __ehfuncinfo$?GetNextAirSeedNode@Nav@@QAEPAVNode@@XZ 1003d730     * CIL library *:* CIL module *
 0002:00010730       __ehfuncinfo$?GetNextGroundSeedNode@Nav@@QAEPAVNode@@XZ 1003d730     * CIL library *:* CIL module *
 0002:00010754       __unwindtable$?GetNextGroundSeedNode@Nav@@QAEPAVNode@@XZ 1003d754     * CIL library *:* CIL module *
 0002:00010754       __unwindtable$?GetNextAirSeedNode@Nav@@QAEPAVNode@@XZ 1003d754     * CIL library *:* CIL module *
 0002:0001075c       __ehfuncinfo$??0thread_data_base@detail@boost@@QAE@XZ 1003d75c     * CIL library *:* CIL module *
 0002:00010780       __unwindtable$??0thread_data_base@detail@boost@@QAE@XZ 1003d780     * CIL library *:* CIL module *
 0002:00010798       __ehfuncinfo$?allocate_raw_heap_memory@detail@boost@@YAPAXI@Z 1003d798     * CIL library *:* CIL module *
 0002:000107bc       __unwindtable$?allocate_raw_heap_memory@detail@boost@@YAPAXI@Z 1003d7bc     * CIL library *:* CIL module *
 0002:000107c4       __ehfuncinfo$?create_anonymous_event@win32@detail@boost@@YAPAXW4event_type@123@W4initial_event_state@123@@Z 1003d7c4     * CIL library *:* CIL module *
 0002:000107e8       __unwindtable$?create_anonymous_event@win32@detail@boost@@YAPAXW4event_type@123@W4initial_event_state@123@@Z 1003d7e8     * CIL library *:* CIL module *
 0002:000107f0       __ehfuncinfo$?what@system_error@system@boost@@UBEPBDXZ 1003d7f0     * CIL library *:* CIL module *
 0002:00010814       __unwindtable$?what@system_error@system@boost@@UBEPBDXZ 1003d814     * CIL library *:* CIL module *
 0002:0001082c       __tryblocktable$?what@system_error@system@boost@@UBEPBDXZ 1003d82c     * CIL library *:* CIL module *
 0002:00010840       __catchsym$?what@system_error@system@boost@@UBEPBDXZ$3 1003d840     * CIL library *:* CIL module *
 0002:00010850       __ehfuncinfo$?GenerateQueue@Nav@@QAEXPAUJobInfo_t@@@Z 1003d850     * CIL library *:* CIL module *
 0002:00010850       __ehfuncinfo$?FindPathQueue@Nav@@QAEXPAUJobInfo_t@@@Z 1003d850     * CIL library *:* CIL module *
 0002:00010874       __unwindtable$?FindPathQueue@Nav@@QAEXPAUJobInfo_t@@@Z 1003d874     * CIL library *:* CIL module *
 0002:00010874       __unwindtable$?GenerateQueue@Nav@@QAEXPAUJobInfo_t@@@Z 1003d874     * CIL library *:* CIL module *
 0002:0001087c       __ehfuncinfo$?Load@Nav@@QAE_NPBD@Z 1003d87c     * CIL library *:* CIL module *
 0002:000108a0       __unwindtable$?Load@Nav@@QAE_NPBD@Z 1003d8a0     * CIL library *:* CIL module *
 0002:000108b8       __ehfuncinfo$?Save@Nav@@QAE_NPBD@Z 1003d8b8     * CIL library *:* CIL module *
 0002:000108dc       __unwindtable$?Save@Nav@@QAE_NPBD@Z 1003d8dc     * CIL library *:* CIL module *
 0002:000108e4       __ehfuncinfo$?AddNode@Nav@@QAEPAVNode@@ABVVector@@0W4NavDirType@@PAV2@@Z 1003d8e4     * CIL library *:* CIL module *
 0002:00010908       __unwindtable$?AddNode@Nav@@QAEPAVNode@@ABVVector@@0W4NavDirType@@PAV2@@Z 1003d908     * CIL library *:* CIL module *
 0002:00010910       __ehfuncinfo$??0Nav@@QAE@H@Z 1003d910     * CIL library *:* CIL module *
 0002:00010934       __unwindtable$??0Nav@@QAE@H@Z 1003d934     * CIL library *:* CIL module *
 0002:00010bb2       .idata$6                   1003dbb2     tier0:tier0.dll
 0002:00010c80       .idata$6                   1003dc80     kernel32:KERNEL32.dll
 0002:00011220       .edata                     1003e220     gmcl_navigation_win32.exp
 0002:00011248       rgpv                       1003e248     gmcl_navigation_win32.exp
 0002:00011254       rgszName                   1003e254     gmcl_navigation_win32.exp
 0002:00011260       rgwOrd                     1003e260     gmcl_navigation_win32.exp
 0002:00011266       szName                     1003e266     gmcl_navigation_win32.exp
 0002:00011280       $N00001                    1003e280     gmcl_navigation_win32.exp
 0002:00011290       $N00002                    1003e290     gmcl_navigation_win32.exp
 0002:0001129d       $N00003                    1003e29d     gmcl_navigation_win32.exp
 0003:00000020       _vec2_invalid              1003f020     mathlib:mathlib_base.obj
 0003:00000480       _vec2_invalid              1003f480     mathlib:color_conversion.obj
 0003:00000488       _vec2_invalid              1003f488     mathlib:sse.obj
 0003:00000490       _vec2_invalid              1003f490     mathlib:3dnow.obj
 0003:00000498       _s_pConversionArrays_StringCharConversion 1003f498     tier1:utlbuffer.obj
 0003:000004f0       _s_pConversionArrays_NoEscConversion 1003f4f0     tier1:utlbuffer.obj
 0003:000004f8       _vec2_invalid              1003f4f8     tier1:utlbuffer.obj
 0003:0000056c       _s_BackSlashMap            1003f56c     tier1:strtools.obj
 0003:00000578       _vec2_invalid              1003f578     tier1:strtools.obj
 0003:000005a0       _NAME_                     1003f5a0     LIBCMT:acos.obj
 0003:000005b0       _NAME_                     1003f5b0     LIBCMT:asin.obj
 0003:000005c8       POW_name                   1003f5c8     LIBCMT:pow.obj
 0003:000005e8       _errtable                  1003f5e8     LIBCMT:dosmap.obj
 0003:00000750       _ErrnoNoMem                1003f750     LIBCMT:dosmap.obj
 0003:00000754       _DoserrorNoMem             1003f754     LIBCMT:dosmap.obj
 0003:00000ba4       ?isPackaged@?1??__crtIsPackagedApp@@9@9 1003fba4     LIBCMT:winapisupp.obj
 0003:00000bd0       _newcw                     1003fbd0     LIBCMT:floor.obj
 0003:00000bdc       ___rgctypeflag             1003fbdc     LIBCMT:mbctype.obj
 0003:00000be0       ___rgcode_page_info        1003fbe0     LIBCMT:mbctype.obj
 0003:00001330       __ctype_loc_style          10040330     LIBCMT:wsetloca.obj
 0003:00001350       __locktable                10040350     LIBCMT:mlock.obj
 0003:000014b0       ?_names@?1??_get_fname@@9@9 100404b0     LIBCMT:fpexcept.obj
 0003:00001598       _over                      10040598     LIBCMT:fpctrl.obj
 0003:000015a4       _under                     100405a4     LIBCMT:fpctrl.obj
 0003:000015b0       ?__DAZ_ENABLED@?1??__set_fpsr_sse2@@9@9 100405b0     LIBCMT:fpctrl.obj
 0003:0000161c       _DoubleFormat              1004061c     LIBCMT:intrncvt.obj
 0003:00001634       _FloatFormat               10040634     LIBCMT:intrncvt.obj
 0003:00001a48       _Name                      10040a48     * CIL library *:* CIL module *
 0003:00001ad8       _Name                      10040ad8     * CIL library *:* CIL module *
 0003:00001b68       _Name                      10040b68     * CIL library *:* CIL module *
 0003:00001bf8       _Name                      10040bf8     * CIL library *:* CIL module *
 0003:00001c88       _Name                      10040c88     * CIL library *:* CIL module *
 0003:00001d18       _Name                      10040d18     * CIL library *:* CIL module *
 0003:00002740       _NAME_                     10041740     LIBCMT:sqrt.obj
 0003:00002b61       _s_b3DNowEnabled           10041b61     mathlib:mathlib_base.obj
 0003:00002b62       _s_bMMXEnabled             10041b62     mathlib:mathlib_base.obj
 0003:00002b63       _s_bSSEEnabled             10041b63     mathlib:mathlib_base.obj
 0003:00002b64       _s_bSSE2Enabled            10041b64     mathlib:mathlib_base.obj
 0003:00002b68       _vec2_origin               10041b68     mathlib:mathlib_base.obj
 0003:00002b88       _texturetolinear           10041b88     mathlib:color_conversion.obj
 0003:00003f88       _g_Mathlib_LinearToGamma   10042f88     mathlib:color_conversion.obj
 0003:00004388       _lineartotexture           10043388     mathlib:color_conversion.obj
 0003:00005388       _lineartoscreen            10044388     mathlib:color_conversion.obj
 0003:00006388       _g_Mathlib_GammaToLinear   10045388     mathlib:color_conversion.obj
 0003:0000a788       _texgammatable             10049788     mathlib:color_conversion.obj
 0003:0000a888       _vec2_origin               10049888     mathlib:color_conversion.obj
 0003:0000a890       _vec2_origin               10049890     mathlib:sse.obj
 0003:0000a898       _vec2_origin               10049898     mathlib:3dnow.obj
 0003:0000a8a8       _vec2_origin               100498a8     tier1:utlbuffer.obj
 0003:0000bbd0       _vec2_origin               1004abd0     tier1:strtools.obj
 0003:0000bbd8       ___proc_attached           1004abd8     LIBCMT:dllcrt0.obj
 0003:0000bbe8       _GS_ExceptionRecord        1004abe8     LIBCMT:gs_report.obj
 0003:0000bc38       _GS_ContextRecord          1004ac38     LIBCMT:gs_report.obj
 0003:0000bf04       _DebuggerWasPresent        1004af04     LIBCMT:gs_report.obj
 0003:0000bf58       ?outmsg@?8??_NMSG_WRITE@@9@9 1004af58     LIBCMT:crt0msg.obj
 0003:0000c584       ___type_info_root_node     1004b584     LIBCMT:typname.obj
 0003:0000c698       ?_pgmname@?1??_setargv@@9@9 1004b698     LIBCMT:stdargv.obj
 0003:0000c7a0       __pmatherr_set             1004b7a0     LIBCMT:libm_error.obj
 0003:0000c7bc       _fSystemSet                1004b7bc     LIBCMT:mbctype.obj
 0003:0000c7c4       ___enable_percent_n        1004b7c4     LIBCMT:printf.obj
 0003:0000c7d0       _lclcritsects              1004b7d0     LIBCMT:mlock.obj
 0003:0000c924       _g_pfnRtlGenRandom         1004b924     LIBCMT:rand_s.obj
 0003:0000c928       _ctrlc_action              1004b928     LIBCMT:winsig.obj
 0003:0000c92c       _ctrlbreak_action          1004b92c     LIBCMT:winsig.obj
 0003:0000c930       _abort_action              1004b930     LIBCMT:winsig.obj
 0003:0000c934       _term_action               1004b934     LIBCMT:winsig.obj
 0003:0000c938       _ConsoleCtrlHandler_Installed 1004b938     LIBCMT:winsig.obj
 0003:0000c948       ?pfnMessageBox@?1??__crtMessageBoxW@@9@9 1004b948     LIBCMT:crtmboxw.obj
 0003:0000c94c       ?pfnGetActiveWindow@?1??__crtMessageBoxW@@9@9 1004b94c     LIBCMT:crtmboxw.obj
 0003:0000c950       ?pfnGetLastActivePopup@?1??__crtMessageBoxW@@9@9 1004b950     LIBCMT:crtmboxw.obj
 0003:0000c954       ?pfnGetProcessWindowStation@?1??__crtMessageBoxW@@9@9 1004b954     LIBCMT:crtmboxw.obj
 0003:0000c958       ?pfnGetUserObjectInformation@?1??__crtMessageBoxW@@9@9 1004b958     LIBCMT:crtmboxw.obj
 0003:0000c95c       ___crtCallProc             1004b95c     LIBCMT:winapinls.obj
 0003:0000c988       _heap                      1004b988     LIBCMT:undname.obj
 0003:0000c9b0       __Tuple_alloc              1004b9b0     libcpmt:xthrow.obj
 0003:0000c9b1       _ignore                    1004b9b1     libcpmt:xthrow.obj
 0003:0000c9b2       _allocator_arg             1004b9b2     libcpmt:xthrow.obj
 0003:0000c9b3       _piecewise_construct       1004b9b3     libcpmt:xthrow.obj
 0003:0000c9b4       _allocator_arg             1004b9b4     libcpmt:syserror.obj
 0003:0000c9b5       _piecewise_construct       1004b9b5     libcpmt:syserror.obj
 0003:0000c9c0       __8                        1004b9c0     libboost_thread-vc110-mt-s-1_52:thread.obj
 0003:0000c9c1       __1                        1004b9c1     libboost_thread-vc110-mt-s-1_52:thread.obj
 0003:0000c9c2       __Tuple_alloc              1004b9c2     libboost_thread-vc110-mt-s-1_52:thread.obj
 0003:0000c9c3       __5                        1004b9c3     libboost_thread-vc110-mt-s-1_52:thread.obj
 0003:0000c9c4       __9                        1004b9c4     libboost_thread-vc110-mt-s-1_52:thread.obj
 0003:0000c9c5       __4                        1004b9c5     libboost_thread-vc110-mt-s-1_52:thread.obj
 0003:0000c9c6       __2                        1004b9c6     libboost_thread-vc110-mt-s-1_52:thread.obj
 0003:0000c9c7       __7                        1004b9c7     libboost_thread-vc110-mt-s-1_52:thread.obj
 0003:0000c9c8       _ignore                    1004b9c8     libboost_thread-vc110-mt-s-1_52:thread.obj
 0003:0000c9c9       __3                        1004b9c9     libboost_thread-vc110-mt-s-1_52:thread.obj
 0003:0000c9ca       _allocator_arg             1004b9ca     libboost_thread-vc110-mt-s-1_52:thread.obj
 0003:0000c9cb       _piecewise_construct       1004b9cb     libboost_thread-vc110-mt-s-1_52:thread.obj
 0003:0000c9cc       __6                        1004b9cc     libboost_thread-vc110-mt-s-1_52:thread.obj
 0003:0000c9cd       _piecewise_construct       1004b9cd     libboost_thread-vc110-mt-s-1_52:tss_pe.obj
 0003:0000c9d0       __Tuple_alloc              1004b9d0     libboost_system-vc110-mt-s-1_52:error_code.obj
 0003:0000c9d1       _ignore                    1004b9d1     libboost_system-vc110-mt-s-1_52:error_code.obj
 0003:0000c9d2       _allocator_arg             1004b9d2     libboost_system-vc110-mt-s-1_52:error_code.obj
 0003:0000c9d3       _piecewise_construct       1004b9d3     libboost_system-vc110-mt-s-1_52:error_code.obj
 0003:0000c9d4       _errno_ecat                1004b9d4     libboost_system-vc110-mt-s-1_52:error_code.obj
 0003:0000c9e0       _native_ecat               1004b9e0     libboost_system-vc110-mt-s-1_52:error_code.obj
 0003:0000c9e4       _posix_category            1004b9e4     libboost_system-vc110-mt-s-1_52:error_code.obj
 0003:0000c9e8       ?unknown_err@?1??message@generic_error_category@?A0xe218785f@@UBE?AV?$basic_string@DU?$char_traits@D@std@@V?$allocator@D@2@@std@@H@Z@4V45@A 1004b9e8     libboost_system-vc110-mt-s-1_52:error_code.obj
 0003:0000ca00       ?$S1@?1??message@generic_error_category@?A0xe218785f@@UBE?AV?$basic_string@DU?$char_traits@D@std@@V?$allocator@D@2@@std@@H@Z@4IA 1004ba00     libboost_system-vc110-mt-s-1_52:error_code.obj
 0003:0000ca04       ?system_category_const@?1??system_category@system@boost@@YAABVerror_category@23@XZ@4Vsystem_error_category@?A0xe218785f@@B 1004ba04     libboost_system-vc110-mt-s-1_52:error_code.obj
 0003:0000ca08       ?$S2@?1??system_category@system@boost@@YAABVerror_category@23@XZ@4IA 1004ba08     libboost_system-vc110-mt-s-1_52:error_code.obj
 0003:0000ca0c       ?generic_category_const@?1??generic_category@system@boost@@YAABVerror_category@23@XZ@4Vgeneric_error_category@?A0xe218785f@@B 1004ba0c     libboost_system-vc110-mt-s-1_52:error_code.obj
 0003:0000ca10       ?$S3@?1??generic_category@system@boost@@YAABVerror_category@23@XZ@4IA 1004ba10     libboost_system-vc110-mt-s-1_52:error_code.obj
 0003:0000ca14       ?s_roinit@?1??_initMTAoncurrentthread@@9@9 1004ba14     LIBCMT:threadex.obj
 0003:0000ca18       ?s_initialized@?1??_initMTAoncurrentthread@@9@9 1004ba18     LIBCMT:threadex.obj
 0003:0000ca1c       ?s_rouninit@?1??_uninitMTAoncurrentthread@@9@9 1004ba1c     LIBCMT:threadex.obj
 0003:0000ca20       ?s_initialized@?1??_uninitMTAoncurrentthread@@9@9 1004ba20     LIBCMT:threadex.obj
 0003:0000ca38       _vec2_origin               1004ba38     * CIL library *:* CIL module *
 0003:0000ca40       _vec2_invalid              1004ba40     * CIL library *:* CIL module *
 0003:0000ca48       _allocator_arg             1004ba48     * CIL library *:* CIL module *
 0003:0000ca49       _piecewise_construct       1004ba49     * CIL library *:* CIL module *
 0003:0000ca4a       _allocator_arg             1004ba4a     * CIL library *:* CIL module *
 0003:0000ca4b       _piecewise_construct       1004ba4b     * CIL library *:* CIL module *
 0003:0000ca4c       _vec2_origin               1004ba4c     * CIL library *:* CIL module *
 0003:0000ca54       _vec2_invalid              1004ba54     * CIL library *:* CIL module *
 0003:0000ca60       _vec2_origin               1004ba60     * CIL library *:* CIL module *
 0003:0000ca68       _vec2_invalid              1004ba68     * CIL library *:* CIL module *
 0003:0000ca70       __Tuple_alloc              1004ba70     * CIL library *:* CIL module *
 0003:0000ca71       _ignore                    1004ba71     * CIL library *:* CIL module *
 0003:0000ca72       _allocator_arg             1004ba72     * CIL library *:* CIL module *
 0003:0000ca73       __9                        1004ba73     * CIL library *:* CIL module *
 0003:0000ca74       _vec4_origin               1004ba74     * CIL library *:* CIL module *
 0003:0000ca84       _errno_ecat                1004ba84     * CIL library *:* CIL module *
 0003:0000ca90       _vec2_origin               1004ba90     * CIL library *:* CIL module *
 0003:0000ca98       __2                        1004ba98     * CIL library *:* CIL module *
 0003:0000ca99       __7                        1004ba99     * CIL library *:* CIL module *
 0003:0000ca9a       __5                        1004ba9a     * CIL library *:* CIL module *
 0003:0000ca9b       __8                        1004ba9b     * CIL library *:* CIL module *
 0003:0000ca9c       __1                        1004ba9c     * CIL library *:* CIL module *
 0003:0000ca9d       __4                        1004ba9d     * CIL library *:* CIL module *
 0003:0000ca9e       __3                        1004ba9e     * CIL library *:* CIL module *
 0003:0000ca9f       _piecewise_construct       1004ba9f     * CIL library *:* CIL module *
 0003:0000caa0       _vector_origin             1004baa0     * CIL library *:* CIL module *
 0003:0000caac       _native_ecat               1004baac     * CIL library *:* CIL module *
 0003:0000cab0       _vec4_invalid              1004bab0     * CIL library *:* CIL module *
 0003:0000cac0       _vec2_invalid              1004bac0     * CIL library *:* CIL module *
 0003:0000cac8       __6                        1004bac8     * CIL library *:* CIL module *
 0003:0000cac9       __Tuple_alloc              1004bac9     * CIL library *:* CIL module *
 0003:0000caca       _ignore                    1004baca     * CIL library *:* CIL module *
 0003:0000cacb       _allocator_arg             1004bacb     * CIL library *:* CIL module *
 0003:0000cae8       _posix_category            1004bae8     * CIL library *:* CIL module *
 0003:0000caec       _vec4_origin               1004baec     * CIL library *:* CIL module *
 0003:0000cafc       _errno_ecat                1004bafc     * CIL library *:* CIL module *
 0003:0000cb00       __9                        1004bb00     * CIL library *:* CIL module *
 0003:0000cb01       __2                        1004bb01     * CIL library *:* CIL module *
 0003:0000cb02       __7                        1004bb02     * CIL library *:* CIL module *
 0003:0000cb03       __5                        1004bb03     * CIL library *:* CIL module *
 0003:0000cb04       __8                        1004bb04     * CIL library *:* CIL module *
 0003:0000cb05       __1                        1004bb05     * CIL library *:* CIL module *
 0003:0000cb06       __4                        1004bb06     * CIL library *:* CIL module *
 0003:0000cb07       __3                        1004bb07     * CIL library *:* CIL module *
 0003:0000cb08       _vec2_origin               1004bb08     * CIL library *:* CIL module *
 0003:0000cb10       _vector_origin             1004bb10     * CIL library *:* CIL module *
 0003:0000cb1c       _native_ecat               1004bb1c     * CIL library *:* CIL module *
 0003:0000cb20       _vec4_invalid              1004bb20     * CIL library *:* CIL module *
 0003:0000cb30       _piecewise_construct       1004bb30     * CIL library *:* CIL module *
 0003:0000cb31       __6                        1004bb31     * CIL library *:* CIL module *
 0003:0000cb32       __Tuple_alloc              1004bb32     * CIL library *:* CIL module *
 0003:0000cb33       _ignore                    1004bb33     * CIL library *:* CIL module *
 0003:0000cb34       _vec2_invalid              1004bb34     * CIL library *:* CIL module *
 0003:0000cb3c       _posix_category            1004bb3c     * CIL library *:* CIL module *
 0003:0000cb40       _errno_ecat                1004bb40     * CIL library *:* CIL module *
 0003:0000cb44       _allocator_arg             1004bb44     * CIL library *:* CIL module *
 0003:0000cb45       _piecewise_construct       1004bb45     * CIL library *:* CIL module *
 0003:0000cb46       __9                        1004bb46     * CIL library *:* CIL module *
 0003:0000cb47       __2                        1004bb47     * CIL library *:* CIL module *
 0003:0000cb48       _vec2_origin               1004bb48     * CIL library *:* CIL module *
 0003:0000cb50       _native_ecat               1004bb50     * CIL library *:* CIL module *
 0003:0000cb54       _vec2_invalid              1004bb54     * CIL library *:* CIL module *
 0003:0000cb5c       __7                        1004bb5c     * CIL library *:* CIL module *
 0003:0000cb5d       __5                        1004bb5d     * CIL library *:* CIL module *
 0003:0000cb5e       __8                        1004bb5e     * CIL library *:* CIL module *
 0003:0000cb5f       __1                        1004bb5f     * CIL library *:* CIL module *
 0003:0000cb60       __4                        1004bb60     * CIL library *:* CIL module *
 0003:0000cb61       __3                        1004bb61     * CIL library *:* CIL module *
 0003:0000cb62       __6                        1004bb62     * CIL library *:* CIL module *
 0003:0000cb64       _posix_category            1004bb64     * CIL library *:* CIL module *
 0005:00000060       $R000000                   1004e060     * linker generated manifest res *
