 gmcl_navigation_win32

 Timestamp is 50c4d25d (Sun Dec 09 13:03:09 2012)

 Preferred load address is 10000000

 Start         Length     Name                   Class
 0001:00000000 0001ef8aH .text                   CODE
 0001:0001ef8a 00000360H .text$x                 CODE
 0001:0001f2f0 00000713H .text$yc                CODE
 0001:0001fa03 0000003cH .text$yd                CODE
 0002:00000000 0000013cH .idata$5                DATA
 0002:0000013c 00000004H .CRT$XCA                DATA
 0002:00000140 000000b4H .CRT$XCU                DATA
 0002:000001f4 00000004H .CRT$XCZ                DATA
 0002:000001f8 00000004H .CRT$XIA                DATA
 0002:000001fc 00000014H .CRT$XIC                DATA
 0002:00000210 00000004H .CRT$XIZ                DATA
 0002:00000214 00000004H .CRT$XPA                DATA
 0002:00000218 00000008H .CRT$XPX                DATA
 0002:00000220 00000004H .CRT$XPXA               DATA
 0002:00000224 00000004H .CRT$XPZ                DATA
 0002:00000228 00000004H .CRT$XTA                DATA
 0002:0000022c 00000004H .CRT$XTZ                DATA
 0002:00000230 0000d4b8H .rdata                  DATA
 0002:0000d6e8 0000008cH .rdata$debug            DATA
 0002:0000d774 00000708H .rdata$r                DATA
 0002:0000de80 0000006cH .rdata$sxdata           DATA
 0002:0000deec 00000004H .rtc$IAA                DATA
 0002:0000def0 00000004H .rtc$IZZ                DATA
 0002:0000def4 00000004H .rtc$TAA                DATA
 0002:0000def8 00000004H .rtc$TZZ                DATA
 0002:0000df00 00000a94H .xdata$x                DATA
 0002:0000e994 0000003cH .idata$2                DATA
 0002:0000e9d0 00000014H .idata$3                DATA
 0002:0000e9e4 0000013cH .idata$4                DATA
 0002:0000eb20 000005c4H .idata$6                DATA
 0002:0000f0f0 00000089H .edata                  DATA
 0003:00000000 00001ee8H .data                   DATA
 0003:00001f00 0000b470H .bss                    DATA
 0004:00000000 00000058H .rsrc$01                DATA
 0004:00000060 00000180H .rsrc$02                DATA

  Address         Publics by Value              Rva+Base       Lib:Object

 0000:00000000       __except_list              00000000     <absolute>
 0000:0000001b       ___safe_se_handler_count   0000001b     <absolute>
 0000:00000000       ___ImageBase               10000000     <linker-defined>
 0001:00000000       ??2@YAPAXIPAX@Z            10001000 f i ILuaInterface.obj
 0001:00000008       ?UtlMemory_CalcNewAllocationCount@@YAHHHHH@Z 10001008 f i ILuaInterface.obj
 0001:0000004d       ??0Vector2D@@QAE@MM@Z      1000104d f i ILuaInterface.obj
 0001:00000074       ??_H@YGXPAXIHP6EPAX0@Z@Z   10001074 f i ILuaInterface.obj
 0001:00000095       ?V_memmove@@YAXPAXPBXH@Z   10001095 f i ILuaInterface.obj
 0001:000000ab       ??0ILuaInterface@@QAE@PAUlua_State@@@Z 100010ab f   ILuaInterface.obj
 0001:00000250       ??1ILuaInterface@@QAE@XZ   10001250 f   ILuaInterface.obj
 0001:00000285       ?GetNewTable@ILuaInterface@@QAEPAVILuaObject@@XZ 10001285 f   ILuaInterface.obj
 0001:00000310       ?NewTable@ILuaInterface@@QAEXXZ 10001310 f   ILuaInterface.obj
 0001:0000032a       ?PushUserData@ILuaInterface@@QAEXPAVILuaObject@@PAXE@Z 1000132a f   ILuaInterface.obj
 0001:000003d3       ?Error@ILuaInterface@@QAAXPBDZZ 100013d3 f   ILuaInterface.obj
 0001:00000432       ?ErrorNoHalt@ILuaInterface@@QAAXPBDZZ 10001432 f   ILuaInterface.obj
 0001:000004af       ?GetGlobal@ILuaInterface@@QAEPAVILuaObject@@PBD@Z 100014af f   ILuaInterface.obj
 0001:00000579       ?SetGlobal@ILuaInterface@@QAEXPBDPAVILuaObject@@@Z 10001579 f   ILuaInterface.obj
 0001:000005de       ?GetObject@ILuaInterface@@QAEPAVILuaObject@@H@Z 100015de f   ILuaInterface.obj
 0001:0000067d       ?GetString@ILuaInterface@@QAEPBDHPAI@Z 1000167d f   ILuaInterface.obj
 0001:0000069f       ?GetInteger@ILuaInterface@@QAEHH@Z 1000169f f   ILuaInterface.obj
 0001:000006c3       ?GetNumber@ILuaInterface@@QAENH@Z 100016c3 f   ILuaInterface.obj
 0001:000006e2       ?GetBool@ILuaInterface@@QAE_NH@Z 100016e2 f   ILuaInterface.obj
 0001:00000701       ?GetUserData@ILuaInterface@@QAEPAXH@Z 10001701 f   ILuaInterface.obj
 0001:00000729       ?GetReference@ILuaInterface@@QAEHH@Z 10001729 f   ILuaInterface.obj
 0001:00000762       ?FreeReference@ILuaInterface@@QAEXH@Z 10001762 f   ILuaInterface.obj
 0001:00000784       ?PushReference@ILuaInterface@@QAEXH@Z 10001784 f   ILuaInterface.obj
 0001:000007a6       ?Pop@ILuaInterface@@QAEXH@Z 100017a6 f   ILuaInterface.obj
 0001:000007c5       ?Push@ILuaInterface@@QAEXPAVILuaObject@@@Z 100017c5 f   ILuaInterface.obj
 0001:000007d8       ?Push@ILuaInterface@@QAEXPBDI@Z 100017d8 f   ILuaInterface.obj
 0001:000007fa       ?Push@ILuaInterface@@QAEX_N@Z 100017fa f   ILuaInterface.obj
 0001:00000819       ?Push@ILuaInterface@@QAEXP6AHPAUlua_State@@@Z@Z 10001819 f   ILuaInterface.obj
 0001:0000083b       ?Push@ILuaInterface@@QAEXM@Z 1000183b f   ILuaInterface.obj
 0001:00000863       ?CheckType@ILuaInterface@@QAEXHH@Z 10001863 f   ILuaInterface.obj
 0001:00000885       ?GetType@ILuaInterface@@QAEHH@Z 10001885 f   ILuaInterface.obj
 0001:000008a7       ?GetReturn@ILuaInterface@@QAEPAVILuaObject@@H@Z 100018a7 f   ILuaInterface.obj
 0001:000008bd       ?Call@ILuaInterface@@QAEXHH@Z 100018bd f   ILuaInterface.obj
 0001:000008df       ?GetMetaTable@ILuaInterface@@QAEPAVILuaObject@@PBDH@Z 100018df f   ILuaInterface.obj
 0001:0000097e       ??$vsprintf_s@$0EAA@@@YAHAAY0EAA@DPBDPAD@Z 1000197e f i ILuaInterface.obj
 0001:00000999       ??$Destruct@PAVNode@@@@YAXPAPAVNode@@@Z 10001999 f i main.obj
 0001:00000999       ??$Destruct@PAUJobInfo_t@@@@YAXPAPAUJobInfo_t@@@Z 10001999 f i main.obj
 0001:00000999       ?OnRelease@CFuncMemPolicyNone@@SAXPAX@Z 10001999 f i nav.obj
 0001:00000999       ??3@YAXPAX0@Z              10001999 f i ILuaModuleManager.obj
 0001:00000999       ??$Destruct@UAirSeedSpot@@@@YAXPAUAirSeedSpot@@@Z 10001999 f i nav.obj
 0001:00000999       ?OnAcquire@CFuncMemPolicyNone@@SAXPAX@Z 10001999 f i nav.obj
 0001:00000999       ??$Destruct@UGroundSeedSpot@@@@YAXPAUGroundSeedSpot@@@Z 10001999 f i nav.obj
 0001:0000099e       ??$destroy@PAD@?$allocator@D@std@@QAEXPAPAD@Z 1000199e f i ILuaObject.obj
 0001:0000099e       ??$destroy@PAU?$_Tree_node@U?$pair@QAUlua_State@@PAVILuaInterface@@@std@@PAX@std@@@?$allocator@U?$_Tree_node@U?$pair@QAUlua_State@@PAVILuaInterface@@@std@@PAX@std@@@std@@QAEXPAPAU?$_Tree_node@U?$pair@QAUlua_State@@PAVILuaInterface@@@std@@PAX@1@@Z 1000199e f i ILuaModuleManager.obj
 0001:0000099e       ?_Adopt@_Iterator_base0@std@@QAEXPBX@Z 1000199e f i ILuaModuleManager.obj
 0001:0000099e       ??$destroy@U?$pair@QAUlua_State@@PAVILuaInterface@@@std@@@?$allocator@U?$_Tree_node@U?$pair@QAUlua_State@@PAVILuaInterface@@@std@@PAX@std@@@std@@QAEXPAU?$pair@QAUlua_State@@PAVILuaInterface@@@1@@Z 1000199e f i ILuaModuleManager.obj
 0001:000009a9       ?CreateInterface@ILuaModuleManager@@QAEXPAUlua_State@@@Z 100019a9 f   ILuaModuleManager.obj
 0001:00000a24       ?DestroyInterface@ILuaModuleManager@@QAEXPAUlua_State@@@Z 10001a24 f   ILuaModuleManager.obj
 0001:00000a70       ??_GILuaInterface@@QAEPAXI@Z 10001a70 f i ILuaModuleManager.obj
 0001:00000a97       ?GetLuaInterface@ILuaModuleManager@@QAEPAVILuaInterface@@PAUlua_State@@@Z 10001a97 f   ILuaModuleManager.obj
 0001:00000ab0       ??0ILuaModuleManager@@QAE@XZ 10001ab0 f i ILuaModuleManager.obj
 0001:00000ac4       ??0?$map@PAUlua_State@@PAVILuaInterface@@U?$less@PAUlua_State@@@std@@V?$allocator@U?$pair@QAUlua_State@@PAVILuaInterface@@@std@@@4@@std@@QAE@XZ 10001ac4 f i ILuaModuleManager.obj
 0001:00000ae6       ??A?$map@PAUlua_State@@PAVILuaInterface@@U?$less@PAUlua_State@@@std@@V?$allocator@U?$pair@QAUlua_State@@PAVILuaInterface@@@std@@@4@@std@@QAEAAPAVILuaInterface@@ABQAUlua_State@@@Z 10001ae6 f i ILuaModuleManager.obj
 0001:00000b88       ?erase@?$_Tree@V?$_Tmap_traits@PAUlua_State@@PAVILuaInterface@@U?$less@PAUlua_State@@@std@@V?$allocator@U?$pair@QAUlua_State@@PAVILuaInterface@@@std@@@4@$0A@@std@@@std@@QAEIABQAUlua_State@@@Z 10001b88 f i ILuaModuleManager.obj
 0001:00000be6       ??0?$_Tree@V?$_Tmap_traits@PAUlua_State@@PAVILuaInterface@@U?$less@PAUlua_State@@@std@@V?$allocator@U?$pair@QAUlua_State@@PAVILuaInterface@@@std@@@4@$0A@@std@@@std@@QAE@ABU?$less@PAUlua_State@@@1@ABV?$allocator@U?$pair@QAUlua_State@@PAVILuaInterface@@@std@@@1@@Z 10001be6 f i ILuaModuleManager.obj
 0001:00000c02       ?end@?$_Tree@V?$_Tmap_traits@PAUlua_State@@PAVILuaInterface@@U?$less@PAUlua_State@@@std@@V?$allocator@U?$pair@QAUlua_State@@PAVILuaInterface@@@std@@@4@$0A@@std@@@std@@QAE?AV?$_Tree_iterator@V?$_Tree_val@U?$_Tree_simple_types@U?$pair@QAUlua_State@@PAVILuaInterface@@@std@@@std@@@std@@@2@XZ 10001c02 f i ILuaModuleManager.obj
 0001:00000c20       ?erase@?$_Tree@V?$_Tmap_traits@PAUlua_State@@PAVILuaInterface@@U?$less@PAUlua_State@@@std@@V?$allocator@U?$pair@QAUlua_State@@PAVILuaInterface@@@std@@@4@$0A@@std@@@std@@QAE?AV?$_Tree_iterator@V?$_Tree_val@U?$_Tree_simple_types@U?$pair@QAUlua_State@@PAVILuaInterface@@@std@@@std@@@std@@@2@V?$_Tree_const_iterator@V?$_Tree_val@U?$_Tree_simple_types@U?$pair@QAUlua_State@@PAVILuaInterface@@@std@@@std@@@std@@@2@0@Z 10001c20 f i ILuaModuleManager.obj
 0001:00000cc1       ?lower_bound@?$_Tree@V?$_Tmap_traits@PAUlua_State@@PAVILuaInterface@@U?$less@PAUlua_State@@@std@@V?$allocator@U?$pair@QAUlua_State@@PAVILuaInterface@@@std@@@4@$0A@@std@@@std@@QAE?AV?$_Tree_iterator@V?$_Tree_val@U?$_Tree_simple_types@U?$pair@QAUlua_State@@PAVILuaInterface@@@std@@@std@@@std@@@2@ABQAUlua_State@@@Z 10001cc1 f i ILuaModuleManager.obj
 0001:00000ce6       ?equal_range@?$_Tree@V?$_Tmap_traits@PAUlua_State@@PAVILuaInterface@@U?$less@PAUlua_State@@@std@@V?$allocator@U?$pair@QAUlua_State@@PAVILuaInterface@@@std@@@4@$0A@@std@@@std@@QAE?AU?$pair@V?$_Tree_iterator@V?$_Tree_val@U?$_Tree_simple_types@U?$pair@QAUlua_State@@PAVILuaInterface@@@std@@@std@@@std@@@std@@V12@@2@ABQAUlua_State@@@Z 10001ce6 f i ILuaModuleManager.obj
 0001:00000d10       ?_Key@?$_Tree@V?$_Tmap_traits@PAUlua_State@@PAVILuaInterface@@U?$less@PAUlua_State@@@std@@V?$allocator@U?$pair@QAUlua_State@@PAVILuaInterface@@@std@@@4@$0A@@std@@@std@@IBEABQAUlua_State@@PAU?$_Tree_node@U?$pair@QAUlua_State@@PAVILuaInterface@@@std@@PAX@2@@Z 10001d10 f i ILuaModuleManager.obj
 0001:00000d2d       ??R?$less@PAUlua_State@@@std@@QBE_NABQAUlua_State@@0@Z 10001d2d f i ILuaModuleManager.obj
 0001:00000d55       ?_Getcomp@?$_Tree_comp@$0A@V?$_Tmap_traits@PAUlua_State@@PAVILuaInterface@@U?$less@PAUlua_State@@@std@@V?$allocator@U?$pair@QAUlua_State@@PAVILuaInterface@@@std@@@4@$0A@@std@@@std@@QBE?AU?$less@PAUlua_State@@@2@XZ 10001d55 f i ILuaModuleManager.obj
 0001:00000d63       ??0?$allocator@U?$pair@QAUlua_State@@PAVILuaInterface@@@std@@@std@@QAE@XZ 10001d63 f i ILuaModuleManager.obj
 0001:00000d63       ??0?$allocator@D@std@@QAE@XZ 10001d63 f i ILuaObject.obj
 0001:00000d63       ??0Vector@@QAE@XZ          10001d63 f i main.obj
 0001:00000d63       ??0?$allocator@U?$_Tree_node@U?$pair@QAUlua_State@@PAVILuaInterface@@@std@@PAX@std@@@std@@QAE@XZ 10001d63 f i ILuaModuleManager.obj
 0001:00000d63       ?GetPosition@Node@@QAEPBVVector@@XZ 10001d63 f i node.obj
 0001:00000d6f       ??8?$_Tree_const_iterator@V?$_Tree_val@U?$_Tree_simple_types@U?$pair@QAUlua_State@@PAVILuaInterface@@@std@@@std@@@std@@@std@@QBE_NABV01@@Z 10001d6f f i ILuaModuleManager.obj
 0001:00000d97       ?_Mynode@?$_Tree_unchecked_const_iterator@V?$_Tree_val@U?$_Tree_simple_types@U?$pair@QAUlua_State@@PAVILuaInterface@@@std@@@std@@@std@@U_Iterator_base0@2@@std@@QBEPAU?$_Tree_node@U?$pair@QAUlua_State@@PAVILuaInterface@@@std@@PAX@2@XZ 10001d97 f i ILuaModuleManager.obj
 0001:00000d97       ?Base@?$CUtlMemory@U?$UtlLinkedListElem_t@UGroundSeedSpot@@H@@H@@QAEPAU?$UtlLinkedListElem_t@UGroundSeedSpot@@H@@XZ 10001d97 f i nav.obj
 0001:00000d97       ?value@error_code@std@@QBEHXZ 10001d97 f i ILuaObject.obj
 0001:00000d97       ?Base@?$CUtlMemory@U?$UtlLinkedListElem_t@UAirSeedSpot@@H@@H@@QAEPAU?$UtlLinkedListElem_t@UAirSeedSpot@@H@@XZ 10001d97 f i nav.obj
 0001:00000d97       ?Base@?$CUtlMemory@PAUJobInfo_t@@H@@QAEPAPAUJobInfo_t@@XZ 10001d97 f i main.obj
 0001:00000d97       ?Base@?$CUtlMemory@EH@@QAEPAEXZ 10001d97 f i nav.obj
 0001:00000d97       ?value@error_condition@std@@QBEHXZ 10001d97 f i ILuaObject.obj
 0001:00000d97       ?Base@?$CUtlMemory@PAVNode@@H@@QAEPAPAVNode@@XZ 10001d97 f i main.obj
 0001:00000da5       ??C?$_Tree_iterator@V?$_Tree_val@U?$_Tree_simple_types@U?$pair@QAUlua_State@@PAVILuaInterface@@@std@@@std@@@std@@@std@@QBEPAU?$pair@QAUlua_State@@PAVILuaInterface@@@1@XZ 10001da5 f i ILuaModuleManager.obj
 0001:00000dbd       ?begin@?$_Tree@V?$_Tmap_traits@PAUlua_State@@PAVILuaInterface@@U?$less@PAUlua_State@@@std@@V?$allocator@U?$pair@QAUlua_State@@PAVILuaInterface@@@std@@@4@$0A@@std@@@std@@QAE?AV?$_Tree_iterator@V?$_Tree_val@U?$_Tree_simple_types@U?$pair@QAUlua_State@@PAVILuaInterface@@@std@@@std@@@std@@@2@XZ 10001dbd f i ILuaModuleManager.obj
 0001:00000de0       ?erase@?$_Tree@V?$_Tmap_traits@PAUlua_State@@PAVILuaInterface@@U?$less@PAUlua_State@@@std@@V?$allocator@U?$pair@QAUlua_State@@PAVILuaInterface@@@std@@@4@$0A@@std@@@std@@QAE?AV?$_Tree_iterator@V?$_Tree_val@U?$_Tree_simple_types@U?$pair@QAUlua_State@@PAVILuaInterface@@@std@@@std@@@std@@@2@V?$_Tree_const_iterator@V?$_Tree_val@U?$_Tree_simple_types@U?$pair@QAUlua_State@@PAVILuaInterface@@@std@@@std@@@std@@@2@@Z 10001de0 f i ILuaModuleManager.obj
 0001:00001450       ?clear@?$_Tree@V?$_Tmap_traits@PAUlua_State@@PAVILuaInterface@@U?$less@PAUlua_State@@@std@@V?$allocator@U?$pair@QAUlua_State@@PAVILuaInterface@@@std@@@4@$0A@@std@@@std@@QAEXXZ 10002450 f i ILuaModuleManager.obj
 0001:0000149f       ?_Eqrange@?$_Tree@V?$_Tmap_traits@PAUlua_State@@PAVILuaInterface@@U?$less@PAUlua_State@@@std@@V?$allocator@U?$pair@QAUlua_State@@PAVILuaInterface@@@std@@@4@$0A@@std@@@std@@IAE?AU?$pair@V?$_Tree_iterator@V?$_Tree_val@U?$_Tree_simple_types@U?$pair@QAUlua_State@@PAVILuaInterface@@@std@@@std@@@std@@@std@@V12@@2@ABQAUlua_State@@@Z 1000249f f i ILuaModuleManager.obj
 0001:0000163c       ?_Lbound@?$_Tree@V?$_Tmap_traits@PAUlua_State@@PAVILuaInterface@@U?$less@PAUlua_State@@@std@@V?$allocator@U?$pair@QAUlua_State@@PAVILuaInterface@@@std@@@4@$0A@@std@@@std@@IAEPAU?$_Tree_node@U?$pair@QAUlua_State@@PAVILuaInterface@@@std@@PAX@2@ABQAUlua_State@@@Z 1000263c f i ILuaModuleManager.obj
 0001:000016c0       ?_Kfn@?$_Tree@V?$_Tmap_traits@PAUlua_State@@PAVILuaInterface@@U?$less@PAUlua_State@@@std@@V?$allocator@U?$pair@QAUlua_State@@PAVILuaInterface@@@std@@@4@$0A@@std@@@std@@IBEABQAUlua_State@@ABU?$pair@QAUlua_State@@PAVILuaInterface@@@2@@Z 100026c0 f i ILuaModuleManager.obj
 0001:000016d4       ??0?$_Tree_comp@$0A@V?$_Tmap_traits@PAUlua_State@@PAVILuaInterface@@U?$less@PAUlua_State@@@std@@V?$allocator@U?$pair@QAUlua_State@@PAVILuaInterface@@@std@@@4@$0A@@std@@@std@@QAE@ABU?$less@PAUlua_State@@@1@ABV?$allocator@U?$pair@QAUlua_State@@PAVILuaInterface@@@std@@@1@@Z 100026d4 f i ILuaModuleManager.obj
 0001:000016ed       ?_Myval@?$_Tree_val@U?$_Tree_simple_types@U?$pair@QAUlua_State@@PAVILuaInterface@@@std@@@std@@@std@@SAAAU?$pair@QAUlua_State@@PAVILuaInterface@@@2@PAU?$_Tree_node@U?$pair@QAUlua_State@@PAVILuaInterface@@@std@@PAX@2@@Z 100026ed f i ILuaModuleManager.obj
 0001:000016f8       ??E?$_Tree_const_iterator@V?$_Tree_val@U?$_Tree_simple_types@U?$pair@QAUlua_State@@PAVILuaInterface@@@std@@@std@@@std@@@std@@QAE?AV01@H@Z 100026f8 f i ILuaModuleManager.obj
 0001:0000171f       ??9?$_Tree_const_iterator@V?$_Tree_val@U?$_Tree_simple_types@U?$pair@QAUlua_State@@PAVILuaInterface@@@std@@@std@@@std@@@std@@QBE_NABV01@@Z 1000271f f i ILuaModuleManager.obj
 0001:0000174d       ??0?$_Tree_iterator@V?$_Tree_val@U?$_Tree_simple_types@U?$pair@QAUlua_State@@PAVILuaInterface@@@std@@@std@@@std@@@std@@QAE@PAU?$_Tree_node@U?$pair@QAUlua_State@@PAVILuaInterface@@@std@@PAX@1@PBV?$_Tree_val@U?$_Tree_simple_types@U?$pair@QAUlua_State@@PAVILuaInterface@@@std@@@std@@@1@@Z 1000274d f i ILuaModuleManager.obj
 0001:00001769       ??D?$_Tree_iterator@V?$_Tree_val@U?$_Tree_simple_types@U?$pair@QAUlua_State@@PAVILuaInterface@@@std@@@std@@@std@@@std@@QBEAAU?$pair@QAUlua_State@@PAVILuaInterface@@@1@XZ 10002769 f i ILuaModuleManager.obj
 0001:0000177a       ?pointer_to@?$pointer_traits@PAU?$pair@QAUlua_State@@PAVILuaInterface@@@std@@@std@@SAPAU?$pair@QAUlua_State@@PAVILuaInterface@@@2@AAU32@@Z 1000277a f i ILuaModuleManager.obj
 0001:00001788       ?_Erase@?$_Tree@V?$_Tmap_traits@PAUlua_State@@PAVILuaInterface@@U?$less@PAUlua_State@@@std@@V?$allocator@U?$pair@QAUlua_State@@PAVILuaInterface@@@std@@@4@$0A@@std@@@std@@IAEXPAU?$_Tree_node@U?$pair@QAUlua_State@@PAVILuaInterface@@@std@@PAX@2@@Z 10002788 f i ILuaModuleManager.obj
 0001:00001812       ?_Lmost@?$_Tree@V?$_Tmap_traits@PAUlua_State@@PAVILuaInterface@@U?$less@PAUlua_State@@@std@@V?$allocator@U?$pair@QAUlua_State@@PAVILuaInterface@@@std@@@4@$0A@@std@@@std@@IBEAAPAU?$_Tree_node@U?$pair@QAUlua_State@@PAVILuaInterface@@@std@@PAX@2@XZ 10002812 f i ILuaModuleManager.obj
 0001:00001826       ?_Lrotate@?$_Tree@V?$_Tmap_traits@PAUlua_State@@PAVILuaInterface@@U?$less@PAUlua_State@@@std@@V?$allocator@U?$pair@QAUlua_State@@PAVILuaInterface@@@std@@@4@$0A@@std@@@std@@IAEXPAU?$_Tree_node@U?$pair@QAUlua_State@@PAVILuaInterface@@@std@@PAX@2@@Z 10002826 f i ILuaModuleManager.obj
 0001:00001920       ?_Rmost@?$_Tree@V?$_Tmap_traits@PAUlua_State@@PAVILuaInterface@@U?$less@PAUlua_State@@@std@@V?$allocator@U?$pair@QAUlua_State@@PAVILuaInterface@@@std@@@4@$0A@@std@@@std@@IBEAAPAU?$_Tree_node@U?$pair@QAUlua_State@@PAVILuaInterface@@@std@@PAX@2@XZ 10002920 f i ILuaModuleManager.obj
 0001:00001934       ?_Root@?$_Tree@V?$_Tmap_traits@PAUlua_State@@PAVILuaInterface@@U?$less@PAUlua_State@@@std@@V?$allocator@U?$pair@QAUlua_State@@PAVILuaInterface@@@std@@@4@$0A@@std@@@std@@IBEAAPAU?$_Tree_node@U?$pair@QAUlua_State@@PAVILuaInterface@@@std@@PAX@2@XZ 10002934 f i ILuaModuleManager.obj
 0001:00001948       ?_Rrotate@?$_Tree@V?$_Tmap_traits@PAUlua_State@@PAVILuaInterface@@U?$less@PAUlua_State@@@std@@V?$allocator@U?$pair@QAUlua_State@@PAVILuaInterface@@@std@@@4@$0A@@std@@@std@@IAEXPAU?$_Tree_node@U?$pair@QAUlua_State@@PAVILuaInterface@@@std@@PAX@2@@Z 10002948 f i ILuaModuleManager.obj
 0001:00001a42       ??0?$_Tree_buy@U?$pair@QAUlua_State@@PAVILuaInterface@@@std@@V?$allocator@U?$pair@QAUlua_State@@PAVILuaInterface@@@std@@@2@@std@@QAE@ABV?$allocator@U?$pair@QAUlua_State@@PAVILuaInterface@@@std@@@1@@Z 10002a42 f i ILuaModuleManager.obj
 0001:00001a5b       ?_Getal@?$_String_alloc@$0A@U?$_String_base_types@DV?$allocator@D@std@@@std@@@std@@QBE?AU?$_Wrap_alloc@V?$allocator@D@std@@@2@XZ 10002a5b f i ILuaObject.obj
 0001:00001a5b       ?_Getal@?$_Tree_alloc@$0A@U?$_Tree_base_types@U?$pair@QAUlua_State@@PAVILuaInterface@@@std@@V?$allocator@U?$pair@QAUlua_State@@PAVILuaInterface@@@std@@@2@@std@@@std@@QBE?AU?$_Wrap_alloc@V?$allocator@U?$_Tree_node@U?$pair@QAUlua_State@@PAVILuaInterface@@@std@@PAX@std@@@std@@@2@XZ 10002a5b f i ILuaModuleManager.obj
 0001:00001a71       ?deallocate@?$_Wrap_alloc@V?$allocator@U?$_Tree_node@U?$pair@QAUlua_State@@PAVILuaInterface@@@std@@PAX@std@@@std@@@std@@QAEXPAU?$_Tree_node@U?$pair@QAUlua_State@@PAVILuaInterface@@@std@@PAX@2@I@Z 10002a71 f i ILuaModuleManager.obj
 0001:00001a71       ?deallocate@?$_Wrap_alloc@V?$allocator@D@std@@@std@@QAEXPADI@Z 10002a71 f i ILuaObject.obj
 0001:00001a8a       ?_Color@?$_Tree_val@U?$_Tree_simple_types@U?$pair@QAUlua_State@@PAVILuaInterface@@@std@@@std@@@std@@SAAADPAU?$_Tree_node@U?$pair@QAUlua_State@@PAVILuaInterface@@@std@@PAX@2@@Z 10002a8a f i ILuaModuleManager.obj
 0001:00001a95       ?_Isnil@?$_Tree_val@U?$_Tree_simple_types@U?$pair@QAUlua_State@@PAVILuaInterface@@@std@@@std@@@std@@SAAADPAU?$_Tree_node@U?$pair@QAUlua_State@@PAVILuaInterface@@@std@@PAX@2@@Z 10002a95 f i ILuaModuleManager.obj
 0001:00001aa0       ??$forward@AAU?$pair@QAUlua_State@@PAVILuaInterface@@@std@@@std@@YAAAU?$pair@QAUlua_State@@PAVILuaInterface@@@0@AAU10@@Z 10002aa0 f i ILuaModuleManager.obj
 0001:00001aa0       ??$forward@AAPAU?$_Tree_node@U?$pair@QAUlua_State@@PAVILuaInterface@@@std@@PAX@std@@@std@@YAAAPAU?$_Tree_node@U?$pair@QAUlua_State@@PAVILuaInterface@@@std@@PAX@0@AAPAU10@@Z 10002aa0 f i ILuaModuleManager.obj
 0001:00001aa0       ??$addressof@D@std@@YAPADAAD@Z 10002aa0 f i ILuaObject.obj
 0001:00001aa0       ??$_Kfn@QAUlua_State@@PAVILuaInterface@@@?$_Tmap_traits@PAUlua_State@@PAVILuaInterface@@U?$less@PAUlua_State@@@std@@V?$allocator@U?$pair@QAUlua_State@@PAVILuaInterface@@@std@@@4@$0A@@std@@SAABQAUlua_State@@ABU?$pair@QAUlua_State@@PAVILuaInterface@@@1@@Z 10002aa0 f i ILuaModuleManager.obj
 0001:00001aa0       ??$forward@U?$pair@PAUlua_State@@PAVILuaInterface@@@std@@@std@@YA$$QAU?$pair@PAUlua_State@@PAVILuaInterface@@@0@AAU10@@Z 10002aa0 f i ILuaModuleManager.obj
 0001:00001aa0       ??$forward@PAVILuaInterface@@@std@@YA$$QAPAVILuaInterface@@AAPAV1@@Z 10002aa0 f i ILuaModuleManager.obj
 0001:00001aa0       ??$forward@ABQAUlua_State@@@std@@YAABQAUlua_State@@ABQAU1@@Z 10002aa0 f i ILuaModuleManager.obj
 0001:00001aa0       ??$forward@AAPAD@std@@YAAAPADAAPAD@Z 10002aa0 f i ILuaObject.obj
 0001:00001aa0       ??$addressof@PAU?$_Tree_node@U?$pair@QAUlua_State@@PAVILuaInterface@@@std@@PAX@std@@@std@@YAPAPAU?$_Tree_node@U?$pair@QAUlua_State@@PAVILuaInterface@@@std@@PAX@0@AAPAU10@@Z 10002aa0 f i ILuaModuleManager.obj
 0001:00001aa0       ??$forward@V?$_Tree_iterator@V?$_Tree_val@U?$_Tree_simple_types@U?$pair@QAUlua_State@@PAVILuaInterface@@@std@@@std@@@std@@@std@@@std@@YA$$QAV?$_Tree_iterator@V?$_Tree_val@U?$_Tree_simple_types@U?$pair@QAUlua_State@@PAVILuaInterface@@@std@@@std@@@std@@@0@AAV10@@Z 10002aa0 f i ILuaModuleManager.obj
 0001:00001aa0       ??$addressof@U?$pair@QAUlua_State@@PAVILuaInterface@@@std@@@std@@YAPAU?$pair@QAUlua_State@@PAVILuaInterface@@@0@AAU10@@Z 10002aa0 f i ILuaModuleManager.obj
 0001:00001aa0       ??$forward@AAV?$_Tree_iterator@V?$_Tree_val@U?$_Tree_simple_types@U?$pair@QAUlua_State@@PAVILuaInterface@@@std@@@std@@@std@@@std@@@std@@YAAAV?$_Tree_iterator@V?$_Tree_val@U?$_Tree_simple_types@U?$pair@QAUlua_State@@PAVILuaInterface@@@std@@@std@@@std@@@0@AAV10@@Z 10002aa0 f i ILuaModuleManager.obj
 0001:00001aa0       ??$forward@PAUlua_State@@@std@@YA$$QAPAUlua_State@@AAPAU1@@Z 10002aa0 f i ILuaModuleManager.obj
 0001:00001aa0       ??$_Move@AAD@std@@YA$$QADAAD@Z 10002aa0 f i ILuaModuleManager.obj
 0001:00001aa0       ??$forward@_N@std@@YA$$QA_NAA_N@Z 10002aa0 f i ILuaModuleManager.obj
 0001:00001aa0       ?_Left@?$_Tree_val@U?$_Tree_simple_types@U?$pair@QAUlua_State@@PAVILuaInterface@@@std@@@std@@@std@@SAAAPAU?$_Tree_node@U?$pair@QAUlua_State@@PAVILuaInterface@@@std@@PAX@2@PAU32@@Z 10002aa0 f i ILuaModuleManager.obj
 0001:00001aa8       ?_Parent@?$_Tree_val@U?$_Tree_simple_types@U?$pair@QAUlua_State@@PAVILuaInterface@@@std@@@std@@@std@@SAAAPAU?$_Tree_node@U?$pair@QAUlua_State@@PAVILuaInterface@@@std@@PAX@2@PAU32@@Z 10002aa8 f i ILuaModuleManager.obj
 0001:00001ab3       ?_Right@?$_Tree_val@U?$_Tree_simple_types@U?$pair@QAUlua_State@@PAVILuaInterface@@@std@@@std@@@std@@SAAAPAU?$_Tree_node@U?$pair@QAUlua_State@@PAVILuaInterface@@@std@@PAX@2@PAU32@@Z 10002ab3 f i ILuaModuleManager.obj
 0001:00001abe       ?_Max@?$_Tree_val@U?$_Tree_simple_types@U?$pair@QAUlua_State@@PAVILuaInterface@@@std@@@std@@@std@@SAPAU?$_Tree_node@U?$pair@QAUlua_State@@PAVILuaInterface@@@std@@PAX@2@PAU32@@Z 10002abe f i ILuaModuleManager.obj
 0001:00001aee       ?_Min@?$_Tree_val@U?$_Tree_simple_types@U?$pair@QAUlua_State@@PAVILuaInterface@@@std@@@std@@@std@@SAPAU?$_Tree_node@U?$pair@QAUlua_State@@PAVILuaInterface@@@std@@PAX@2@PAU32@@Z 10002aee f i ILuaModuleManager.obj
 0001:00001b1e       ??0?$_Tree_const_iterator@V?$_Tree_val@U?$_Tree_simple_types@U?$pair@QAUlua_State@@PAVILuaInterface@@@std@@@std@@@std@@@std@@QAE@PAU?$_Tree_node@U?$pair@QAUlua_State@@PAVILuaInterface@@@std@@PAX@1@PBV?$_Tree_val@U?$_Tree_simple_types@U?$pair@QAUlua_State@@PAVILuaInterface@@@std@@@std@@@1@@Z 10002b1e f i ILuaModuleManager.obj
 0001:00001b3a       ??D?$_Tree_const_iterator@V?$_Tree_val@U?$_Tree_simple_types@U?$pair@QAUlua_State@@PAVILuaInterface@@@std@@@std@@@std@@@std@@QBEABU?$pair@QAUlua_State@@PAVILuaInterface@@@1@XZ 10002b3a f i ILuaModuleManager.obj
 0001:00001b4e       ??E?$_Tree_const_iterator@V?$_Tree_val@U?$_Tree_simple_types@U?$pair@QAUlua_State@@PAVILuaInterface@@@std@@@std@@@std@@@std@@QAEAAV01@XZ 10002b4e f i ILuaModuleManager.obj
 0001:00001b62       ??0?$_Tree_alloc@$0A@U?$_Tree_base_types@U?$pair@QAUlua_State@@PAVILuaInterface@@@std@@V?$allocator@U?$pair@QAUlua_State@@PAVILuaInterface@@@std@@@2@@std@@@std@@QAE@ABV?$allocator@U?$pair@QAUlua_State@@PAVILuaInterface@@@std@@@1@@Z 10002b62 f i ILuaModuleManager.obj
 0001:00001b85       ??0?$_Wrap_alloc@V?$allocator@D@std@@@std@@QAE@XZ 10002b85 f i ILuaObject.obj
 0001:00001b85       ??0VectorAligned@@QAE@XZ   10002b85 f i gmutility.obj
 0001:00001b85       ??0cplane_t@@QAE@XZ        10002b85 f i nav.obj
 0001:00001b85       ??0?$_Wrap_alloc@V?$allocator@U?$_Tree_node@U?$pair@QAUlua_State@@PAVILuaInterface@@@std@@PAX@std@@@std@@@std@@QAE@XZ 10002b85 f i ILuaModuleManager.obj
 0001:00001b99       ?deallocate@?$allocator@U?$_Tree_node@U?$pair@QAUlua_State@@PAVILuaInterface@@@std@@PAX@std@@@std@@QAEXPAU?$_Tree_node@U?$pair@QAUlua_State@@PAVILuaInterface@@@std@@PAX@2@I@Z 10002b99 f i ILuaModuleManager.obj
 0001:00001b99       ?deallocate@?$allocator@D@std@@QAEXPADI@Z 10002b99 f i ILuaObject.obj
 0001:00001bad       ??0?$_Tree_unchecked_const_iterator@V?$_Tree_val@U?$_Tree_simple_types@U?$pair@QAUlua_State@@PAVILuaInterface@@@std@@@std@@@std@@U_Iterator_base0@2@@std@@QAE@PAU?$_Tree_node@U?$pair@QAUlua_State@@PAVILuaInterface@@@std@@PAX@1@PBV?$_Tree_val@U?$_Tree_simple_types@U?$pair@QAUlua_State@@PAVILuaInterface@@@std@@@std@@@1@@Z 10002bad f i ILuaModuleManager.obj
 0001:00001bce       ??E?$_Tree_unchecked_const_iterator@V?$_Tree_val@U?$_Tree_simple_types@U?$pair@QAUlua_State@@PAVILuaInterface@@@std@@@std@@@std@@U_Iterator_base0@2@@std@@QAEAAV01@XZ 10002bce f i ILuaModuleManager.obj
 0001:00001c67       ?_Buyheadnode@?$_Tree_alloc@$0A@U?$_Tree_base_types@U?$pair@QAUlua_State@@PAVILuaInterface@@@std@@V?$allocator@U?$pair@QAUlua_State@@PAVILuaInterface@@@std@@@2@@std@@@std@@QAEPAU?$_Tree_node@U?$pair@QAUlua_State@@PAVILuaInterface@@@std@@PAX@2@XZ 10002c67 f i ILuaModuleManager.obj
 0001:00001da3       ??0?$_Tree_val@U?$_Tree_simple_types@U?$pair@QAUlua_State@@PAVILuaInterface@@@std@@@std@@@std@@QAE@XZ 10002da3 f i ILuaModuleManager.obj
 0001:00001dbc       ?allocate@?$_Wrap_alloc@V?$allocator@U?$_Tree_node@U?$pair@QAUlua_State@@PAVILuaInterface@@@std@@PAX@std@@@std@@@std@@QAEPAU?$_Tree_node@U?$pair@QAUlua_State@@PAVILuaInterface@@@std@@PAX@2@I@Z 10002dbc f i ILuaModuleManager.obj
 0001:00001dd2       ?allocate@?$allocator@U?$_Tree_node@U?$pair@QAUlua_State@@PAVILuaInterface@@@std@@PAX@std@@@std@@QAEPAU?$_Tree_node@U?$pair@QAUlua_State@@PAVILuaInterface@@@std@@PAX@2@I@Z 10002dd2 f i ILuaModuleManager.obj
 0001:00001de9       ??$?0ABQAUlua_State@@PAVILuaInterface@@@?$pair@PAUlua_State@@PAVILuaInterface@@@std@@QAE@ABQAUlua_State@@$$QAPAVILuaInterface@@PAPAX@Z 10002de9 f i ILuaModuleManager.obj
 0001:00001e18       ??$insert@U?$pair@PAUlua_State@@PAVILuaInterface@@@std@@@?$_Tree@V?$_Tmap_traits@PAUlua_State@@PAVILuaInterface@@U?$less@PAUlua_State@@@std@@V?$allocator@U?$pair@QAUlua_State@@PAVILuaInterface@@@std@@@4@$0A@@std@@@std@@QAE?AV?$_Tree_iterator@V?$_Tree_val@U?$_Tree_simple_types@U?$pair@QAUlua_State@@PAVILuaInterface@@@std@@@std@@@std@@@1@V?$_Tree_const_iterator@V?$_Tree_val@U?$_Tree_simple_types@U?$pair@QAUlua_State@@PAVILuaInterface@@@std@@@std@@@std@@@1@$$QAU?$pair@PAUlua_State@@PAVILuaInterface@@@1@@Z 10002e18 f i ILuaModuleManager.obj
 0001:00001e57       ??$?0V?$_Tree_iterator@V?$_Tree_val@U?$_Tree_simple_types@U?$pair@QAUlua_State@@PAVILuaInterface@@@std@@@std@@@std@@@std@@V01@@?$pair@V?$_Tree_iterator@V?$_Tree_val@U?$_Tree_simple_types@U?$pair@QAUlua_State@@PAVILuaInterface@@@std@@@std@@@std@@@std@@V12@@std@@QAE@$$QAU01@PAPAX@Z 10002e57 f i ILuaModuleManager.obj
 0001:00001e8a       ??$_Distance@V?$_Tree_iterator@V?$_Tree_val@U?$_Tree_simple_types@U?$pair@QAUlua_State@@PAVILuaInterface@@@std@@@std@@@std@@@std@@I@std@@YAXV?$_Tree_iterator@V?$_Tree_val@U?$_Tree_simple_types@U?$pair@QAUlua_State@@PAVILuaInterface@@@std@@@std@@@std@@@0@0AAI@Z 10002e8a f i ILuaModuleManager.obj
 0001:00001eb6       ??$swap@D@std@@YAXAAD0@Z   10002eb6 f i ILuaModuleManager.obj
 0001:00001eeb       ??$destroy@PAU?$_Tree_node@U?$pair@QAUlua_State@@PAVILuaInterface@@@std@@PAX@std@@@?$_Wrap_alloc@V?$allocator@U?$_Tree_node@U?$pair@QAUlua_State@@PAVILuaInterface@@@std@@PAX@std@@@std@@@std@@QAEXPAPAU?$_Tree_node@U?$pair@QAUlua_State@@PAVILuaInterface@@@std@@PAX@1@@Z 10002eeb f i ILuaModuleManager.obj
 0001:00001eeb       ??$destroy@U?$pair@QAUlua_State@@PAVILuaInterface@@@std@@@?$_Wrap_alloc@V?$allocator@U?$_Tree_node@U?$pair@QAUlua_State@@PAVILuaInterface@@@std@@PAX@std@@@std@@@std@@QAEXPAU?$pair@QAUlua_State@@PAVILuaInterface@@@1@@Z 10002eeb f i ILuaModuleManager.obj
 0001:00001eeb       ??$destroy@PAD@?$_Wrap_alloc@V?$allocator@D@std@@@std@@QAEXPAPAD@Z 10002eeb f i ILuaObject.obj
 0001:00001f03       ??$?0AAV?$_Tree_iterator@V?$_Tree_val@U?$_Tree_simple_types@U?$pair@QAUlua_State@@PAVILuaInterface@@@std@@@std@@@std@@@std@@AAV01@@?$pair@V?$_Tree_iterator@V?$_Tree_val@U?$_Tree_simple_types@U?$pair@QAUlua_State@@PAVILuaInterface@@@std@@@std@@@std@@@std@@V12@@std@@QAE@AAV?$_Tree_iterator@V?$_Tree_val@U?$_Tree_simple_types@U?$pair@QAUlua_State@@PAVILuaInterface@@@std@@@std@@@std@@@1@0PAPAX@Z 10002f03 f i ILuaModuleManager.obj
 0001:00001f32       ??$construct@PAU?$_Tree_node@U?$pair@QAUlua_State@@PAVILuaInterface@@@std@@PAX@std@@AAPAU12@@?$_Wrap_alloc@V?$allocator@U?$_Tree_node@U?$pair@QAUlua_State@@PAVILuaInterface@@@std@@PAX@std@@@std@@@std@@QAEXPAPAU?$_Tree_node@U?$pair@QAUlua_State@@PAVILuaInterface@@@std@@PAX@1@AAPAU21@@Z 10002f32 f i ILuaModuleManager.obj
 0001:00001f32       ??$construct@PADAAPAD@?$_Wrap_alloc@V?$allocator@D@std@@@std@@QAEXPAPADAAPAD@Z 10002f32 f i ILuaObject.obj
 0001:00001f55       ??$_Allocate@U?$_Tree_node@U?$pair@QAUlua_State@@PAVILuaInterface@@@std@@PAX@std@@@std@@YAPAU?$_Tree_node@U?$pair@QAUlua_State@@PAVILuaInterface@@@std@@PAX@0@IPAU10@@Z 10002f55 f i ILuaModuleManager.obj
 0001:00001f8e       ??$_Buynode@U?$pair@PAUlua_State@@PAVILuaInterface@@@std@@@?$_Tree_buy@U?$pair@QAUlua_State@@PAVILuaInterface@@@std@@V?$allocator@U?$pair@QAUlua_State@@PAVILuaInterface@@@std@@@2@@std@@QAEPAU?$_Tree_node@U?$pair@QAUlua_State@@PAVILuaInterface@@@std@@PAX@1@$$QAU?$pair@PAUlua_State@@PAVILuaInterface@@@1@@Z 10002f8e f i ILuaModuleManager.obj
 0001:0000205b       ??$_Insert_hint@AAU?$pair@QAUlua_State@@PAVILuaInterface@@@std@@PAU?$_Tree_node@U?$pair@QAUlua_State@@PAVILuaInterface@@@std@@PAX@2@@?$_Tree@V?$_Tmap_traits@PAUlua_State@@PAVILuaInterface@@U?$less@PAUlua_State@@@std@@V?$allocator@U?$pair@QAUlua_State@@PAVILuaInterface@@@std@@@4@$0A@@std@@@std@@IAE?AV?$_Tree_iterator@V?$_Tree_val@U?$_Tree_simple_types@U?$pair@QAUlua_State@@PAVILuaInterface@@@std@@@std@@@std@@@1@V?$_Tree_const_iterator@V?$_Tree_val@U?$_Tree_simple_types@U?$pair@QAUlua_State@@PAVILuaInterface@@@std@@@std@@@std@@@1@AAU?$pair@QAUlua_State@@PAVILuaInterface@@@1@PAU?$_Tree_node@U?$pair@QAUlua_State@@PAVILuaInterface@@@std@@PAX@1@@Z 1000305b f i ILuaModuleManager.obj
 0001:00002b5f       ??$_Iter_cat@V?$_Tree_iterator@V?$_Tree_val@U?$_Tree_simple_types@U?$pair@QAUlua_State@@PAVILuaInterface@@@std@@@std@@@std@@@std@@@std@@YA?AUbidirectional_iterator_tag@0@ABV?$_Tree_iterator@V?$_Tree_val@U?$_Tree_simple_types@U?$pair@QAUlua_State@@PAVILuaInterface@@@std@@@std@@@std@@@0@@Z 10003b5f f i ILuaModuleManager.obj
 0001:00002b70       ??$_Distance2@V?$_Tree_iterator@V?$_Tree_val@U?$_Tree_simple_types@U?$pair@QAUlua_State@@PAVILuaInterface@@@std@@@std@@@std@@@std@@I@std@@YAXV?$_Tree_iterator@V?$_Tree_val@U?$_Tree_simple_types@U?$pair@QAUlua_State@@PAVILuaInterface@@@std@@@std@@@std@@@0@0AAIUbidirectional_iterator_tag@0@@Z 10003b70 f i ILuaModuleManager.obj
 0001:00002b9f       ??$destroy@U?$pair@QAUlua_State@@PAVILuaInterface@@@std@@@?$allocator_traits@V?$allocator@U?$_Tree_node@U?$pair@QAUlua_State@@PAVILuaInterface@@@std@@PAX@std@@@std@@@std@@SAXAAV?$allocator@U?$_Tree_node@U?$pair@QAUlua_State@@PAVILuaInterface@@@std@@PAX@std@@@1@PAU?$pair@QAUlua_State@@PAVILuaInterface@@@1@@Z 10003b9f f i ILuaModuleManager.obj
 0001:00002b9f       ??$destroy@PAU?$_Tree_node@U?$pair@QAUlua_State@@PAVILuaInterface@@@std@@PAX@std@@@?$allocator_traits@V?$allocator@U?$_Tree_node@U?$pair@QAUlua_State@@PAVILuaInterface@@@std@@PAX@std@@@std@@@std@@SAXAAV?$allocator@U?$_Tree_node@U?$pair@QAUlua_State@@PAVILuaInterface@@@std@@PAX@std@@@1@PAPAU?$_Tree_node@U?$pair@QAUlua_State@@PAVILuaInterface@@@std@@PAX@1@@Z 10003b9f f i ILuaModuleManager.obj
 0001:00002b9f       ??$destroy@PAD@?$allocator_traits@V?$allocator@D@std@@@std@@SAXAAV?$allocator@D@1@PAPAD@Z 10003b9f f i ILuaObject.obj
 0001:00002baf       ??$construct@PADAAPAD@?$allocator_traits@V?$allocator@D@std@@@std@@SAXAAV?$allocator@D@1@PAPADAAPAD@Z 10003baf f i ILuaObject.obj
 0001:00002baf       ??$construct@PAU?$_Tree_node@U?$pair@QAUlua_State@@PAVILuaInterface@@@std@@PAX@std@@AAPAU12@@?$allocator_traits@V?$allocator@U?$_Tree_node@U?$pair@QAUlua_State@@PAVILuaInterface@@@std@@PAX@std@@@std@@@std@@SAXAAV?$allocator@U?$_Tree_node@U?$pair@QAUlua_State@@PAVILuaInterface@@@std@@PAX@std@@@1@PAPAU?$_Tree_node@U?$pair@QAUlua_State@@PAVILuaInterface@@@std@@PAX@1@AAPAU31@@Z 10003baf f i ILuaModuleManager.obj
 0001:00002bc9       ?category@error_code@std@@QBEABVerror_category@2@XZ 10003bc9 f i ILuaObject.obj
 0001:00002bc9       ?category@error_condition@std@@QBEABVerror_category@2@XZ 10003bc9 f i ILuaObject.obj
 0001:00002bc9       ?NumAllocated@?$CUtlMemory@PAUJobInfo_t@@H@@QBEHXZ 10003bc9 f i main.obj
 0001:00002bc9       ?size@?$_Tree@V?$_Tmap_traits@PAUlua_State@@PAVILuaInterface@@U?$less@PAUlua_State@@@std@@V?$allocator@U?$pair@QAUlua_State@@PAVILuaInterface@@@std@@@4@$0A@@std@@@std@@QBEIXZ 10003bc9 f i ILuaModuleManager.obj
 0001:00002bc9       ?NumAllocated@?$CUtlMemory@PAVNode@@H@@QBEHXZ 10003bc9 f i nav.obj
 0001:00002bd8       ?_Destroy_if_not_nil@?$_Tree@V?$_Tmap_traits@PAUlua_State@@PAVILuaInterface@@U?$less@PAUlua_State@@@std@@V?$allocator@U?$pair@QAUlua_State@@PAVILuaInterface@@@std@@@4@$0A@@std@@@std@@IAEXPAU?$_Tree_node@U?$pair@QAUlua_State@@PAVILuaInterface@@@std@@PAX@2@@Z 10003bd8 f i ILuaModuleManager.obj
 0001:00002c20       ?_Buynode0@?$_Tree_buy@U?$pair@QAUlua_State@@PAVILuaInterface@@@std@@V?$allocator@U?$pair@QAUlua_State@@PAVILuaInterface@@@std@@@2@@std@@QAEPAU?$_Tree_node@U?$pair@QAUlua_State@@PAVILuaInterface@@@std@@PAX@2@XZ 10003c20 f i ILuaModuleManager.obj
 0001:00002d41       ?_Freenode0@?$_Tree_buy@U?$pair@QAUlua_State@@PAVILuaInterface@@@std@@V?$allocator@U?$pair@QAUlua_State@@PAVILuaInterface@@@std@@@2@@std@@QAEXPAU?$_Tree_node@U?$pair@QAUlua_State@@PAVILuaInterface@@@std@@PAX@2@@Z 10003d41 f i ILuaModuleManager.obj
 0001:00002dd1       ??0?$_Tree_const_iterator@V?$_Tree_val@U?$_Tree_simple_types@U?$pair@QAUlua_State@@PAVILuaInterface@@@std@@@std@@@std@@@std@@QAE@XZ 10003dd1 f i ILuaModuleManager.obj
 0001:00002de5       ??F?$_Tree_const_iterator@V?$_Tree_val@U?$_Tree_simple_types@U?$pair@QAUlua_State@@PAVILuaInterface@@@std@@@std@@@std@@@std@@QAEAAV01@XZ 10003de5 f i ILuaModuleManager.obj
 0001:00002df9       ??E?$_Tree_iterator@V?$_Tree_val@U?$_Tree_simple_types@U?$pair@QAUlua_State@@PAVILuaInterface@@@std@@@std@@@std@@@std@@QAEAAV01@XZ 10003df9 f i ILuaModuleManager.obj
 0001:00002e0d       ??0?$_Tree_unchecked_const_iterator@V?$_Tree_val@U?$_Tree_simple_types@U?$pair@QAUlua_State@@PAVILuaInterface@@@std@@@std@@@std@@U_Iterator_base0@2@@std@@QAE@XZ 10003e0d f i ILuaModuleManager.obj
 0001:00002e1f       ??F?$_Tree_unchecked_const_iterator@V?$_Tree_val@U?$_Tree_simple_types@U?$pair@QAUlua_State@@PAVILuaInterface@@@std@@@std@@@std@@U_Iterator_base0@2@@std@@QAEAAV01@XZ 10003e1f f i ILuaModuleManager.obj
 0001:00002ee1       ??$construct@U?$pair@QAUlua_State@@PAVILuaInterface@@@std@@U?$pair@PAUlua_State@@PAVILuaInterface@@@2@@?$_Wrap_alloc@V?$allocator@U?$_Tree_node@U?$pair@QAUlua_State@@PAVILuaInterface@@@std@@PAX@std@@@std@@@std@@QAEXPAU?$pair@QAUlua_State@@PAVILuaInterface@@@1@$$QAU?$pair@PAUlua_State@@PAVILuaInterface@@@1@@Z 10003ee1 f i ILuaModuleManager.obj
 0001:00002f04       ??$_Insert_at@AAU?$pair@QAUlua_State@@PAVILuaInterface@@@std@@PAU?$_Tree_node@U?$pair@QAUlua_State@@PAVILuaInterface@@@std@@PAX@2@@?$_Tree@V?$_Tmap_traits@PAUlua_State@@PAVILuaInterface@@U?$less@PAUlua_State@@@std@@V?$allocator@U?$pair@QAUlua_State@@PAVILuaInterface@@@std@@@4@$0A@@std@@@std@@IAE?AV?$_Tree_iterator@V?$_Tree_val@U?$_Tree_simple_types@U?$pair@QAUlua_State@@PAVILuaInterface@@@std@@@std@@@std@@@1@_NPAU?$_Tree_node@U?$pair@QAUlua_State@@PAVILuaInterface@@@std@@PAX@1@AAU?$pair@QAUlua_State@@PAVILuaInterface@@@1@1@Z 10003f04 f i ILuaModuleManager.obj
 0001:00003272       ??$_Insert_nohint@AAU?$pair@QAUlua_State@@PAVILuaInterface@@@std@@PAU?$_Tree_node@U?$pair@QAUlua_State@@PAVILuaInterface@@@std@@PAX@2@@?$_Tree@V?$_Tmap_traits@PAUlua_State@@PAVILuaInterface@@U?$less@PAUlua_State@@@std@@V?$allocator@U?$pair@QAUlua_State@@PAVILuaInterface@@@std@@@4@$0A@@std@@@std@@IAE?AU?$pair@V?$_Tree_iterator@V?$_Tree_val@U?$_Tree_simple_types@U?$pair@QAUlua_State@@PAVILuaInterface@@@std@@@std@@@std@@@std@@_N@1@_NAAU?$pair@QAUlua_State@@PAVILuaInterface@@@1@PAU?$_Tree_node@U?$pair@QAUlua_State@@PAVILuaInterface@@@std@@PAX@1@@Z 10004272 f i ILuaModuleManager.obj
 0001:00003608       ??$construct@PAU?$_Tree_node@U?$pair@QAUlua_State@@PAVILuaInterface@@@std@@PAX@std@@AAPAU12@@?$allocator@U?$_Tree_node@U?$pair@QAUlua_State@@PAVILuaInterface@@@std@@PAX@std@@@std@@QAEXPAPAU?$_Tree_node@U?$pair@QAUlua_State@@PAVILuaInterface@@@std@@PAX@1@AAPAU21@@Z 10004608 f i ILuaModuleManager.obj
 0001:00003608       ??$construct@PADAAPAD@?$allocator@D@std@@QAEXPAPADAAPAD@Z 10004608 f i ILuaObject.obj
 0001:0000367e       ?max_size@?$_Tree@V?$_Tmap_traits@PAUlua_State@@PAVILuaInterface@@U?$less@PAUlua_State@@@std@@V?$allocator@U?$pair@QAUlua_State@@PAVILuaInterface@@@std@@@4@$0A@@std@@@std@@QBEIXZ 1000467e f i ILuaModuleManager.obj
 0001:0000369b       ??F?$_Tree_iterator@V?$_Tree_val@U?$_Tree_simple_types@U?$pair@QAUlua_State@@PAVILuaInterface@@@std@@@std@@@std@@@std@@QAEAAV01@XZ 1000469b f i ILuaModuleManager.obj
 0001:000036af       ?max_size@?$_Wrap_alloc@V?$allocator@U?$_Tree_node@U?$pair@QAUlua_State@@PAVILuaInterface@@@std@@PAX@std@@@std@@@std@@QBEIXZ 100046af f i ILuaModuleManager.obj
 0001:000036c1       ?max_size@?$allocator_traits@V?$allocator@U?$_Tree_node@U?$pair@QAUlua_State@@PAVILuaInterface@@@std@@PAX@std@@@std@@@std@@SAIABV?$allocator@U?$_Tree_node@U?$pair@QAUlua_State@@PAVILuaInterface@@@std@@PAX@std@@@2@@Z 100046c1 f i ILuaModuleManager.obj
 0001:000036ce       ?max_size@?$allocator@U?$_Tree_node@U?$pair@QAUlua_State@@PAVILuaInterface@@@std@@PAX@std@@@std@@QBEIXZ 100046ce f i ILuaModuleManager.obj
 0001:000036dc       ??$construct@U?$pair@QAUlua_State@@PAVILuaInterface@@@std@@U?$pair@PAUlua_State@@PAVILuaInterface@@@2@@?$allocator_traits@V?$allocator@U?$_Tree_node@U?$pair@QAUlua_State@@PAVILuaInterface@@@std@@PAX@std@@@std@@@std@@SAXAAV?$allocator@U?$_Tree_node@U?$pair@QAUlua_State@@PAVILuaInterface@@@std@@PAX@std@@@1@PAU?$pair@QAUlua_State@@PAVILuaInterface@@@1@$$QAU?$pair@PAUlua_State@@PAVILuaInterface@@@1@@Z 100046dc f i ILuaModuleManager.obj
 0001:000036f6       ??$_Buynode_if_nil@AAU?$pair@QAUlua_State@@PAVILuaInterface@@@std@@@?$_Tree@V?$_Tmap_traits@PAUlua_State@@PAVILuaInterface@@U?$less@PAUlua_State@@@std@@V?$allocator@U?$pair@QAUlua_State@@PAVILuaInterface@@@std@@@4@$0A@@std@@@std@@IAEPAU?$_Tree_node@U?$pair@QAUlua_State@@PAVILuaInterface@@@std@@PAX@1@PAU21@AAU?$pair@QAUlua_State@@PAVILuaInterface@@@1@@Z 100046f6 f i ILuaModuleManager.obj
 0001:00003704       ??$?0AAV?$_Tree_iterator@V?$_Tree_val@U?$_Tree_simple_types@U?$pair@QAUlua_State@@PAVILuaInterface@@@std@@@std@@@std@@@std@@_N@?$pair@V?$_Tree_iterator@V?$_Tree_val@U?$_Tree_simple_types@U?$pair@QAUlua_State@@PAVILuaInterface@@@std@@@std@@@std@@@std@@_N@std@@QAE@AAV?$_Tree_iterator@V?$_Tree_val@U?$_Tree_simple_types@U?$pair@QAUlua_State@@PAVILuaInterface@@@std@@@std@@@std@@@1@$$QA_NPAPAX@Z 10004704 f i ILuaModuleManager.obj
 0001:00003704       ??$?0V?$_Tree_iterator@V?$_Tree_val@U?$_Tree_simple_types@U?$pair@QAUlua_State@@PAVILuaInterface@@@std@@@std@@@std@@@std@@_N@?$pair@V?$_Tree_iterator@V?$_Tree_val@U?$_Tree_simple_types@U?$pair@QAUlua_State@@PAVILuaInterface@@@std@@@std@@@std@@@std@@_N@std@@QAE@$$QAV?$_Tree_iterator@V?$_Tree_val@U?$_Tree_simple_types@U?$pair@QAUlua_State@@PAVILuaInterface@@@std@@@std@@@std@@@1@$$QA_NPAPAX@Z 10004704 f i ILuaModuleManager.obj
 0001:00003733       ??$?0V?$_Tree_iterator@V?$_Tree_val@U?$_Tree_simple_types@U?$pair@QAUlua_State@@PAVILuaInterface@@@std@@@std@@@std@@@std@@_N@?$pair@V?$_Tree_iterator@V?$_Tree_val@U?$_Tree_simple_types@U?$pair@QAUlua_State@@PAVILuaInterface@@@std@@@std@@@std@@@std@@_N@std@@QAE@$$QAU01@PAPAX@Z 10004733 f i ILuaModuleManager.obj
 0001:00003766       ??$construct@U?$pair@QAUlua_State@@PAVILuaInterface@@@std@@U?$pair@PAUlua_State@@PAVILuaInterface@@@2@@?$allocator@U?$_Tree_node@U?$pair@QAUlua_State@@PAVILuaInterface@@@std@@PAX@std@@@std@@QAEXPAU?$pair@QAUlua_State@@PAVILuaInterface@@@1@$$QAU?$pair@PAUlua_State@@PAVILuaInterface@@@1@@Z 10004766 f i ILuaModuleManager.obj
 0001:000037dd       ??$?0PAUlua_State@@PAVILuaInterface@@@?$pair@QAUlua_State@@PAVILuaInterface@@@std@@QAE@$$QAU?$pair@PAUlua_State@@PAVILuaInterface@@@1@PAPAX@Z 100047dd f i ILuaModuleManager.obj
 0001:00003810       ?length@?$char_traits@D@std@@SAIPBD@Z 10004810 f i ILuaObject.obj
 0001:00003858       ?copy@?$char_traits@D@std@@SAPADPADPBDI@Z 10004858 f i ILuaObject.obj
 0001:00003883       ?move@?$char_traits@D@std@@SAPADPADPBDI@Z 10004883 f i ILuaObject.obj
 0001:000038ae       ?assign@?$char_traits@D@std@@SAXAADABD@Z 100048ae f i ILuaObject.obj
 0001:000038bd       ??0Iterator_t@?$CUtlMemory@U?$UtlLinkedListElem_t@UGroundSeedSpot@@H@@H@@QAE@H@Z 100048bd f i nav.obj
 0001:000038bd       ??0Iterator_t@?$CUtlMemory@U?$UtlLinkedListElem_t@UAirSeedSpot@@H@@H@@QAE@H@Z 100048bd f i nav.obj
 0001:000038bd       ??0id@locale@std@@QAE@I@Z  100048bd f i ILuaObject.obj
 0001:000038d3       ??0error_category@std@@QAE@XZ 100048d3 f i ILuaObject.obj
 0001:000038e8       ??1error_category@std@@UAE@XZ 100048e8 f i ILuaObject.obj
 0001:000038fa       ??8error_category@std@@QBE_NABV01@@Z 100048fa f i ILuaObject.obj
 0001:0000391e       ??_Eerror_category@std@@UAEPAXI@Z 1000491e f i * CIL library *:* CIL module *
 0001:0000391e       ??_Gerror_category@std@@UAEPAXI@Z 1000491e f i ILuaObject.obj
 0001:00003945       ??0ILuaObject@@QAE@PAVILuaBase@Lua@GarrysMod@@H@Z 10004945 f i ILuaObject.obj
 0001:00003945       ??0error_condition@std@@QAE@HABVerror_category@1@@Z 10004945 f i ILuaObject.obj
 0001:00003964       ??8error_condition@std@@QBE_NABV01@@Z 10004964 f i ILuaObject.obj
 0001:000039b7       ?default_error_condition@error_category@std@@UBE?AVerror_condition@2@H@Z 100049b7 f i ILuaObject.obj
 0001:000039d3       ?equivalent@error_category@std@@UBE_NHABVerror_condition@2@@Z 100049d3 f i ILuaObject.obj
 0001:000039fc       ?equivalent@error_category@std@@UBE_NABVerror_code@2@H@Z 100049fc f i ILuaObject.obj
 0001:00003a3d       ??0_Generic_error_category@std@@QAE@XZ 10004a3d f i ILuaObject.obj
 0001:00003a5a       ?name@_Generic_error_category@std@@UBEPBDXZ 10004a5a f i ILuaObject.obj
 0001:00003a68       ?message@_Generic_error_category@std@@UBE?AV?$basic_string@DU?$char_traits@D@std@@V?$allocator@D@2@@2@H@Z 10004a68 f i ILuaObject.obj
 0001:00003ab1       ??_E_Generic_error_category@std@@UAEPAXI@Z 10004ab1 f i * CIL library *:* CIL module *
 0001:00003ab1       ??_G_Generic_error_category@std@@UAEPAXI@Z 10004ab1 f i ILuaObject.obj
 0001:00003ad8       ??1_Generic_error_category@std@@UAE@XZ 10004ad8 f i ILuaObject.obj
 0001:00003ae9       ??0_Iostream_error_category@std@@QAE@XZ 10004ae9 f i ILuaObject.obj
 0001:00003b06       ?name@_Iostream_error_category@std@@UBEPBDXZ 10004b06 f i ILuaObject.obj
 0001:00003b14       ?message@_Iostream_error_category@std@@UBE?AV?$basic_string@DU?$char_traits@D@std@@V?$allocator@D@2@@2@H@Z 10004b14 f i ILuaObject.obj
 0001:00003b61       ??_G_System_error_category@std@@UAEPAXI@Z 10004b61 f i ILuaObject.obj
 0001:00003b61       ??_E_System_error_category@std@@UAEPAXI@Z 10004b61 f i * CIL library *:* CIL module *
 0001:00003b61       ??_G_Iostream_error_category@std@@UAEPAXI@Z 10004b61 f i ILuaObject.obj
 0001:00003b61       ??_E_Iostream_error_category@std@@UAEPAXI@Z 10004b61 f i * CIL library *:* CIL module *
 0001:00003b88       ??1_Iostream_error_category@std@@UAE@XZ 10004b88 f i ILuaObject.obj
 0001:00003b88       ??1_System_error_category@std@@UAE@XZ 10004b88 f i ILuaObject.obj
 0001:00003b99       ??0_System_error_category@std@@QAE@XZ 10004b99 f i ILuaObject.obj
 0001:00003bb6       ?name@_System_error_category@std@@UBEPBDXZ 10004bb6 f i ILuaObject.obj
 0001:00003bc4       ?message@_System_error_category@std@@UBE?AV?$basic_string@DU?$char_traits@D@std@@V?$allocator@D@2@@2@H@Z 10004bc4 f i ILuaObject.obj
 0001:00003c0d       ?default_error_condition@_System_error_category@std@@UBE?AVerror_condition@2@H@Z 10004c0d f i ILuaObject.obj
 0001:00003c51       ?generic_category@std@@YAABVerror_category@1@XZ 10004c51 f i ILuaObject.obj
 0001:00003c5b       ?system_category@std@@YAABVerror_category@1@XZ 10004c5b f i ILuaObject.obj
 0001:00003c65       ?ValidateGrowSize@?$CUtlMemory@U?$UtlLinkedListElem_t@UGroundSeedSpot@@H@@H@@IAEXXZ 10004c65 f   nav.obj
 0001:00003c65       ?OnCall@?$CMemberFuncProxyBase@PAVNav@@P81@AEXPAUJobInfo_t@@PAVNode@@1@ZVCFuncMemPolicyNone@@@@IAEXXZ 10004c65 f   nav.obj
 0001:00003c65       ?ValidateGrowSize@?$CUtlMemory@U?$UtlLinkedListElem_t@UAirSeedSpot@@H@@H@@IAEXXZ 10004c65 f   nav.obj
 0001:00003c65       ?ValidateGrowSize@?$CUtlMemory@PAUJobInfo_t@@H@@IAEXXZ 10004c65 f   main.obj
 0001:00003c65       ??1?$CRefCountServiceBase@$00VCRefMT@@@@MAE@XZ 10004c65 f   nav.obj
 0001:00003c65       ?ValidateGrowSize@?$CUtlMemory@PAVNode@@H@@IAEXXZ 10004c65 f   main.obj
 0001:00003c65       ?OnCall@?$CMemberFuncProxyBase@PAVNav@@P81@AEXPA_N@ZVCFuncMemPolicyNone@@@@IAEXXZ 10004c65 f   nav.obj
 0001:00003c65       ??1ILuaObject@@QAE@XZ      10004c65 f   ILuaObject.obj
 0001:00003c6e       ?UnReference@ILuaObject@@QAEXXZ 10004c6e f   ILuaObject.obj
 0001:00003cb6       ??_GILuaObject@@QAEPAXI@Z  10004cb6 f i ILuaObject.obj
 0001:00003cdd       ?SetMember@ILuaObject@@QAEXPBDPAV1@@Z 10004cdd f   ILuaObject.obj
 0001:00003d2e       ?SetMember@ILuaObject@@QAEXPBDN@Z 10004d2e f   ILuaObject.obj
 0001:00003d92       ?SetMember@ILuaObject@@QAEXPBDP6AHPAUlua_State@@@Z@Z 10004d92 f   ILuaObject.obj
 0001:00003df0       ?SetMember@ILuaObject@@QAEXNPAV1@@Z 10004df0 f   ILuaObject.obj
 0001:00003e48       ?SetMember@ILuaObject@@QAEXMPAV1@@Z 10004e48 f   ILuaObject.obj
 0001:00003e6a       ?GetMember@ILuaObject@@QAEPAV1@PBD@Z 10004e6a f   ILuaObject.obj
 0001:00003f1f       ?Push@ILuaObject@@QAEXXZ   10004f1f f   ILuaObject.obj
 0001:00003f40       ??0?$basic_string@DU?$char_traits@D@std@@V?$allocator@D@2@@std@@QAE@PBD@Z 10004f40 f i ILuaObject.obj
 0001:00003f77       ?assign@?$basic_string@DU?$char_traits@D@std@@V?$allocator@D@2@@std@@QAEAAV12@PBD@Z 10004f77 f i ILuaObject.obj
 0001:00003f97       ?TellPut@CUtlBuffer@@QBEHXZ 10004f97 f i nav.obj
 0001:00003f97       ?size@?$basic_string@DU?$char_traits@D@std@@V?$allocator@D@2@@std@@QBEIXZ 10004f97 f i ILuaObject.obj
 0001:00003fa6       ?_Tidy@?$basic_string@DU?$char_traits@D@std@@V?$allocator@D@2@@std@@QAEX_NI@Z 10004fa6 f i ILuaObject.obj
 0001:00004035       ??0?$_String_alloc@$0A@U?$_String_base_types@DV?$allocator@D@std@@@std@@@std@@QAE@ABV?$allocator@D@1@@Z 10005035 f i ILuaObject.obj
 0001:0000404b       ?_Myptr@?$_String_val@U?$_Simple_types@D@std@@@std@@QAEPADXZ 1000504b f i ILuaObject.obj
 0001:0000404b       ?_Myptr@?$_String_val@U?$_Simple_types@D@std@@@std@@QBEPBDXZ 1000504b f i ILuaObject.obj
 0001:00004077       ?assign@?$basic_string@DU?$char_traits@D@std@@V?$allocator@D@2@@std@@QAEAAV12@PBDI@Z 10005077 f i ILuaObject.obj
 0001:000040eb       ?_Eos@?$basic_string@DU?$char_traits@D@std@@V?$allocator@D@2@@std@@QAEXI@Z 100050eb f i ILuaObject.obj
 0001:0000411b       ?_Xran@?$basic_string@DU?$char_traits@D@std@@V?$allocator@D@2@@std@@QBEXXZ 1000511b f i ILuaObject.obj
 0001:0000412e       ??0?$_String_val@U?$_Simple_types@D@std@@@std@@QAE@XZ 1000512e f i ILuaObject.obj
 0001:00004148       ?assign@?$basic_string@DU?$char_traits@D@std@@V?$allocator@D@2@@std@@QAEAAV12@ABV12@II@Z 10005148 f i ILuaObject.obj
 0001:000041ed       ?_Grow@?$basic_string@DU?$char_traits@D@std@@V?$allocator@D@2@@std@@QAE_NI_N@Z 100051ed f i ILuaObject.obj
 0001:0000428c       ?_Inside@?$basic_string@DU?$char_traits@D@std@@V?$allocator@D@2@@std@@QAE_NPBD@Z 1000528c f i ILuaObject.obj
 0001:000042c5       ?_Xlen@?$basic_string@DU?$char_traits@D@std@@V?$allocator@D@2@@std@@QBEXXZ 100052c5 f i ILuaObject.obj
 0001:000042d8       ?erase@?$basic_string@DU?$char_traits@D@std@@V?$allocator@D@2@@std@@QAEAAV12@I@Z 100052d8 f i ILuaObject.obj
 0001:00004304       ?erase@?$basic_string@DU?$char_traits@D@std@@V?$allocator@D@2@@std@@QAEAAV12@II@Z 10005304 f i ILuaObject.obj
 0001:00004386       ?max_size@?$basic_string@DU?$char_traits@D@std@@V?$allocator@D@2@@std@@QBEIXZ 10005386 f i ILuaObject.obj
 0001:000043c0       ?_Copy@?$basic_string@DU?$char_traits@D@std@@V?$allocator@D@2@@std@@QAEXII@Z 100053c0 f i ILuaObject.obj
 0001:00004560       ?allocate@?$_Wrap_alloc@V?$allocator@D@std@@@std@@QAEPADI@Z 10005560 f i ILuaObject.obj
 0001:00004576       ?max_size@?$_Wrap_alloc@V?$allocator@D@std@@@std@@QBEIXZ 10005576 f i ILuaObject.obj
 0001:00004588       ?allocate@?$allocator@D@std@@QAEPADI@Z 10005588 f i ILuaObject.obj
 0001:0000459f       ?max_size@?$allocator_traits@V?$allocator@D@std@@@std@@SAIABV?$allocator@D@2@@Z 1000559f f i ILuaObject.obj
 0001:000045ac       ?max_size@?$allocator@D@std@@QBEIXZ 100055ac f i ILuaObject.obj
 0001:000045b8       ??$_Allocate@D@std@@YAPADIPAD@Z 100055b8 f i ILuaObject.obj
 0001:000045ea       ??0Vector@@QAE@MMM@Z       100055ea f i main.obj
 0001:0000461e       ??4Vector@@QAEAAV0@ABV0@@Z 1000561e f i main.obj
 0001:0000464e       ?VectorSubtract@@YAXABVVector@@0AAV1@@Z 1000564e f i main.obj
 0001:00004698       ?VectorLength@@YAMABVVector@@@Z 10005698 f i main.obj
 0001:000046e0       ?Length@Vector@@QBEMXZ     100056e0 f i main.obj
 0001:000046f2       ?DistTo@Vector@@QBEMABV1@@Z 100056f2 f i main.obj
 0001:00004721       ??0Vector4D@@QAE@MMMM@Z    10005721 f i main.obj
 0001:00004762       ??0ThreadPoolStartParams_t@@QAE@_NIPAHW4ThreeState_t@@IH@Z 10005762 f i main.obj
 0001:0000484d       ?IsFinished@CJob@@QBE_NXZ  1000584d f i main.obj
 0001:000048a9       _gmod13_open               100058a9 f   main.obj
 0001:000048c5       _gmod13_close              100058c5 f   main.obj
 0001:000048e8       ?NewVectorObject@@YAPAVILuaObject@@PAUlua_State@@AAVVector@@@Z 100058e8 f   main.obj
 0001:00004a3f       ?GMOD_PushVector@@YAXPAUlua_State@@AAVVector@@@Z 10005a3f f   main.obj
 0001:00004a75       ?GMOD_GetVector@@YAAAVVector@@PAUlua_State@@H@Z 10005a75 f   main.obj
 0001:00004a75       ?GetNode@@YAPAVNode@@PAUlua_State@@H@Z 10005a75 f   main.obj
 0001:00004a92       ?GetNav@@YAPAVNav@@PAUlua_State@@H@Z 10005a92 f   main.obj
 0001:00004ad7       ?PushNav@@YAXPAUlua_State@@PAVNav@@@Z 10005ad7 f   main.obj
 0001:00004b46       ?PushNode@@YAXPAUlua_State@@PAVNode@@@Z 10005b46 f   main.obj
 0001:00004bb5       ?nav_Create@@YAHPAUlua_State@@@Z 10005bb5 f   main.obj
 0001:00004c72       ?nav_Poll@@YAHPAUlua_State@@@Z 10005c72 f   main.obj
 0001:0000501c       ??_GJobInfo_t@@QAEPAXI@Z   1000601c f i main.obj
 0001:00005043       ??1JobInfo_t@@QAE@XZ       10006043 f i main.obj
 0001:00005057       ?Nav_GetNodeByID@@YAHPAUlua_State@@@Z 10006057 f   main.obj
 0001:000050d9       ?Nav_GetNodeTotal@@YAHPAUlua_State@@@Z 100060d9 f   main.obj
 0001:00005136       ?Nav_GetNodes@@YAHPAUlua_State@@@Z 10006136 f   main.obj
 0001:0000524e       ?Nav_SetupMaxDistance@@YAHPAUlua_State@@@Z 1000624e f   main.obj
 0001:000052e0       ?Nav_AddGroundSeed@@YAHPAUlua_State@@@Z 100062e0 f   main.obj
 0001:00005362       ?Nav_AddAirSeed@@YAHPAUlua_State@@@Z 10006362 f   main.obj
 0001:000053be       ?Nav_ClearGroundSeeds@@YAHPAUlua_State@@@Z 100063be f   main.obj
 0001:000053f4       ?Nav_ClearAirSeeds@@YAHPAUlua_State@@@Z 100063f4 f   main.obj
 0001:0000542a       ?Nav_Generate@@YAHPAUlua_State@@@Z 1000642a f   main.obj
 0001:000055e8       ??0JobInfo_t@@QAE@XZ       100065e8 f i main.obj
 0001:00005619       ?Nav_FullGeneration@@YAHPAUlua_State@@@Z 10006619 f   main.obj
 0001:000056b2       ?Nav_IsGenerated@@YAHPAUlua_State@@@Z 100066b2 f   main.obj
 0001:00005702       ?Nav_FindPath@@YAHPAUlua_State@@@Z 10006702 f   main.obj
 0001:00005865       ?Nav_FindPathHull@@YAHPAUlua_State@@@Z 10006865 f   main.obj
 0001:00005a2e       ?Nav_GetHeuristic@@YAHPAUlua_State@@@Z 10006a2e f   main.obj
 0001:00005a84       ?Nav_GetStart@@YAHPAUlua_State@@@Z 10006a84 f   main.obj
 0001:00005ac6       ?Nav_GetEnd@@YAHPAUlua_State@@@Z 10006ac6 f   main.obj
 0001:00005b08       ?Nav_SetHeuristic@@YAHPAUlua_State@@@Z 10006b08 f   main.obj
 0001:00005b74       ?Nav_SetStart@@YAHPAUlua_State@@@Z 10006b74 f   main.obj
 0001:00005bd3       ?Nav_SetEnd@@YAHPAUlua_State@@@Z 10006bd3 f   main.obj
 0001:00005c32       ?Nav_GetNode@@YAHPAUlua_State@@@Z 10006c32 f   main.obj
 0001:00005c9a       ?Nav_GetClosestNode@@YAHPAUlua_State@@@Z 10006c9a f   main.obj
 0001:00005d02       ?Nav_GetNodesInSphere@@YAHPAUlua_State@@@Z 10006d02 f   main.obj
 0001:00005eae       ?Nav_Save@@YAHPAUlua_State@@@Z 10006eae f   main.obj
 0001:00005f31       ?Nav_Load@@YAHPAUlua_State@@@Z 10006f31 f   main.obj
 0001:00005fb4       ?Nav_GetDiagonal@@YAHPAUlua_State@@@Z 10006fb4 f   main.obj
 0001:00006004       ?Nav_SetDiagonal@@YAHPAUlua_State@@@Z 10007004 f   main.obj
 0001:00006055       ?Nav_GetGridSize@@YAHPAUlua_State@@@Z 10007055 f   main.obj
 0001:000060ab       ?Nav_SetGridSize@@YAHPAUlua_State@@@Z 100070ab f   main.obj
 0001:00006112       ?Nav_GetMask@@YAHPAUlua_State@@@Z 10007112 f   main.obj
 0001:00006168       ?Nav_SetMask@@YAHPAUlua_State@@@Z 10007168 f   main.obj
 0001:000061cf       ?Nav_CreateNode@@YAHPAUlua_State@@@Z 100071cf f   main.obj
 0001:00006261       ?Nav_RemoveNode@@YAHPAUlua_State@@@Z 10007261 f   main.obj
 0001:000062c0       ?Node__eq@@YAHPAUlua_State@@@Z 100072c0 f   main.obj
 0001:00006351       ?Node_GetID@@YAHPAUlua_State@@@Z 10007351 f   main.obj
 0001:000063af       ?Node_GetPosition@@YAHPAUlua_State@@@Z 100073af f   main.obj
 0001:000063ea       ?Node_GetNormal@@YAHPAUlua_State@@@Z 100073ea f   main.obj
 0001:00006428       ?Node_IsDisabled@@YAHPAUlua_State@@@Z 10007428 f   main.obj
 0001:00006478       ?Node_SetDisabled@@YAHPAUlua_State@@@Z 10007478 f   main.obj
 0001:000064e2       ?Node_GetConnections@@YAHPAUlua_State@@@Z 100074e2 f   main.obj
 0001:000065ee       ?Node_IsConnected@@YAHPAUlua_State@@@Z 100075ee f   main.obj
 0001:000066b3       ?Node_SetNormal@@YAHPAUlua_State@@@Z 100076b3 f   main.obj
 0001:0000670f       ?Node_SetPosition@@YAHPAUlua_State@@@Z 1000770f f   main.obj
 0001:0000676b       ?Node_ConnectTo@@YAHPAUlua_State@@@Z 1000776b f   main.obj
 0001:00006849       ?Node_RemoveConnection@@YAHPAUlua_State@@@Z 10007849 f   main.obj
 0001:000068e6       ?Init@@YAHPAUlua_State@@@Z 100078e6 f   main.obj
 0001:00007341       ?Shutdown@@YAHPAUlua_State@@@Z 10008341 f   main.obj
 0001:000073d4       ??0?$CUtlVector@PAVNode@@V?$CUtlMemory@PAVNode@@H@@@@QAE@HH@Z 100083d4 f i main.obj
 0001:000073d4       ??0?$CUtlVector@PAUJobInfo_t@@V?$CUtlMemory@PAUJobInfo_t@@H@@@@QAE@HH@Z 100083d4 f i main.obj
 0001:00007431       ??1?$CUtlVector@PAVNode@@V?$CUtlMemory@PAVNode@@H@@@@QAE@XZ 10008431 f i main.obj
 0001:00007431       ??1?$CUtlVector@PAUJobInfo_t@@V?$CUtlMemory@PAUJobInfo_t@@H@@@@QAE@XZ 10008431 f i main.obj
 0001:0000747c       ?Element@?$CUtlVector@PAUJobInfo_t@@V?$CUtlMemory@PAUJobInfo_t@@H@@@@QAEAAPAUJobInfo_t@@H@Z 1000847c f i main.obj
 0001:0000747c       ?Element@?$CUtlVector@PAVNode@@V?$CUtlMemory@PAVNode@@H@@@@QBEABQAVNode@@H@Z 1000847c f i nav.obj
 0001:0000747c       ??A?$CUtlVector@PAUJobInfo_t@@V?$CUtlMemory@PAUJobInfo_t@@H@@@@QAEAAPAUJobInfo_t@@H@Z 1000847c f i main.obj
 0001:0000747c       ??A?$CUtlVector@PAVNode@@V?$CUtlMemory@PAVNode@@H@@@@QAEAAPAVNode@@H@Z 1000847c f i main.obj
 0001:0000747c       ?Element@?$CUtlVector@PAVNode@@V?$CUtlMemory@PAVNode@@H@@@@QAEAAPAVNode@@H@Z 1000847c f i main.obj
 0001:00007492       ?Size@?$CUtlVector@PAVNode@@V?$CUtlMemory@PAVNode@@H@@@@QBEHXZ 10008492 f i main.obj
 0001:00007492       ?Size@?$CUtlVector@PAUJobInfo_t@@V?$CUtlMemory@PAUJobInfo_t@@H@@@@QBEHXZ 10008492 f i main.obj
 0001:00007492       ?Head@?$CUtlLinkedList@UGroundSeedSpot@@H$0A@HV?$CUtlMemory@U?$UtlLinkedListElem_t@UGroundSeedSpot@@H@@H@@@@QBEHXZ 10008492 f i nav.obj
 0001:00007492       ?Count@?$CUtlVector@PAVNode@@V?$CUtlMemory@PAVNode@@H@@@@QBEHXZ 10008492 f i main.obj
 0001:00007492       ?Head@?$CUtlLinkedList@UAirSeedSpot@@H$0A@HV?$CUtlMemory@U?$UtlLinkedListElem_t@UAirSeedSpot@@H@@H@@@@QBEHXZ 10008492 f i nav.obj
 0001:000074a1       ?AddToTail@?$CUtlVector@PAVNode@@V?$CUtlMemory@PAVNode@@H@@@@QAEHABQAVNode@@@Z 100084a1 f i nav.obj
 0001:000074a1       ?AddToTail@?$CUtlVector@PAUJobInfo_t@@V?$CUtlMemory@PAUJobInfo_t@@H@@@@QAEHABQAUJobInfo_t@@@Z 100084a1 f i main.obj
 0001:000074bd       ?Remove@?$CUtlVector@PAVNode@@V?$CUtlMemory@PAVNode@@H@@@@QAEXH@Z 100084bd f i nav.obj
 0001:000074bd       ?Remove@?$CUtlVector@PAUJobInfo_t@@V?$CUtlMemory@PAUJobInfo_t@@H@@@@QAEXH@Z 100084bd f i main.obj
 0001:000074f4       ??$SafeRelease@PAVIThreadPool@@@@YAHAAPAVIThreadPool@@@Z 100084f4 f i main.obj
 0001:000074f4       ??$SafeRelease@PAVCJob@@@@YAHAAPAVCJob@@@Z 100084f4 f i main.obj
 0001:00007528       ?ResetDbgInfo@?$CUtlVector@PAVNode@@V?$CUtlMemory@PAVNode@@H@@@@IAEXXZ 10008528 f i main.obj
 0001:00007528       ?ResetDbgInfo@?$CUtlVector@PAUJobInfo_t@@V?$CUtlMemory@PAUJobInfo_t@@H@@@@IAEXXZ 10008528 f i main.obj
 0001:0000753f       ?Base@?$CUtlVector@PAUJobInfo_t@@V?$CUtlMemory@PAUJobInfo_t@@H@@@@QAEPAPAUJobInfo_t@@XZ 1000853f f i main.obj
 0001:0000753f       ?Base@?$CUtlVector@PAVNode@@V?$CUtlMemory@PAVNode@@H@@@@QAEPAPAVNode@@XZ 1000853f f i main.obj
 0001:0000753f       ?Base@CUtlBuffer@@QAEPAXXZ 1000853f f i nav.obj
 0001:00007550       ?Purge@?$CUtlVector@PAUJobInfo_t@@V?$CUtlMemory@PAUJobInfo_t@@H@@@@QAEXXZ 10008550 f i main.obj
 0001:00007550       ?Purge@?$CUtlVector@PAVNode@@V?$CUtlMemory@PAVNode@@H@@@@QAEXXZ 10008550 f i main.obj
 0001:00007571       ??0?$CUtlMemory@PAVNode@@H@@QAE@HH@Z 10008571 f i main.obj
 0001:00007571       ??0?$CUtlMemory@PAUJobInfo_t@@H@@QAE@HH@Z 10008571 f i main.obj
 0001:000075cb       ??1?$CUtlMemory@PAVNode@@H@@QAE@XZ 100085cb f i main.obj
 0001:000075cb       ??1?$CUtlMemory@U?$UtlLinkedListElem_t@UGroundSeedSpot@@H@@H@@QAE@XZ 100085cb f i nav.obj
 0001:000075cb       ??1?$CUtlMemory@EH@@QAE@XZ 100085cb f i nav.obj
 0001:000075cb       ??1?$CUtlMemory@U?$UtlLinkedListElem_t@UAirSeedSpot@@H@@H@@QAE@XZ 100085cb f i nav.obj
 0001:000075cb       ??1?$CUtlMemory@PAUJobInfo_t@@H@@QAE@XZ 100085cb f i main.obj
 0001:000075dc       ??A?$CUtlMemory@PAVNode@@H@@QBEABQAVNode@@H@Z 100085dc f i nav.obj
 0001:000075dc       ??A?$CUtlMemory@PAVNode@@H@@QAEAAPAVNode@@H@Z 100085dc f i main.obj
 0001:000075dc       ??A?$CUtlMemory@PAUJobInfo_t@@H@@QAEAAPAUJobInfo_t@@H@Z 100085dc f i main.obj
 0001:000075f2       ?InsertBefore@?$CUtlVector@PAVNode@@V?$CUtlMemory@PAVNode@@H@@@@QAEHHABQAVNode@@@Z 100085f2 f i nav.obj
 0001:000075f2       ?InsertBefore@?$CUtlVector@PAUJobInfo_t@@V?$CUtlMemory@PAUJobInfo_t@@H@@@@QAEHHABQAUJobInfo_t@@@Z 100085f2 f i main.obj
 0001:0000762d       ?ShiftElementsLeft@?$CUtlVector@PAVNode@@V?$CUtlMemory@PAVNode@@H@@@@IAEXHH@Z 1000862d f i nav.obj
 0001:0000762d       ?ShiftElementsLeft@?$CUtlVector@PAUJobInfo_t@@V?$CUtlMemory@PAUJobInfo_t@@H@@@@IAEXHH@Z 1000862d f i main.obj
 0001:0000767f       ?RemoveAll@?$CUtlVector@PAUJobInfo_t@@V?$CUtlMemory@PAUJobInfo_t@@H@@@@QAEXXZ 1000867f f i main.obj
 0001:0000767f       ?RemoveAll@?$CUtlVector@PAVNode@@V?$CUtlMemory@PAVNode@@H@@@@QAEXXZ 1000867f f i main.obj
 0001:000076b6       ?Purge@?$CUtlMemory@U?$UtlLinkedListElem_t@UGroundSeedSpot@@H@@H@@QAEXXZ 100086b6 f i nav.obj
 0001:000076b6       ?Purge@?$CUtlMemory@PAUJobInfo_t@@H@@QAEXXZ 100086b6 f i main.obj
 0001:000076b6       ?Purge@?$CUtlMemory@EH@@QAEXXZ 100086b6 f i nav.obj
 0001:000076b6       ?Purge@?$CUtlMemory@PAVNode@@H@@QAEXXZ 100086b6 f i main.obj
 0001:000076b6       ?Purge@?$CUtlMemory@U?$UtlLinkedListElem_t@UAirSeedSpot@@H@@H@@QAEXXZ 100086b6 f i nav.obj
 0001:000076fc       ?GrowVector@?$CUtlVector@PAVNode@@V?$CUtlMemory@PAVNode@@H@@@@IAEXH@Z 100086fc f i nav.obj
 0001:000076fc       ?GrowVector@?$CUtlVector@PAUJobInfo_t@@V?$CUtlMemory@PAUJobInfo_t@@H@@@@IAEXH@Z 100086fc f i main.obj
 0001:00007751       ?ShiftElementsRight@?$CUtlVector@PAUJobInfo_t@@V?$CUtlMemory@PAUJobInfo_t@@H@@@@IAEXHH@Z 10008751 f i main.obj
 0001:00007751       ?ShiftElementsRight@?$CUtlVector@PAVNode@@V?$CUtlMemory@PAVNode@@H@@@@IAEXHH@Z 10008751 f i nav.obj
 0001:000077a3       ??$CopyConstruct@PAUJobInfo_t@@@@YAXPAPAUJobInfo_t@@ABQAU0@@Z 100087a3 f i main.obj
 0001:000077a3       ??$CopyConstruct@PAVNode@@@@YAXPAPAVNode@@ABQAV0@@Z 100087a3 f i nav.obj
 0001:000077d5       ?IsExternallyAllocated@?$CUtlMemory@EH@@QBE_NXZ 100087d5 f i nav.obj
 0001:000077d5       ?IsExternallyAllocated@?$CUtlMemory@PAVNode@@H@@QBE_NXZ 100087d5 f i main.obj
 0001:000077d5       ?IsExternallyAllocated@?$CUtlMemory@U?$UtlLinkedListElem_t@UGroundSeedSpot@@H@@H@@QBE_NXZ 100087d5 f i nav.obj
 0001:000077d5       ?IsExternallyAllocated@?$CUtlMemory@U?$UtlLinkedListElem_t@UAirSeedSpot@@H@@H@@QBE_NXZ 100087d5 f i nav.obj
 0001:000077d5       ?IsExternallyAllocated@?$CUtlMemory@PAUJobInfo_t@@H@@QBE_NXZ 100087d5 f i main.obj
 0001:000077f8       ?Grow@?$CUtlMemory@PAVNode@@H@@QAEXH@Z 100087f8 f i nav.obj
 0001:000077f8       ?Grow@?$CUtlMemory@PAUJobInfo_t@@H@@QAEXH@Z 100087f8 f i main.obj
 0001:000078f2       _fabsf                     100088f2 f i nav.obj
 0001:00007911       _sqrtf                     10008911 f i nav.obj
 0001:0000792d       ?fabs@@YAMM@Z              1000892d f i nav.obj
 0001:0000792d       ?abs@@YAMM@Z               1000892d f i nav.obj
 0001:00007943       ?pow@@YAMMH@Z              10008943 f i nav.obj
 0001:0000795d       ?sqrt@@YAMM@Z              1000895d f i nav.obj
 0001:00007973       ?V_memcpy@@YAXPAXPBXH@Z    10008973 f i nav.obj
 0001:00007989       ?ThreadInterlockedIncrement@@YAJPCJ@Z 10008989 f i nav.obj
 0001:0000799b       ?ThreadInterlockedDecrement@@YAJPCJ@Z 1000899b f i nav.obj
 0001:000079ad       ?IsZero@Vector@@QBE_NM@Z   100089ad f i nav.obj
 0001:00007a3c       ?VectorAdd@@YAXABVVector@@0AAV1@@Z 10008a3c f i nav.obj
 0001:00007a86       ?VectorMultiply@@YAXABVVector@@MAAV1@@Z 10008a86 f i nav.obj
 0001:00007ac8       ??HVector@@QBE?AV0@ABV0@@Z 10008ac8 f i nav.obj
 0001:00007aff       ??GVector@@QBE?AV0@ABV0@@Z 10008aff f i nav.obj
 0001:00007b36       ??DVector@@QBE?AV0@M@Z     10008b36 f i nav.obj
 0001:00007b75       ??0CBaseTrace@@QAE@XZ      10008b75 f i nav.obj
 0001:00007b9f       ??0CGameTrace@@QAE@XZ      10008b9f f i nav.obj
 0001:00007bb3       ?DidHit@CGameTrace@@QBE_NXZ 10008bb3 f i nav.obj
 0001:00007bf4       ?IsSwappingBytes@CByteswap@@QAE_NXZ 10008bf4 f i nav.obj
 0001:00007c05       ?PeekGet@CUtlBuffer@@QBEPBXH@Z 10008c05 f i nav.obj
 0001:00007c28       ??$GetTypeBin@M@CUtlBuffer@@IAEXAAM@Z 10008c28 f i nav.obj
 0001:00007d0b       ?GetInt@CUtlBuffer@@QAEHXZ 10008d0b f i nav.obj
 0001:00007d29       ?GetFloat@CUtlBuffer@@QAEMXZ 10008d29 f i nav.obj
 0001:00007d47       ?PeekPut@CUtlBuffer@@QAEPAXH@Z 10008d47 f i nav.obj
 0001:00007d6a       ?PutInt@CUtlBuffer@@QAEXH@Z 10008d6a f i nav.obj
 0001:00007d85       ?PutFloat@CUtlBuffer@@QAEXM@Z 10008d85 f i nav.obj
 0001:00007da8       ?IsText@CUtlBuffer@@QBE_NXZ 10008da8 f i nav.obj
 0001:00007dce       ?Increment@CRefMT@@SAHPAH@Z 10008dce f i nav.obj
 0001:00007ddc       ?Decrement@CRefMT@@SAHPAH@Z 10008ddc f i nav.obj
 0001:00007dea       ??0CFunctor@@QAE@XZ        10008dea f i nav.obj
 0001:00007e07       ??0IRefCounted@@QAE@XZ     10008e07 f i nav.obj
 0001:00007e1c       ??0Nav@@QAE@PAVGMUtility@@PAVIThreadPool@@PAVIFileSystem@@H@Z 10008e1c f   nav.obj
 0001:00007fd9       ?OppositeDirection@Nav@@SA?AW4NavDirType@@W42@@Z 10008fd9 f   nav.obj
 0001:00008075       ?SetGridSize@Nav@@QAEXH@Z  10009075 f   nav.obj
 0001:000080cd       ?GetNode@Nav@@QAEPAVNode@@ABVVector@@@Z 100090cd f   nav.obj
 0001:000081ab       ?GetNodeByID@Nav@@QAEPAVNode@@H@Z 100091ab f   nav.obj
 0001:000081df       ?AddNode@Nav@@QAEPAVNode@@ABVVector@@0W4NavDirType@@PAV2@@Z 100091df f   nav.obj
 0001:00008389       ?RemoveNode@Nav@@QAEXPAVNode@@@Z 10009389 f   nav.obj
 0001:0000841e       ?GetGridSize@Nav@@QAEHXZ   1000941e f   nav.obj
 0001:0000842d       ?IsGenerated@Nav@@QAE_NXZ  1000942d f   nav.obj
 0001:0000843b       ?SnapToGrid@Nav@@QAE?AVVector@@ABV2@_N1@Z 1000943b f   nav.obj
 0001:000084c3       ?Round@Nav@@QAEMMM@Z       100094c3 f   nav.obj
 0001:0000853d       ?GetGroundHeight@Nav@@QAE_NABVVector@@PAMPAV2@@Z 1000953d f   nav.obj
 0001:00008849       ??0GroundLayerInfo@?1??GetGroundHeight@Nav@@QAE_NABVVector@@PAMPAV3@@Z@QAE@XZ 10009849 f i nav.obj
 0001:00008860       ?GenerateQueue@Nav@@QAEPAVCJob@@PAUJobInfo_t@@@Z 10009860 f   nav.obj
 0001:000088a3       ?FullGeneration@Nav@@QAEXPA_N@Z 100098a3 f   nav.obj
 0001:00008991       ?ResetGeneration@Nav@@QAEXXZ 10009991 f   nav.obj
 0001:000089d4       ?SetupMaxDistance@Nav@@QAEXABVVector@@H@Z 100099d4 f   nav.obj
 0001:000089f6       ?AddGroundSeed@Nav@@QAEXABVVector@@0@Z 100099f6 f   nav.obj
 0001:00008a44       ??0GroundSeedSpot@@QAE@XZ  10009a44 f i nav.obj
 0001:00008a44       ??0AirSeedSpot@@QAE@XZ     10009a44 f i nav.obj
 0001:00008a63       ?AddAirSeed@Nav@@QAEXABVVector@@@Z 10009a63 f   nav.obj
 0001:00008aa6       ?ClearGroundSeeds@Nav@@QAEXXZ 10009aa6 f   nav.obj
 0001:00008abd       ?ClearAirSeeds@Nav@@QAEXXZ 10009abd f   nav.obj
 0001:00008ad4       ?GetNextGroundSeedNode@Nav@@QAEPAVNode@@XZ 10009ad4 f   nav.obj
 0001:00008e4c       ?GetNextAirSeedNode@Nav@@QAEPAVNode@@XZ 10009e4c f   nav.obj
 0001:00008faf       ?SampleStep@Nav@@QAE_NXZ   10009faf f   nav.obj
 0001:00009ba3       ?Save@Nav@@QAE_NPBD@Z      1000aba3 f   nav.obj
 0001:00009e17       ??1CUtlBuffer@@QAE@XZ      1000ae17 f i nav.obj
 0001:00009e28       ?Load@Nav@@QAE_NPBD@Z      1000ae28 f   nav.obj
 0001:0000a061       ?GetNodes@Nav@@QAEAAV?$CUtlVector@PAVNode@@V?$CUtlMemory@PAVNode@@H@@@@XZ 1000b061 f   nav.obj
 0001:0000a070       ?GetClosestNode@Nav@@QAEPAVNode@@ABVVector@@@Z 1000b070 f   nav.obj
 0001:0000a0fa       ?Reset@Nav@@QAEXXZ         1000b0fa f   nav.obj
 0001:0000a167       ?AddOpenedNode@Nav@@QAEXPAVNode@@@Z 1000b167 f   nav.obj
 0001:0000a18e       ?AddClosedNode@Nav@@QAEXPAVNode@@@Z 1000b18e f   nav.obj
 0001:0000a1cd       ?HeuristicDistance@Nav@@QAEMPBVVector@@0@Z 1000b1cd f   nav.obj
 0001:0000a214       ?ManhattanDistance@Nav@@QAEMPBVVector@@0@Z 1000b214 f   nav.obj
 0001:0000a2a7       ?EuclideanDistance@Nav@@QAEMPBVVector@@0@Z 1000b2a7 f   nav.obj
 0001:0000a347       ?FindLowestF@Nav@@QAEPAVNode@@XZ 1000b347 f   nav.obj
 0001:0000a3d7       ?FindPathQueue@Nav@@QAEPAVCJob@@PAUJobInfo_t@@@Z 1000b3d7 f   nav.obj
 0001:0000a40b       ?ExecuteFindPath@Nav@@QAEXPAUJobInfo_t@@PAVNode@@1@Z 1000b40b f   nav.obj
 0001:0000a6b3       ?GetMask@Nav@@QAEHXZ       1000b6b3 f   nav.obj
 0001:0000a6c2       ?SetMask@Nav@@QAEXH@Z      1000b6c2 f   nav.obj
 0001:0000a6d6       ?GetDiagonal@Nav@@QAE_NXZ  1000b6d6 f   nav.obj
 0001:0000a6e5       ?SetDiagonal@Nav@@QAEX_N@Z 1000b6e5 f   nav.obj
 0001:0000a71a       ?GetHeuristic@Nav@@QAEHXZ  1000b71a f   nav.obj
 0001:0000a72c       ?GetStart@Nav@@QAEPAVNode@@XZ 1000b72c f   nav.obj
 0001:0000a73e       ?GetEnd@Nav@@QAEPAVNode@@XZ 1000b73e f   nav.obj
 0001:0000a750       ?SetHeuristic@Nav@@QAEXH@Z 1000b750 f   nav.obj
 0001:0000a767       ?SetStart@Nav@@QAEXPAVNode@@@Z 1000b767 f   nav.obj
 0001:0000a77e       ?SetEnd@Nav@@QAEXPAVNode@@@Z 1000b77e f   nav.obj
 0001:0000a795       ??1?$CRefCounted1@VCFunctor@@V?$CRefCountServiceBase@$00VCRefMT@@@@@@UAE@XZ 1000b795 f i nav.obj
 0001:0000a7a9       ?AddRef@?$CRefCounted1@VCFunctor@@V?$CRefCountServiceBase@$00VCRefMT@@@@@@UAEHXZ 1000b7a9 f i nav.obj
 0001:0000a7bd       ?Release@?$CRefCounted1@VCFunctor@@V?$CRefCountServiceBase@$00VCRefMT@@@@@@UAEHXZ 1000b7bd f i nav.obj
 0001:0000a7d1       ??0?$CRefCountServiceBase@$00VCRefMT@@@@IAE@XZ 1000b7d1 f i nav.obj
 0001:0000a7e7       ?OnFinalRelease@?$CRefCountServiceBase@$00VCRefMT@@@@MAE_NXZ 1000b7e7 f i nav.obj
 0001:0000a7f2       ?DoAddRef@?$CRefCountServiceBase@$00VCRefMT@@@@IAEHXZ 1000b7f2 f i nav.obj
 0001:0000a808       ?DoRelease@?$CRefCountServiceBase@$00VCRefMT@@@@IAEHXZ 1000b808 f i nav.obj
 0001:0000a86e       ??$_Pow_int@M@@YAMMH@Z     1000b86e f i nav.obj
 0001:0000a8f6       ??A?$CUtlMemory@EH@@QAEAAEH@Z 1000b8f6 f i nav.obj
 0001:0000a8f6       ??A?$CUtlMemory@EH@@QBEABEH@Z 1000b8f6 f i nav.obj
 0001:0000a909       ?IsValidIndex@?$CUtlVector@PAVNode@@V?$CUtlMemory@PAVNode@@H@@@@QBE_NH@Z 1000b909 f i nav.obj
 0001:0000a936       ?AddToHead@?$CUtlVector@PAVNode@@V?$CUtlMemory@PAVNode@@H@@@@QAEHABQAVNode@@@Z 1000b936 f i nav.obj
 0001:0000a94e       ?EnsureCapacity@?$CUtlVector@PAVNode@@V?$CUtlMemory@PAVNode@@H@@@@QAEXH@Z 1000b94e f i nav.obj
 0001:0000a96c       ?FindAndRemove@?$CUtlVector@PAVNode@@V?$CUtlMemory@PAVNode@@H@@@@QAE_NABQAVNode@@@Z 1000b96c f i nav.obj
 0001:0000a99d       ??$SwapBufferToTargetEndian@M@CByteswap@@QAEXPAM0H@Z 1000b99d f i nav.obj
 0001:0000aa22       ??$GetType@H@CUtlBuffer@@IAEXAAHPBD@Z 1000ba22 f i nav.obj
 0001:0000aa60       ??$GetType@M@CUtlBuffer@@IAEXAAMPBD@Z 1000ba60 f i nav.obj
 0001:0000aaa7       ??$PutType@H@CUtlBuffer@@IAEXHPBD@Z 1000baa7 f i nav.obj
 0001:0000aadf       ??$PutType@M@CUtlBuffer@@IAEXMPBD@Z 1000badf f i nav.obj
 0001:0000ab28       ??0?$CUtlLinkedList@UGroundSeedSpot@@H$0A@HV?$CUtlMemory@U?$UtlLinkedListElem_t@UGroundSeedSpot@@H@@H@@@@QAE@HH@Z 1000bb28 f i nav.obj
 0001:0000ab28       ??0?$CUtlLinkedList@UAirSeedSpot@@H$0A@HV?$CUtlMemory@U?$UtlLinkedListElem_t@UAirSeedSpot@@H@@H@@@@QAE@HH@Z 1000bb28 f i nav.obj
 0001:0000ab95       ??1?$CUtlLinkedList@UGroundSeedSpot@@H$0A@HV?$CUtlMemory@U?$UtlLinkedListElem_t@UGroundSeedSpot@@H@@H@@@@QAE@XZ 1000bb95 f i nav.obj
 0001:0000ab95       ??1?$CUtlLinkedList@UAirSeedSpot@@H$0A@HV?$CUtlMemory@U?$UtlLinkedListElem_t@UAirSeedSpot@@H@@H@@@@QAE@XZ 1000bb95 f i nav.obj
 0001:0000abe0       ?InternalElement@?$CUtlLinkedList@UGroundSeedSpot@@H$0A@HV?$CUtlMemory@U?$UtlLinkedListElem_t@UGroundSeedSpot@@H@@H@@@@IBEABU?$UtlLinkedListElem_t@UGroundSeedSpot@@H@@H@Z 1000bbe0 f i nav.obj
 0001:0000abe0       ?InternalElement@?$CUtlLinkedList@UAirSeedSpot@@H$0A@HV?$CUtlMemory@U?$UtlLinkedListElem_t@UAirSeedSpot@@H@@H@@@@IBEABU?$UtlLinkedListElem_t@UAirSeedSpot@@H@@H@Z 1000bbe0 f i nav.obj
 0001:0000abe0       ?Element@?$CUtlLinkedList@UAirSeedSpot@@H$0A@HV?$CUtlMemory@U?$UtlLinkedListElem_t@UAirSeedSpot@@H@@H@@@@QAEAAUAirSeedSpot@@H@Z 1000bbe0 f i nav.obj
 0001:0000abe0       ?Element@?$CUtlLinkedList@UGroundSeedSpot@@H$0A@HV?$CUtlMemory@U?$UtlLinkedListElem_t@UGroundSeedSpot@@H@@H@@@@QAEAAUGroundSeedSpot@@H@Z 1000bbe0 f i nav.obj
 0001:0000abe0       ?InternalElement@?$CUtlLinkedList@UAirSeedSpot@@H$0A@HV?$CUtlMemory@U?$UtlLinkedListElem_t@UAirSeedSpot@@H@@H@@@@IAEAAU?$UtlLinkedListElem_t@UAirSeedSpot@@H@@H@Z 1000bbe0 f i nav.obj
 0001:0000abe0       ?InternalElement@?$CUtlLinkedList@UGroundSeedSpot@@H$0A@HV?$CUtlMemory@U?$UtlLinkedListElem_t@UGroundSeedSpot@@H@@H@@@@IAEAAU?$UtlLinkedListElem_t@UGroundSeedSpot@@H@@H@Z 1000bbe0 f i nav.obj
 0001:0000abf6       ?EnsureCapacity@?$CUtlLinkedList@UAirSeedSpot@@H$0A@HV?$CUtlMemory@U?$UtlLinkedListElem_t@UAirSeedSpot@@H@@H@@@@QAEXH@Z 1000bbf6 f i nav.obj
 0001:0000abf6       ?EnsureCapacity@?$CUtlLinkedList@UGroundSeedSpot@@H$0A@HV?$CUtlMemory@U?$UtlLinkedListElem_t@UGroundSeedSpot@@H@@H@@@@QAEXH@Z 1000bbf6 f i nav.obj
 0001:0000ac14       ?AddToTail@?$CUtlLinkedList@UGroundSeedSpot@@H$0A@HV?$CUtlMemory@U?$UtlLinkedListElem_t@UGroundSeedSpot@@H@@H@@@@QAEHABUGroundSeedSpot@@@Z 1000bc14 f i nav.obj
 0001:0000ac30       ?RemoveAll@?$CUtlLinkedList@UGroundSeedSpot@@H$0A@HV?$CUtlMemory@U?$UtlLinkedListElem_t@UGroundSeedSpot@@H@@H@@@@QAEXXZ 1000bc30 f i nav.obj
 0001:0000ac30       ?RemoveAll@?$CUtlLinkedList@UAirSeedSpot@@H$0A@HV?$CUtlMemory@U?$UtlLinkedListElem_t@UAirSeedSpot@@H@@H@@@@QAEXXZ 1000bc30 f i nav.obj
 0001:0000adce       ?Next@?$CUtlLinkedList@UGroundSeedSpot@@H$0A@HV?$CUtlMemory@U?$UtlLinkedListElem_t@UGroundSeedSpot@@H@@H@@@@QBEHH@Z 1000bdce f i nav.obj
 0001:0000adce       ?Next@?$CUtlLinkedList@UAirSeedSpot@@H$0A@HV?$CUtlMemory@U?$UtlLinkedListElem_t@UAirSeedSpot@@H@@H@@@@QBEHH@Z 1000bdce f i nav.obj
 0001:0000ade7       ?IsValidIndex@?$CUtlLinkedList@UGroundSeedSpot@@H$0A@HV?$CUtlMemory@U?$UtlLinkedListElem_t@UGroundSeedSpot@@H@@H@@@@QBE_NH@Z 1000bde7 f i nav.obj
 0001:0000ade7       ?IsValidIndex@?$CUtlLinkedList@UAirSeedSpot@@H$0A@HV?$CUtlMemory@U?$UtlLinkedListElem_t@UAirSeedSpot@@H@@H@@@@QBE_NH@Z 1000bde7 f i nav.obj
 0001:0000ae5c       ?AddToTail@?$CUtlLinkedList@UAirSeedSpot@@H$0A@HV?$CUtlMemory@U?$UtlLinkedListElem_t@UAirSeedSpot@@H@@H@@@@QAEHABUAirSeedSpot@@@Z 1000be5c f i nav.obj
 0001:0000ae78       ??$QueueCall@VNav@@V1@XPA_NPA_N@IThreadPool@@QAEPAVCJob@@PAVNav@@P82@AEXPA_N@ZABQA_N@Z 1000be78 f i nav.obj
 0001:0000aeac       ??$QueueCall@VNav@@V1@XPAUJobInfo_t@@PAVNode@@PAV3@PAU2@PAV3@PAV3@@IThreadPool@@QAEPAVCJob@@PAVNav@@P82@AEXPAUJobInfo_t@@PAVNode@@2@ZABQAU3@ABQAV4@5@Z 1000beac f i nav.obj
 0001:0000aee6       ?InvalidIndex@?$CUtlLinkedList@UGroundSeedSpot@@H$0A@HV?$CUtlMemory@U?$UtlLinkedListElem_t@UGroundSeedSpot@@H@@H@@@@SAHXZ 1000bee6 f i nav.obj
 0001:0000aee6       ?InvalidIndex@?$CUtlLinkedList@UAirSeedSpot@@H$0A@HV?$CUtlMemory@U?$UtlLinkedListElem_t@UAirSeedSpot@@H@@H@@@@SAHXZ 1000bee6 f i nav.obj
 0001:0000aef0       ?ResetDbgInfo@?$CUtlLinkedList@UGroundSeedSpot@@H$0A@HV?$CUtlMemory@U?$UtlLinkedListElem_t@UGroundSeedSpot@@H@@H@@@@IAEXXZ 1000bef0 f i nav.obj
 0001:0000aef0       ?ResetDbgInfo@?$CUtlLinkedList@UAirSeedSpot@@H$0A@HV?$CUtlMemory@U?$UtlLinkedListElem_t@UAirSeedSpot@@H@@H@@@@IAEXXZ 1000bef0 f i nav.obj
 0001:0000af07       ?First@?$CUtlMemory@U?$UtlLinkedListElem_t@UAirSeedSpot@@H@@H@@QBE?AVIterator_t@1@XZ 1000bf07 f i nav.obj
 0001:0000af07       ?First@?$CUtlMemory@U?$UtlLinkedListElem_t@UGroundSeedSpot@@H@@H@@QBE?AVIterator_t@1@XZ 1000bf07 f i nav.obj
 0001:0000af40       ?Next@?$CUtlMemory@U?$UtlLinkedListElem_t@UAirSeedSpot@@H@@H@@QBE?AVIterator_t@1@ABV21@@Z 1000bf40 f i nav.obj
 0001:0000af40       ?Next@?$CUtlMemory@U?$UtlLinkedListElem_t@UGroundSeedSpot@@H@@H@@QBE?AVIterator_t@1@ABV21@@Z 1000bf40 f i nav.obj
 0001:0000af83       ?GetIndex@?$CUtlMemory@U?$UtlLinkedListElem_t@UAirSeedSpot@@H@@H@@QBEHABVIterator_t@1@@Z 1000bf83 f i nav.obj
 0001:0000af83       ?GetIndex@?$CUtlMemory@U?$UtlLinkedListElem_t@UGroundSeedSpot@@H@@H@@QBEHABVIterator_t@1@@Z 1000bf83 f i nav.obj
 0001:0000af93       ?IsIdxAfter@?$CUtlMemory@U?$UtlLinkedListElem_t@UGroundSeedSpot@@H@@H@@QBE_NHABVIterator_t@1@@Z 1000bf93 f i nav.obj
 0001:0000af93       ?IsIdxAfter@?$CUtlMemory@U?$UtlLinkedListElem_t@UAirSeedSpot@@H@@H@@QBE_NHABVIterator_t@1@@Z 1000bf93 f i nav.obj
 0001:0000afb9       ?InvalidIterator@?$CUtlMemory@U?$UtlLinkedListElem_t@UAirSeedSpot@@H@@H@@QBE?AVIterator_t@1@XZ 1000bfb9 f i nav.obj
 0001:0000afb9       ?InvalidIterator@?$CUtlMemory@U?$UtlLinkedListElem_t@UGroundSeedSpot@@H@@H@@QBE?AVIterator_t@1@XZ 1000bfb9 f i nav.obj
 0001:0000afd5       ??8Iterator_t@?$CUtlMemory@U?$UtlLinkedListElem_t@UGroundSeedSpot@@H@@H@@QBE_NV01@@Z 1000bfd5 f i nav.obj
 0001:0000afd5       ??8Iterator_t@?$CUtlMemory@U?$UtlLinkedListElem_t@UAirSeedSpot@@H@@H@@QBE_NV01@@Z 1000bfd5 f i nav.obj
 0001:0000affb       ??9Iterator_t@?$CUtlMemory@U?$UtlLinkedListElem_t@UAirSeedSpot@@H@@H@@QBE_NV01@@Z 1000bffb f i nav.obj
 0001:0000affb       ??9Iterator_t@?$CUtlMemory@U?$UtlLinkedListElem_t@UGroundSeedSpot@@H@@H@@QBE_NV01@@Z 1000bffb f i nav.obj
 0001:0000b021       ??0?$CRefCounted1@VCFunctor@@V?$CRefCountServiceBase@$00VCRefMT@@@@@@QAE@XZ 1000c021 f i nav.obj
 0001:0000b040       ?InvalidIndex@?$CUtlMemory@U?$UtlLinkedListElem_t@UAirSeedSpot@@H@@H@@SAHXZ 1000c040 f i nav.obj
 0001:0000b040       ?InvalidIndex@?$CUtlMemory@U?$UtlLinkedListElem_t@UGroundSeedSpot@@H@@H@@SAHXZ 1000c040 f i nav.obj
 0001:0000b048       ?Find@?$CUtlVector@PAVNode@@V?$CUtlMemory@PAVNode@@H@@@@QBEHABQAVNode@@@Z 1000c048 f i nav.obj
 0001:0000b08c       ?EnsureCapacity@?$CUtlMemory@PAVNode@@H@@QAEXH@Z 1000c08c f i nav.obj
 0001:0000b113       ??$LowLevelByteSwap@M@CByteswap@@CAXPAM0@Z 1000c113 f i nav.obj
 0001:0000b162       ??$GetTypeBin@H@CUtlBuffer@@IAEXAAH@Z 1000c162 f i nav.obj
 0001:0000b1d9       ??$PutTypeBin@H@CUtlBuffer@@IAEXH@Z 1000c1d9 f i nav.obj
 0001:0000b24f       ??$PutTypeBin@M@CUtlBuffer@@IAEXM@Z 1000c24f f i nav.obj
 0001:0000b2c9       ?InsertBefore@?$CUtlLinkedList@UGroundSeedSpot@@H$0A@HV?$CUtlMemory@U?$UtlLinkedListElem_t@UGroundSeedSpot@@H@@H@@@@QAEHHABUGroundSeedSpot@@@Z 1000c2c9 f i nav.obj
 0001:0000b309       ?ConstructList@?$CUtlLinkedList@UAirSeedSpot@@H$0A@HV?$CUtlMemory@U?$UtlLinkedListElem_t@UAirSeedSpot@@H@@H@@@@IAEXXZ 1000c309 f i nav.obj
 0001:0000b309       ?ConstructList@?$CUtlLinkedList@UGroundSeedSpot@@H$0A@HV?$CUtlMemory@U?$UtlLinkedListElem_t@UGroundSeedSpot@@H@@H@@@@IAEXXZ 1000c309 f i nav.obj
 0001:0000b33a       ??0?$CUtlMemory@U?$UtlLinkedListElem_t@UGroundSeedSpot@@H@@H@@QAE@HH@Z 1000c33a f i nav.obj
 0001:0000b33a       ??0?$CUtlMemory@U?$UtlLinkedListElem_t@UAirSeedSpot@@H@@H@@QAE@HH@Z 1000c33a f i nav.obj
 0001:0000b394       ??A?$CUtlMemory@U?$UtlLinkedListElem_t@UAirSeedSpot@@H@@H@@QAEAAU?$UtlLinkedListElem_t@UAirSeedSpot@@H@@H@Z 1000c394 f i nav.obj
 0001:0000b394       ??A?$CUtlMemory@U?$UtlLinkedListElem_t@UAirSeedSpot@@H@@H@@QBEABU?$UtlLinkedListElem_t@UAirSeedSpot@@H@@H@Z 1000c394 f i nav.obj
 0001:0000b394       ??A?$CUtlMemory@U?$UtlLinkedListElem_t@UGroundSeedSpot@@H@@H@@QBEABU?$UtlLinkedListElem_t@UGroundSeedSpot@@H@@H@Z 1000c394 f i nav.obj
 0001:0000b394       ??A?$CUtlMemory@U?$UtlLinkedListElem_t@UGroundSeedSpot@@H@@H@@QAEAAU?$UtlLinkedListElem_t@UGroundSeedSpot@@H@@H@Z 1000c394 f i nav.obj
 0001:0000b3aa       ?IsIdxValid@?$CUtlMemory@U?$UtlLinkedListElem_t@UAirSeedSpot@@H@@H@@QBE_NH@Z 1000c3aa f i nav.obj
 0001:0000b3aa       ?IsIdxValid@?$CUtlMemory@U?$UtlLinkedListElem_t@UGroundSeedSpot@@H@@H@@QBE_NH@Z 1000c3aa f i nav.obj
 0001:0000b3de       ?EnsureCapacity@?$CUtlMemory@U?$UtlLinkedListElem_t@UGroundSeedSpot@@H@@H@@QAEXH@Z 1000c3de f i nav.obj
 0001:0000b3de       ?EnsureCapacity@?$CUtlMemory@U?$UtlLinkedListElem_t@UAirSeedSpot@@H@@H@@QAEXH@Z 1000c3de f i nav.obj
 0001:0000b465       ?InsertBefore@?$CUtlLinkedList@UAirSeedSpot@@H$0A@HV?$CUtlMemory@U?$UtlLinkedListElem_t@UAirSeedSpot@@H@@H@@@@QAEHHABUAirSeedSpot@@@Z 1000c465 f i nav.obj
 0001:0000b4a5       ??$CreateFunctor@PAVNav@@V1@XPA_NPA_N@@YAPAVCFunctor@@PAVNav@@P81@AEXPA_N@ZABQA_N@Z 1000c4a5 f i nav.obj
 0001:0000b513       ??$CreateFunctor@PAVNav@@V1@XPAUJobInfo_t@@PAVNode@@PAV3@PAU2@PAV3@PAV3@@@YAPAVCFunctor@@PAVNav@@P81@AEXPAUJobInfo_t@@PAVNode@@2@ZABQAU2@ABQAV3@5@Z 1000c513 f i nav.obj
 0001:0000b587       ??0?$CMemberFunctor1@PAVNav@@P81@AEXPA_N@ZPA_NV?$CRefCounted1@VCFunctor@@V?$CRefCountServiceBase@$00VCRefMT@@@@@@VCFuncMemPolicyNone@@@@QAE@PAVNav@@P81@AEXPA_N@ZABQA_N@Z 1000c587 f i nav.obj
 0001:0000b5fe       ??R?$CMemberFunctor1@PAVNav@@P81@AEXPA_N@ZPA_NV?$CRefCounted1@VCFunctor@@V?$CRefCountServiceBase@$00VCRefMT@@@@@@VCFuncMemPolicyNone@@@@UAEXXZ 1000c5fe f i nav.obj
 0001:0000b619       ??0?$CMemberFunctor3@PAVNav@@P81@AEXPAUJobInfo_t@@PAVNode@@1@ZPAU2@PAV3@PAV3@V?$CRefCounted1@VCFunctor@@V?$CRefCountServiceBase@$00VCRefMT@@@@@@VCFuncMemPolicyNone@@@@QAE@PAVNav@@P81@AEXPAUJobInfo_t@@PAVNode@@2@ZABQAU2@ABQAV3@5@Z 1000c619 f i nav.obj
 0001:0000b6a6       ??R?$CMemberFunctor3@PAVNav@@P81@AEXPAUJobInfo_t@@PAVNode@@1@ZPAU2@PAV3@PAV3@V?$CRefCounted1@VCFunctor@@V?$CRefCountServiceBase@$00VCRefMT@@@@@@VCFuncMemPolicyNone@@@@UAEXXZ 1000c6a6 f i nav.obj
 0001:0000b6cf       ??_G?$CMemberFunctor3@PAVNav@@P81@AEXPAUJobInfo_t@@PAVNode@@1@ZPAU2@PAV3@PAV3@V?$CRefCounted1@VCFunctor@@V?$CRefCountServiceBase@$00VCRefMT@@@@@@VCFuncMemPolicyNone@@@@UAEPAXI@Z 1000c6cf f i nav.obj
 0001:0000b6cf       ??_E?$CMemberFunctor1@PAVNav@@P81@AEXPA_N@ZPA_NV?$CRefCounted1@VCFunctor@@V?$CRefCountServiceBase@$00VCRefMT@@@@@@VCFuncMemPolicyNone@@@@UAEPAXI@Z 1000c6cf f i * CIL library *:* CIL module *
 0001:0000b6cf       ??_G?$CMemberFunctor1@PAVNav@@P81@AEXPA_N@ZPA_NV?$CRefCounted1@VCFunctor@@V?$CRefCountServiceBase@$00VCRefMT@@@@@@VCFuncMemPolicyNone@@@@UAEPAXI@Z 1000c6cf f i nav.obj
 0001:0000b6cf       ??_E?$CMemberFunctor3@PAVNav@@P81@AEXPAUJobInfo_t@@PAVNode@@1@ZPAU2@PAV3@PAV3@V?$CRefCounted1@VCFunctor@@V?$CRefCountServiceBase@$00VCRefMT@@@@@@VCFuncMemPolicyNone@@@@UAEPAXI@Z 1000c6cf f i * CIL library *:* CIL module *
 0001:0000b6f6       ??1?$CMemberFuncProxy3@PAVNav@@P81@AEXPAUJobInfo_t@@PAVNode@@1@ZPAU2@PAV3@PAV3@VCFuncMemPolicyNone@@@@QAE@XZ 1000c6f6 f i nav.obj
 0001:0000b6f6       ??1?$CMemberFuncProxy1@PAVNav@@P81@AEXPA_N@ZPA_NVCFuncMemPolicyNone@@@@QAE@XZ 1000c6f6 f i nav.obj
 0001:0000b707       ??1?$CMemberFunctor3@PAVNav@@P81@AEXPAUJobInfo_t@@PAVNode@@1@ZPAU2@PAV3@PAV3@V?$CRefCounted1@VCFunctor@@V?$CRefCountServiceBase@$00VCRefMT@@@@@@VCFuncMemPolicyNone@@@@UAE@XZ 1000c707 f i nav.obj
 0001:0000b707       ??1?$CMemberFunctor1@PAVNav@@P81@AEXPA_N@ZPA_NV?$CRefCounted1@VCFunctor@@V?$CRefCountServiceBase@$00VCRefMT@@@@@@VCFuncMemPolicyNone@@@@UAE@XZ 1000c707 f i nav.obj
 0001:0000b755       ??0?$CMemberFuncProxy3@PAVNav@@P81@AEXPAUJobInfo_t@@PAVNode@@1@ZPAU2@PAV3@PAV3@VCFuncMemPolicyNone@@@@QAE@PAVNav@@P81@AEXPAUJobInfo_t@@PAVNode@@2@Z@Z 1000c755 f i nav.obj
 0001:0000b755       ??0?$CMemberFuncProxy1@PAVNav@@P81@AEXPA_N@ZPA_NVCFuncMemPolicyNone@@@@QAE@PAVNav@@P81@AEXPA_N@Z@Z 1000c755 f i nav.obj
 0001:0000b771       ??R?$CMemberFuncProxy1@PAVNav@@P81@AEXPA_N@ZPA_NVCFuncMemPolicyNone@@@@QAEXABQA_N@Z 1000c771 f i nav.obj
 0001:0000b794       ??1?$CMemberFuncProxyBase@PAVNav@@P81@AEXPA_N@ZVCFuncMemPolicyNone@@@@IAE@XZ 1000c794 f i nav.obj
 0001:0000b794       ??1?$CMemberFuncProxyBase@PAVNav@@P81@AEXPAUJobInfo_t@@PAVNode@@1@ZVCFuncMemPolicyNone@@@@IAE@XZ 1000c794 f i nav.obj
 0001:0000b7a9       ??R?$CMemberFuncProxy3@PAVNav@@P81@AEXPAUJobInfo_t@@PAVNode@@1@ZPAU2@PAV3@PAV3@VCFuncMemPolicyNone@@@@QAEXABQAUJobInfo_t@@ABQAVNode@@1@Z 1000c7a9 f i nav.obj
 0001:0000b7d6       ??0?$CMemberFuncProxyBase@PAVNav@@P81@AEXPAUJobInfo_t@@PAVNode@@1@ZVCFuncMemPolicyNone@@@@IAE@PAVNav@@P81@AEXPAUJobInfo_t@@PAVNode@@2@Z@Z 1000c7d6 f i nav.obj
 0001:0000b7d6       ??0?$CMemberFuncProxyBase@PAVNav@@P81@AEXPA_N@ZVCFuncMemPolicyNone@@@@IAE@PAVNav@@P81@AEXPA_N@Z@Z 1000c7d6 f i nav.obj
 0001:0000b801       ??$SwapBufferToTargetEndian@H@CByteswap@@QAEXPAH0H@Z 1000c801 f i nav.obj
 0001:0000b886       ?LinkBefore@?$CUtlLinkedList@UGroundSeedSpot@@H$0A@HV?$CUtlMemory@U?$UtlLinkedListElem_t@UGroundSeedSpot@@H@@H@@@@QAEXHH@Z 1000c886 f i nav.obj
 0001:0000b886       ?LinkBefore@?$CUtlLinkedList@UAirSeedSpot@@H$0A@HV?$CUtlMemory@U?$UtlLinkedListElem_t@UAirSeedSpot@@H@@H@@@@QAEXHH@Z 1000c886 f i nav.obj
 0001:0000b93b       ?AllocInternal@?$CUtlLinkedList@UGroundSeedSpot@@H$0A@HV?$CUtlMemory@U?$UtlLinkedListElem_t@UGroundSeedSpot@@H@@H@@@@IAEH_N@Z 1000c93b f i nav.obj
 0001:0000bacb       ??$CopyConstruct@UAirSeedSpot@@@@YAXPAUAirSeedSpot@@ABU0@@Z 1000cacb f i nav.obj
 0001:0000bacb       ??$CopyConstruct@UGroundSeedSpot@@@@YAXPAUGroundSeedSpot@@ABU0@@Z 1000cacb f i nav.obj
 0001:0000bb02       ?AllocInternal@?$CUtlLinkedList@UAirSeedSpot@@H$0A@HV?$CUtlMemory@U?$UtlLinkedListElem_t@UAirSeedSpot@@H@@H@@@@IAEH_N@Z 1000cb02 f i nav.obj
 0001:0000bc92       ?IsValidIterator@?$CUtlMemory@U?$UtlLinkedListElem_t@UGroundSeedSpot@@H@@H@@QBE_NABVIterator_t@1@@Z 1000cc92 f i nav.obj
 0001:0000bc92       ?IsValidIterator@?$CUtlMemory@U?$UtlLinkedListElem_t@UAirSeedSpot@@H@@H@@QBE_NABVIterator_t@1@@Z 1000cc92 f i nav.obj
 0001:0000bcaa       ??$LowLevelByteSwap@H@CByteswap@@CAXPAH0@Z 1000ccaa f i nav.obj
 0001:0000bcf5       ?Unlink@?$CUtlLinkedList@UAirSeedSpot@@H$0A@HV?$CUtlMemory@U?$UtlLinkedListElem_t@UAirSeedSpot@@H@@H@@@@QAEXH@Z 1000ccf5 f i nav.obj
 0001:0000bcf5       ?Unlink@?$CUtlLinkedList@UGroundSeedSpot@@H$0A@HV?$CUtlMemory@U?$UtlLinkedListElem_t@UGroundSeedSpot@@H@@H@@@@QAEXH@Z 1000ccf5 f i nav.obj
 0001:0000bda8       ?Grow@?$CUtlMemory@U?$UtlLinkedListElem_t@UAirSeedSpot@@H@@H@@QAEXH@Z 1000cda8 f i nav.obj
 0001:0000bda8       ?Grow@?$CUtlMemory@U?$UtlLinkedListElem_t@UGroundSeedSpot@@H@@H@@QAEXH@Z 1000cda8 f i nav.obj
 0001:0000bea2       ?IsInList@?$CUtlLinkedList@UGroundSeedSpot@@H$0A@HV?$CUtlMemory@U?$UtlLinkedListElem_t@UGroundSeedSpot@@H@@H@@@@QBE_NH@Z 1000cea2 f i nav.obj
 0001:0000bea2       ?IsInList@?$CUtlLinkedList@UAirSeedSpot@@H$0A@HV?$CUtlMemory@U?$UtlLinkedListElem_t@UAirSeedSpot@@H@@H@@@@QBE_NH@Z 1000cea2 f i nav.obj
 0001:0000befd       ?Previous@?$CUtlLinkedList@UAirSeedSpot@@H$0A@HV?$CUtlMemory@U?$UtlLinkedListElem_t@UAirSeedSpot@@H@@H@@@@QBEHH@Z 1000cefd f i nav.obj
 0001:0000befd       ?Previous@?$CUtlLinkedList@UGroundSeedSpot@@H$0A@HV?$CUtlMemory@U?$UtlLinkedListElem_t@UGroundSeedSpot@@H@@H@@@@QBEHH@Z 1000cefd f i nav.obj
 0001:0000bf16       ??_E?$CMemberFunctor3@PAVNav@@P81@AEXPAUJobInfo_t@@PAVNode@@1@ZPAU2@PAV3@PAV3@V?$CRefCounted1@VCFunctor@@V?$CRefCountServiceBase@$00VCRefMT@@@@@@VCFuncMemPolicyNone@@@@W7AEPAXI@Z 1000cf16 f i nav.obj
 0001:0000bf16       ??_E?$CMemberFunctor1@PAVNav@@P81@AEXPA_N@ZPA_NV?$CRefCounted1@VCFunctor@@V?$CRefCountServiceBase@$00VCRefMT@@@@@@VCFuncMemPolicyNone@@@@W7AEPAXI@Z 1000cf16 f i nav.obj
 0001:0000bf1e       ??0Node@@QAE@ABVVector@@0PAV0@@Z 1000cf1e f   node.obj
 0001:0000bfae       ?ConnectTo@Node@@QAEXPAV1@W4NavDirType@@@Z 1000cfae f   node.obj
 0001:0000bfc6       ?GetConnectedNode@Node@@QAEPAV1@W4NavDirType@@@Z 1000cfc6 f   node.obj
 0001:0000bfdb       ?GetParent@Node@@QAEPAV1@XZ 1000cfdb f   node.obj
 0001:0000bfea       ?MarkAsVisited@Node@@QAEXW4NavDirType@@@Z 1000cfea f   node.obj
 0001:0000c00d       ?HasVisited@Node@@QAE_NW4NavDirType@@@Z 1000d00d f   node.obj
 0001:0000c031       ?SetStatus@Node@@QAEXPAV1@MM@Z 1000d031 f   node.obj
 0001:0000c05f       ?IsOpened@Node@@QAE_NXZ    1000d05f f   node.obj
 0001:0000c06e       ?SetOpened@Node@@QAEX_N@Z  1000d06e f   node.obj
 0001:0000c082       ?IsDisabled@Node@@QAE_NXZ  1000d082 f   node.obj
 0001:0000c091       ?SetDisabled@Node@@QAEX_N@Z 1000d091 f   node.obj
 0001:0000c0a5       ?IsClosed@Node@@QAE_NXZ    1000d0a5 f   node.obj
 0001:0000c0b4       ?SetClosed@Node@@QAEX_N@Z  1000d0b4 f   node.obj
 0001:0000c0c8       ?GetAStarParent@Node@@QAEPAV1@XZ 1000d0c8 f   node.obj
 0001:0000c0d7       ?GetScoreF@Node@@QAEMXZ    1000d0d7 f   node.obj
 0001:0000c0e6       ?GetScoreG@Node@@QAEMXZ    1000d0e6 f   node.obj
 0001:0000c0f5       ?GetID@Node@@QAEHXZ        1000d0f5 f   node.obj
 0001:0000c104       ?SetID@Node@@QAEXH@Z       1000d104 f   node.obj
 0001:0000c118       ?SetNormal@Node@@QAEXABVVector@@@Z 1000d118 f   node.obj
 0001:0000c131       ?SetPosition@Node@@QAEXABVVector@@@Z 1000d131 f   node.obj
 0001:0000c147       ?LengthSqr@Vector@@QBEMXZ  1000d147 f i gmutility.obj
 0001:0000c18f       ?VectorClear@@YAXAAVVector@@@Z 1000d18f f i gmutility.obj
 0001:0000c1c3       ?VectorCopy@@YAXABVVector@@AAV1@@Z 1000d1c3 f i gmutility.obj
 0001:0000c1ea       ??XVector@@QAEAAV0@M@Z     1000d1ea f i gmutility.obj
 0001:0000c235       ?Init@Ray_t@@QAEXABVVector@@0@Z 1000d235 f i gmutility.obj
 0001:0000c2bb       ?Init@Ray_t@@QAEXABVVector@@000@Z 1000d2bb f i gmutility.obj
 0001:0000c3d5       ?GetTraceType@CTraceFilter@@UBE?AW4TraceType_t@@XZ 1000d3d5 f i gmutility.obj
 0001:0000c3e0       ??0GMOD_TraceFilter@@QAE@XZ 1000d3e0 f i gmutility.obj
 0001:0000c3fd       ?ShouldHitEntity@GMOD_TraceFilter@@UAE_NPAVIHandleEntity@@H@Z 1000d3fd f i gmutility.obj
 0001:0000c451       ?CheckCollisionGroup@GMOD_TraceFilter@@QAE_NH@Z 1000d451 f i gmutility.obj
 0001:0000c468       ??0CTraceFilter@@QAE@XZ    1000d468 f i gmutility.obj
 0001:0000c485       ??0ITraceFilter@@QAE@XZ    1000d485 f i gmutility.obj
 0001:0000c49a       ??0GMUtility@@QAE@PAVIEngineTrace@@@Z 1000d49a f   gmutility.obj
 0001:0000c52f       ??0Ray_t@@QAE@XZ           1000d52f f i gmutility.obj
 0001:0000c564       ?TraceLine@GMUtility@@QAEXABVVector@@0IPAVCGameTrace@@@Z 1000d564 f   gmutility.obj
 0001:0000c5a6       ?TraceHull@GMUtility@@QAEXABVVector@@000IPAVCGameTrace@@@Z 1000d5a6 f   gmutility.obj
 0001:0000c600       _cosf                      1000d600 f i mathlib:mathlib_base.obj
 0001:0000c610       ?SinCos@@YAXMPAM0@Z        1000d610 f i mathlib:mathlib_base.obj
 0001:0000c630       ?_sqrtf@@YAMM@Z            1000d630 f   mathlib:mathlib_base.obj
 0001:0000c640       ?_rsqrtf@@YAMM@Z           1000d640 f   mathlib:mathlib_base.obj
 0001:0000c650       ?_VectorNormalize@@YIMAAVVector@@@Z 1000d650 f   mathlib:mathlib_base.obj
 0001:0000c690       ?_VectorNormalizeFast@@YIXAAVVector@@@Z 1000d690 f   mathlib:mathlib_base.obj
 0001:0000c6d0       ?_InvRSquared@@YAMPBM@Z    1000d6d0 f   mathlib:mathlib_base.obj
 0001:0000c700       _CreateInterface           1000d700 f   tier1:interface.obj
 0001:0000c770       ?Sys_GetFactory@@YAP6APAXPBDPAH@Z0@Z 1000d770 f   tier1:interface.obj
 0001:0000c790       ?FindConversion@CUtlCStringConversion@@UAEDPBDPAH@Z 1000d790 f   tier1:utlbuffer.obj
 0001:0000c7b0       ??0CUtlCharConversion@@QAE@DPBDHPAUConversionArray_t@0@@Z 1000d7b0 f   tier1:utlbuffer.obj
 0001:0000c860       ?FindConversion@CUtlCharConversion@@UAEDPBDPAH@Z 1000d860 f   tier1:utlbuffer.obj
 0001:0000c8e0       ?GetOverflow@CUtlBuffer@@IAE_NH@Z 1000d8e0 f   tier1:utlbuffer.obj
 0001:0000c8f0       ?FindConversion@CUtlNoEscConversion@@UAEDPBDPAH@Z 1000d8f0 f i tier1:utlbuffer.obj
 0001:0000c900       ?CheckGet@CUtlBuffer@@IAE_NH@Z 1000d900 f   tier1:utlbuffer.obj
 0001:0000c960       ?CheckArbitraryPeekGet@CUtlBuffer@@IAE_NHAAH@Z 1000d960 f   tier1:utlbuffer.obj
 0001:0000c9d0       ?SeekGet@CUtlBuffer@@QAEXW4SeekType_t@1@H@Z 1000d9d0 f   tier1:utlbuffer.obj
 0001:0000ca30       ?CheckPut@CUtlBuffer@@IAE_NH@Z 1000da30 f   tier1:utlbuffer.obj
 0001:0000ca80       ?AddNullTermination@CUtlBuffer@@IAEXXZ 1000da80 f   tier1:utlbuffer.obj
 0001:0000cad0       ?ConvertToGrowableMemory@?$CUtlMemory@EH@@QAEXH@Z 1000dad0 f i tier1:utlbuffer.obj
 0001:0000cb20       ?Grow@?$CUtlMemory@EH@@QAEXH@Z 1000db20 f i tier1:utlbuffer.obj
 0001:0000cbd0       ?Get@CUtlBuffer@@QAEXPAXH@Z 1000dbd0 f   tier1:utlbuffer.obj
 0001:0000cc10       ?EatWhiteSpace@CUtlBuffer@@QAEXXZ 1000dc10 f   tier1:utlbuffer.obj
 0001:0000cc80       ?PeekWhiteSpace@CUtlBuffer@@IAEHH@Z 1000dc80 f   tier1:utlbuffer.obj
 0001:0000cd20       ?PeekStringLength@CUtlBuffer@@QAEHXZ 1000dd20 f   tier1:utlbuffer.obj
 0001:0000ce80       ?Put@CUtlBuffer@@QAEXPBXH@Z 1000de80 f   tier1:utlbuffer.obj
 0001:0000cef0       ?PutOverflow@CUtlBuffer@@IAE_NH@Z 1000def0 f   tier1:utlbuffer.obj
 0001:0000cf40       ??$PutTypeBin@D@CUtlBuffer@@IAEXD@Z 1000df40 f i tier1:utlbuffer.obj
 0001:0000cfe0       ?PutTabs@CUtlBuffer@@IAEXXZ 1000dfe0 f i tier1:utlbuffer.obj
 0001:0000d020       ??0CUtlBuffer@@QAE@HHH@Z   1000e020 f   tier1:utlbuffer.obj
 0001:0000d0a0       ?PutString@CUtlBuffer@@QAEXPBD@Z 1000e0a0 f   tier1:utlbuffer.obj
 0001:0000d1a0       ?Printf@CUtlBuffer@@QAAXPBDZZ 1000e1a0 f   tier1:utlbuffer.obj
 0001:0000d1e0       ?GetChar@CUtlBuffer@@QAEDXZ 1000e1e0 f i tier1:utlbuffer.obj
 0001:0000d230       ?GetString@CUtlBuffer@@QAEXPADH@Z 1000e230 f   tier1:utlbuffer.obj
 0001:0000d2f0       ?VaScanf@CUtlBuffer@@QAEHPBDPAD@Z 1000e2f0 f   tier1:utlbuffer.obj
 0001:0000d610       ?Scanf@CUtlBuffer@@QAAHPBDZZ 1000e610 f   tier1:utlbuffer.obj
 0001:0000d630       ?V_vsnprintf@@YAHPADHPBD0@Z 1000e630 f   tier1:strtools.obj
 0001:0000d672       @__security_check_cookie@4 1000e672 f   LIBCMT:secchk.obj
 0001:0000d690       _memmove                   1000e690 f   LIBCMT:memmove.obj
 0001:0000dcd4       __vsnprintf_helper         1000ecd4 f   LIBCMT:vsnprnc.obj
 0001:0000dd9c       __vsprintf_s_l             1000ed9c f   LIBCMT:vsnprnc.obj
 0001:0000de11       _vsprintf_s                1000ee11 f   LIBCMT:vsnprnc.obj
 0001:0000de2c       ??3@YAXPAX@Z               1000ee2c f   LIBCMT:delete.obj
 0001:0000de31       ??0bad_alloc@std@@QAE@ABV01@@Z 1000ee31 f i LIBCMT:new.obj
 0001:0000de4c       ??1bad_alloc@std@@UAE@XZ   1000ee4c f i LIBCMT:new.obj
 0001:0000de57       ??2@YAPAXI@Z               1000ee57 f   LIBCMT:new.obj
 0001:0000dea6       ??_Gbad_alloc@std@@UAEPAXI@Z 1000eea6 f i LIBCMT:new.obj
 0001:0000dea6       ??_Ebad_alloc@std@@UAEPAXI@Z 1000eea6 f i LIBCMT:new.obj
 0001:0000decb       ___onexitinit              1000eecb f   LIBCMT:onexit.obj
 0001:0000defa       __onexit                   1000eefa f   LIBCMT:onexit.obj
 0001:0000dff0       _atexit                    1000eff0 f   LIBCMT:onexit.obj
 0001:0000e005       __purecall                 1000f005 f   LIBCMT:purevirt.obj
 0001:0000e02f       ??1type_info@@UAE@XZ       1000f02f f   LIBCMT:typinfo.obj
 0001:0000e03d       ??8type_info@@QBE_NABV0@@Z 1000f03d f   LIBCMT:typinfo.obj
 0001:0000e05b       ??_Etype_info@@UAEPAXI@Z   1000f05b f i LIBCMT:typinfo.obj
 0001:0000e05b       ??_Gtype_info@@UAEPAXI@Z   1000f05b f i LIBCMT:typinfo.obj
 0001:0000e07a       __difftime64               1000f07a f   LIBCMT:difftm64.obj
 0001:0000e0c1       __time64                   1000f0c1 f   LIBCMT:time64.obj
 0001:0000e110       _strncpy                   1000f110 f   LIBCMT:strncpy.obj
 0001:0000e234       __CRT_INIT@12              1000f234 f   LIBCMT:dllcrt0.obj
 0001:0000e3a6       __DllMainCRTStartup@12     1000f3a6 f   LIBCMT:dllcrt0.obj
 0001:0000e4d7       ___DllXcptFilter           1000f4d7 f   LIBCMT:dllcrt0.obj
 0001:0000e4fc       __fpmath                   1000f4fc f   LIBCMT:fpinit.obj
 0001:0000e513       __cfltcvt_init             1000f513 f   LIBCMT:fpinit.obj
 0001:0000e580       _acos                      1000f580 f   LIBCMT:acos.obj
 0001:0000e5c0       __CIacos                   1000f5c0 f   LIBCMT:acos.obj
 0001:0000e5fb       __CIacos_default           1000f5fb f   LIBCMT:acos.obj
 0001:0000e60f       __acos_default             1000f60f     LIBCMT:acos.obj
 0001:0000e6d0       _asin                      1000f6d0 f   LIBCMT:asin.obj
 0001:0000e710       __CIasin                   1000f710 f   LIBCMT:asin.obj
 0001:0000e74b       __CIasin_default           1000f74b f   LIBCMT:asin.obj
 0001:0000e75f       __asin_default             1000f75f     LIBCMT:asin.obj
 0001:0000e820       _fmod                      1000f820 f   LIBCMT:87fmod.obj
 0001:0000e82a       __CIfmod                   1000f82a f   LIBCMT:87fmod.obj
 0001:0000e850       _pow                       1000f850 f   LIBCMT:pow.obj
 0001:0000e890       __CIpow                    1000f890 f   LIBCMT:pow.obj
 0001:0000e8cb       __CIpow_default            1000f8cb f   LIBCMT:pow.obj
 0001:0000e8e4       __pow_default              1000f8e4     LIBCMT:pow.obj
 0001:0000eae0       __ftol2_sse                1000fae0 f   LIBCMT:ftol2.obj
 0001:0000eae9       __ftol2_pentium4           1000fae9 f   LIBCMT:ftol2.obj
 0001:0000eafc       __ftol2_sse_excpt          1000fafc f   LIBCMT:ftol2.obj
 0001:0000eb16       __ftol2                    1000fb16 f   LIBCMT:ftol2.obj
 0001:0000eb90       _floor                     1000fb90 f   LIBCMT:floor_pentium4.obj
 0001:0000ebd0       __floor_pentium4           1000fbd0 f   LIBCMT:floor_pentium4.obj
 0001:0000ecc0       _memset                    1000fcc0 f   LIBCMT:memset.obj
 0001:0000ed50       __alloca_probe_16          1000fd50 f   LIBCMT:alloca16.obj
 0001:0000ed66       __alloca_probe_8           1000fd66     LIBCMT:alloca16.obj
 0001:0000ed80       _strstr                    1000fd80 f   LIBCMT:strstr.obj
 0001:0000eff0       _memcpy                    1000fff0 f   LIBCMT:memcpy.obj
 0001:0000f634       ??0_LocaleUpdate@@QAE@PAUlocaleinfo_struct@@@Z 10010634 f i LIBCMT:_ctype.obj
 0001:0000f6bc       __isdigit_l                100106bc f i LIBCMT:_ctype.obj
 0001:0000f70c       __isspace_l                1001070c f i LIBCMT:_ctype.obj
 0001:0000f75c       _isdigit                   1001075c f i LIBCMT:_ctype.obj
 0001:0000f787       _isspace                   10010787 f i LIBCMT:_ctype.obj
 0001:0000f7c0       _strchr                    100107c0 f   LIBCMT:strchr.obj
 0001:0000f82e       ___from_strstr_to_strchr   1001082e     LIBCMT:strchr.obj
 0001:0000f8eb       __strtod_l                 100108eb f   LIBCMT:strtod.obj
 0001:0000fa00       _strtod                    10010a00 f   LIBCMT:strtod.obj
 0001:0000fc39       _strtol                    10010c39 f   LIBCMT:strtol.obj
 0001:0000fc63       _strtoul                   10010c63 f   LIBCMT:strtol.obj
 0001:0000fc8d       __tolower_l                10010c8d f   LIBCMT:tolower.obj
 0001:0000fdce       _tolower                   10010dce f   LIBCMT:tolower.obj
 0001:0000fe00       _strncat                   10010e00 f   LIBCMT:strncat.obj
 0001:0000ff35       __vsnprintf                10010f35 f   LIBCMT:vsnprint.obj
 0001:0000ff50       __vsnprintf_l              10010f50 f   LIBCMT:vsnprint.obj
 0001:00010000       __allrem                   10011000 f   LIBCMT:llrem.obj
 0001:000100c0       __alldiv                   100110c0 f   LIBCMT:lldiv.obj
 0001:0001016a       ___raise_securityfailure   1001116a f   LIBCMT:gs_report.obj
 0001:000101a7       ___report_gsfailure        100111a7 f   LIBCMT:gs_report.obj
 0001:000102a0       ___isa_available_init      100112a0 f   LIBCMT:cpu_disp.obj
 0001:000103d9       __call_reportfault         100113d9 f   LIBCMT:invarg.obj
 0001:000104fc       __initp_misc_invarg        100114fc f   LIBCMT:invarg.obj
 0001:00010509       __invalid_parameter        10011509 f   LIBCMT:invarg.obj
 0001:00010534       __invalid_parameter_noinfo 10011534 f   LIBCMT:invarg.obj
 0001:00010544       __invoke_watson            10011544 f   LIBCMT:invarg.obj
 0001:0001056f       __flsbuf                   1001156f f   LIBCMT:_flsbuf.obj
 0001:000106bc       __output_l                 100116bc f   LIBCMT:output.obj
 0001:00011244       __output_s_l               10012244 f   LIBCMT:outputs.obj
 0001:00011e96       ___doserrno                10012e96 f   LIBCMT:dosmap.obj
 0001:00011ea9       __dosmaperr                10012ea9 f   LIBCMT:dosmap.obj
 0001:00011eca       __errno                    10012eca f   LIBCMT:dosmap.obj
 0001:00011edd       __get_errno_from_oserr     10012edd f   LIBCMT:dosmap.obj
 0001:00011f1e       _free                      10012f1e f   LIBCMT:free.obj
 0001:00011f56       _malloc                    10012f56 f   LIBCMT:malloc.obj
 0001:00011fe8       ??0exception@std@@QAE@ABQBD@Z 10012fe8 f   LIBCMT:stdexcpt.obj
 0001:0001200d       ??0exception@std@@QAE@ABQBDH@Z 1001300d f   LIBCMT:stdexcpt.obj
 0001:00012028       ??0exception@std@@QAE@ABV01@@Z 10013028 f   LIBCMT:stdexcpt.obj
 0001:0001204b       ??1exception@std@@UAE@XZ   1001304b f   LIBCMT:stdexcpt.obj
 0001:00012056       ??4exception@std@@QAEAAV01@ABV01@@Z 10013056 f   LIBCMT:stdexcpt.obj
 0001:00012089       ??_Gexception@std@@UAEPAXI@Z 10013089 f i LIBCMT:stdexcpt.obj
 0001:00012089       ??_Eexception@std@@UAEPAXI@Z 10013089 f i LIBCMT:stdexcpt.obj
 0001:000120ae       ?_Copy_str@exception@std@@AAEXPBD@Z 100130ae f   LIBCMT:stdexcpt.obj
 0001:000120ec       ?_Tidy@exception@std@@AAEXXZ 100130ec f   LIBCMT:stdexcpt.obj
 0001:00012108       ?what@exception@std@@UBEPBDXZ 10013108 f   LIBCMT:stdexcpt.obj
 0001:00012115       __callnewh                 10013115 f   LIBCMT:handler.obj
 0001:0001213b       __initp_heap_handler       1001313b f   LIBCMT:handler.obj
 0001:00012148       __CxxThrowException@8      10013148 f   LIBCMT:throw.obj
 0001:000121a3       ___crtCorExitProcess       100131a3 f   LIBCMT:crt0dat.obj
 0001:000121d5       ___crtExitProcess          100131d5 f   LIBCMT:crt0dat.obj
 0001:000121eb       ___freeCrtMemory           100131eb f   LIBCMT:crt0dat.obj
 0001:000122fb       __amsg_exit                100132fb f   LIBCMT:crt0dat.obj
 0001:00012317       __cexit                    10013317 f   LIBCMT:crt0dat.obj
 0001:00012326       __cinit                    10013326 f   LIBCMT:crt0dat.obj
 0001:000123b7       __exit                     100133b7 f   LIBCMT:crt0dat.obj
 0001:000123cb       __init_pointers            100133cb f   LIBCMT:crt0dat.obj
 0001:0001241f       __initterm_e               1001341f f   LIBCMT:crt0dat.obj
 0001:00012441       __lockexit                 10013441 f   LIBCMT:crt0dat.obj
 0001:0001244a       __unlockexit               1001344a f   LIBCMT:crt0dat.obj
 0001:00012582       __msize                    10013582 f   LIBCMT:msize.obj
 0001:000125b3       __calloc_crt               100135b3 f   LIBCMT:crtheap.obj
 0001:000125fd       __malloc_crt               100135fd f   LIBCMT:crtheap.obj
 0001:00012646       __realloc_crt              10013646 f   LIBCMT:crtheap.obj
 0001:000126a0       __SEH_prolog4              100136a0 f   LIBCMT:sehprolg4.obj
 0001:000126e5       __SEH_epilog4              100136e5 f   LIBCMT:sehprolg4.obj
 0001:00012700       __except_handler4          10013700 f   LIBCMT:chandler4.obj
 0001:00012895       __FF_MSGBANNER             10013895 f   LIBCMT:crt0msg.obj
 0001:000128ce       __GET_RTERRMSG             100138ce f   LIBCMT:crt0msg.obj
 0001:000128f2       __NMSG_WRITE               100138f2 f   LIBCMT:crt0msg.obj
 0001:00012aad       __set_abort_behavior       10013aad f   LIBCMT:abort.obj
 0001:00012acc       _abort                     10013acc f   LIBCMT:abort.obj
 0001:00012b0f       __initp_misc_purevirt      10013b0f f   LIBCMT:inithelp.obj
 0001:00012b20       _strcmp                    10013b20 f   LIBCMT:strcmp.obj
 0001:00012bac       ?_Type_info_dtor@type_info@@CAXPAV1@@Z 10013bac f   LIBCMT:typname.obj
 0001:00012c20       __aulldiv                  10013c20 f   LIBCMT:ulldiv.obj
 0001:00012c88       __XcptFilter               10013c88 f   LIBCMT:winxfltr.obj
 0001:00012de3       ___CppXcptFilter           10013de3 f   LIBCMT:winxfltr.obj
 0001:00012e01       __freefls@4                10013e01 f   LIBCMT:tidtable.obj
 0001:00012f38       __freeptd                  10013f38 f   LIBCMT:tidtable.obj
 0001:00012f6e       __getptd                   10013f6e f   LIBCMT:tidtable.obj
 0001:00012f86       __getptd_noexit            10013f86 f   LIBCMT:tidtable.obj
 0001:00012ff5       __initptd                  10013ff5 f   LIBCMT:tidtable.obj
 0001:000130a8       __mtinit                   100140a8 f   LIBCMT:tidtable.obj
 0001:0001311e       __mtterm                   1001411e f   LIBCMT:tidtable.obj
 0001:0001313b       __heap_init                1001413b f   LIBCMT:heapinit.obj
 0001:00013150       __heap_term                10014150 f   LIBCMT:heapinit.obj
 0001:00013158       __ioinit                   10014158 f   LIBCMT:ioinit.obj
 0001:00013406       __ioterm                   10014406 f   LIBCMT:ioinit.obj
 0001:00013458       __setargv                  10014458 f   LIBCMT:stdargv.obj
 0001:00013685       __setenvp                  10014685 f   LIBCMT:stdenvp.obj
 0001:00013766       ___security_init_cookie    10014766 f   LIBCMT:gs_support.obj
 0001:00013800       _DllMain@12                10014800 f   LIBCMT:dllmain.obj
 0001:00013806       ___crtGetEnvironmentStringsA 10014806 f   LIBCMT:a_env.obj
 0001:00013891       ___crtFlsAlloc             10014891 f   LIBCMT:winapisupp.obj
 0001:000138af       ___crtFlsFree              100148af f   LIBCMT:winapisupp.obj
 0001:000138ce       ___crtFlsGetValue          100148ce f   LIBCMT:winapisupp.obj
 0001:000138ed       ___crtFlsSetValue          100148ed f   LIBCMT:winapisupp.obj
 0001:0001390f       ___crtIsPackagedApp        1001490f f   LIBCMT:winapisupp.obj
 0001:0001394d       ___crtLoadWinApiPointers   1001494d f   LIBCMT:winapisupp.obj
 0001:00013b8c       ___crtTerminateProcess     10014b8c f   LIBCMT:winapisupp.obj
 0001:00013ba1       ___crtUnhandledException   10014ba1 f   LIBCMT:winapisupp.obj
 0001:00013bb7       __RTC_Initialize           10014bb7 f   LIBCMT:initsect.obj
 0001:00013bd7       __RTC_Terminate            10014bd7 f   LIBCMT:initsect.obj
 0001:00013bf7       __cfltcvt                  10014bf7 f   LIBCMT:cvt.obj
 0001:00013c18       __cfltcvt_l                10014c18 f   LIBCMT:cvt.obj
 0001:00013c9e       __cftoa_l                  10014c9e f   LIBCMT:cvt.obj
 0001:00013ff8       __cftoe                    10014ff8 f   LIBCMT:cvt.obj
 0001:00014165       __cftoe_l                  10015165 f   LIBCMT:cvt.obj
 0001:0001431b       __cftof_l                  1001531b f   LIBCMT:cvt.obj
 0001:000143da       __cftog_l                  100153da f   LIBCMT:cvt.obj
 0001:000144d7       __cropzeros                100154d7 f   LIBCMT:cvt.obj
 0001:000144e8       __cropzeros_l              100154e8 f   LIBCMT:cvt.obj
 0001:00014566       __fassign                  10015566 f   LIBCMT:cvt.obj
 0001:0001457e       __fassign_l                1001557e f   LIBCMT:cvt.obj
 0001:000145be       __forcdecpt                100155be f   LIBCMT:cvt.obj
 0001:000145cf       __forcdecpt_l              100155cf f   LIBCMT:cvt.obj
 0001:00014641       __positive                 10015641 f   LIBCMT:cvt.obj
 0001:00014683       __setdefaultprecision      10015683 f   LIBCMT:fp8.obj
 0001:000146aa       __initp_misc_cfltcvt_tab   100156aa f   LIBCMT:cmiscdat.obj
 0001:000146c9       __sse2_mathfcns_init       100156c9 f   LIBCMT:mathfcns.obj
 0001:000146e0       __CIacos_pentium4          100156e0 f   LIBCMT:acos_pentium4.obj
 0001:000146f8       __acos_pentium4            100156f8     LIBCMT:acos_pentium4.obj
 0001:00014c40       __trandisp1                10015c40 f   LIBCMT:87disp.obj
 0001:00014ca7       __trandisp2                10015ca7 f   LIBCMT:87disp.obj
 0001:00014d33       __rttospopde               10015d33     LIBCMT:87disp.obj
 0001:00014d38       __rttospop                 10015d38     LIBCMT:87disp.obj
 0001:00014d3a       __rtnospop                 10015d3a     LIBCMT:87disp.obj
 0001:00014d3c       __rttosnpop                10015d3c     LIBCMT:87disp.obj
 0001:00014d3d       __rtnospopde               10015d3d     LIBCMT:87disp.obj
 0001:00014d44       __rtzeropop                10015d44     LIBCMT:87disp.obj
 0001:00014d46       __rtzeronpop               10015d46     LIBCMT:87disp.obj
 0001:00014d4b       __rtonepop                 10015d4b     LIBCMT:87disp.obj
 0001:00014d4d       __rtonenpop                10015d4d     LIBCMT:87disp.obj
 0001:00014d52       __tosnan1                  10015d52     LIBCMT:87disp.obj
 0001:00014d7d       __nosnan2                  10015d7d     LIBCMT:87disp.obj
 0001:00014d7f       __tosnan2                  10015d7f     LIBCMT:87disp.obj
 0001:00014da7       __nan2                     10015da7     LIBCMT:87disp.obj
 0001:00014de6       __rtindfpop                10015de6     LIBCMT:87disp.obj
 0001:00014de8       __rtindfnpop               10015de8     LIBCMT:87disp.obj
 0001:00014df9       __rttosnpopde              10015df9     LIBCMT:87disp.obj
 0001:00014e03       __rtchsifneg               10015e03     LIBCMT:87disp.obj
 0001:00014e10       __startTwoArgErrorHandling 10015e10 f   LIBCMT:genexcep.obj
 0001:00014e27       __startOneArgErrorHandling 10015e27 f   LIBCMT:genexcep.obj
 0001:00014e70       __twoToTOS                 10015e70 f   LIBCMT:common.obj
 0001:00014e85       __load_CW                  10015e85 f   LIBCMT:common.obj
 0001:00014e9c       __convertTOStoQNaN         10015e9c f   LIBCMT:common.obj
 0001:00014eb5       __fload_withFB             10015eb5 f   LIBCMT:common.obj
 0001:00014ef8       __checkTOS_withFB          10015ef8 f   LIBCMT:common.obj
 0001:00014f0e       __fast_exit                10015f0e f   LIBCMT:common.obj
 0001:00014f1b       __math_exit                10015f1b f   LIBCMT:common.obj
 0001:00014f45       __check_overflow_exit      10015f45 f   LIBCMT:common.obj
 0001:00014f59       __check_range_exit         10015f59 f   LIBCMT:common.obj
 0001:00015000       __CIasin_pentium4          10016000 f   LIBCMT:asin_pentium4.obj
 0001:00015018       __asin_pentium4            10016018     LIBCMT:asin_pentium4.obj
 0001:00015580       __cintrindisp2             10016580 f   LIBCMT:87cdisp.obj
 0001:000155be       __cintrindisp1             100165be f   LIBCMT:87cdisp.obj
 0001:000155fb       __ctrandisp2               100165fb f   LIBCMT:87cdisp.obj
 0001:0001578a       __ctrandisp1               1001678a f   LIBCMT:87cdisp.obj
 0001:000157bd       __fload                    100167bd f   LIBCMT:87cdisp.obj
 0001:00015800       __CIpow_pentium4           10016800 f   LIBCMT:pow_pentium4.obj
 0001:00015819       __pow_pentium4             10016819     LIBCMT:pow_pentium4.obj
 0001:00016371       __fFEXP                    10017371     LIBCMT:87tran.obj
 0001:000163c8       __rtinfpopse               100173c8     LIBCMT:87tran.obj
 0001:000163ca       __rtinfnpopse              100173ca     LIBCMT:87tran.obj
 0001:000163da       __fFLN                     100173da     LIBCMT:87tran.obj
 0001:0001648f       __rtinfpop                 1001748f     LIBCMT:87tran.obj
 0001:00016491       __rtinfnpop                10017491     LIBCMT:87tran.obj
 0001:000164ae       __ffexpm1                  100174ae     LIBCMT:87tran.obj
 0001:00016557       __d_inttype                10017557 f   LIBCMT:powhlp.obj
 0001:000165bd       __powhlp                   100175bd f   LIBCMT:powhlp.obj
 0001:000166f3       ___libm_error_support      100176f3 f   LIBCMT:libm_error.obj
 0001:000169db       __floor_default            100179db f   LIBCMT:floor.obj
 0001:00016aae       __VEC_memset               10017aae f   LIBCMT:p4_memset.obj
 0001:00016b80       __alloca_probe             10017b80     LIBCMT:chkstk.obj
 0001:00016b80       __chkstk                   10017b80 f   LIBCMT:chkstk.obj
 0001:00016bab       ___addlocaleref            10017bab f   LIBCMT:localref.obj
 0001:00016c3b       ___freetlocinfo            10017c3b f   LIBCMT:localref.obj
 0001:00016d95       ___removelocaleref         10017d95 f   LIBCMT:localref.obj
 0001:00016e30       ___updatetlocinfo          10017e30 f   LIBCMT:localref.obj
 0001:00016eac       __updatetlocinfoEx_nolock  10017eac f   LIBCMT:localref.obj
 0001:00016ef7       ___initmbctable            10017ef7 f   LIBCMT:mbctype.obj
 0001:000171b2       ___updatetmbcinfo          100181b2 f   LIBCMT:mbctype.obj
 0001:00017257       __setmbcp                  10018257 f   LIBCMT:mbctype.obj
 0001:00017405       __setmbcp_nolock           10018405 f   LIBCMT:mbctype.obj
 0001:000175fa       __isctype_l                100185fa f   LIBCMT:isctype.obj
 0001:000176a9       __locterm                  100186a9 f   LIBCMT:wsetloca.obj
 0001:000176fb       __fltin2                   100186fb f   LIBCMT:cfin.obj
 0001:000177a0       __isleadbyte_l             100187a0 f i LIBCMT:_wctype.obj
 0001:000177d6       _isleadbyte                100187d6 f i LIBCMT:_wctype.obj
 0001:000179d0       ___crtLCMapStringA         100189d0 f   LIBCMT:a_map.obj
 0001:00017a14       __freea                    10018a14 f i LIBCMT:a_map.obj
 0001:00017a32       __crt_debugger_hook        10018a32 f   LIBCMT:dbghook.obj
 0001:00017a3a       ___initstdio               10018a3a f   LIBCMT:_file.obj
 0001:00017aad       ___endstdio                10018aad f   LIBCMT:_file.obj
 0001:00017ad4       ___iob_func                10018ad4 f   LIBCMT:_file.obj
 0001:00017ada       __lock_file                10018ada f   LIBCMT:_file.obj
 0001:00017b19       __lock_file2               10018b19 f   LIBCMT:_file.obj
 0001:00017b49       __unlock_file              10018b49 f   LIBCMT:_file.obj
 0001:00017b83       __unlock_file2             10018b83 f   LIBCMT:_file.obj
 0001:00017bb0       __fileno                   10018bb0 f   LIBCMT:fileno.obj
 0001:00017bd4       __isatty                   10018bd4 f   LIBCMT:isatty.obj
 0001:00017c28       __write                    10018c28 f   LIBCMT:write.obj
 0001:00017d0a       __write_nolock             10018d0a f   LIBCMT:write.obj
 0001:00018534       __lseeki64                 10019534 f   LIBCMT:lseeki64.obj
 0001:00018630       __lseeki64_nolock          10019630 f   LIBCMT:lseeki64.obj
 0001:000186a1       __getbuf                   100196a1 f   LIBCMT:_getbuf.obj
 0001:000186f0       _strlen                    100196f0 f   LIBCMT:strlen.obj
 0001:0001877b       __get_printf_count_output  1001977b f   LIBCMT:printf.obj
 0001:00018790       __wctomb_s_l               10019790 f   LIBCMT:wctomb.obj
 0001:000188b2       _wctomb_s                  100198b2 f   LIBCMT:wctomb.obj
 0001:000188d0       __aulldvrm                 100198d0 f   LIBCMT:ulldvrm.obj
 0001:00018965       _strcpy_s                  10019965 f   LIBCMT:strcpy_s.obj
 0001:000189ba       __lock                     100199ba f   LIBCMT:mlock.obj
 0001:000189ee       __mtdeletelocks            100199ee f   LIBCMT:mlock.obj
 0001:00018a42       __mtinitlocknum            10019a42 f   LIBCMT:mlock.obj
 0001:00018ae9       __mtinitlocks              10019ae9 f   LIBCMT:mlock.obj
 0001:00018b1e       __unlock                   10019b1e f   LIBCMT:mlock.obj
 0001:00018b40       __FindPESection            10019b40 f   LIBCMT:pesect.obj
 0001:00018b90       __IsNonwritableInCurrentImage 10019b90 f   LIBCMT:pesect.obj
 0001:00018c50       __ValidateImageBase        10019c50 f   LIBCMT:pesect.obj
 0001:00018c81       ?_inconsistency@@YAXXZ     10019c81 f   LIBCMT:hooks.obj
 0001:00018cb9       ?terminate@@YAXXZ          10019cb9 f   LIBCMT:hooks.obj
 0001:00018ced       ?unexpected@@YAXXZ         10019ced f   LIBCMT:hooks.obj
 0001:00018d00       __initp_eh_hooks           10019d00 f   LIBCMT:hooks.obj
 0001:00018d11       __initp_misc_rand_s        10019d11 f   LIBCMT:rand_s.obj
 0001:00018d1e       ___get_sigabrt             10019d1e f   LIBCMT:winsig.obj
 0001:00018d2b       __initp_misc_winsig        10019d2b f   LIBCMT:winsig.obj
 0001:00018d47       _raise                     10019d47 f   LIBCMT:winsig.obj
 0001:00018f38       _realloc                   10019f38 f   LIBCMT:realloc.obj
 0001:00018fe3       __calloc_impl              10019fe3 f   LIBCMT:calloc_impl.obj
 0001:00019060       __local_unwind4            1001a060 f   LIBCMT:exsup4.obj
 0001:00019136       __seh_longjmp_unwind4@4    1001a136 f   LIBCMT:exsup4.obj
 0001:00019152       @_EH4_CallFilterFunc@8     1001a152 f   LIBCMT:exsup4.obj
 0001:00019169       @_EH4_TransferToHandler@8  1001a169 f   LIBCMT:exsup4.obj
 0001:00019182       @_EH4_GlobalUnwind2@8      1001a182 f   LIBCMT:exsup4.obj
 0001:0001919b       @_EH4_LocalUnwind@16       1001a19b f   LIBCMT:exsup4.obj
 0001:000191b2       _wcscat_s                  1001a1b2 f   LIBCMT:wcscat_s.obj
 0001:0001921e       _wcscpy_s                  1001a21e f   LIBCMT:wcscpy_s.obj
 0001:0001927a       _wcslen                    1001a27a f   LIBCMT:wcslen.obj
 0001:00019293       _wcsncpy_s                 1001a293 f   LIBCMT:wcsncpy_s.obj
 0001:00019351       __set_error_mode           1001a351 f   LIBCMT:errmode.obj
 0001:00019391       ___crtMessageBoxW          1001a391 f   LIBCMT:crtmboxw.obj
 0001:00019573       _GetTableIndexFromLocaleName 1001a573 f   LIBCMT:winapinls.obj
 0001:000195c1       ___crtDownlevelLocaleNameToLCID 1001a5c1 f   LIBCMT:winapinls.obj
 0001:000195eb       ___crtLCMapStringEx        1001a5eb f   LIBCMT:winapinls.obj
 0001:00019637       ___wcsnicmp_ascii          1001a637 f   LIBCMT:winapinls.obj
 0001:000196fb       __ismbblead                1001a6fb f   LIBCMT:ismbbyte.obj
 0001:00019720       _strrchr                   1001a720 f   LIBCMT:strrchr.obj
 0001:00019857       __fptostr                  1001a857 f   LIBCMT:_fptostr.obj
 0001:00019907       __atodbl_l                 1001a907 f   LIBCMT:atodbl.obj
 0001:00019993       __atoflt_l                 1001a993 f   LIBCMT:atodbl.obj
 0001:00019a1f       ___dtold                   1001aa1f f   LIBCMT:cfout.obj
 0001:00019ae5       __fltout2                  1001aae5 f   LIBCMT:cfout.obj
 0001:00019b80       __alldvrm                  1001ab80 f   LIBCMT:lldvrm.obj
 0001:00019c60       __aullshr                  1001ac60 f   LIBCMT:ullshr.obj
 0001:00019c7f       __controlfp_s              1001ac7f f   LIBCMT:contrlfp.obj
 0001:00019cdc       __fptrap                   1001acdc f   LIBCMT:crt0fp.obj
 0001:00019ce5       __87except                 1001ace5 f   LIBCMT:87except.obj
 0001:00019dee       __frnd                     1001adee f   LIBCMT:frnd.obj
 0001:00019e00       __fpclass                  1001ae00 f   LIBCMT:ieeemisc.obj
 0001:00019e9c       __decomp                   1001ae9c f   LIBCMT:util.obj
 0001:00019f6e       __set_exp                  1001af6e f   LIBCMT:util.obj
 0001:00019f99       __sptype                   1001af99 f   LIBCMT:util.obj
 0001:00019ff5       __matherr                  1001aff5 f   LIBCMT:matherr.obj
 0001:00019ff8       __errcode                  1001aff8 f   LIBCMT:fpexcept.obj
 0001:0001a02a       __except1                  1001b02a f   LIBCMT:fpexcept.obj
 0001:0001a0f2       __handle_exc               1001b0f2 f   LIBCMT:fpexcept.obj
 0001:0001a2ce       __handle_qnan1             1001b2ce f   LIBCMT:fpexcept.obj
 0001:0001a31e       __raise_exc                1001b31e f   LIBCMT:fpexcept.obj
 0001:0001a33f       __raise_exc_ex             1001b33f f   LIBCMT:fpexcept.obj
 0001:0001a624       __set_errno_from_matherr   1001b624 f   LIBCMT:fpexcept.obj
 0001:0001a651       __umatherr                 1001b651 f   LIBCMT:fpexcept.obj
 0001:0001a6ef       ___set_fpsr_sse2           1001b6ef f   LIBCMT:fpctrl.obj
 0001:0001a765       __clrfp                    1001b765 f   LIBCMT:fpctrl.obj
 0001:0001a774       __ctrlfp                   1001b774 f   LIBCMT:fpctrl.obj
 0001:0001a79d       __set_statfp               1001b79d f   LIBCMT:fpctrl.obj
 0001:0001a7f3       __statfp                   1001b7f3 f   LIBCMT:fpctrl.obj
 0001:0001a801       ___free_lconv_mon          1001b801 f   LIBCMT:initmon.obj
 0001:0001a8fd       ___free_lconv_num          1001b8fd f   LIBCMT:initnum.obj
 0001:0001a964       ___free_lc_time            1001b964 f   LIBCMT:inittime.obj
 0001:0001add0       ___crtGetStringTypeA       1001bdd0 f   LIBCMT:a_str.obj
 0001:0001ae0e       __ld12tod                  1001be0e f   LIBCMT:intrncvt.obj
 0001:0001b37e       __ld12tof                  1001c37e f   LIBCMT:intrncvt.obj
 0001:0001b8ee       ___strgtold12_l            1001c8ee f   LIBCMT:strgtold.obj
 0001:0001c06a       __mbtowc_l                 1001d06a f   LIBCMT:mbtowc.obj
 0001:0001c15d       _mbtowc                    1001d15d f   LIBCMT:mbtowc.obj
 0001:0001c175       __fcloseall                1001d175 f   LIBCMT:closeall.obj
 0001:0001c212       __fflush_nolock            1001d212 f   LIBCMT:fflush.obj
 0001:0001c258       __flush                    1001d258 f   LIBCMT:fflush.obj
 0001:0001c2bc       __flushall                 1001d2bc f   LIBCMT:fflush.obj
 0001:0001c3a9       ___lock_fhandle            1001d3a9 f   LIBCMT:osfinfo.obj
 0001:0001c435       __free_osfhnd              1001d435 f   LIBCMT:osfinfo.obj
 0001:0001c4bb       __get_osfhandle            1001d4bb f   LIBCMT:osfinfo.obj
 0001:0001c522       __unlock_fhandle           1001d522 f   LIBCMT:osfinfo.obj
 0001:0001c548       __putwch_nolock            1001d548 f   LIBCMT:putwch.obj
 0001:0001c590       __global_unwind2           1001d590 f   LIBCMT:exsup.obj
 0001:0001c5f5       __local_unwind2            1001d5f5 f   LIBCMT:exsup.obj
 0001:0001c679       __abnormal_termination     1001d679 f   LIBCMT:exsup.obj
 0001:0001c69c       __NLG_Notify1              1001d69c f   LIBCMT:exsup.obj
 0001:0001c6a5       __NLG_Notify               1001d6a5 f   LIBCMT:exsup.obj
 0001:0001c6bc       __NLG_Dispatch             1001d6bc     LIBCMT:exsup.obj
 0001:0001c6bc       __NLG_Dispatch2            1001d6bc     LIBCMT:exsup.obj
 0001:0001c6c4       __NLG_Call                 1001d6c4 f   LIBCMT:exsup.obj
 0001:0001c6c6       __NLG_Return2              1001d6c6     LIBCMT:exsup.obj
 0001:0001c6c7       _$I10_OUTPUT               1001d6c7 f   LIBCMT:x10fout.obj
 0001:0001d134       __control87                1001e134 f i LIBCMT:ieee87.obj
 0001:0001d4cb       ___mtold12                 1001e4cb f   LIBCMT:mantold.obj
 0001:0001d6ad       __fclose_nolock            1001e6ad f   LIBCMT:fclose.obj
 0001:0001d719       _fclose                    1001e719 f   LIBCMT:fclose.obj
 0001:0001d790       __commit                   1001e790 f   LIBCMT:commit.obj
 0001:0001d876       ___termconout              1001e876 f   LIBCMT:initcon.obj
 0001:0001d88d       ___initconout              1001e88d f   LIBCMT:initcon.obj
 0001:0001d8ac       __close                    1001e8ac f   LIBCMT:close.obj
 0001:0001d976       __close_nolock             1001e976 f   LIBCMT:close.obj
 0001:0001da10       __freebuf                  1001ea10 f   LIBCMT:_freebuf.obj
 0001:0001da40       __allmul                   1001ea40 f   LIBCMT:llmul.obj
 0001:0001da74       ??0length_error@std@@QAE@ABV01@@Z 1001ea74 f i libcpmt:xthrow.obj
 0001:0001da8f       ??0logic_error@std@@QAE@ABV01@@Z 1001ea8f f i libcpmt:xthrow.obj
 0001:0001daaa       ??0out_of_range@std@@QAE@ABV01@@Z 1001eaaa f i libcpmt:xthrow.obj
 0001:0001dac5       ??1length_error@std@@UAE@XZ 1001eac5 f i libcpmt:xthrow.obj
 0001:0001dac5       ??1out_of_range@std@@UAE@XZ 1001eac5 f i libcpmt:xthrow.obj
 0001:0001daca       ??_Elogic_error@std@@UAEPAXI@Z 1001eaca f i libcpmt:xthrow.obj
 0001:0001daca       ??_Gout_of_range@std@@UAEPAXI@Z 1001eaca f i libcpmt:xthrow.obj
 0001:0001daca       ??_Glogic_error@std@@UAEPAXI@Z 1001eaca f i libcpmt:xthrow.obj
 0001:0001daca       ??_Glength_error@std@@UAEPAXI@Z 1001eaca f i libcpmt:xthrow.obj
 0001:0001daca       ??_Eout_of_range@std@@UAEPAXI@Z 1001eaca f i libcpmt:xthrow.obj
 0001:0001daca       ??_Elength_error@std@@UAEPAXI@Z 1001eaca f i libcpmt:xthrow.obj
 0001:0001dae9       ?_Xbad_alloc@std@@YAXXZ    1001eae9 f   libcpmt:xthrow.obj
 0001:0001db1a       ?_Xlength_error@std@@YAXPBD@Z 1001eb1a f   libcpmt:xthrow.obj
 0001:0001db48       ?_Xout_of_range@std@@YAXPBD@Z 1001eb48 f   libcpmt:xthrow.obj
 0001:0001db76       ?_Syserror_map@std@@YAPBDH@Z 1001eb76 f   libcpmt:syserror.obj
 0001:0001dba0       ?_Winerror_map@std@@YAPBDH@Z 1001eba0 f   libcpmt:syserror.obj
 0001:0001dbca       _IsProcessorFeaturePresent@4 1001ebca f   kernel32:KERNEL32.dll
 0001:0001dbd0       _RtlUnwind@16              1001ebd0 f   kernel32:KERNEL32.dll
 0001:0001dbd6       __EH_prolog3_catch         1001ebd6 f   LIBCMT:ehprolg3.obj
 0001:0001dcda       ?_CallCatchBlock2@@YAPAXPAUEHRegistrationNode@@PBU_s_FuncInfo@@PAXHK@Z 1001ecda f   LIBCMT:_trnsctrl_.obj
 0001:0001dd38       ?_CallMemberFunction1@@YGXPAX00@Z 1001ed38 f   LIBCMT:_trnsctrl_.obj
 0001:0001dd38       ?_CallMemberFunction2@@YGXPAX00H@Z 1001ed38 f   LIBCMT:_trnsctrl_.obj
 0001:0001dd38       ?_CallMemberFunction0@@YGXPAX0@Z 1001ed38 f   LIBCMT:_trnsctrl_.obj
 0001:0001dd3f       ?_CallSETranslator@@YAHPAUEHExceptionRecord@@PAUEHRegistrationNode@@PAX2PBU_s_FuncInfo@@H1@Z 1001ed3f f   LIBCMT:_trnsctrl_.obj
 0001:0001de14       ?_GetRangeOfTrysToCheck@@YAPBU_s_TryBlockMapEntry@@PBU_s_FuncInfo@@HHPAI1@Z 1001ee14 f   LIBCMT:_trnsctrl_.obj
 0001:0001de93       ?_JumpToContinuation@@YGXPAXPAUEHRegistrationNode@@@Z 1001ee93 f   LIBCMT:_trnsctrl_.obj
 0001:0001dec3       ?_UnwindNestedFrames@@YGXPAUEHRegistrationNode@@PAUEHExceptionRecord@@@Z 1001eec3 f   LIBCMT:_trnsctrl_.obj
 0001:0001df16       __CreateFrameInfo          1001ef16 f   LIBCMT:_trnsctrl_.obj
 0001:0001df40       __FindAndUnlinkFrame       1001ef40 f   LIBCMT:_trnsctrl_.obj
 0001:0001df90       __IsExceptionObjectToBeDestroyed 1001ef90 f   LIBCMT:_trnsctrl_.obj
 0001:0001dfb9       ___CxxFrameHandler3        1001efb9 f   LIBCMT:_trnsctrl_.obj
 0001:0001dff0       __CallSettingFrame@12      1001eff0 f   LIBCMT:lowhelpr.obj
 0001:0001e017       __NLG_Return               1001f017     LIBCMT:lowhelpr.obj
 0001:0001e03c       ___DestructExceptionObject 1001f03c f   LIBCMT:frame.obj
 0001:0001e0c7       ??0bad_exception@std@@QAE@ABV01@@Z 1001f0c7 f i LIBCMT:frame.obj
 0001:0001e0e2       ??1bad_exception@std@@UAE@XZ 1001f0e2 f i LIBCMT:frame.obj
 0001:0001e0ed       ??_Gbad_exception@std@@UAEPAXI@Z 1001f0ed f i LIBCMT:frame.obj
 0001:0001e0ed       ??_Ebad_exception@std@@UAEPAXI@Z 1001f0ed f i LIBCMT:frame.obj
 0001:0001e923       ___AdjustPointer           1001f923 f   LIBCMT:frame.obj
 0001:0001e948       ___BuildCatchObject        1001f948 f   LIBCMT:frame.obj
 0001:0001e9d6       ___BuildCatchObjectHelper  1001f9d6 f   LIBCMT:frame.obj
 0001:0001eb5b       ___FrameUnwindFilter       1001fb5b f   LIBCMT:frame.obj
 0001:0001eba9       ___FrameUnwindToState      1001fba9 f   LIBCMT:frame.obj
 0001:0001ec82       ___InternalCxxFrameHandler 1001fc82 f   LIBCMT:frame.obj
 0001:0001ed61       ___TypeMatch               1001fd61 f   LIBCMT:frame.obj
 0001:0001edbe       ?_ValidateRead@@YAHPBXI@Z  1001fdbe f   LIBCMT:validate.obj
 0001:0001edbe       ?_ValidateExecute@@YAHP6GHXZ@Z 1001fdbe f   LIBCMT:validate.obj
 0001:0001edbe       ?_ValidateWrite@@YAHPAXI@Z 1001fdbe f   LIBCMT:validate.obj
 0001:0001edd0       __libm_sse2_sqrt_precise   1001fdd0 f   LIBCMT:sqrt_sse2_precise.obj
 0001:0001eed0       __CIsqrt                   1001fed0 f   LIBCMT:sqrt.obj
 0001:0001eee4       _sqrt                      1001fee4     LIBCMT:sqrt.obj
 0002:00000000       __imp__InterlockedIncrement@4 10021000     kernel32:KERNEL32.dll
 0002:00000004       __imp__CreateFileW@28      10021004     kernel32:KERNEL32.dll
 0002:00000008       __imp__FlushFileBuffers@4  10021008     kernel32:KERNEL32.dll
 0002:0000000c       __imp__WriteConsoleW@20    1002100c     kernel32:KERNEL32.dll
 0002:00000010       __imp__SetStdHandle@8      10021010     kernel32:KERNEL32.dll
 0002:00000014       __imp__GetStringTypeW@16   10021014     kernel32:KERNEL32.dll
 0002:00000018       __imp__LCMapStringW@24     10021018     kernel32:KERNEL32.dll
 0002:0000001c       __imp__GetProcAddress@8    1002101c     kernel32:KERNEL32.dll
 0002:00000020       __imp__GetModuleHandleA@4  10021020     kernel32:KERNEL32.dll
 0002:00000024       __imp__MultiByteToWideChar@24 10021024     kernel32:KERNEL32.dll
 0002:00000028       __imp__WideCharToMultiByte@32 10021028     kernel32:KERNEL32.dll
 0002:0000002c       __imp__LoadLibraryW@4      1002102c     kernel32:KERNEL32.dll
 0002:00000030       __imp__OutputDebugStringW@4 10021030     kernel32:KERNEL32.dll
 0002:00000034       __imp__RtlUnwind@16        10021034     kernel32:KERNEL32.dll
 0002:00000038       __imp__HeapReAlloc@16      10021038     kernel32:KERNEL32.dll
 0002:0000003c       __imp__LoadLibraryExW@12   1002103c     kernel32:KERNEL32.dll
 0002:00000040       __imp__EncodePointer@4     10021040     kernel32:KERNEL32.dll
 0002:00000044       __imp__DecodePointer@4     10021044     kernel32:KERNEL32.dll
 0002:00000048       __imp__GetSystemTimeAsFileTime@4 10021048     kernel32:KERNEL32.dll
 0002:0000004c       __imp__GetCommandLineA@0   1002104c     kernel32:KERNEL32.dll
 0002:00000050       __imp__GetCurrentThreadId@0 10021050     kernel32:KERNEL32.dll
 0002:00000054       __imp__GetLastError@0      10021054     kernel32:KERNEL32.dll
 0002:00000058       __imp__IsDebuggerPresent@0 10021058     kernel32:KERNEL32.dll
 0002:0000005c       __imp__IsProcessorFeaturePresent@4 1002105c     kernel32:KERNEL32.dll
 0002:00000060       __imp__HeapFree@12         10021060     kernel32:KERNEL32.dll
 0002:00000064       __imp__HeapAlloc@12        10021064     kernel32:KERNEL32.dll
 0002:00000068       __imp__RaiseException@16   10021068     kernel32:KERNEL32.dll
 0002:0000006c       __imp__InterlockedDecrement@4 1002106c     kernel32:KERNEL32.dll
 0002:00000070       __imp__ExitProcess@4       10021070     kernel32:KERNEL32.dll
 0002:00000074       __imp__GetModuleHandleExW@12 10021074     kernel32:KERNEL32.dll
 0002:00000078       __imp__HeapSize@12         10021078     kernel32:KERNEL32.dll
 0002:0000007c       __imp__Sleep@4             1002107c     kernel32:KERNEL32.dll
 0002:00000080       __imp__GetStdHandle@4      10021080     kernel32:KERNEL32.dll
 0002:00000084       __imp__WriteFile@20        10021084     kernel32:KERNEL32.dll
 0002:00000088       __imp__GetModuleFileNameW@12 10021088     kernel32:KERNEL32.dll
 0002:0000008c       __imp__SetLastError@4      1002108c     kernel32:KERNEL32.dll
 0002:00000090       __imp__CloseHandle@4       10021090     kernel32:KERNEL32.dll
 0002:00000094       __imp__GetProcessHeap@0    10021094     kernel32:KERNEL32.dll
 0002:00000098       __imp__GetFileType@4       10021098     kernel32:KERNEL32.dll
 0002:0000009c       __imp__InitializeCriticalSectionAndSpinCount@8 1002109c     kernel32:KERNEL32.dll
 0002:000000a0       __imp__DeleteCriticalSection@4 100210a0     kernel32:KERNEL32.dll
 0002:000000a4       __imp__GetStartupInfoW@4   100210a4     kernel32:KERNEL32.dll
 0002:000000a8       __imp__GetModuleFileNameA@12 100210a8     kernel32:KERNEL32.dll
 0002:000000ac       __imp__QueryPerformanceCounter@4 100210ac     kernel32:KERNEL32.dll
 0002:000000b0       __imp__GetCurrentProcessId@0 100210b0     kernel32:KERNEL32.dll
 0002:000000b4       __imp__GetEnvironmentStringsW@0 100210b4     kernel32:KERNEL32.dll
 0002:000000b8       __imp__FreeEnvironmentStringsW@4 100210b8     kernel32:KERNEL32.dll
 0002:000000bc       __imp__UnhandledExceptionFilter@4 100210bc     kernel32:KERNEL32.dll
 0002:000000c0       __imp__SetUnhandledExceptionFilter@4 100210c0     kernel32:KERNEL32.dll
 0002:000000c4       __imp__GetCurrentProcess@0 100210c4     kernel32:KERNEL32.dll
 0002:000000c8       __imp__TerminateProcess@8  100210c8     kernel32:KERNEL32.dll
 0002:000000cc       __imp__TlsAlloc@0          100210cc     kernel32:KERNEL32.dll
 0002:000000d0       __imp__TlsGetValue@4       100210d0     kernel32:KERNEL32.dll
 0002:000000d4       __imp__TlsSetValue@8       100210d4     kernel32:KERNEL32.dll
 0002:000000d8       __imp__TlsFree@4           100210d8     kernel32:KERNEL32.dll
 0002:000000dc       __imp__GetModuleHandleW@4  100210dc     kernel32:KERNEL32.dll
 0002:000000e0       __imp__IsValidCodePage@4   100210e0     kernel32:KERNEL32.dll
 0002:000000e4       __imp__GetACP@0            100210e4     kernel32:KERNEL32.dll
 0002:000000e8       __imp__GetOEMCP@0          100210e8     kernel32:KERNEL32.dll
 0002:000000ec       __imp__GetCPInfo@8         100210ec     kernel32:KERNEL32.dll
 0002:000000f0       __imp__EnterCriticalSection@4 100210f0     kernel32:KERNEL32.dll
 0002:000000f4       __imp__LeaveCriticalSection@4 100210f4     kernel32:KERNEL32.dll
 0002:000000f8       __imp__GetConsoleCP@0      100210f8     kernel32:KERNEL32.dll
 0002:000000fc       __imp__GetConsoleMode@8    100210fc     kernel32:KERNEL32.dll
 0002:00000100       __imp__SetFilePointerEx@20 10021100     kernel32:KERNEL32.dll
 0002:00000104       \177KERNEL32_NULL_THUNK_DATA 10021104     kernel32:KERNEL32.dll
 0002:00000108       __imp___AssertValidWritePtr 10021108     tier0:tier0.dll
 0002:0000010c       __imp__AssertValidStringPtr 1002110c     tier0:tier0.dll
 0002:00000110       __imp__Msg                 10021110     tier0:tier0.dll
 0002:00000114       __imp__g_pMemAlloc         10021114     tier0:tier0.dll
 0002:00000118       __imp__Error               10021118     tier0:tier0.dll
 0002:0000011c       __imp_?Lock@CThreadMutex@@QAEXXZ 1002111c     tier0:tier0.dll
 0002:00000120       __imp_?Unlock@CThreadMutex@@QAEXXZ 10021120     tier0:tier0.dll
 0002:00000124       __imp_??0CThreadMutex@@QAE@XZ 10021124     tier0:tier0.dll
 0002:00000128       __imp_??1CThreadMutex@@QAE@XZ 10021128     tier0:tier0.dll
 0002:0000012c       \177tier0_NULL_THUNK_DATA  1002112c     tier0:tier0.dll
 0002:00000130       __imp__CreateThreadPool    10021130     vstdlib:vstdlib.dll
 0002:00000134       __imp__DestroyThreadPool   10021134     vstdlib:vstdlib.dll
 0002:00000138       \177vstdlib_NULL_THUNK_DATA 10021138     vstdlib:vstdlib.dll
 0002:0000013c       ___xc_a                    1002113c     LIBCMT:crt0init.obj
 0002:000001f4       ___xc_z                    100211f4     LIBCMT:crt0init.obj
 0002:000001f8       ___xi_a                    100211f8     LIBCMT:crt0init.obj
 0002:00000210       ___xi_z                    10021210     LIBCMT:crt0init.obj
 0002:00000214       ___xp_a                    10021214     LIBCMT:crt0init.obj
 0002:00000224       ___xp_z                    10021224     LIBCMT:crt0init.obj
 0002:00000228       ___xt_a                    10021228     LIBCMT:crt0init.obj
 0002:0000022c       ___xt_z                    1002122c     LIBCMT:crt0init.obj
 0002:00000268       ?nanmask@@3HB              10021268     mathlib:mathlib_base.obj
 0002:0000026c       __real@34000000            1002126c     mathlib:mathlib_base.obj
 0002:00000270       __real@3fe0000000000000    10021270     mathlib:mathlib_base.obj
 0002:00000340       ??_C@_0BA@OBHPCBFP@CreateInterface?$AA@ 10021340     tier1:interface.obj
 0002:00000350       ??_C@_00CNPNBAHC@?$AA@     10021350     tier1:utlbuffer.obj
 0002:00000354       ??_C@_01BJJEKLCA@?$CC?$AA@ 10021354     tier1:utlbuffer.obj
 0002:00000358       ??_C@_01GEODFPGF@?8?$AA@   10021358     tier1:utlbuffer.obj
 0002:0000035c       ??_C@_01OGPIMHDM@?$DP?$AA@ 1002135c     tier1:utlbuffer.obj
 0002:00000360       ??_C@_01KICIPPFI@?2?$AA@   10021360     tier1:utlbuffer.obj
 0002:00000364       ??_C@_01MCMALHOG@a?$AA@    10021364     tier1:utlbuffer.obj
 0002:00000368       ??_C@_01INIBCBCB@f?$AA@    10021368     tier1:utlbuffer.obj
 0002:0000036c       ??_C@_01KDCPPGHE@r?$AA@    1002136c     tier1:utlbuffer.obj
 0002:00000370       ??_C@_01OJONOECF@b?$AA@    10021370     tier1:utlbuffer.obj
 0002:00000374       ??_C@_01MHEDDDHA@v?$AA@    10021374     tier1:utlbuffer.obj
 0002:00000378       ??_C@_01PFHFFBPC@t?$AA@    10021378     tier1:utlbuffer.obj
 0002:0000037c       ??_C@_01EFFIKLCJ@n?$AA@    1002137c     tier1:utlbuffer.obj
 0002:00000384       ??_7CUtlCharConversion@@6B@ 10021384     tier1:utlbuffer.obj
 0002:0000038c       ??_7CUtlNoEscConversion@@6B@ 1002138c     tier1:utlbuffer.obj
 0002:00000394       ??_7CUtlCStringConversion@@6B@ 10021394     tier1:utlbuffer.obj
 0002:00000398       ??_C@_02HAOIJKIC@?$CFc?$AA@ 10021398     tier1:utlbuffer.obj
 0002:0000039c       ??_C@_01JOAMLHOP@?9?$AA@   1002139c     tier1:strtools.obj
 0002:000003a4       ??_7bad_alloc@std@@6B@     100213a4     LIBCMT:new.obj
 0002:000003ac       ??_C@_0P@GHFPNOJB@bad?5allocation?$AA@ 100213ac     LIBCMT:new.obj
 0002:000003c0       ??_7type_info@@6B@         100213c0     LIBCMT:typinfo.obj
 0002:000003c4       __pRawDllMain              100213c4     LIBCMT:dllcrt0.obj
 0002:000003c4       __pDefaultRawDllMain       100213c4     LIBCMT:dllcrt0.obj
 0002:000003c8       __FPinit                   100213c8     LIBCMT:fpinit.obj
 0002:000003d0       __OP_FMODjmptab            100213d0     LIBCMT:87fmod.obj
 0002:00000478       ??_C@_06OJHGLDPL@?$CInull?$CJ?$AA@ 10021478     LIBCMT:output.obj
 0002:00000480       ??_C@_1O@CEDCILHN@?$AA?$CI?$AAn?$AAu?$AAl?$AAl?$AA?$CJ?$AA?$AA@ 10021480     LIBCMT:output.obj
 0002:00000490       ___lookuptable             10021490     LIBCMT:output.obj
 0002:000004f0       ___lookuptable_s           100214f0     LIBCMT:outputs.obj
 0002:00000550       ??_7exception@std@@6B@     10021550     LIBCMT:stdexcpt.obj
 0002:00000558       ??_C@_0BC@EOODALEL@Unknown?5exception?$AA@ 10021558     LIBCMT:stdexcpt.obj
 0002:0000058c       ??_C@_1BI@BGOHAHKC@?$AAm?$AAs?$AAc?$AAo?$AAr?$AAe?$AAe?$AA?4?$AAd?$AAl?$AAl?$AA?$AA@ 1002158c     LIBCMT:crt0dat.obj
 0002:000005a4       ??_C@_0P@MIGLKIOC@CorExitProcess?$AA@ 100215a4     LIBCMT:crt0dat.obj
 0002:000005b8       ??_C@_1FE@LLNEDJMD@?$AAR?$AA6?$AA0?$AA0?$AA8?$AA?$AN?$AA?6?$AA?9?$AA?5?$AAn?$AAo?$AAt?$AA?5?$AAe?$AAn?$AAo?$AAu?$AAg?$AAh?$AA?5?$AAs?$AAp?$AAa?$AAc?$AAe?$AA?5?$AAf?$AAo?$AAr?$AA?5?$AAa?$AAr@ 100215b8     LIBCMT:crt0msg.obj
 0002:00000610       ??_C@_1FI@HONFMGBI@?$AAR?$AA6?$AA0?$AA0?$AA9?$AA?$AN?$AA?6?$AA?9?$AA?5?$AAn?$AAo?$AAt?$AA?5?$AAe?$AAn?$AAo?$AAu?$AAg?$AAh?$AA?5?$AAs?$AAp?$AAa?$AAc?$AAe?$AA?5?$AAf?$AAo?$AAr?$AA?5?$AAe?$AAn@ 10021610     LIBCMT:crt0msg.obj
 0002:00000668       ??_C@_1EG@BEHAGFJD@?$AAR?$AA6?$AA0?$AA1?$AA0?$AA?$AN?$AA?6?$AA?9?$AA?5?$AAa?$AAb?$AAo?$AAr?$AAt?$AA?$CI?$AA?$CJ?$AA?5?$AAh?$AAa?$AAs?$AA?5?$AAb?$AAe?$AAe?$AAn?$AA?5?$AAc?$AAa?$AAl?$AAl?$AAe?$AAd@ 10021668     LIBCMT:crt0msg.obj
 0002:000006b0       ??_C@_1FI@LOGNIKDM@?$AAR?$AA6?$AA0?$AA1?$AA6?$AA?$AN?$AA?6?$AA?9?$AA?5?$AAn?$AAo?$AAt?$AA?5?$AAe?$AAn?$AAo?$AAu?$AAg?$AAh?$AA?5?$AAs?$AAp?$AAa?$AAc?$AAe?$AA?5?$AAf?$AAo?$AAr?$AA?5?$AAt?$AAh@ 100216b0     LIBCMT:crt0msg.obj
 0002:00000708       ??_C@_1FK@BEOGODMC@?$AAR?$AA6?$AA0?$AA1?$AA7?$AA?$AN?$AA?6?$AA?9?$AA?5?$AAu?$AAn?$AAe?$AAx?$AAp?$AAe?$AAc?$AAt?$AAe?$AAd?$AA?5?$AAm?$AAu?$AAl?$AAt?$AAi?$AAt?$AAh?$AAr?$AAe?$AAa?$AAd?$AA?5@ 10021708     LIBCMT:crt0msg.obj
 0002:00000768       ??_C@_1EC@JIBHAOPH@?$AAR?$AA6?$AA0?$AA1?$AA8?$AA?$AN?$AA?6?$AA?9?$AA?5?$AAu?$AAn?$AAe?$AAx?$AAp?$AAe?$AAc?$AAt?$AAe?$AAd?$AA?5?$AAh?$AAe?$AAa?$AAp?$AA?5?$AAe?$AAr?$AAr?$AAo?$AAr?$AA?$AN?$AA?6@ 10021768     LIBCMT:crt0msg.obj
 0002:000007b0       ??_C@_1FC@ECHBIFBC@?$AAR?$AA6?$AA0?$AA1?$AA9?$AA?$AN?$AA?6?$AA?9?$AA?5?$AAu?$AAn?$AAa?$AAb?$AAl?$AAe?$AA?5?$AAt?$AAo?$AA?5?$AAo?$AAp?$AAe?$AAn?$AA?5?$AAc?$AAo?$AAn?$AAs?$AAo?$AAl?$AAe?$AA?5@ 100217b0     LIBCMT:crt0msg.obj
 0002:00000808       ??_C@_1GK@FHCKBEFA@?$AAR?$AA6?$AA0?$AA2?$AA4?$AA?$AN?$AA?6?$AA?9?$AA?5?$AAn?$AAo?$AAt?$AA?5?$AAe?$AAn?$AAo?$AAu?$AAg?$AAh?$AA?5?$AAs?$AAp?$AAa?$AAc?$AAe?$AA?5?$AAf?$AAo?$AAr?$AA?5?$AA_?$AAo@ 10021808     LIBCMT:crt0msg.obj
 0002:00000878       ??_C@_1EM@MAADIHMB@?$AAR?$AA6?$AA0?$AA2?$AA5?$AA?$AN?$AA?6?$AA?9?$AA?5?$AAp?$AAu?$AAr?$AAe?$AA?5?$AAv?$AAi?$AAr?$AAt?$AAu?$AAa?$AAl?$AA?5?$AAf?$AAu?$AAn?$AAc?$AAt?$AAi?$AAo?$AAn?$AA?5?$AAc@ 10021878     LIBCMT:crt0msg.obj
 0002:000008c8       ??_C@_1GK@MCAAGJMO@?$AAR?$AA6?$AA0?$AA2?$AA6?$AA?$AN?$AA?6?$AA?9?$AA?5?$AAn?$AAo?$AAt?$AA?5?$AAe?$AAn?$AAo?$AAu?$AAg?$AAh?$AA?5?$AAs?$AAp?$AAa?$AAc?$AAe?$AA?5?$AAf?$AAo?$AAr?$AA?5?$AAs?$AAt@ 100218c8     LIBCMT:crt0msg.obj
 0002:00000938       ??_C@_1GK@MFGOKLAG@?$AAR?$AA6?$AA0?$AA2?$AA7?$AA?$AN?$AA?6?$AA?9?$AA?5?$AAn?$AAo?$AAt?$AA?5?$AAe?$AAn?$AAo?$AAu?$AAg?$AAh?$AA?5?$AAs?$AAp?$AAa?$AAc?$AAe?$AA?5?$AAf?$AAo?$AAr?$AA?5?$AAl?$AAo@ 10021938     LIBCMT:crt0msg.obj
 0002:000009a8       ??_C@_1EK@HHFLMAOL@?$AAR?$AA6?$AA0?$AA2?$AA8?$AA?$AN?$AA?6?$AA?9?$AA?5?$AAu?$AAn?$AAa?$AAb?$AAl?$AAe?$AA?5?$AAt?$AAo?$AA?5?$AAi?$AAn?$AAi?$AAt?$AAi?$AAa?$AAl?$AAi?$AAz?$AAe?$AA?5?$AAh?$AAe@ 100219a8     LIBCMT:crt0msg.obj
 0002:000009f4       ??_C@_1DO@BMFCDCD@?$AAR?$AA6?$AA0?$AA3?$AA0?$AA?$AN?$AA?6?$AA?9?$AA?5?$AAC?$AAR?$AAT?$AA?5?$AAn?$AAo?$AAt?$AA?5?$AAi?$AAn?$AAi?$AAt?$AAi?$AAa?$AAl?$AAi?$AAz?$AAe?$AAd?$AA?$AN?$AA?6?$AA?$AA@ 100219f4     LIBCMT:crt0msg.obj
 0002:00000a38       ??_C@_1MG@ENCOOIDF@?$AAR?$AA6?$AA0?$AA3?$AA1?$AA?$AN?$AA?6?$AA?9?$AA?5?$AAA?$AAt?$AAt?$AAe?$AAm?$AAp?$AAt?$AA?5?$AAt?$AAo?$AA?5?$AAi?$AAn?$AAi?$AAt?$AAi?$AAa?$AAl?$AAi?$AAz?$AAe?$AA?5?$AAt@ 10021a38     LIBCMT:crt0msg.obj
 0002:00000b00       ??_C@_1GG@GOPILAJP@?$AAR?$AA6?$AA0?$AA3?$AA2?$AA?$AN?$AA?6?$AA?9?$AA?5?$AAn?$AAo?$AAt?$AA?5?$AAe?$AAn?$AAo?$AAu?$AAg?$AAh?$AA?5?$AAs?$AAp?$AAa?$AAc?$AAe?$AA?5?$AAf?$AAo?$AAr?$AA?5?$AAl?$AAo@ 10021b00     LIBCMT:crt0msg.obj
 0002:00000b68       ??_C@_1BOO@KGEDBGAJ@?$AAR?$AA6?$AA0?$AA3?$AA3?$AA?$AN?$AA?6?$AA?9?$AA?5?$AAA?$AAt?$AAt?$AAe?$AAm?$AAp?$AAt?$AA?5?$AAt?$AAo?$AA?5?$AAu?$AAs?$AAe?$AA?5?$AAM?$AAS?$AAI?$AAL?$AA?5?$AAc?$AAo?$AAd@ 10021b68     LIBCMT:crt0msg.obj
 0002:00000d58       ??_C@_1GG@MKFPEKFO@?$AAR?$AA6?$AA0?$AA3?$AA4?$AA?$AN?$AA?6?$AA?9?$AA?5?$AAi?$AAn?$AAc?$AAo?$AAn?$AAs?$AAi?$AAs?$AAt?$AAe?$AAn?$AAt?$AA?5?$AAo?$AAn?$AAe?$AAx?$AAi?$AAt?$AA?5?$AAb?$AAe?$AAg@ 10021d58     LIBCMT:crt0msg.obj
 0002:00000dc0       ??_C@_1BO@BFCDCGC@?$AAD?$AAO?$AAM?$AAA?$AAI?$AAN?$AA?5?$AAe?$AAr?$AAr?$AAo?$AAr?$AA?$AN?$AA?6?$AA?$AA@ 10021dc0     LIBCMT:crt0msg.obj
 0002:00000de0       ??_C@_1BK@KMOMNAAI@?$AAS?$AAI?$AAN?$AAG?$AA?5?$AAe?$AAr?$AAr?$AAo?$AAr?$AA?$AN?$AA?6?$AA?$AA@ 10021de0     LIBCMT:crt0msg.obj
 0002:00000dfc       ??_C@_1BM@JBBEPPHI@?$AAT?$AAL?$AAO?$AAS?$AAS?$AA?5?$AAe?$AAr?$AAr?$AAo?$AAr?$AA?$AN?$AA?6?$AA?$AA@ 10021dfc     LIBCMT:crt0msg.obj
 0002:00000e18       ??_C@_15JNBOKNOG@?$AA?$AN?$AA?6?$AA?$AA@ 10021e18     LIBCMT:crt0msg.obj
 0002:00000e20       ??_C@_1BO@BKOMIGKJ@?$AAr?$AAu?$AAn?$AAt?$AAi?$AAm?$AAe?$AA?5?$AAe?$AAr?$AAr?$AAo?$AAr?$AA?5?$AA?$AA@ 10021e20     LIBCMT:crt0msg.obj
 0002:00000ef8       ??_C@_1FK@PGACCAFB@?$AAR?$AA6?$AA0?$AA0?$AA2?$AA?$AN?$AA?6?$AA?9?$AA?5?$AAf?$AAl?$AAo?$AAa?$AAt?$AAi?$AAn?$AAg?$AA?5?$AAp?$AAo?$AAi?$AAn?$AAt?$AA?5?$AAs?$AAu?$AAp?$AAp?$AAo?$AAr?$AAt?$AA?5@ 10021ef8     LIBCMT:crt0msg.obj
 0002:00000f54       ??_C@_1DE@JNGNBFGO@?$AAR?$AAu?$AAn?$AAt?$AAi?$AAm?$AAe?$AA?5?$AAE?$AAr?$AAr?$AAo?$AAr?$AA?$CB?$AA?6?$AA?6?$AAP?$AAr?$AAo?$AAg?$AAr?$AAa?$AAm?$AA?3?$AA?5?$AA?$AA@ 10021f54     LIBCMT:crt0msg.obj
 0002:00000f88       ??_C@_1CO@EAEJAADC@?$AA?$DM?$AAp?$AAr?$AAo?$AAg?$AAr?$AAa?$AAm?$AA?5?$AAn?$AAa?$AAm?$AAe?$AA?5?$AAu?$AAn?$AAk?$AAn?$AAo?$AAw?$AAn?$AA?$DO?$AA?$AA@ 10021f88     LIBCMT:crt0msg.obj
 0002:00000fb8       ??_C@_17LGKOMLJ@?$AA?4?$AA?4?$AA?4?$AA?$AA@ 10021fb8     LIBCMT:crt0msg.obj
 0002:00000fc0       ??_C@_15IABLJNFO@?$AA?6?$AA?6?$AA?$AA@ 10021fc0     LIBCMT:crt0msg.obj
 0002:00000fc8       ??_C@_1EK@MBDPDCGA@?$AAM?$AAi?$AAc?$AAr?$AAo?$AAs?$AAo?$AAf?$AAt?$AA?5?$AAV?$AAi?$AAs?$AAu?$AAa?$AAl?$AA?5?$AAC?$AA?$CL?$AA?$CL?$AA?5?$AAR?$AAu?$AAn?$AAt?$AAi?$AAm?$AAe?$AA?5?$AAL?$AAi?$AAb@ 10021fc8     LIBCMT:crt0msg.obj
 0002:00001018       __XcptActTab               10022018     LIBCMT:winxfltr.obj
 0002:000010a8       __XcptActTabCount          100220a8     LIBCMT:winxfltr.obj
 0002:000010ac       __XcptActTabSize           100220ac     LIBCMT:winxfltr.obj
 0002:000010b0       __First_FPE_Indx           100220b0     LIBCMT:winxfltr.obj
 0002:000010b4       __Num_FPE                  100220b4     LIBCMT:winxfltr.obj
 0002:000010b8       ??_C@_1BK@MGMFAEKH@?$AAk?$AAe?$AAr?$AAn?$AAe?$AAl?$AA3?$AA2?$AA?4?$AAd?$AAl?$AAl?$AA?$AA@ 100220b8     LIBCMT:winapisupp.obj
 0002:000010d4       ??_C@_08KNHFBNJ@FlsAlloc?$AA@ 100220d4     LIBCMT:winapisupp.obj
 0002:000010e0       ??_C@_07PEJMOBNF@FlsFree?$AA@ 100220e0     LIBCMT:winapisupp.obj
 0002:000010e8       ??_C@_0M@GDNOONDI@FlsGetValue?$AA@ 100220e8     LIBCMT:winapisupp.obj
 0002:000010f4       ??_C@_0M@JCPCPOEF@FlsSetValue?$AA@ 100220f4     LIBCMT:winapisupp.obj
 0002:00001100       ??_C@_0BM@HCFOFFN@InitializeCriticalSectionEx?$AA@ 10022100     LIBCMT:winapisupp.obj
 0002:0000111c       ??_C@_0BD@KIEEOEEH@CreateSemaphoreExW?$AA@ 1002211c     LIBCMT:winapisupp.obj
 0002:00001130       ??_C@_0BI@BKLFFAPO@SetThreadStackGuarantee?$AA@ 10022130     LIBCMT:winapisupp.obj
 0002:00001148       ??_C@_0BG@OGFAJCKC@CreateThreadpoolTimer?$AA@ 10022148     LIBCMT:winapisupp.obj
 0002:00001160       ??_C@_0BD@LPLEMMDI@SetThreadpoolTimer?$AA@ 10022160     LIBCMT:winapisupp.obj
 0002:00001174       ??_C@_0CA@FMNJENH@WaitForThreadpoolTimerCallbacks?$AA@ 10022174     LIBCMT:winapisupp.obj
 0002:00001194       ??_C@_0BF@DCFCCNOC@CloseThreadpoolTimer?$AA@ 10022194     LIBCMT:winapisupp.obj
 0002:000011ac       ??_C@_0BF@FLABGKKM@CreateThreadpoolWait?$AA@ 100221ac     LIBCMT:winapisupp.obj
 0002:000011c4       ??_C@_0BC@MGCOHNA@SetThreadpoolWait?$AA@ 100221c4     LIBCMT:winapisupp.obj
 0002:000011d8       ??_C@_0BE@OCIOMIMP@CloseThreadpoolWait?$AA@ 100221d8     LIBCMT:winapisupp.obj
 0002:000011ec       ??_C@_0BJ@LKGHFHBO@FlushProcessWriteBuffers?$AA@ 100221ec     LIBCMT:winapisupp.obj
 0002:00001208       ??_C@_0BP@KALKKPMO@FreeLibraryWhenCallbackReturns?$AA@ 10022208     LIBCMT:winapisupp.obj
 0002:00001228       ??_C@_0BK@DFNBACLA@GetCurrentProcessorNumber?$AA@ 10022228     LIBCMT:winapisupp.obj
 0002:00001244       ??_C@_0BP@KHGALBC@GetLogicalProcessorInformation?$AA@ 10022244     LIBCMT:winapisupp.obj
 0002:00001264       ??_C@_0BE@FKKLLFLM@CreateSymbolicLinkW?$AA@ 10022264     LIBCMT:winapisupp.obj
 0002:00001278       ??_C@_0BJ@OHNKDLIJ@SetDefaultDllDirectories?$AA@ 10022278     LIBCMT:winapisupp.obj
 0002:00001294       ??_C@_0BE@LJANKFHF@EnumSystemLocalesEx?$AA@ 10022294     LIBCMT:winapisupp.obj
 0002:000012a8       ??_C@_0BA@IHGNDAEB@CompareStringEx?$AA@ 100222a8     LIBCMT:winapisupp.obj
 0002:000012b8       ??_C@_0BA@EPCJIIPD@GetDateFormatEx?$AA@ 100222b8     LIBCMT:winapisupp.obj
 0002:000012c8       ??_C@_0BA@ONOKGCMP@GetLocaleInfoEx?$AA@ 100222c8     LIBCMT:winapisupp.obj
 0002:000012d8       ??_C@_0BA@CIJJKCJJ@GetTimeFormatEx?$AA@ 100222d8     LIBCMT:winapisupp.obj
 0002:000012e8       ??_C@_0BJ@PBCCBIPI@GetUserDefaultLocaleName?$AA@ 100222e8     LIBCMT:winapisupp.obj
 0002:00001304       ??_C@_0BC@CELBKLLA@IsValidLocaleName?$AA@ 10022304     LIBCMT:winapisupp.obj
 0002:00001318       ??_C@_0O@KKBNKAPF@LCMapStringEx?$AA@ 10022318     LIBCMT:winapisupp.obj
 0002:00001328       ??_C@_0BE@JOGNEJCI@GetCurrentPackageId?$AA@ 10022328     LIBCMT:winapisupp.obj
 0002:0000133c       ??_C@_05KLBDPFGC@e?$CL000?$AA@ 1002233c     LIBCMT:cvt.obj
 0002:00002b70       __indefinite               10023b70     LIBCMT:87disp.obj
 0002:00002b7a       __piby2                    10023b7a     LIBCMT:87disp.obj
 0002:00002ba8       __DEFAULT_CW_in_mem        10023ba8     LIBCMT:common.obj
 0002:00002baa       __pi_by_2_to_61            10023baa     LIBCMT:common.obj
 0002:00007d40       __infinity                 10028d40     LIBCMT:87tran.obj
 0002:00007d4a       __minfinity                10028d4a     LIBCMT:87tran.obj
 0002:00007d54       __logemax                  10028d54     LIBCMT:87tran.obj
 0002:00007d7a       __OP_EXPjmptab             10028d7a     LIBCMT:87tran.obj
 0002:00007e08       ??_C@_03MGHMBJCF@log?$AA@  10028e08     LIBCMT:libm_error.obj
 0002:00007e0c       ??_C@_05HGHHAHAP@log10?$AA@ 10028e0c     LIBCMT:libm_error.obj
 0002:00007e14       ??_C@_03KHJOGHMM@exp?$AA@  10028e14     LIBCMT:libm_error.obj
 0002:00007e18       ??_C@_03JGHBODFD@pow?$AA@  10028e18     LIBCMT:libm_error.obj
 0002:00007e1c       ??_C@_04FIHNOPOL@asin?$AA@ 10028e1c     LIBCMT:libm_error.obj
 0002:00007e24       ??_C@_04PDIFKINK@acos?$AA@ 10028e24     LIBCMT:libm_error.obj
 0002:00007e2c       ??_C@_05EOHGHCHD@exp10?$AA@ 10028e2c     LIBCMT:libm_error.obj
 0002:00007e34       ??_C@_04MLLJIGOK@atan?$AA@ 10028e34     LIBCMT:libm_error.obj
 0002:00007e3c       ??_C@_04GFPJNGEK@ceil?$AA@ 10028e3c     LIBCMT:libm_error.obj
 0002:00007e44       ??_C@_05PBJFFIGL@floor?$AA@ 10028e44     LIBCMT:libm_error.obj
 0002:00007e4c       ??_C@_04EHEDPDJG@modf?$AA@ 10028e4c     LIBCMT:libm_error.obj
 0002:00007e54       ??_C@_03BLEJJJBH@sin?$AA@  10028e54     LIBCMT:libm_error.obj
 0002:00007e58       ??_C@_03LALBNOCG@cos?$AA@  10028e58     LIBCMT:libm_error.obj
 0002:00007e5c       ??_C@_03IIINPABG@tan?$AA@  10028e5c     LIBCMT:libm_error.obj
 0002:00007e60       ??_C@_04EIAKFFMI@sqrt?$AA@ 10028e60     LIBCMT:libm_error.obj
 0002:00007e78       ??_C@_1M@HPNHIDJI@?$AAj?$AAa?$AA?9?$AAJ?$AAP?$AA?$AA@ 10028e78     LIBCMT:mbctype.obj
 0002:00007e84       ??_C@_1M@BIBDDEMK@?$AAz?$AAh?$AA?9?$AAC?$AAN?$AA?$AA@ 10028e84     LIBCMT:mbctype.obj
 0002:00007e90       ??_C@_1M@JLOOOEGK@?$AAk?$AAo?$AA?9?$AAK?$AAR?$AA?$AA@ 10028e90     LIBCMT:mbctype.obj
 0002:00007e9c       ??_C@_1M@CLNBBOPM@?$AAz?$AAh?$AA?9?$AAT?$AAW?$AA?$AA@ 10028e9c     LIBCMT:mbctype.obj
 0002:00007ea8       ??_C@_03KOEHGMDN@Sun?$AA@  10028ea8     LIBCMT:nlsdata.obj
 0002:00007eac       ??_C@_03PDAGKDH@Mon?$AA@   10028eac     LIBCMT:nlsdata.obj
 0002:00007eb0       ??_C@_03NAGEINEP@Tue?$AA@  10028eb0     LIBCMT:nlsdata.obj
 0002:00007eb4       ??_C@_03MHOMLAJA@Wed?$AA@  10028eb4     LIBCMT:nlsdata.obj
 0002:00007eb8       ??_C@_03IOFIKPDN@Thu?$AA@  10028eb8     LIBCMT:nlsdata.obj
 0002:00007ebc       ??_C@_03IDIOELNC@Fri?$AA@  10028ebc     LIBCMT:nlsdata.obj
 0002:00007ec0       ??_C@_03FEFJNEK@Sat?$AA@   10028ec0     LIBCMT:nlsdata.obj
 0002:00007ec4       ??_C@_06OOPIFAJ@Sunday?$AA@ 10028ec4     LIBCMT:nlsdata.obj
 0002:00007ecc       ??_C@_06JLEDEDGH@Monday?$AA@ 10028ecc     LIBCMT:nlsdata.obj
 0002:00007ed4       ??_C@_07BAAGCFCM@Tuesday?$AA@ 10028ed4     LIBCMT:nlsdata.obj
 0002:00007edc       ??_C@_09DLIGFAKA@Wednesday?$AA@ 10028edc     LIBCMT:nlsdata.obj
 0002:00007ee8       ??_C@_08HACCIKIA@Thursday?$AA@ 10028ee8     LIBCMT:nlsdata.obj
 0002:00007ef4       ??_C@_06JECMNKMI@Friday?$AA@ 10028ef4     LIBCMT:nlsdata.obj
 0002:00007efc       ??_C@_08INBOOONO@Saturday?$AA@ 10028efc     LIBCMT:nlsdata.obj
 0002:00007f08       ??_C@_03JIHJHPIE@Jan?$AA@  10028f08     LIBCMT:nlsdata.obj
 0002:00007f0c       ??_C@_03HJBDCHOM@Feb?$AA@  10028f0c     LIBCMT:nlsdata.obj
 0002:00007f10       ??_C@_03ODNJBKGA@Mar?$AA@  10028f10     LIBCMT:nlsdata.obj
 0002:00007f14       ??_C@_03LEOLGMJP@Apr?$AA@  10028f14     LIBCMT:nlsdata.obj
 0002:00007f18       ??_C@_03CNMDKL@May?$AA@    10028f18     LIBCMT:nlsdata.obj
 0002:00007f1c       ??_C@_03IDFGHECI@Jun?$AA@  10028f1c     LIBCMT:nlsdata.obj
 0002:00007f20       ??_C@_03LBGABGKK@Jul?$AA@  10028f20     LIBCMT:nlsdata.obj
 0002:00007f24       ??_C@_03IFJFEIGA@Aug?$AA@  10028f24     LIBCMT:nlsdata.obj
 0002:00007f28       ??_C@_03GGCAPAJC@Sep?$AA@  10028f28     LIBCMT:nlsdata.obj
 0002:00007f2c       ??_C@_03BMAOKBAD@Oct?$AA@  10028f2c     LIBCMT:nlsdata.obj
 0002:00007f30       ??_C@_03JPJOFNIA@Nov?$AA@  10028f30     LIBCMT:nlsdata.obj
 0002:00007f34       ??_C@_03MKABNOCG@Dec?$AA@  10028f34     LIBCMT:nlsdata.obj
 0002:00007f38       ??_C@_07CGJPFGJA@January?$AA@ 10028f38     LIBCMT:nlsdata.obj
 0002:00007f40       ??_C@_08GNJGEPFN@February?$AA@ 10028f40     LIBCMT:nlsdata.obj
 0002:00007f4c       ??_C@_05HPCKOFNC@March?$AA@ 10028f4c     LIBCMT:nlsdata.obj
 0002:00007f54       ??_C@_05DMJDNLEJ@April?$AA@ 10028f54     LIBCMT:nlsdata.obj
 0002:00007f5c       ??_C@_04CNLMGBGM@June?$AA@ 10028f5c     LIBCMT:nlsdata.obj
 0002:00007f64       ??_C@_04MIEPOIFP@July?$AA@ 10028f64     LIBCMT:nlsdata.obj
 0002:00007f6c       ??_C@_06LBBHFDDG@August?$AA@ 10028f6c     LIBCMT:nlsdata.obj
 0002:00007f74       ??_C@_09BHHEALKD@September?$AA@ 10028f74     LIBCMT:nlsdata.obj
 0002:00007f80       ??_C@_07JJNFCEND@October?$AA@ 10028f80     LIBCMT:nlsdata.obj
 0002:00007f88       ??_C@_08HCHEGEOA@November?$AA@ 10028f88     LIBCMT:nlsdata.obj
 0002:00007f94       ??_C@_08EDHMEBNP@December?$AA@ 10028f94     LIBCMT:nlsdata.obj
 0002:00007fa0       ??_C@_02DEDBPAFC@AM?$AA@   10028fa0     LIBCMT:nlsdata.obj
 0002:00007fa4       ??_C@_02CJNFDJBF@PM?$AA@   10028fa4     LIBCMT:nlsdata.obj
 0002:00007fa8       ??_C@_08BPBNCDIB@MM?1dd?1yy?$AA@ 10028fa8     LIBCMT:nlsdata.obj
 0002:00007fb4       ??_C@_0BE@CKGJFCPC@dddd?0?5MMMM?5dd?0?5yyyy?$AA@ 10028fb4     LIBCMT:nlsdata.obj
 0002:00007fc8       ??_C@_08JCCMCCIL@HH?3mm?3ss?$AA@ 10028fc8     LIBCMT:nlsdata.obj
 0002:00007fd4       ??_C@_17MBGCMIPB@?$AAS?$AAu?$AAn?$AA?$AA@ 10028fd4     LIBCMT:nlsdata.obj
 0002:00007fdc       ??_C@_17KBOMKBF@?$AAM?$AAo?$AAn?$AA?$AA@ 10028fdc     LIBCMT:nlsdata.obj
 0002:00007fe4       ??_C@_17BMKGEGOJ@?$AAT?$AAu?$AAe?$AA?$AA@ 10028fe4     LIBCMT:nlsdata.obj
 0002:00007fec       ??_C@_17CJEDCEPE@?$AAW?$AAe?$AAd?$AA?$AA@ 10028fec     LIBCMT:nlsdata.obj
 0002:00007ff4       ??_C@_17PDPHAADD@?$AAT?$AAh?$AAu?$AA?$AA@ 10028ff4     LIBCMT:nlsdata.obj
 0002:00007ffc       ??_C@_17HFOLPPLP@?$AAF?$AAr?$AAi?$AA?$AA@ 10028ffc     LIBCMT:nlsdata.obj
 0002:00008004       ??_C@_17GGIBDPIH@?$AAS?$AAa?$AAt?$AA?$AA@ 10029004     LIBCMT:nlsdata.obj
 0002:0000800c       ??_C@_1O@IHNHDHPB@?$AAS?$AAu?$AAn?$AAd?$AAa?$AAy?$AA?$AA@ 1002900c     LIBCMT:nlsdata.obj
 0002:0000801c       ??_C@_1O@MMNBFLIA@?$AAM?$AAo?$AAn?$AAd?$AAa?$AAy?$AA?$AA@ 1002901c     LIBCMT:nlsdata.obj
 0002:0000802c       ??_C@_1BA@ENFBFFEK@?$AAT?$AAu?$AAe?$AAs?$AAd?$AAa?$AAy?$AA?$AA@ 1002902c     LIBCMT:nlsdata.obj
 0002:0000803c       ??_C@_1BE@EBOGMDOH@?$AAW?$AAe?$AAd?$AAn?$AAe?$AAs?$AAd?$AAa?$AAy?$AA?$AA@ 1002903c     LIBCMT:nlsdata.obj
 0002:00008050       ??_C@_1BC@HHMNLIHE@?$AAT?$AAh?$AAu?$AAr?$AAs?$AAd?$AAa?$AAy?$AA?$AA@ 10029050     LIBCMT:nlsdata.obj
 0002:00008064       ??_C@_1O@PDICJHAG@?$AAF?$AAr?$AAi?$AAd?$AAa?$AAy?$AA?$AA@ 10029064     LIBCMT:nlsdata.obj
 0002:00008074       ??_C@_1BC@ENMNNPAJ@?$AAS?$AAa?$AAt?$AAu?$AAr?$AAd?$AAa?$AAy?$AA?$AA@ 10029074     LIBCMT:nlsdata.obj
 0002:00008088       ??_C@_17DKNBKCHM@?$AAJ?$AAa?$AAn?$AA?$AA@ 10029088     LIBCMT:nlsdata.obj
 0002:00008090       ??_C@_17LMDJEKJN@?$AAF?$AAe?$AAb?$AA?$AA@ 10029090     LIBCMT:nlsdata.obj
 0002:00008098       ??_C@_17CKNLEDEC@?$AAM?$AAa?$AAr?$AA?$AA@ 10029098     LIBCMT:nlsdata.obj
 0002:000080a0       ??_C@_17LFPOIHDD@?$AAA?$AAp?$AAr?$AA?$AA@ 100290a0     LIBCMT:nlsdata.obj
 0002:000080a8       ??_C@_17PNNKMEED@?$AAM?$AAa?$AAy?$AA?$AA@ 100290a8     LIBCMT:nlsdata.obj
 0002:000080b0       ??_C@_17KCJGOCPB@?$AAJ?$AAu?$AAn?$AA?$AA@ 100290b0     LIBCMT:nlsdata.obj
 0002:000080b8       ??_C@_17IJPCKHK@?$AAJ?$AAu?$AAl?$AA?$AA@ 100290b8     LIBCMT:nlsdata.obj
 0002:000080c0       ??_C@_17ICPELBCN@?$AAA?$AAu?$AAg?$AA?$AA@ 100290c0     LIBCMT:nlsdata.obj
 0002:000080c8       ??_C@_17HCHCOKMG@?$AAS?$AAe?$AAp?$AA?$AA@ 100290c8     LIBCMT:nlsdata.obj
 0002:000080d0       ??_C@_17FNLKOI@?$AAO?$AAc?$AAt?$AA?$AA@ 100290d0     LIBCMT:nlsdata.obj
 0002:000080d8       ??_C@_17BBDMLCIG@?$AAN?$AAo?$AAv?$AA?$AA@ 100290d8     LIBCMT:nlsdata.obj
 0002:000080e0       ??_C@_17EGKACKIF@?$AAD?$AAe?$AAc?$AA?$AA@ 100290e0     LIBCMT:nlsdata.obj
 0002:000080e8       ??_C@_1BA@EFMEIEBA@?$AAJ?$AAa?$AAn?$AAu?$AAa?$AAr?$AAy?$AA?$AA@ 100290e8     LIBCMT:nlsdata.obj
 0002:000080f8       ??_C@_1BC@JGDDFFAM@?$AAF?$AAe?$AAb?$AAr?$AAu?$AAa?$AAr?$AAy?$AA?$AA@ 100290f8     LIBCMT:nlsdata.obj
 0002:0000810c       ??_C@_1M@IKEENEDF@?$AAM?$AAa?$AAr?$AAc?$AAh?$AA?$AA@ 1002910c     LIBCMT:nlsdata.obj
 0002:00008118       ??_C@_1M@GJNLMHFD@?$AAA?$AAp?$AAr?$AAi?$AAl?$AA?$AA@ 10029118     LIBCMT:nlsdata.obj
 0002:00008124       ??_C@_19EPFLPGAP@?$AAJ?$AAu?$AAn?$AAe?$AA?$AA@ 10029124     LIBCMT:nlsdata.obj
 0002:00008130       ??_C@_19BIFMLPCD@?$AAJ?$AAu?$AAl?$AAy?$AA?$AA@ 10029130     LIBCMT:nlsdata.obj
 0002:0000813c       ??_C@_1O@PAHLKOAC@?$AAA?$AAu?$AAg?$AAu?$AAs?$AAt?$AA?$AA@ 1002913c     LIBCMT:nlsdata.obj
 0002:0000814c       ??_C@_1BE@DKAAMBJL@?$AAS?$AAe?$AAp?$AAt?$AAe?$AAm?$AAb?$AAe?$AAr?$AA?$AA@ 1002914c     LIBCMT:nlsdata.obj
 0002:00008160       ??_C@_1BA@EPANDLNG@?$AAO?$AAc?$AAt?$AAo?$AAb?$AAe?$AAr?$AA?$AA@ 10029160     LIBCMT:nlsdata.obj
 0002:00008170       ??_C@_1BC@BGLIFPF@?$AAN?$AAo?$AAv?$AAe?$AAm?$AAb?$AAe?$AAr?$AA?$AA@ 10029170     LIBCMT:nlsdata.obj
 0002:00008184       ??_C@_1BC@FEMKIFH@?$AAD?$AAe?$AAc?$AAe?$AAm?$AAb?$AAe?$AAr?$AA?$AA@ 10029184     LIBCMT:nlsdata.obj
 0002:00008198       ??_C@_15ODEHAHHF@?$AAA?$AAM?$AA?$AA@ 10029198     LIBCMT:nlsdata.obj
 0002:000081a0       ??_C@_15CLMNNGEL@?$AAP?$AAM?$AA?$AA@ 100291a0     LIBCMT:nlsdata.obj
 0002:000081a8       ??_C@_1BC@IEBCMHCM@?$AAM?$AAM?$AA?1?$AAd?$AAd?$AA?1?$AAy?$AAy?$AA?$AA@ 100291a8     LIBCMT:nlsdata.obj
 0002:000081bc       ??_C@_1CI@KNAKOEBC@?$AAd?$AAd?$AAd?$AAd?$AA?0?$AA?5?$AAM?$AAM?$AAM?$AAM?$AA?5?$AAd?$AAd?$AA?0?$AA?5?$AAy?$AAy?$AAy?$AAy?$AA?$AA@ 100291bc     LIBCMT:nlsdata.obj
 0002:000081e4       ??_C@_1BC@GDGBMEMK@?$AAH?$AAH?$AA?3?$AAm?$AAm?$AA?3?$AAs?$AAs?$AA?$AA@ 100291e4     LIBCMT:nlsdata.obj
 0002:000081f8       ??_C@_1M@BMHNFIME@?$AAe?$AAn?$AA?9?$AAU?$AAS?$AA?$AA@ 100291f8     LIBCMT:nlsdata.obj
 0002:00008288       ??_C@_1BG@GOEBHBDC@?$AAU?$AAS?$AAE?$AAR?$AA3?$AA2?$AA?4?$AAD?$AAL?$AAL?$AA?$AA@ 10029288     LIBCMT:crtmboxw.obj
 0002:000082a0       ??_C@_0M@DLDCCGNP@MessageBoxW?$AA@ 100292a0     LIBCMT:crtmboxw.obj
 0002:000082ac       ??_C@_0BA@HNOPNCHB@GetActiveWindow?$AA@ 100292ac     LIBCMT:crtmboxw.obj
 0002:000082bc       ??_C@_0BD@HHGDFDBJ@GetLastActivePopup?$AA@ 100292bc     LIBCMT:crtmboxw.obj
 0002:000082d0       ??_C@_0BK@DEKFELLI@GetUserObjectInformationW?$AA@ 100292d0     LIBCMT:crtmboxw.obj
 0002:000082ec       ??_C@_0BI@DFKBFLJE@GetProcessWindowStation?$AA@ 100292ec     LIBCMT:crtmboxw.obj
 0002:00008308       _LcidToLocaleNameTable     10029308     LIBCMT:winapinls.obj
 0002:00008a28       _LocaleNameToIndexTable    10029a28     LIBCMT:winapinls.obj
 0002:00009148       ??_C@_15EMKDOKLE@?$AAa?$AAr?$AA?$AA@ 1002a148     LIBCMT:winapinls.obj
 0002:00009150       ??_C@_15KNPADPLH@?$AAb?$AAg?$AA?$AA@ 1002a150     LIBCMT:winapinls.obj
 0002:00009158       ??_C@_15EDMHLDMO@?$AAc?$AAa?$AA?$AA@ 1002a158     LIBCMT:winapinls.obj
 0002:00009160       ??_C@_1O@BPEAJADD@?$AAz?$AAh?$AA?9?$AAC?$AAH?$AAS?$AA?$AA@ 1002a160     LIBCMT:winapinls.obj
 0002:00009170       ??_C@_15LJNHCMNK@?$AAc?$AAs?$AA?$AA@ 1002a170     LIBCMT:winapinls.obj
 0002:00009178       ??_C@_15FOMCIDHG@?$AAd?$AAa?$AA?$AA@ 1002a178     LIBCMT:winapinls.obj
 0002:00009180       ??_C@_15NBKABECB@?$AAd?$AAe?$AA?$AA@ 1002a180     LIBCMT:winapinls.obj
 0002:00009188       ??_C@_15GHPEIIAO@?$AAe?$AAl?$AA?$AA@ 1002a188     LIBCMT:winapinls.obj
 0002:00009190       ??_C@_15MNPNEAIF@?$AAe?$AAn?$AA?$AA@ 1002a190     LIBCMT:winapinls.obj
 0002:00009198       ??_C@_15GPIOMPMH@?$AAe?$AAs?$AA?$AA@ 1002a198     LIBCMT:winapinls.obj
 0002:000091a0       ??_C@_15NGLOAKJC@?$AAf?$AAi?$AA?$AA@ 1002a1a0     LIBCMT:winapinls.obj
 0002:000091a8       ??_C@_15FBKGNKAM@?$AAf?$AAr?$AA?$AA@ 1002a1a8     LIBCMT:winapinls.obj
 0002:000091b0       ??_C@_15KGGCNEFK@?$AAh?$AAe?$AA?$AA@ 1002a1b0     LIBCMT:winapinls.obj
 0002:000091b8       ??_C@_15PGHLIDMF@?$AAh?$AAu?$AA?$AA@ 1002a1b8     LIBCMT:winapinls.obj
 0002:000091c0       ??_C@_15BIEMAPLM@?$AAi?$AAs?$AA?$AA@ 1002a1c0     LIBCMT:winapinls.obj
 0002:000091c8       ??_C@_15IFJLDHAF@?$AAi?$AAt?$AA?$AA@ 1002a1c8     LIBCMT:winapinls.obj
 0002:000091d0       ??_C@_15GEMIOCAG@?$AAj?$AAa?$AA?$AA@ 1002a1d0     LIBCMT:winapinls.obj
 0002:000091d8       ??_C@_15EPELEGJA@?$AAk?$AAo?$AA?$AA@ 1002a1d8     LIBCMT:winapinls.obj
 0002:000091e0       ??_C@_15NDDHIMN@?$AAn?$AAl?$AA?$AA@ 1002a1e0     LIBCMT:winapinls.obj
 0002:000091e8       ??_C@_15BPIGNHCD@?$AAn?$AAo?$AA?$AA@ 1002a1e8     LIBCMT:winapinls.obj
 0002:000091f0       ??_C@_15DEOPBLCG@?$AAp?$AAl?$AA?$AA@ 1002a1f0     LIBCMT:winapinls.obj
 0002:000091f8       ??_C@_15KBECGEFG@?$AAp?$AAt?$AA?$AA@ 1002a1f8     LIBCMT:winapinls.obj
 0002:00009200       ??_C@_15GLJCBFMD@?$AAr?$AAo?$AA?$AA@ 1002a200     LIBCMT:winapinls.obj
 0002:00009208       ??_C@_15FEDGKCDI@?$AAr?$AAu?$AA?$AA@ 1002a208     LIBCMT:winapinls.obj
 0002:00009210       ??_C@_15GLKMLLHM@?$AAh?$AAr?$AA?$AA@ 1002a210     LIBCMT:winapinls.obj
 0002:00009218       ??_C@_15CPKMFBDB@?$AAs?$AAk?$AA?$AA@ 1002a218     LIBCMT:winapinls.obj
 0002:00009220       ??_C@_15BAAIOGMK@?$AAs?$AAq?$AA?$AA@ 1002a220     LIBCMT:winapinls.obj
 0002:00009228       ??_C@_15INNPNOHD@?$AAs?$AAv?$AA?$AA@ 1002a228     LIBCMT:winapinls.obj
 0002:00009230       ??_C@_15CABMMOGH@?$AAt?$AAh?$AA?$AA@ 1002a230     LIBCMT:winapinls.obj
 0002:00009238       ??_C@_15BPLIHJJM@?$AAt?$AAr?$AA?$AA@ 1002a238     LIBCMT:winapinls.obj
 0002:00009240       ??_C@_15NEOEKKDJ@?$AAu?$AAr?$AA?$AA@ 1002a240     LIBCMT:winapinls.obj
 0002:00009248       ??_C@_15NFICGAJK@?$AAi?$AAd?$AA?$AA@ 1002a248     LIBCMT:winapinls.obj
 0002:00009250       ??_C@_15PJPFLCCM@?$AAu?$AAk?$AA?$AA@ 1002a250     LIBCMT:winapinls.obj
 0002:00009258       ??_C@_15HPJPHDM@?$AAb?$AAe?$AA?$AA@ 1002a258     LIBCMT:winapinls.obj
 0002:00009260       ??_C@_15LCHLGJII@?$AAs?$AAl?$AA?$AA@ 1002a260     LIBCMT:winapinls.obj
 0002:00009268       ??_C@_15PCFJPHHO@?$AAe?$AAt?$AA?$AA@ 1002a268     LIBCMT:winapinls.obj
 0002:00009270       ??_C@_15HPFPGODN@?$AAl?$AAv?$AA?$AA@ 1002a270     LIBCMT:winapinls.obj
 0002:00009278       ??_C@_15NFFGKGLG@?$AAl?$AAt?$AA?$AA@ 1002a278     LIBCMT:winapinls.obj
 0002:00009280       ??_C@_15BDAKCCHN@?$AAf?$AAa?$AA?$AA@ 1002a280     LIBCMT:winapinls.obj
 0002:00009288       ??_C@_15NFGIAIAJ@?$AAv?$AAi?$AA?$AA@ 1002a288     LIBCMT:winapinls.obj
 0002:00009290       ??_C@_15LMKNDMHN@?$AAh?$AAy?$AA?$AA@ 1002a290     LIBCMT:winapinls.obj
 0002:00009298       ??_C@_15IJBHMCFL@?$AAa?$AAz?$AA?$AA@ 1002a298     LIBCMT:winapinls.obj
 0002:000092a0       ??_C@_15EKOFJABL@?$AAe?$AAu?$AA?$AA@ 1002a2a0     LIBCMT:winapinls.obj
 0002:000092a8       ??_C@_15BGHADCNK@?$AAm?$AAk?$AA?$AA@ 1002a2a8     LIBCMT:winapinls.obj
 0002:000092b0       ??_C@_15JDNICKHM@?$AAa?$AAf?$AA?$AA@ 1002a2b0     LIBCMT:winapinls.obj
 0002:000092b8       ??_C@_15KPJEDBKD@?$AAk?$AAa?$AA?$AA@ 1002a2b8     LIBCMT:winapinls.obj
 0002:000092c0       ??_C@_15PDNFFFEO@?$AAf?$AAo?$AA?$AA@ 1002a2c0     LIBCMT:winapinls.obj
 0002:000092c8       ??_C@_15OMLEGLOC@?$AAh?$AAi?$AA?$AA@ 1002a2c8     LIBCMT:winapinls.obj
 0002:000092d0       ??_C@_15IDNNENKK@?$AAm?$AAs?$AA?$AA@ 1002a2d0     LIBCMT:winapinls.obj
 0002:000092d8       ??_C@_15MACJNBMH@?$AAk?$AAk?$AA?$AA@ 1002a2d8     LIBCMT:winapinls.obj
 0002:000092e0       ??_C@_15DKDJEOND@?$AAk?$AAy?$AA?$AA@ 1002a2e0     LIBCMT:winapinls.obj
 0002:000092e8       ??_C@_15DFGDLJBG@?$AAs?$AAw?$AA?$AA@ 1002a2e8     LIBCMT:winapinls.obj
 0002:000092f0       ??_C@_15BBFAICNG@?$AAu?$AAz?$AA?$AA@ 1002a2f0     LIBCMT:winapinls.obj
 0002:000092f8       ??_C@_15DKNDCGEA@?$AAt?$AAt?$AA?$AA@ 1002a2f8     LIBCMT:winapinls.obj
 0002:00009300       ??_C@_15MGIFMDPL@?$AAp?$AAa?$AA?$AA@ 1002a300     LIBCMT:winapinls.obj
 0002:00009308       ??_C@_15HCNDBBA@?$AAg?$AAu?$AA?$AA@ 1002a308     LIBCMT:winapinls.obj
 0002:00009310       ??_C@_15FNBEIBON@?$AAt?$AAa?$AA?$AA@ 1002a310     LIBCMT:winapinls.obj
 0002:00009318       ??_C@_15NCHGBGLK@?$AAt?$AAe?$AA?$AA@ 1002a318     LIBCMT:winapinls.obj
 0002:00009320       ??_C@_15PHPHCBPF@?$AAk?$AAn?$AA?$AA@ 1002a320     LIBCMT:winapinls.obj
 0002:00009328       ??_C@_15DLGBCKMP@?$AAm?$AAr?$AA?$AA@ 1002a328     LIBCMT:winapinls.obj
 0002:00009330       ??_C@_15EABBLBFF@?$AAs?$AAa?$AA?$AA@ 1002a330     LIBCMT:winapinls.obj
 0002:00009338       ??_C@_15CBKOMCOI@?$AAm?$AAn?$AA?$AA@ 1002a338     LIBCMT:winapinls.obj
 0002:00009340       ??_C@_15CKDMCJAF@?$AAg?$AAl?$AA?$AA@ 1002a340     LIBCMT:winapinls.obj
 0002:00009348       ??_C@_17CNJFBPG@?$AAk?$AAo?$AAk?$AA?$AA@ 1002a348     LIBCMT:winapinls.obj
 0002:00009350       ??_C@_17FFBJICPL@?$AAs?$AAy?$AAr?$AA?$AA@ 1002a350     LIBCMT:winapinls.obj
 0002:00009358       ??_C@_17KPNDCPAF@?$AAd?$AAi?$AAv?$AA?$AA@ 1002a358     LIBCMT:winapinls.obj
 0002:00009360       ??_C@_11LOCGONAA@?$AA?$AA@ 1002a360     LIBCMT:winapinls.obj
 0002:00009364       ??_C@_1M@OKAHONE@?$AAa?$AAr?$AA?9?$AAS?$AAA?$AA?$AA@ 1002a364     LIBCMT:winapinls.obj
 0002:00009370       ??_C@_1M@FFFIGIGK@?$AAb?$AAg?$AA?9?$AAB?$AAG?$AA?$AA@ 1002a370     LIBCMT:winapinls.obj
 0002:0000937c       ??_C@_1M@BJNKEDC@?$AAc?$AAa?$AA?9?$AAE?$AAS?$AA?$AA@ 1002a37c     LIBCMT:winapinls.obj
 0002:00009388       ??_C@_1M@IJJHFJHA@?$AAc?$AAs?$AA?9?$AAC?$AAZ?$AA?$AA@ 1002a388     LIBCMT:winapinls.obj
 0002:00009394       ??_C@_1M@CLPEOBGI@?$AAd?$AAa?$AA?9?$AAD?$AAK?$AA?$AA@ 1002a394     LIBCMT:winapinls.obj
 0002:000093a0       ??_C@_1M@MCMADGCB@?$AAd?$AAe?$AA?9?$AAD?$AAE?$AA?$AA@ 1002a3a0     LIBCMT:winapinls.obj
 0002:000093ac       ??_C@_1M@OOCKEMAM@?$AAe?$AAl?$AA?9?$AAG?$AAR?$AA?$AA@ 1002a3ac     LIBCMT:winapinls.obj
 0002:000093b8       ??_C@_1M@DDNJFGID@?$AAf?$AAi?$AA?9?$AAF?$AAI?$AA?$AA@ 1002a3b8     LIBCMT:winapinls.obj
 0002:000093c4       ??_C@_1M@GLIPPMAC@?$AAf?$AAr?$AA?9?$AAF?$AAR?$AA?$AA@ 1002a3c4     LIBCMT:winapinls.obj
 0002:000093d0       ??_C@_1M@GFMCHPE@?$AAh?$AAe?$AA?9?$AAI?$AAL?$AA?$AA@ 1002a3d0     LIBCMT:winapinls.obj
 0002:000093dc       ??_C@_1M@MHLPGNKM@?$AAh?$AAu?$AA?9?$AAH?$AAU?$AA?$AA@ 1002a3dc     LIBCMT:winapinls.obj
 0002:000093e8       ??_C@_1M@LPDDNNPN@?$AAi?$AAs?$AA?9?$AAI?$AAS?$AA?$AA@ 1002a3e8     LIBCMT:winapinls.obj
 0002:000093f4       ??_C@_1M@MADIPODN@?$AAi?$AAt?$AA?9?$AAI?$AAT?$AA?$AA@ 1002a3f4     LIBCMT:winapinls.obj
 0002:00009400       ??_C@_1M@IHBJJGG@?$AAn?$AAl?$AA?9?$AAN?$AAL?$AA?$AA@ 1002a400     LIBCMT:winapinls.obj
 0002:0000940c       ??_C@_1M@EANAGDL@?$AAn?$AAb?$AA?9?$AAN?$AAO?$AA?$AA@ 1002a40c     LIBCMT:winapinls.obj
 0002:00009418       ??_C@_1M@NEIEMEGP@?$AAp?$AAl?$AA?9?$AAP?$AAL?$AA?$AA@ 1002a418     LIBCMT:winapinls.obj
 0002:00009424       ??_C@_1M@BOCFIGEP@?$AAp?$AAt?$AA?9?$AAB?$AAR?$AA?$AA@ 1002a424     LIBCMT:winapinls.obj
 0002:00009430       ??_C@_1M@IMPFOPBG@?$AAr?$AAo?$AA?9?$AAR?$AAO?$AA?$AA@ 1002a430     LIBCMT:winapinls.obj
 0002:0000943c       ??_C@_1M@IDNNEJMM@?$AAr?$AAu?$AA?9?$AAR?$AAU?$AA?$AA@ 1002a43c     LIBCMT:winapinls.obj
 0002:00009448       ??_C@_1M@LILEEOGM@?$AAh?$AAr?$AA?9?$AAH?$AAR?$AA?$AA@ 1002a448     LIBCMT:winapinls.obj
 0002:00009454       ??_C@_1M@FKIFEHPB@?$AAs?$AAk?$AA?9?$AAS?$AAK?$AA?$AA@ 1002a454     LIBCMT:winapinls.obj
 0002:00009460       ??_C@_1M@LJMAMNPJ@?$AAs?$AAq?$AA?9?$AAA?$AAL?$AA?$AA@ 1002a460     LIBCMT:winapinls.obj
 0002:0000946c       ??_C@_1M@GIAKDKJK@?$AAs?$AAv?$AA?9?$AAS?$AAE?$AA?$AA@ 1002a46c     LIBCMT:winapinls.obj
 0002:00009478       ??_C@_1M@MKJKIKCL@?$AAt?$AAh?$AA?9?$AAT?$AAH?$AA?$AA@ 1002a478     LIBCMT:winapinls.obj
 0002:00009484       ??_C@_1M@MFLCCMPB@?$AAt?$AAr?$AA?9?$AAT?$AAR?$AA?$AA@ 1002a484     LIBCMT:winapinls.obj
 0002:00009490       ??_C@_1M@OIJHDKJN@?$AAu?$AAr?$AA?9?$AAP?$AAK?$AA?$AA@ 1002a490     LIBCMT:winapinls.obj
 0002:0000949c       ??_C@_1M@LHIPCIEK@?$AAi?$AAd?$AA?9?$AAI?$AAD?$AA?$AA@ 1002a49c     LIBCMT:winapinls.obj
 0002:000094a8       ??_C@_1M@MFMOBGI@?$AAu?$AAk?$AA?9?$AAU?$AAA?$AA?$AA@ 1002a4a8     LIBCMT:winapinls.obj
 0002:000094b4       ??_C@_1M@OBGLJIPL@?$AAb?$AAe?$AA?9?$AAB?$AAY?$AA?$AA@ 1002a4b4     LIBCMT:winapinls.obj
 0002:000094c0       ??_C@_1M@BCFAJEAD@?$AAs?$AAl?$AA?9?$AAS?$AAI?$AA?$AA@ 1002a4c0     LIBCMT:winapinls.obj
 0002:000094cc       ??_C@_1M@FKFFEDDN@?$AAe?$AAt?$AA?9?$AAE?$AAE?$AA?$AA@ 1002a4cc     LIBCMT:winapinls.obj
 0002:000094d8       ??_C@_1M@KGKKAACI@?$AAl?$AAv?$AA?9?$AAL?$AAV?$AA?$AA@ 1002a4d8     LIBCMT:winapinls.obj
 0002:000094e4       ??_C@_1M@IFGBIJO@?$AAl?$AAt?$AA?9?$AAL?$AAT?$AA?$AA@ 1002a4e4     LIBCMT:winapinls.obj
 0002:000094f0       ??_C@_1M@FGEAHEDM@?$AAf?$AAa?$AA?9?$AAI?$AAR?$AA?$AA@ 1002a4f0     LIBCMT:winapinls.obj
 0002:000094fc       ??_C@_1M@KBMAIBFN@?$AAv?$AAi?$AA?9?$AAV?$AAN?$AA?$AA@ 1002a4fc     LIBCMT:winapinls.obj
 0002:00009508       ??_C@_1M@GPCBKDJK@?$AAh?$AAy?$AA?9?$AAA?$AAM?$AA?$AA@ 1002a508     LIBCMT:winapinls.obj
 0002:00009514       ??_C@_1BG@BECMDDJB@?$AAa?$AAz?$AA?9?$AAA?$AAZ?$AA?9?$AAL?$AAa?$AAt?$AAn?$AA?$AA@ 1002a514     LIBCMT:winapinls.obj
 0002:0000952c       ??_C@_1M@MAOFCAEA@?$AAe?$AAu?$AA?9?$AAE?$AAS?$AA?$AA@ 1002a52c     LIBCMT:winapinls.obj
 0002:00009538       ??_C@_1M@IGHABKPI@?$AAm?$AAk?$AA?9?$AAM?$AAK?$AA?$AA@ 1002a538     LIBCMT:winapinls.obj
 0002:00009544       ??_C@_1M@IAIGNEJG@?$AAt?$AAn?$AA?9?$AAZ?$AAA?$AA?$AA@ 1002a544     LIBCMT:winapinls.obj
 0002:00009550       ??_C@_1M@IIJCOJFA@?$AAx?$AAh?$AA?9?$AAZ?$AAA?$AA?$AA@ 1002a550     LIBCMT:winapinls.obj
 0002:0000955c       ??_C@_1M@LGPJHNJH@?$AAz?$AAu?$AA?9?$AAZ?$AAA?$AA?$AA@ 1002a55c     LIBCMT:winapinls.obj
 0002:00009568       ??_C@_1M@HOKAOIO@?$AAa?$AAf?$AA?9?$AAZ?$AAA?$AA?$AA@ 1002a568     LIBCMT:winapinls.obj
 0002:00009574       ??_C@_1M@DPCLHLIE@?$AAk?$AAa?$AA?9?$AAG?$AAE?$AA?$AA@ 1002a574     LIBCMT:winapinls.obj
 0002:00009580       ??_C@_1M@BLKMHJBI@?$AAf?$AAo?$AA?9?$AAF?$AAO?$AA?$AA@ 1002a580     LIBCMT:winapinls.obj
 0002:0000958c       ??_C@_1M@LGGJAPPB@?$AAh?$AAi?$AA?9?$AAI?$AAN?$AA?$AA@ 1002a58c     LIBCMT:winapinls.obj
 0002:00009598       ??_C@_1M@FIKPIHFE@?$AAm?$AAt?$AA?9?$AAM?$AAT?$AA?$AA@ 1002a598     LIBCMT:winapinls.obj
 0002:000095a4       ??_C@_1M@HEGGPBFA@?$AAs?$AAe?$AA?9?$AAN?$AAO?$AA?$AA@ 1002a5a4     LIBCMT:winapinls.obj
 0002:000095b0       ??_C@_1M@EIBJEEPA@?$AAm?$AAs?$AA?9?$AAM?$AAY?$AA?$AA@ 1002a5b0     LIBCMT:winapinls.obj
 0002:000095bc       ??_C@_1M@FHLBGMPP@?$AAk?$AAk?$AA?9?$AAK?$AAZ?$AA?$AA@ 1002a5bc     LIBCMT:winapinls.obj
 0002:000095c8       ??_C@_1M@NGJJLCGI@?$AAk?$AAy?$AA?9?$AAK?$AAG?$AA?$AA@ 1002a5c8     LIBCMT:winapinls.obj
 0002:000095d4       ??_C@_1M@GIENNBFC@?$AAs?$AAw?$AA?9?$AAK?$AAE?$AA?$AA@ 1002a5d4     LIBCMT:winapinls.obj
 0002:000095e0       ??_C@_1BG@NDGMJIMJ@?$AAu?$AAz?$AA?9?$AAU?$AAZ?$AA?9?$AAL?$AAa?$AAt?$AAn?$AA?$AA@ 1002a5e0     LIBCMT:winapinls.obj
 0002:000095f8       ??_C@_1M@IDCCIHBC@?$AAt?$AAt?$AA?9?$AAR?$AAU?$AA?$AA@ 1002a5f8     LIBCMT:winapinls.obj
 0002:00009604       ??_C@_1M@LOICPMOJ@?$AAb?$AAn?$AA?9?$AAI?$AAN?$AA?$AA@ 1002a604     LIBCMT:winapinls.obj
 0002:00009610       ??_C@_1M@KPKKNEAH@?$AAp?$AAa?$AA?9?$AAI?$AAN?$AA?$AA@ 1002a610     LIBCMT:winapinls.obj
 0002:0000961c       ??_C@_1M@PJGPPBOG@?$AAg?$AAu?$AA?9?$AAI?$AAN?$AA?$AA@ 1002a61c     LIBCMT:winapinls.obj
 0002:00009628       ??_C@_1M@KMKMOPHI@?$AAt?$AAa?$AA?9?$AAI?$AAN?$AA?$AA@ 1002a628     LIBCMT:winapinls.obj
 0002:00009634       ??_C@_1M@KFEHEPAC@?$AAt?$AAe?$AA?9?$AAI?$AAN?$AA?$AA@ 1002a634     LIBCMT:winapinls.obj
 0002:00009640       ??_C@_1M@CDCLMGHI@?$AAk?$AAn?$AA?9?$AAI?$AAN?$AA?$AA@ 1002a640     LIBCMT:winapinls.obj
 0002:0000964c       ??_C@_1M@MIODLDKF@?$AAm?$AAl?$AA?9?$AAI?$AAN?$AA?$AA@ 1002a64c     LIBCMT:winapinls.obj
 0002:00009658       ??_C@_1M@PBIEACPO@?$AAm?$AAr?$AA?9?$AAI?$AAN?$AA?$AA@ 1002a658     LIBCMT:winapinls.obj
 0002:00009664       ??_C@_1M@NIDEAGPH@?$AAs?$AAa?$AA?9?$AAI?$AAN?$AA?$AA@ 1002a664     LIBCMT:winapinls.obj
 0002:00009670       ??_C@_1M@FHIHCBIO@?$AAm?$AAn?$AA?9?$AAM?$AAN?$AA?$AA@ 1002a670     LIBCMT:winapinls.obj
 0002:0000967c       ??_C@_1M@JAIJPENP@?$AAc?$AAy?$AA?9?$AAG?$AAB?$AA?$AA@ 1002a67c     LIBCMT:winapinls.obj
 0002:00009688       ??_C@_1M@PHGFBEPN@?$AAg?$AAl?$AA?9?$AAE?$AAS?$AA?$AA@ 1002a688     LIBCMT:winapinls.obj
 0002:00009694       ??_C@_1O@KPIPDNCP@?$AAk?$AAo?$AAk?$AA?9?$AAI?$AAN?$AA?$AA@ 1002a694     LIBCMT:winapinls.obj
 0002:000096a4       ??_C@_1O@KNHJLDJA@?$AAs?$AAy?$AAr?$AA?9?$AAS?$AAY?$AA?$AA@ 1002a6a4     LIBCMT:winapinls.obj
 0002:000096b4       ??_C@_1O@MKEKBLAH@?$AAd?$AAi?$AAv?$AA?9?$AAM?$AAV?$AA?$AA@ 1002a6b4     LIBCMT:winapinls.obj
 0002:000096c4       ??_C@_1O@OHDCKDDF@?$AAq?$AAu?$AAz?$AA?9?$AAB?$AAO?$AA?$AA@ 1002a6c4     LIBCMT:winapinls.obj
 0002:000096d4       ??_C@_1M@LEPJNLFD@?$AAn?$AAs?$AA?9?$AAZ?$AAA?$AA?$AA@ 1002a6d4     LIBCMT:winapinls.obj
 0002:000096e0       ??_C@_1M@OMLEIIJB@?$AAm?$AAi?$AA?9?$AAN?$AAZ?$AA?$AA@ 1002a6e0     LIBCMT:winapinls.obj
 0002:000096ec       ??_C@_1M@PMPEAILG@?$AAa?$AAr?$AA?9?$AAI?$AAQ?$AA?$AA@ 1002a6ec     LIBCMT:winapinls.obj
 0002:000096f8       ??_C@_1M@CNKPNOEE@?$AAd?$AAe?$AA?9?$AAC?$AAH?$AA?$AA@ 1002a6f8     LIBCMT:winapinls.obj
 0002:00009704       ??_C@_1M@LKMGMLKO@?$AAe?$AAn?$AA?9?$AAG?$AAB?$AA?$AA@ 1002a704     LIBCMT:winapinls.obj
 0002:00009710       ??_C@_1M@PGKJFFGL@?$AAe?$AAs?$AA?9?$AAM?$AAX?$AA?$AA@ 1002a710     LIBCMT:winapinls.obj
 0002:0000971c       ??_C@_1M@DNNANBDC@?$AAf?$AAr?$AA?9?$AAB?$AAE?$AA?$AA@ 1002a71c     LIBCMT:winapinls.obj
 0002:00009728       ??_C@_1M@HLGMDFHM@?$AAi?$AAt?$AA?9?$AAC?$AAH?$AA?$AA@ 1002a728     LIBCMT:winapinls.obj
 0002:00009734       ??_C@_1M@CLLBGJH@?$AAn?$AAl?$AA?9?$AAB?$AAE?$AA?$AA@ 1002a734     LIBCMT:winapinls.obj
 0002:00009740       ??_C@_1M@BODBOGLF@?$AAn?$AAn?$AA?9?$AAN?$AAO?$AA?$AA@ 1002a740     LIBCMT:winapinls.obj
 0002:0000974c       ??_C@_1M@HFFAHKAD@?$AAp?$AAt?$AA?9?$AAP?$AAT?$AA?$AA@ 1002a74c     LIBCMT:winapinls.obj
 0002:00009758       ??_C@_1BG@LNOAKHIE@?$AAs?$AAr?$AA?9?$AAS?$AAP?$AA?9?$AAL?$AAa?$AAt?$AAn?$AA?$AA@ 1002a758     LIBCMT:winapinls.obj
 0002:00009770       ??_C@_1M@HBMHBGAK@?$AAs?$AAv?$AA?9?$AAF?$AAI?$AA?$AA@ 1002a770     LIBCMT:winapinls.obj
 0002:0000977c       ??_C@_1BG@DGCJGJBE@?$AAa?$AAz?$AA?9?$AAA?$AAZ?$AA?9?$AAC?$AAy?$AAr?$AAl?$AA?$AA@ 1002a77c     LIBCMT:winapinls.obj
 0002:00009794       ??_C@_1M@KEJDAAHB@?$AAs?$AAe?$AA?9?$AAS?$AAE?$AA?$AA@ 1002a794     LIBCMT:winapinls.obj
 0002:000097a0       ??_C@_1M@HEIBJJAD@?$AAm?$AAs?$AA?9?$AAB?$AAN?$AA?$AA@ 1002a7a0     LIBCMT:winapinls.obj
 0002:000097ac       ??_C@_1BG@PBGJMCEM@?$AAu?$AAz?$AA?9?$AAU?$AAZ?$AA?9?$AAC?$AAy?$AAr?$AAl?$AA?$AA@ 1002a7ac     LIBCMT:winapinls.obj
 0002:000097c4       ??_C@_1O@LAOBCMDF@?$AAq?$AAu?$AAz?$AA?9?$AAE?$AAC?$AA?$AA@ 1002a7c4     LIBCMT:winapinls.obj
 0002:000097d4       ??_C@_1M@POEEMAIO@?$AAa?$AAr?$AA?9?$AAE?$AAG?$AA?$AA@ 1002a7d4     LIBCMT:winapinls.obj
 0002:000097e0       ??_C@_1M@EFAKDEDL@?$AAz?$AAh?$AA?9?$AAH?$AAK?$AA?$AA@ 1002a7e0     LIBCMT:winapinls.obj
 0002:000097ec       ??_C@_1M@HKKIJHGI@?$AAd?$AAe?$AA?9?$AAA?$AAT?$AA?$AA@ 1002a7ec     LIBCMT:winapinls.obj
 0002:000097f8       ??_C@_1M@KBFBEHJF@?$AAe?$AAn?$AA?9?$AAA?$AAU?$AA?$AA@ 1002a7f8     LIBCMT:winapinls.obj
 0002:00009804       ??_C@_1M@MNPLFAAH@?$AAe?$AAs?$AA?9?$AAE?$AAS?$AA?$AA@ 1002a804     LIBCMT:winapinls.obj
 0002:00009810       ??_C@_1M@HJOOJFMA@?$AAf?$AAr?$AA?9?$AAC?$AAA?$AA?$AA@ 1002a810     LIBCMT:winapinls.obj
 0002:0000981c       ??_C@_1BG@JPOFPNAB@?$AAs?$AAr?$AA?9?$AAS?$AAP?$AA?9?$AAC?$AAy?$AAr?$AAl?$AA?$AA@ 1002a81c     LIBCMT:winapinls.obj
 0002:00009834       ??_C@_1M@LNFOCMOB@?$AAs?$AAe?$AA?9?$AAF?$AAI?$AA?$AA@ 1002a834     LIBCMT:winapinls.obj
 0002:00009840       ??_C@_1O@MGJBOAMB@?$AAq?$AAu?$AAz?$AA?9?$AAP?$AAE?$AA?$AA@ 1002a840     LIBCMT:winapinls.obj
 0002:00009850       ??_C@_1M@GJINLBOK@?$AAa?$AAr?$AA?9?$AAL?$AAY?$AA?$AA@ 1002a850     LIBCMT:winapinls.obj
 0002:0000985c       ??_C@_1M@GGMNHJNL@?$AAz?$AAh?$AA?9?$AAS?$AAG?$AA?$AA@ 1002a85c     LIBCMT:winapinls.obj
 0002:00009868       ??_C@_1M@HOIKODND@?$AAd?$AAe?$AA?9?$AAL?$AAU?$AA?$AA@ 1002a868     LIBCMT:winapinls.obj
 0002:00009874       ??_C@_1M@DDOCCGFG@?$AAe?$AAn?$AA?9?$AAC?$AAA?$AA?$AA@ 1002a874     LIBCMT:winapinls.obj
 0002:00009880       ??_C@_1M@BNOEMJLF@?$AAe?$AAs?$AA?9?$AAG?$AAT?$AA?$AA@ 1002a880     LIBCMT:winapinls.obj
 0002:0000988c       ??_C@_1M@EOGNKEK@?$AAf?$AAr?$AA?9?$AAC?$AAH?$AA?$AA@ 1002a88c     LIBCMT:winapinls.obj
 0002:00009898       ??_C@_1M@FLIDJFHL@?$AAh?$AAr?$AA?9?$AAB?$AAA?$AA?$AA@ 1002a898     LIBCMT:winapinls.obj
 0002:000098a4       ??_C@_1O@FMCELNAJ@?$AAs?$AAm?$AAj?$AA?9?$AAN?$AAO?$AA?$AA@ 1002a8a4     LIBCMT:winapinls.obj
 0002:000098b4       ??_C@_1M@JHGLJMGJ@?$AAa?$AAr?$AA?9?$AAD?$AAZ?$AA?$AA@ 1002a8b4     LIBCMT:winapinls.obj
 0002:000098c0       ??_C@_1M@JKKFDCNP@?$AAz?$AAh?$AA?9?$AAM?$AAO?$AA?$AA@ 1002a8c0     LIBCMT:winapinls.obj
 0002:000098cc       ??_C@_1M@GEEFALPE@?$AAd?$AAe?$AA?9?$AAL?$AAI?$AA?$AA@ 1002a8cc     LIBCMT:winapinls.obj
 0002:000098d8       ??_C@_1M@IGEOFBG@?$AAe?$AAn?$AA?9?$AAN?$AAZ?$AA?$AA@ 1002a8d8     LIBCMT:winapinls.obj
 0002:000098e4       ??_C@_1M@KDBONEHP@?$AAe?$AAs?$AA?9?$AAC?$AAR?$AA?$AA@ 1002a8e4     LIBCMT:winapinls.obj
 0002:000098f0       ??_C@_1M@FHMDOHNN@?$AAf?$AAr?$AA?9?$AAL?$AAU?$AA?$AA@ 1002a8f0     LIBCMT:winapinls.obj
 0002:000098fc       ??_C@_1BG@NFKKMAFG@?$AAb?$AAs?$AA?9?$AAB?$AAA?$AA?9?$AAL?$AAa?$AAt?$AAn?$AA?$AA@ 1002a8fc     LIBCMT:winapinls.obj
 0002:00009914       ??_C@_1O@IMNBEMCI@?$AAs?$AAm?$AAj?$AA?9?$AAS?$AAE?$AA?$AA@ 1002a914     LIBCMT:winapinls.obj
 0002:00009924       ??_C@_1M@DHHMBNDP@?$AAa?$AAr?$AA?9?$AAM?$AAA?$AA?$AA@ 1002a924     LIBCMT:winapinls.obj
 0002:00009930       ??_C@_1M@BNBLJCGH@?$AAe?$AAn?$AA?9?$AAI?$AAE?$AA?$AA@ 1002a930     LIBCMT:winapinls.obj
 0002:0000993c       ??_C@_1M@GEPAFMDL@?$AAe?$AAs?$AA?9?$AAP?$AAA?$AA?$AA@ 1002a93c     LIBCMT:winapinls.obj
 0002:00009948       ??_C@_1M@OJONDMDL@?$AAf?$AAr?$AA?9?$AAM?$AAC?$AA?$AA@ 1002a948     LIBCMT:winapinls.obj
 0002:00009954       ??_C@_1BG@OBCNFJB@?$AAs?$AAr?$AA?9?$AAB?$AAA?$AA?9?$AAL?$AAa?$AAt?$AAn?$AA?$AA@ 1002a954     LIBCMT:winapinls.obj
 0002:0000996c       ??_C@_1O@KEMEEGPO@?$AAs?$AAm?$AAa?$AA?9?$AAN?$AAO?$AA?$AA@ 1002a96c     LIBCMT:winapinls.obj
 0002:0000997c       ??_C@_1M@ELMGFODK@?$AAa?$AAr?$AA?9?$AAT?$AAN?$AA?$AA@ 1002a97c     LIBCMT:winapinls.obj
 0002:00009988       ??_C@_1M@BHDLHFAF@?$AAe?$AAn?$AA?9?$AAZ?$AAA?$AA?$AA@ 1002a988     LIBCMT:winapinls.obj
 0002:00009994       ??_C@_1M@BMGIGLIF@?$AAe?$AAs?$AA?9?$AAD?$AAO?$AA?$AA@ 1002a994     LIBCMT:winapinls.obj
 0002:000099a0       ??_C@_1BG@CMBHIPBE@?$AAs?$AAr?$AA?9?$AAB?$AAA?$AA?9?$AAC?$AAy?$AAr?$AAl?$AA?$AA@ 1002a9a0     LIBCMT:winapinls.obj
 0002:000099b8       ??_C@_1O@HEDBLHNP@?$AAs?$AAm?$AAa?$AA?9?$AAS?$AAE?$AA?$AA@ 1002a9b8     LIBCMT:winapinls.obj
 0002:000099c8       ??_C@_1M@DAGCADIM@?$AAa?$AAr?$AA?9?$AAO?$AAM?$AA?$AA@ 1002a9c8     LIBCMT:winapinls.obj
 0002:000099d4       ??_C@_1M@FODLMICG@?$AAe?$AAn?$AA?9?$AAJ?$AAM?$AA?$AA@ 1002a9d4     LIBCMT:winapinls.obj
 0002:000099e0       ??_C@_1M@DNMLCIHB@?$AAe?$AAs?$AA?9?$AAV?$AAE?$AA?$AA@ 1002a9e0     LIBCMT:winapinls.obj
 0002:000099ec       ??_C@_1O@EOKHMKJK@?$AAs?$AAm?$AAs?$AA?9?$AAF?$AAI?$AA?$AA@ 1002a9ec     LIBCMT:winapinls.obj
 0002:000099fc       ??_C@_1M@CAFJMKOF@?$AAa?$AAr?$AA?9?$AAY?$AAE?$AA?$AA@ 1002a9fc     LIBCMT:winapinls.obj
 0002:00009a08       ??_C@_1M@CBFHIJLI@?$AAe?$AAn?$AA?9?$AAC?$AAB?$AA?$AA@ 1002aa08     LIBCMT:winapinls.obj
 0002:00009a14       ??_C@_1M@BGNFLDN@?$AAe?$AAs?$AA?9?$AAC?$AAO?$AA?$AA@ 1002aa14     LIBCMT:winapinls.obj
 0002:00009a20       ??_C@_1O@JMPHMAMC@?$AAs?$AAm?$AAn?$AA?9?$AAF?$AAI?$AA?$AA@ 1002aa20     LIBCMT:winapinls.obj
 0002:00009a30       ??_C@_1M@JLANABKE@?$AAa?$AAr?$AA?9?$AAS?$AAY?$AA?$AA@ 1002aa30     LIBCMT:winapinls.obj
 0002:00009a3c       ??_C@_1M@HPKGCFGN@?$AAe?$AAn?$AA?9?$AAB?$AAZ?$AA?$AA@ 1002aa3c     LIBCMT:winapinls.obj
 0002:00009a48       ??_C@_1M@OLJCMLGM@?$AAe?$AAs?$AA?9?$AAP?$AAE?$AA?$AA@ 1002aa48     LIBCMT:winapinls.obj
 0002:00009a54       ??_C@_1M@MKKGFKLE@?$AAa?$AAr?$AA?9?$AAJ?$AAO?$AA?$AA@ 1002aa54     LIBCMT:winapinls.obj
 0002:00009a60       ??_C@_1M@EKPGLDNI@?$AAe?$AAn?$AA?9?$AAT?$AAT?$AA?$AA@ 1002aa60     LIBCMT:winapinls.obj
 0002:00009a6c       ??_C@_1M@OONGHFHE@?$AAe?$AAs?$AA?9?$AAA?$AAR?$AA?$AA@ 1002aa6c     LIBCMT:winapinls.obj
 0002:00009a78       ??_C@_1M@OOJFGBHE@?$AAa?$AAr?$AA?9?$AAL?$AAB?$AA?$AA@ 1002aa78     LIBCMT:winapinls.obj
 0002:00009a84       ??_C@_1M@GCEJHNEG@?$AAe?$AAn?$AA?9?$AAZ?$AAW?$AA?$AA@ 1002aa84     LIBCMT:winapinls.obj
 0002:00009a90       ??_C@_1M@JNOCAHJI@?$AAe?$AAs?$AA?9?$AAE?$AAC?$AA?$AA@ 1002aa90     LIBCMT:winapinls.obj
 0002:00009a9c       ??_C@_1M@JEFHPGGB@?$AAa?$AAr?$AA?9?$AAK?$AAW?$AA?$AA@ 1002aa9c     LIBCMT:winapinls.obj
 0002:00009aa8       ??_C@_1M@MLKIBJOJ@?$AAe?$AAn?$AA?9?$AAP?$AAH?$AA?$AA@ 1002aaa8     LIBCMT:winapinls.obj
 0002:00009ab4       ??_C@_1M@BDNIPEND@?$AAe?$AAs?$AA?9?$AAC?$AAL?$AA?$AA@ 1002aab4     LIBCMT:winapinls.obj
 0002:00009ac0       ??_C@_1M@MPNMEKBD@?$AAa?$AAr?$AA?9?$AAA?$AAE?$AA?$AA@ 1002aac0     LIBCMT:winapinls.obj
 0002:00009acc       ??_C@_1M@KBJALCPI@?$AAe?$AAs?$AA?9?$AAU?$AAY?$AA?$AA@ 1002aacc     LIBCMT:winapinls.obj
 0002:00009ad8       ??_C@_1M@LLCCOAGA@?$AAa?$AAr?$AA?9?$AAB?$AAH?$AA?$AA@ 1002aad8     LIBCMT:winapinls.obj
 0002:00009ae4       ??_C@_1M@PBFNCDEL@?$AAe?$AAs?$AA?9?$AAP?$AAY?$AA?$AA@ 1002aae4     LIBCMT:winapinls.obj
 0002:00009af0       ??_C@_1M@EDGINPNP@?$AAa?$AAr?$AA?9?$AAQ?$AAA?$AA?$AA@ 1002aaf0     LIBCMT:winapinls.obj
 0002:00009afc       ??_C@_1M@MKDBIIJI@?$AAe?$AAs?$AA?9?$AAB?$AAO?$AA?$AA@ 1002aafc     LIBCMT:winapinls.obj
 0002:00009b08       ??_C@_1M@CPKKEBLD@?$AAe?$AAs?$AA?9?$AAS?$AAV?$AA?$AA@ 1002ab08     LIBCMT:winapinls.obj
 0002:00009b14       ??_C@_1M@NDBGMMJL@?$AAe?$AAs?$AA?9?$AAH?$AAN?$AA?$AA@ 1002ab14     LIBCMT:winapinls.obj
 0002:00009b20       ??_C@_1M@JIJIBHDP@?$AAe?$AAs?$AA?9?$AAN?$AAI?$AA?$AA@ 1002ab20     LIBCMT:winapinls.obj
 0002:00009b2c       ??_C@_1M@CGFMKEEK@?$AAe?$AAs?$AA?9?$AAP?$AAR?$AA?$AA@ 1002ab2c     LIBCMT:winapinls.obj
 0002:00009b38       ??_C@_1O@ICJHKIIK@?$AAz?$AAh?$AA?9?$AAC?$AAH?$AAT?$AA?$AA@ 1002ab38     LIBCMT:winapinls.obj
 0002:00009b48       ??_C@_15CLNEJCE@?$AAs?$AAr?$AA?$AA@ 1002ab48     LIBCMT:winapinls.obj
 0002:00009b50       ??_C@_1M@KAHEKEIG@?$AAa?$AAf?$AA?9?$AAz?$AAa?$AA?$AA@ 1002ab50     LIBCMT:winapinls.obj
 0002:00009b5c       ??_C@_1M@GIECOABL@?$AAa?$AAr?$AA?9?$AAa?$AAe?$AA?$AA@ 1002ab5c     LIBCMT:winapinls.obj
 0002:00009b68       ??_C@_1M@BMLMEKGI@?$AAa?$AAr?$AA?9?$AAb?$AAh?$AA?$AA@ 1002ab68     LIBCMT:winapinls.obj
 0002:00009b74       ??_C@_1M@DAPFDGGB@?$AAa?$AAr?$AA?9?$AAd?$AAz?$AA?$AA@ 1002ab74     LIBCMT:winapinls.obj
 0002:00009b80       ??_C@_1M@FJNKGKIG@?$AAa?$AAr?$AA?9?$AAe?$AAg?$AA?$AA@ 1002ab80     LIBCMT:winapinls.obj
 0002:00009b8c       ??_C@_1M@FLGKKCLO@?$AAa?$AAr?$AA?9?$AAi?$AAq?$AA?$AA@ 1002ab8c     LIBCMT:winapinls.obj
 0002:00009b98       ??_C@_1M@GNDIPALM@?$AAa?$AAr?$AA?9?$AAj?$AAo?$AA?$AA@ 1002ab98     LIBCMT:winapinls.obj
 0002:00009ba4       ??_C@_1M@DDMJFMGJ@?$AAa?$AAr?$AA?9?$AAk?$AAw?$AA?$AA@ 1002aba4     LIBCMT:winapinls.obj
 0002:00009bb0       ??_C@_1M@EJALMLHM@?$AAa?$AAr?$AA?9?$AAl?$AAb?$AA?$AA@ 1002abb0     LIBCMT:winapinls.obj
 0002:00009bbc       ??_C@_1M@MOBDBLOC@?$AAa?$AAr?$AA?9?$AAl?$AAy?$AA?$AA@ 1002abbc     LIBCMT:winapinls.obj
 0002:00009bc8       ??_C@_1M@JAOCLHDH@?$AAa?$AAr?$AA?9?$AAm?$AAa?$AA?$AA@ 1002abc8     LIBCMT:winapinls.obj
 0002:00009bd4       ??_C@_1M@JHPMKJIE@?$AAa?$AAr?$AA?9?$AAo?$AAm?$AA?$AA@ 1002abd4     LIBCMT:winapinls.obj
 0002:00009be0       ??_C@_1M@OEPGHFNH@?$AAa?$AAr?$AA?9?$AAq?$AAa?$AA?$AA@ 1002abe0     LIBCMT:winapinls.obj
 0002:00009bec       ??_C@_1M@KJDONENM@?$AAa?$AAr?$AA?9?$AAs?$AAa?$AA?$AA@ 1002abec     LIBCMT:winapinls.obj
 0002:00009bf8       ??_C@_1M@DMJDKLKM@?$AAa?$AAr?$AA?9?$AAs?$AAy?$AA?$AA@ 1002abf8     LIBCMT:winapinls.obj
 0002:00009c04       ??_C@_1M@OMFIPEDC@?$AAa?$AAr?$AA?9?$AAt?$AAn?$AA?$AA@ 1002ac04     LIBCMT:winapinls.obj
 0002:00009c10       ??_C@_1M@IHMHGAON@?$AAa?$AAr?$AA?9?$AAy?$AAe?$AA?$AA@ 1002ac10     LIBCMT:winapinls.obj
 0002:00009c1c       ??_C@_1BG@KDCPGJGB@?$AAa?$AAz?$AA?9?$AAa?$AAz?$AA?9?$AAc?$AAy?$AAr?$AAl?$AA?$AA@ 1002ac1c     LIBCMT:winapinls.obj
 0002:00009c34       ??_C@_1BG@IBCKDDOE@?$AAa?$AAz?$AA?9?$AAa?$AAz?$AA?9?$AAl?$AAa?$AAt?$AAn?$AA?$AA@ 1002ac34     LIBCMT:winapinls.obj
 0002:00009c4c       ??_C@_1M@EGPFDCPD@?$AAb?$AAe?$AA?9?$AAb?$AAy?$AA?$AA@ 1002ac4c     LIBCMT:winapinls.obj
 0002:00009c58       ??_C@_1M@PCMGMCGC@?$AAb?$AAg?$AA?9?$AAb?$AAg?$AA?$AA@ 1002ac58     LIBCMT:winapinls.obj
 0002:00009c64       ??_C@_1M@BJBMFGOB@?$AAb?$AAn?$AA?9?$AAi?$AAn?$AA?$AA@ 1002ac64     LIBCMT:winapinls.obj
 0002:00009c70       ??_C@_1BG@EAKMMACD@?$AAb?$AAs?$AA?9?$AAb?$AAa?$AA?9?$AAl?$AAa?$AAt?$AAn?$AA?$AA@ 1002ac70     LIBCMT:winapinls.obj
 0002:00009c88       ??_C@_1M@KGADAODK@?$AAc?$AAa?$AA?9?$AAe?$AAs?$AA?$AA@ 1002ac88     LIBCMT:winapinls.obj
 0002:00009c94       ??_C@_1M@COAJPDHI@?$AAc?$AAs?$AA?9?$AAc?$AAz?$AA?$AA@ 1002ac94     LIBCMT:winapinls.obj
 0002:00009ca0       ??_C@_1M@DHBHFONH@?$AAc?$AAy?$AA?9?$AAg?$AAb?$AA?$AA@ 1002aca0     LIBCMT:winapinls.obj
 0002:00009cac       ??_C@_1M@IMGKELGA@?$AAd?$AAa?$AA?9?$AAd?$AAk?$AA?$AA@ 1002acac     LIBCMT:winapinls.obj
 0002:00009cb8       ??_C@_1M@NNDGDNGA@?$AAd?$AAe?$AA?9?$AAa?$AAt?$AA?$AA@ 1002acb8     LIBCMT:winapinls.obj
 0002:00009cc4       ??_C@_1M@IKDBHEEM@?$AAd?$AAe?$AA?9?$AAc?$AAh?$AA?$AA@ 1002acc4     LIBCMT:winapinls.obj
 0002:00009cd0       ??_C@_1M@GFFOJMCJ@?$AAd?$AAe?$AA?9?$AAd?$AAe?$AA?$AA@ 1002acd0     LIBCMT:winapinls.obj
 0002:00009cdc       ??_C@_1M@MDNLKBPM@?$AAd?$AAe?$AA?9?$AAl?$AAi?$AA?$AA@ 1002acdc     LIBCMT:winapinls.obj
 0002:00009ce8       ??_C@_1M@NJBEEJNL@?$AAd?$AAe?$AA?9?$AAl?$AAu?$AA?$AA@ 1002ace8     LIBCMT:winapinls.obj
 0002:00009cf4       ??_C@_1O@GNNELBAP@?$AAd?$AAi?$AAv?$AA?9?$AAm?$AAv?$AA?$AA@ 1002acf4     LIBCMT:winapinls.obj
 0002:00009d04       ??_C@_1M@EJLEOGAE@?$AAe?$AAl?$AA?9?$AAg?$AAr?$AA?$AA@ 1002ad04     LIBCMT:winapinls.obj
 0002:00009d10       ??_C@_1M@GMPONJN@?$AAe?$AAn?$AA?9?$AAa?$AAu?$AA?$AA@ 1002ad10     LIBCMT:winapinls.obj
 0002:00009d1c       ??_C@_1M@NIDIIPGF@?$AAe?$AAn?$AA?9?$AAb?$AAz?$AA?$AA@ 1002ad1c     LIBCMT:winapinls.obj
 0002:00009d28       ??_C@_1M@JEHMIMFO@?$AAe?$AAn?$AA?9?$AAc?$AAa?$AA?$AA@ 1002ad28     LIBCMT:winapinls.obj
 0002:00009d34       ??_C@_1M@IGMJCDLA@?$AAe?$AAn?$AA?9?$AAc?$AAb?$AA?$AA@ 1002ad34     LIBCMT:winapinls.obj
 0002:00009d40       ??_C@_1M@BNFIGBKG@?$AAe?$AAn?$AA?9?$AAg?$AAb?$AA?$AA@ 1002ad40     LIBCMT:winapinls.obj
 0002:00009d4c       ??_C@_1M@LKIFDIGP@?$AAe?$AAn?$AA?9?$AAi?$AAe?$AA?$AA@ 1002ad4c     LIBCMT:winapinls.obj
 0002:00009d58       ??_C@_1M@PJKFGCCO@?$AAe?$AAn?$AA?9?$AAj?$AAm?$AA?$AA@ 1002ad58     LIBCMT:winapinls.obj
 0002:00009d64       ??_C@_1M@KPPKEPBO@?$AAe?$AAn?$AA?9?$AAn?$AAz?$AA?$AA@ 1002ad64     LIBCMT:winapinls.obj
 0002:00009d70       ??_C@_1M@GMDGLDOB@?$AAe?$AAn?$AA?9?$AAp?$AAh?$AA?$AA@ 1002ad70     LIBCMT:winapinls.obj
 0002:00009d7c       ??_C@_1M@ONGIBJNA@?$AAe?$AAn?$AA?9?$AAt?$AAt?$AA?$AA@ 1002ad7c     LIBCMT:winapinls.obj
 0002:00009d88       ??_C@_1M@LLODPCMM@?$AAe?$AAn?$AA?9?$AAu?$AAs?$AA?$AA@ 1002ad88     LIBCMT:winapinls.obj
 0002:00009d94       ??_C@_1M@LAKFNPAN@?$AAe?$AAn?$AA?9?$AAz?$AAa?$AA?$AA@ 1002ad94     LIBCMT:winapinls.obj
 0002:00009da0       ??_C@_1M@MFNHNHEO@?$AAe?$AAn?$AA?9?$AAz?$AAw?$AA?$AA@ 1002ada0     LIBCMT:winapinls.obj
 0002:00009dac       ??_C@_1M@EJEINPHM@?$AAe?$AAs?$AA?9?$AAa?$AAr?$AA?$AA@ 1002adac     LIBCMT:winapinls.obj
 0002:00009db8       ??_C@_1M@GNKPCCJA@?$AAe?$AAs?$AA?9?$AAb?$AAo?$AA?$AA@ 1002adb8     LIBCMT:winapinls.obj
 0002:00009dc4       ??_C@_1M@LEEGFONL@?$AAe?$AAs?$AA?9?$AAc?$AAl?$AA?$AA@ 1002adc4     LIBCMT:winapinls.obj
 0002:00009dd0       ??_C@_1M@KGPDPBDF@?$AAe?$AAs?$AA?9?$AAc?$AAo?$AA?$AA@ 1002add0     LIBCMT:winapinls.obj
 0002:00009ddc       ??_C@_1M@EIAHOHH@?$AAe?$AAs?$AA?9?$AAc?$AAr?$AA?$AA@ 1002addc     LIBCMT:winapinls.obj
 0002:00009de8       ??_C@_1M@LLPGMBIN@?$AAe?$AAs?$AA?9?$AAd?$AAo?$AA?$AA@ 1002ade8     LIBCMT:winapinls.obj
 0002:00009df4       ??_C@_1M@DKHMKNJA@?$AAe?$AAs?$AA?9?$AAe?$AAc?$AA?$AA@ 1002adf4     LIBCMT:winapinls.obj
 0002:00009e00       ??_C@_1M@GKGFPKAP@?$AAe?$AAs?$AA?9?$AAe?$AAs?$AA?$AA@ 1002ae00     LIBCMT:winapinls.obj
 0002:00009e0c       ??_C@_1M@LKHKGDLN@?$AAe?$AAs?$AA?9?$AAg?$AAt?$AA?$AA@ 1002ae0c     LIBCMT:winapinls.obj
 0002:00009e18       ??_C@_1M@HEIIGGJD@?$AAe?$AAs?$AA?9?$AAh?$AAn?$AA?$AA@ 1002ae18     LIBCMT:winapinls.obj
 0002:00009e24       ??_C@_1M@FBDHPPGD@?$AAe?$AAs?$AA?9?$AAm?$AAx?$AA?$AA@ 1002ae24     LIBCMT:winapinls.obj
 0002:00009e30       ??_C@_1M@DPAGLNDH@?$AAe?$AAs?$AA?9?$AAn?$AAi?$AA?$AA@ 1002ae30     LIBCMT:winapinls.obj
 0002:00009e3c       ??_C@_1M@MDGOPGDD@?$AAe?$AAs?$AA?9?$AAp?$AAa?$AA?$AA@ 1002ae3c     LIBCMT:winapinls.obj
 0002:00009e48       ??_C@_1M@EMAMGBGE@?$AAe?$AAs?$AA?9?$AAp?$AAe?$AA?$AA@ 1002ae48     LIBCMT:winapinls.obj
 0002:00009e54       ??_C@_1M@IBMCAOEC@?$AAe?$AAs?$AA?9?$AAp?$AAr?$AA?$AA@ 1002ae54     LIBCMT:winapinls.obj
 0002:00009e60       ??_C@_1M@FGMDIJED@?$AAe?$AAs?$AA?9?$AAp?$AAy?$AA?$AA@ 1002ae60     LIBCMT:winapinls.obj
 0002:00009e6c       ??_C@_1M@IIDEOLLL@?$AAe?$AAs?$AA?9?$AAs?$AAv?$AA?$AA@ 1002ae6c     LIBCMT:winapinls.obj
 0002:00009e78       ??_C@_1M@GAOBIPA@?$AAe?$AAs?$AA?9?$AAu?$AAy?$AA?$AA@ 1002ae78     LIBCMT:winapinls.obj
 0002:00009e84       ??_C@_1M@JKFFICHJ@?$AAe?$AAs?$AA?9?$AAv?$AAe?$AA?$AA@ 1002ae84     LIBCMT:winapinls.obj
 0002:00009e90       ??_C@_1M@PNMLOJDF@?$AAe?$AAt?$AA?9?$AAe?$AAe?$AA?$AA@ 1002ae90     LIBCMT:winapinls.obj
 0002:00009e9c       ??_C@_1M@GHHLIKEI@?$AAe?$AAu?$AA?9?$AAe?$AAs?$AA?$AA@ 1002ae9c     LIBCMT:winapinls.obj
 0002:00009ea8       ??_C@_1M@PBNONODE@?$AAf?$AAa?$AA?9?$AAi?$AAr?$AA?$AA@ 1002aea8     LIBCMT:winapinls.obj
 0002:00009eb4       ??_C@_1M@JEEHPMIL@?$AAf?$AAi?$AA?9?$AAf?$AAi?$AA?$AA@ 1002aeb4     LIBCMT:winapinls.obj
 0002:00009ec0       ??_C@_1M@LMDCNDBA@?$AAf?$AAo?$AA?9?$AAf?$AAo?$AA?$AA@ 1002aec0     LIBCMT:winapinls.obj
 0002:00009ecc       ??_C@_1M@JKEOHLDK@?$AAf?$AAr?$AA?9?$AAb?$AAe?$AA?$AA@ 1002aecc     LIBCMT:winapinls.obj
 0002:00009ed8       ??_C@_1M@NOHADPMI@?$AAf?$AAr?$AA?9?$AAc?$AAa?$AA?$AA@ 1002aed8     LIBCMT:winapinls.obj
 0002:00009ee4       ??_C@_1M@KDHIHAEC@?$AAf?$AAr?$AA?9?$AAc?$AAh?$AA?$AA@ 1002aee4     LIBCMT:winapinls.obj
 0002:00009ef0       ??_C@_1M@MMBBFGAK@?$AAf?$AAr?$AA?9?$AAf?$AAr?$AA?$AA@ 1002aef0     LIBCMT:winapinls.obj
 0002:00009efc       ??_C@_1M@PAFNENNF@?$AAf?$AAr?$AA?9?$AAl?$AAu?$AA?$AA@ 1002aefc     LIBCMT:winapinls.obj
 0002:00009f08       ??_C@_1M@EOHDJGDD@?$AAf?$AAr?$AA?9?$AAm?$AAc?$AA?$AA@ 1002af08     LIBCMT:winapinls.obj
 0002:00009f14       ??_C@_1M@FAPLLOPF@?$AAg?$AAl?$AA?9?$AAe?$AAs?$AA?$AA@ 1002af14     LIBCMT:winapinls.obj
 0002:00009f20       ??_C@_1M@FOPBFLOO@?$AAg?$AAu?$AA?9?$AAi?$AAn?$AA?$AA@ 1002af20     LIBCMT:winapinls.obj
 0002:00009f2c       ??_C@_1M@KBMCINPM@?$AAh?$AAe?$AA?9?$AAi?$AAl?$AA?$AA@ 1002af2c     LIBCMT:winapinls.obj
 0002:00009f38       ??_C@_1M@BBPHKFPJ@?$AAh?$AAi?$AA?9?$AAi?$AAn?$AA?$AA@ 1002af38     LIBCMT:winapinls.obj
 0002:00009f44       ??_C@_1M@PMBNDPHD@?$AAh?$AAr?$AA?9?$AAb?$AAa?$AA?$AA@ 1002af44     LIBCMT:winapinls.obj
 0002:00009f50       ??_C@_1M@BPCKOEGE@?$AAh?$AAr?$AA?9?$AAh?$AAr?$AA?$AA@ 1002af50     LIBCMT:winapinls.obj
 0002:00009f5c       ??_C@_1M@GACBMHKE@?$AAh?$AAu?$AA?9?$AAh?$AAu?$AA?$AA@ 1002af5c     LIBCMT:winapinls.obj
 0002:00009f68       ??_C@_1M@MILPAJJC@?$AAh?$AAy?$AA?9?$AAa?$AAm?$AA?$AA@ 1002af68     LIBCMT:winapinls.obj
 0002:00009f74       ??_C@_1M@BABBICEC@?$AAi?$AAd?$AA?9?$AAi?$AAd?$AA?$AA@ 1002af74     LIBCMT:winapinls.obj
 0002:00009f80       ??_C@_1M@BIKNHHPF@?$AAi?$AAs?$AA?9?$AAi?$AAs?$AA?$AA@ 1002af80     LIBCMT:winapinls.obj
 0002:00009f8c       ??_C@_1M@NMPCJPHE@?$AAi?$AAt?$AA?9?$AAc?$AAh?$AA?$AA@ 1002af8c     LIBCMT:winapinls.obj
 0002:00009f98       ??_C@_1M@GHKGFEDF@?$AAi?$AAt?$AA?9?$AAi?$AAt?$AA?$AA@ 1002af98     LIBCMT:winapinls.obj
 0002:00009fa4       ??_C@_1M@NIEJCJJA@?$AAj?$AAa?$AA?9?$AAj?$AAp?$AA?$AA@ 1002afa4     LIBCMT:winapinls.obj
 0002:00009fb0       ??_C@_1M@JILFNBIM@?$AAk?$AAa?$AA?9?$AAg?$AAe?$AA?$AA@ 1002afb0     LIBCMT:winapinls.obj
 0002:00009fbc       ??_C@_1M@PACPMGPH@?$AAk?$AAk?$AA?9?$AAk?$AAz?$AA?$AA@ 1002afbc     LIBCMT:winapinls.obj
 0002:00009fc8       ??_C@_1M@IELFGMHA@?$AAk?$AAn?$AA?9?$AAi?$AAn?$AA?$AA@ 1002afc8     LIBCMT:winapinls.obj
 0002:00009fd4       ??_C@_1O@IBBJHCH@?$AAk?$AAo?$AAk?$AA?9?$AAi?$AAn?$AA?$AA@ 1002afd4     LIBCMT:winapinls.obj
 0002:00009fe4       ??_C@_1M@DMHAEOGC@?$AAk?$AAo?$AA?9?$AAk?$AAr?$AA?$AA@ 1002afe4     LIBCMT:winapinls.obj
 0002:00009ff0       ??_C@_1M@HBAHBIGA@?$AAk?$AAy?$AA?9?$AAk?$AAg?$AA?$AA@ 1002aff0     LIBCMT:winapinls.obj
 0002:00009ffc       ??_C@_1M@KPMILCJG@?$AAl?$AAt?$AA?9?$AAl?$AAt?$AA?$AA@ 1002affc     LIBCMT:winapinls.obj
 0002:0000a008       ??_C@_1M@BDEKKCA@?$AAl?$AAv?$AA?9?$AAl?$AAv?$AA?$AA@ 1002b008     LIBCMT:winapinls.obj
 0002:0000a014       ??_C@_1M@ELCKCCJJ@?$AAm?$AAi?$AA?9?$AAn?$AAz?$AA?$AA@ 1002b014     LIBCMT:winapinls.obj
 0002:0000a020       ??_C@_1M@CBOOLAPA@?$AAm?$AAk?$AA?9?$AAm?$AAk?$AA?$AA@ 1002b020     LIBCMT:winapinls.obj
 0002:0000a02c       ??_C@_1M@GPHNBJKN@?$AAm?$AAl?$AA?9?$AAi?$AAn?$AA?$AA@ 1002b02c     LIBCMT:winapinls.obj
 0002:0000a038       ??_C@_1M@PABJILIG@?$AAm?$AAn?$AA?9?$AAm?$AAn?$AA?$AA@ 1002b038     LIBCMT:winapinls.obj
 0002:0000a044       ??_C@_1M@FGBKKIPG@?$AAm?$AAr?$AA?9?$AAi?$AAn?$AA?$AA@ 1002b044     LIBCMT:winapinls.obj
 0002:0000a050       ??_C@_1M@NDBPDDAL@?$AAm?$AAs?$AA?9?$AAb?$AAn?$AA?$AA@ 1002b050     LIBCMT:winapinls.obj
 0002:0000a05c       ??_C@_1M@OPIHOOPI@?$AAm?$AAs?$AA?9?$AAm?$AAy?$AA?$AA@ 1002b05c     LIBCMT:winapinls.obj
 0002:0000a068       ??_C@_1M@PPDBCNFM@?$AAm?$AAt?$AA?9?$AAm?$AAt?$AA?$AA@ 1002b068     LIBCMT:winapinls.obj
 0002:0000a074       ??_C@_1M@KDJDKMDD@?$AAn?$AAb?$AA?9?$AAn?$AAo?$AA?$AA@ 1002b074     LIBCMT:winapinls.obj
 0002:0000a080       ??_C@_1M@KFCFLMJP@?$AAn?$AAl?$AA?9?$AAb?$AAe?$AA?$AA@ 1002b080     LIBCMT:winapinls.obj
 0002:0000a08c       ??_C@_1M@KPOPDDGO@?$AAn?$AAl?$AA?9?$AAn?$AAl?$AA?$AA@ 1002b08c     LIBCMT:winapinls.obj
 0002:0000a098       ??_C@_1M@LJKPEMLN@?$AAn?$AAn?$AA?9?$AAn?$AAo?$AA?$AA@ 1002b098     LIBCMT:winapinls.obj
 0002:0000a0a4       ??_C@_1M@BDGHHBFL@?$AAn?$AAs?$AA?9?$AAz?$AAa?$AA?$AA@ 1002b0a4     LIBCMT:winapinls.obj
 0002:0000a0b0       ??_C@_1M@IDEHOAP@?$AAp?$AAa?$AA?9?$AAi?$AAn?$AA?$AA@ 1002b0b0     LIBCMT:winapinls.obj
 0002:0000a0bc       ??_C@_1M@HDBKGOGH@?$AAp?$AAl?$AA?9?$AAp?$AAl?$AA?$AA@ 1002b0bc     LIBCMT:winapinls.obj
 0002:0000a0c8       ??_C@_1M@LJLLCMEH@?$AAp?$AAt?$AA?9?$AAb?$AAr?$AA?$AA@ 1002b0c8     LIBCMT:winapinls.obj
 0002:0000a0d4       ??_C@_1M@NCMONAAL@?$AAp?$AAt?$AA?9?$AAp?$AAt?$AA?$AA@ 1002b0d4     LIBCMT:winapinls.obj
 0002:0000a0e0       ??_C@_1O@EAKMAJDN@?$AAq?$AAu?$AAz?$AA?9?$AAb?$AAo?$AA?$AA@ 1002b0e0     LIBCMT:winapinls.obj
 0002:0000a0f0       ??_C@_1O@BHHPIGDN@?$AAq?$AAu?$AAz?$AA?9?$AAe?$AAc?$AA?$AA@ 1002b0f0     LIBCMT:winapinls.obj
 0002:0000a100       ??_C@_1O@GBAPEKMJ@?$AAq?$AAu?$AAz?$AA?9?$AAp?$AAe?$AA?$AA@ 1002b100     LIBCMT:winapinls.obj
 0002:0000a110       ??_C@_1M@CLGLEFBO@?$AAr?$AAo?$AA?9?$AAr?$AAo?$AA?$AA@ 1002b110     LIBCMT:winapinls.obj
 0002:0000a11c       ??_C@_1M@CEEDODME@?$AAr?$AAu?$AA?9?$AAr?$AAu?$AA?$AA@ 1002b11c     LIBCMT:winapinls.obj
 0002:0000a128       ??_C@_1M@HPKKKMPP@?$AAs?$AAa?$AA?9?$AAi?$AAn?$AA?$AA@ 1002b128     LIBCMT:winapinls.obj
 0002:0000a134       ??_C@_1M@BKMAIGOJ@?$AAs?$AAe?$AA?9?$AAf?$AAi?$AA?$AA@ 1002b134     LIBCMT:winapinls.obj
 0002:0000a140       ??_C@_1M@NDPIFLFI@?$AAs?$AAe?$AA?9?$AAn?$AAo?$AA?$AA@ 1002b140     LIBCMT:winapinls.obj
 0002:0000a14c       ??_C@_1M@DANKKHJ@?$AAs?$AAe?$AA?9?$AAs?$AAe?$AA?$AA@ 1002b14c     LIBCMT:winapinls.obj
 0002:0000a158       ??_C@_1M@PNBLONPJ@?$AAs?$AAk?$AA?9?$AAs?$AAk?$AA?$AA@ 1002b158     LIBCMT:winapinls.obj
 0002:0000a164       ??_C@_1M@LFMODOAL@?$AAs?$AAl?$AA?9?$AAs?$AAi?$AA?$AA@ 1002b164     LIBCMT:winapinls.obj
 0002:0000a170       ??_C@_1O@DFKOMPG@?$AAs?$AAm?$AAa?$AA?9?$AAn?$AAo?$AA?$AA@ 1002b170     LIBCMT:winapinls.obj
 0002:0000a180       ??_C@_1O@NDKPBNNH@?$AAs?$AAm?$AAa?$AA?9?$AAs?$AAe?$AA?$AA@ 1002b180     LIBCMT:winapinls.obj
 0002:0000a190       ??_C@_1O@PLLKBHAB@?$AAs?$AAm?$AAj?$AA?9?$AAn?$AAo?$AA?$AA@ 1002b190     LIBCMT:winapinls.obj
 0002:0000a1a0       ??_C@_1O@CLEPOGCA@?$AAs?$AAm?$AAj?$AA?9?$AAs?$AAe?$AA?$AA@ 1002b1a0     LIBCMT:winapinls.obj
 0002:0000a1b0       ??_C@_1O@DLGJGKMK@?$AAs?$AAm?$AAn?$AA?9?$AAf?$AAi?$AA?$AA@ 1002b1b0     LIBCMT:winapinls.obj
 0002:0000a1c0       ??_C@_1O@OJDJGAJC@?$AAs?$AAm?$AAs?$AA?9?$AAf?$AAi?$AA?$AA@ 1002b1c0     LIBCMT:winapinls.obj
 0002:0000a1d0       ??_C@_1M@BOFOGHPB@?$AAs?$AAq?$AA?9?$AAa?$AAl?$AA?$AA@ 1002b1d0     LIBCMT:winapinls.obj
 0002:0000a1dc       ??_C@_1BG@LJBBIPGB@?$AAs?$AAr?$AA?9?$AAb?$AAa?$AA?9?$AAc?$AAy?$AAr?$AAl?$AA?$AA@ 1002b1dc     LIBCMT:winapinls.obj
 0002:0000a1f4       ??_C@_1BG@JLBENFOE@?$AAs?$AAr?$AA?9?$AAb?$AAa?$AA?9?$AAl?$AAa?$AAt?$AAn?$AA?$AA@ 1002b1f4     LIBCMT:winapinls.obj
 0002:0000a20c       ??_C@_1BG@KODPNHE@?$AAs?$AAr?$AA?9?$AAs?$AAp?$AA?9?$AAc?$AAy?$AAr?$AAl?$AA?$AA@ 1002b20c     LIBCMT:winapinls.obj
 0002:0000a224       ??_C@_1BG@CIOGKHPB@?$AAs?$AAr?$AA?9?$AAs?$AAp?$AA?9?$AAl?$AAa?$AAt?$AAn?$AA?$AA@ 1002b224     LIBCMT:winapinls.obj
 0002:0000a23c       ??_C@_1M@NGFJLMAC@?$AAs?$AAv?$AA?9?$AAf?$AAi?$AA?$AA@ 1002b23c     LIBCMT:winapinls.obj
 0002:0000a248       ??_C@_1M@MPJEJAJC@?$AAs?$AAv?$AA?9?$AAs?$AAe?$AA?$AA@ 1002b248     LIBCMT:winapinls.obj
 0002:0000a254       ??_C@_1M@MPNDHLFK@?$AAs?$AAw?$AA?9?$AAk?$AAe?$AA?$AA@ 1002b254     LIBCMT:winapinls.obj
 0002:0000a260       ??_C@_1O@KOHBJJI@?$AAs?$AAy?$AAr?$AA?9?$AAs?$AAy?$AA?$AA@ 1002b260     LIBCMT:winapinls.obj
 0002:0000a270       ??_C@_1M@LDCEFHA@?$AAt?$AAa?$AA?9?$AAi?$AAn?$AA?$AA@ 1002b270     LIBCMT:winapinls.obj
 0002:0000a27c       ??_C@_1M@CNJOFAK@?$AAt?$AAe?$AA?9?$AAi?$AAn?$AA?$AA@ 1002b27c     LIBCMT:winapinls.obj
 0002:0000a288       ??_C@_1M@GNAECACD@?$AAt?$AAh?$AA?9?$AAt?$AAh?$AA?$AA@ 1002b288     LIBCMT:winapinls.obj
 0002:0000a294       ??_C@_1M@CHBIHOJO@?$AAt?$AAn?$AA?9?$AAz?$AAa?$AA?$AA@ 1002b294     LIBCMT:winapinls.obj
 0002:0000a2a0       ??_C@_1M@GCCMIGPJ@?$AAt?$AAr?$AA?9?$AAt?$AAr?$AA?$AA@ 1002b2a0     LIBCMT:winapinls.obj
 0002:0000a2ac       ??_C@_1M@CELMCNBK@?$AAt?$AAt?$AA?9?$AAr?$AAu?$AA?$AA@ 1002b2ac     LIBCMT:winapinls.obj
 0002:0000a2b8       ??_C@_1M@KLMCELGA@?$AAu?$AAk?$AA?9?$AAu?$AAa?$AA?$AA@ 1002b2b8     LIBCMT:winapinls.obj
 0002:0000a2c4       ??_C@_1M@EPAJJAJF@?$AAu?$AAr?$AA?9?$AAp?$AAk?$AA?$AA@ 1002b2c4     LIBCMT:winapinls.obj
 0002:0000a2d0       ??_C@_1BG@GEGPMCDJ@?$AAu?$AAz?$AA?9?$AAu?$AAz?$AA?9?$AAc?$AAy?$AAr?$AAl?$AA?$AA@ 1002b2d0     LIBCMT:winapinls.obj
 0002:0000a2e8       ??_C@_1BG@EGGKJILM@?$AAu?$AAz?$AA?9?$AAu?$AAz?$AA?9?$AAl?$AAa?$AAt?$AAn?$AA?$AA@ 1002b2e8     LIBCMT:winapinls.obj
 0002:0000a300       ??_C@_1M@GFOCLFF@?$AAv?$AAi?$AA?9?$AAv?$AAn?$AA?$AA@ 1002b300     LIBCMT:winapinls.obj
 0002:0000a30c       ??_C@_1M@CPAMEDFI@?$AAx?$AAh?$AA?9?$AAz?$AAa?$AA?$AA@ 1002b30c     LIBCMT:winapinls.obj
 0002:0000a318       ??_C@_1O@EBKIFIGN@?$AAz?$AAh?$AA?9?$AAc?$AAh?$AAs?$AA?$AA@ 1002b318     LIBCMT:winapinls.obj
 0002:0000a328       ??_C@_1O@NMHPGANE@?$AAz?$AAh?$AA?9?$AAc?$AAh?$AAt?$AA?$AA@ 1002b328     LIBCMT:winapinls.obj
 0002:0000a338       ??_C@_1M@LPINJOMC@?$AAz?$AAh?$AA?9?$AAc?$AAn?$AA?$AA@ 1002b338     LIBCMT:winapinls.obj
 0002:0000a344       ??_C@_1M@OCJEJODD@?$AAz?$AAh?$AA?9?$AAh?$AAk?$AA?$AA@ 1002b344     LIBCMT:winapinls.obj
 0002:0000a350       ??_C@_1M@DNDLJINH@?$AAz?$AAh?$AA?9?$AAm?$AAo?$AA?$AA@ 1002b350     LIBCMT:winapinls.obj
 0002:0000a35c       ??_C@_1M@MBFDNDND@?$AAz?$AAh?$AA?9?$AAs?$AAg?$AA?$AA@ 1002b35c     LIBCMT:winapinls.obj
 0002:0000a368       ??_C@_1M@IMEPLEPE@?$AAz?$AAh?$AA?9?$AAt?$AAw?$AA?$AA@ 1002b368     LIBCMT:winapinls.obj
 0002:0000a374       ??_C@_1M@BBGHNHJP@?$AAz?$AAu?$AA?9?$AAz?$AAa?$AA?$AA@ 1002b374     LIBCMT:winapinls.obj
 0002:0000a508       ??_C@_08EHJDFFNH@__based?$CI?$AA@ 1002b508     LIBCMT:undname.obj
 0002:0000a514       ??_C@_07KOLFKCDI@__cdecl?$AA@ 1002b514     LIBCMT:undname.obj
 0002:0000a51c       ??_C@_08GHMPAG@__pascal?$AA@ 1002b51c     LIBCMT:undname.obj
 0002:0000a528       ??_C@_09IFJBGAPI@__stdcall?$AA@ 1002b528     LIBCMT:undname.obj
 0002:0000a534       ??_C@_0L@NPHFGOKO@__thiscall?$AA@ 1002b534     LIBCMT:undname.obj
 0002:0000a540       ??_C@_0L@JMKHOMEK@__fastcall?$AA@ 1002b540     LIBCMT:undname.obj
 0002:0000a54c       ??_C@_09HIJEGCPM@__clrcall?$AA@ 1002b54c     LIBCMT:undname.obj
 0002:0000a558       ??_C@_06GHPCKEAG@__eabi?$AA@ 1002b558     LIBCMT:undname.obj
 0002:0000a560       ??_C@_07JOMMBBKO@__ptr64?$AA@ 1002b560     LIBCMT:undname.obj
 0002:0000a568       ??_C@_0L@PILCLIHE@__restrict?$AA@ 1002b568     LIBCMT:undname.obj
 0002:0000a574       ??_C@_0M@GFIIJFMG@__unaligned?$AA@ 1002b574     LIBCMT:undname.obj
 0002:0000a580       ??_C@_09DHDLOLLB@restrict?$CI?$AA@ 1002b580     LIBCMT:undname.obj
 0002:0000a58c       ??_C@_04NIHEBCM@?5new?$AA@ 1002b58c     LIBCMT:undname.obj
 0002:0000a594       ??_C@_07FPCDHGMM@?5delete?$AA@ 1002b594     LIBCMT:undname.obj
 0002:0000a59c       ??_C@_01NEMOKFLO@?$DN?$AA@ 1002b59c     LIBCMT:undname.obj
 0002:0000a5a0       ??_C@_02GPIOPFAK@?$DO?$DO?$AA@ 1002b5a0     LIBCMT:undname.obj
 0002:0000a5a4       ??_C@_02FODMEDOG@?$DM?$DM?$AA@ 1002b5a4     LIBCMT:undname.obj
 0002:0000a5a8       ??_C@_01DCLJPIOD@?$CB?$AA@ 1002b5a8     LIBCMT:undname.obj
 0002:0000a5ac       ??_C@_02EGOFBIJA@?$DN?$DN?$AA@ 1002b5ac     LIBCMT:undname.obj
 0002:0000a5b0       ??_C@_02FDNJECIE@?$CB?$DN?$AA@ 1002b5b0     LIBCMT:undname.obj
 0002:0000a5b4       ??_C@_02GPECMEKF@?$FL?$FN?$AA@ 1002b5b4     LIBCMT:undname.obj
 0002:0000a5b8       ??_C@_08LHJFAFGD@operator?$AA@ 1002b5b8     LIBCMT:undname.obj
 0002:0000a5c4       ??_C@_02HBOOOICD@?9?$DO?$AA@ 1002b5c4     LIBCMT:undname.obj
 0002:0000a5c8       ??_C@_01NBENCBCI@?$CK?$AA@ 1002b5c8     LIBCMT:undname.obj
 0002:0000a5cc       ??_C@_02ECNGHCIF@?$CL?$CL?$AA@ 1002b5cc     LIBCMT:undname.obj
 0002:0000a5d0       ??_C@_02BAABKJLB@?9?9?$AA@ 1002b5d0     LIBCMT:undname.obj
 0002:0000a5d4       ??_C@_01MIFGBAGJ@?$CL?$AA@ 1002b5d4     LIBCMT:undname.obj
 0002:0000a5d8       ??_C@_01HNPIGOCE@?$CG?$AA@ 1002b5d8     LIBCMT:undname.obj
 0002:0000a5dc       ??_C@_03MNHNFDLC@?9?$DO?$CK?$AA@ 1002b5dc     LIBCMT:undname.obj
 0002:0000a5e0       ??_C@_01KMDKNFGN@?1?$AA@   1002b5e0     LIBCMT:undname.obj
 0002:0000a5e4       ??_C@_01FGNFDNOH@?$CF?$AA@ 1002b5e4     LIBCMT:undname.obj
 0002:0000a5e8       ??_C@_01MNNFJEPP@?$DM?$AA@ 1002b5e8     LIBCMT:undname.obj
 0002:0000a5ec       ??_C@_02EHCHHCKH@?$DM?$DN?$AA@ 1002b5ec     LIBCMT:undname.obj
 0002:0000a5f0       ??_C@_01PPODPGHN@?$DO?$AA@ 1002b5f0     LIBCMT:undname.obj
 0002:0000a5f4       ??_C@_02EEKDKGMJ@?$DO?$DN?$AA@ 1002b5f4     LIBCMT:undname.obj
 0002:0000a5f8       ??_C@_01IHBHIGKO@?0?$AA@   1002b5f8     LIBCMT:undname.obj
 0002:0000a5fc       ??_C@_02HCKGKOFO@?$CI?$CJ?$AA@ 1002b5fc     LIBCMT:undname.obj
 0002:0000a600       ??_C@_01PJKLJHI@?$HO?$AA@  1002b600     LIBCMT:undname.obj
 0002:0000a604       ??_C@_01JKBOJNNK@?$FO?$AA@ 1002b604     LIBCMT:undname.obj
 0002:0000a608       ??_C@_01DNKMNLPK@?$HM?$AA@ 1002b608     LIBCMT:undname.obj
 0002:0000a60c       ??_C@_02PPKAJPJL@?$CG?$CG?$AA@ 1002b60c     LIBCMT:undname.obj
 0002:0000a610       ??_C@_02NONPIBCD@?$HM?$HM?$AA@ 1002b610     LIBCMT:undname.obj
 0002:0000a614       ??_C@_02FPIMKNGF@?$CK?$DN?$AA@ 1002b614     LIBCMT:undname.obj
 0002:0000a618       ??_C@_02FOEOMHFC@?$CL?$DN?$AA@ 1002b618     LIBCMT:undname.obj
 0002:0000a61c       ??_C@_02FKMDLLOA@?9?$DN?$AA@ 1002b61c     LIBCMT:undname.obj
 0002:0000a620       ??_C@_02FJEHGPIO@?1?$DN?$AA@ 1002b620     LIBCMT:undname.obj
 0002:0000a624       ??_C@_02FENAOKFI@?$CF?$DN?$AA@ 1002b624     LIBCMT:undname.obj
 0002:0000a628       ??_C@_03IKFCCPFF@?$DO?$DO?$DN?$AA@ 1002b628     LIBCMT:undname.obj
 0002:0000a62c       ??_C@_03CDNPDDLA@?$DM?$DM?$DN?$AA@ 1002b62c     LIBCMT:undname.obj
 0002:0000a630       ??_C@_02FGJGFEAB@?$CG?$DN?$AA@ 1002b630     LIBCMT:undname.obj
 0002:0000a634       ??_C@_02DHLNPPGH@?$HM?$DN?$AA@ 1002b634     LIBCMT:undname.obj
 0002:0000a638       ??_C@_02MHEGNOJ@?$FO?$DN?$AA@ 1002b638     LIBCMT:undname.obj
 0002:0000a63c       ??_C@_09IFPLHPGF@?$GAvftable?8?$AA@ 1002b63c     LIBCMT:undname.obj
 0002:0000a648       ??_C@_09BLBHBJP@?$GAvbtable?8?$AA@ 1002b648     LIBCMT:undname.obj
 0002:0000a654       ??_C@_07FEEIOKP@?$GAvcall?8?$AA@ 1002b654     LIBCMT:undname.obj
 0002:0000a65c       ??_C@_08LLFFHHDJ@?$GAtypeof?8?$AA@ 1002b65c     LIBCMT:undname.obj
 0002:0000a668       ??_C@_0BF@KDPPACIK@?$GAlocal?5static?5guard?8?$AA@ 1002b668     LIBCMT:undname.obj
 0002:0000a680       ??_C@_08OBABFOLI@?$GAstring?8?$AA@ 1002b680     LIBCMT:undname.obj
 0002:0000a68c       ??_C@_0BD@JDLKDPAB@?$GAvbase?5destructor?8?$AA@ 1002b68c     LIBCMT:undname.obj
 0002:0000a6a0       ??_C@_0BN@DEGPLNFK@?$GAvector?5deleting?5destructor?8?$AA@ 1002b6a0     LIBCMT:undname.obj
 0002:0000a6c0       ??_C@_0BO@OBMKPJIG@?$GAdefault?5constructor?5closure?8?$AA@ 1002b6c0     LIBCMT:undname.obj
 0002:0000a6e0       ??_C@_0BN@IMDCHIKM@?$GAscalar?5deleting?5destructor?8?$AA@ 1002b6e0     LIBCMT:undname.obj
 0002:0000a700       ??_C@_0BO@PFGOCPJJ@?$GAvector?5constructor?5iterator?8?$AA@ 1002b700     LIBCMT:undname.obj
 0002:0000a720       ??_C@_0BN@LFPFMEDL@?$GAvector?5destructor?5iterator?8?$AA@ 1002b720     LIBCMT:undname.obj
 0002:0000a740       ??_C@_0CE@IKBNEHA@?$GAvector?5vbase?5constructor?5iterat@ 1002b740     LIBCMT:undname.obj
 0002:0000a764       ??_C@_0BL@NILFHHPC@?$GAvirtual?5displacement?5map?8?$AA@ 1002b764     LIBCMT:undname.obj
 0002:0000a780       ??_C@_0CB@JONCMFFK@?$GAeh?5vector?5constructor?5iterator?8@ 1002b780     LIBCMT:undname.obj
 0002:0000a7a4       ??_C@_0CA@GCEOPDGL@?$GAeh?5vector?5destructor?5iterator?8?$AA@ 1002b7a4     LIBCMT:undname.obj
 0002:0000a7c4       ??_C@_0CH@OOJPLCPH@?$GAeh?5vector?5vbase?5constructor?5ite@ 1002b7c4     LIBCMT:undname.obj
 0002:0000a7ec       ??_C@_0BL@LLKPOHJI@?$GAcopy?5constructor?5closure?8?$AA@ 1002b7ec     LIBCMT:undname.obj
 0002:0000a808       ??_C@_0BA@KBCDOMBN@?$GAudt?5returning?8?$AA@ 1002b808     LIBCMT:undname.obj
 0002:0000a818       ??_C@_03KLGMFNMG@?$GAEH?$AA@ 1002b818     LIBCMT:undname.obj
 0002:0000a81c       ??_C@_05KHLCHHI@?$GARTTI?$AA@ 1002b81c     LIBCMT:undname.obj
 0002:0000a824       ??_C@_0BA@KKLDJDLB@?$GAlocal?5vftable?8?$AA@ 1002b824     LIBCMT:undname.obj
 0002:0000a834       ??_C@_0CE@IIHCMGGL@?$GAlocal?5vftable?5constructor?5closu@ 1002b834     LIBCMT:undname.obj
 0002:0000a858       ??_C@_06FHBGPFGH@?5new?$FL?$FN?$AA@ 1002b858     LIBCMT:undname.obj
 0002:0000a860       ??_C@_09LBNFPBCA@?5delete?$FL?$FN?$AA@ 1002b860     LIBCMT:undname.obj
 0002:0000a86c       ??_C@_0P@HJKNJFNN@?$GAomni?5callsig?8?$AA@ 1002b86c     LIBCMT:undname.obj
 0002:0000a87c       ??_C@_0BL@CNOONJFP@?$GAplacement?5delete?5closure?8?$AA@ 1002b87c     LIBCMT:undname.obj
 0002:0000a898       ??_C@_0BN@CKNJLHMB@?$GAplacement?5delete?$FL?$FN?5closure?8?$AA@ 1002b898     LIBCMT:undname.obj
 0002:0000a8b8       ??_C@_0CG@CFDHKGGD@?$GAmanaged?5vector?5constructor?5iter@ 1002b8b8     LIBCMT:undname.obj
 0002:0000a8e0       ??_C@_0CF@IMGKMJNO@?$GAmanaged?5vector?5destructor?5itera@ 1002b8e0     LIBCMT:undname.obj
 0002:0000a908       ??_C@_0CG@HLDDJMAG@?$GAeh?5vector?5copy?5constructor?5iter@ 1002b908     LIBCMT:undname.obj
 0002:0000a930       ??_C@_0CM@FCBBDIGB@?$GAeh?5vector?5vbase?5copy?5constructo@ 1002b930     LIBCMT:undname.obj
 0002:0000a95c       ??_C@_0BL@CLIPGLGB@?$GAdynamic?5initializer?5for?5?8?$AA@ 1002b95c     LIBCMT:undname.obj
 0002:0000a978       ??_C@_0CB@PDBIFEP@?$GAdynamic?5atexit?5destructor?5for?5?8@ 1002b978     LIBCMT:undname.obj
 0002:0000a99c       ??_C@_0CD@CGAJBKEJ@?$GAvector?5copy?5constructor?5iterato@ 1002b99c     LIBCMT:undname.obj
 0002:0000a9c0       ??_C@_0CJ@GJELGAMM@?$GAvector?5vbase?5copy?5constructor?5i@ 1002b9c0     LIBCMT:undname.obj
 0002:0000a9ec       ??_C@_0CL@FGIJHLCE@?$GAmanaged?5vector?5copy?5constructor@ 1002b9ec     LIBCMT:undname.obj
 0002:0000aa18       ??_C@_0BM@PMGGMLDN@?$GAlocal?5static?5thread?5guard?8?$AA@ 1002ba18     LIBCMT:undname.obj
 0002:0000aa34       ??_C@_0BC@DAFEJGAK@?5Type?5Descriptor?8?$AA@ 1002ba34     LIBCMT:undname.obj
 0002:0000aa48       ??_C@_0BM@LDKODKLH@?5Base?5Class?5Descriptor?5at?5?$CI?$AA@ 1002ba48     LIBCMT:undname.obj
 0002:0000aa64       ??_C@_0BD@LGICGFMM@?5Base?5Class?5Array?8?$AA@ 1002ba64     LIBCMT:undname.obj
 0002:0000aa78       ??_C@_0BN@MECKDCOJ@?5Class?5Hierarchy?5Descriptor?8?$AA@ 1002ba78     LIBCMT:undname.obj
 0002:0000aa98       ??_C@_0BK@CFCOFLF@?5Complete?5Object?5Locator?8?$AA@ 1002ba98     LIBCMT:undname.obj
 0002:0000aab4       ??_C@_04COOMCNPB@sinh?$AA@ 1002bab4     LIBCMT:fpexcept.obj
 0002:0000aabc       ??_C@_04HPJJNFIM@cosh?$AA@ 1002babc     LIBCMT:fpexcept.obj
 0002:0000aac4       ??_C@_04FJHINJAO@tanh?$AA@ 1002bac4     LIBCMT:fpexcept.obj
 0002:0000aacc       ??_C@_05KNGEOGJB@atan2?$AA@ 1002bacc     LIBCMT:fpexcept.obj
 0002:0000aad4       ??_C@_04ODHECPBC@fabs?$AA@ 1002bad4     LIBCMT:fpexcept.obj
 0002:0000aadc       ??_C@_05CEJMAHNP@ldexp?$AA@ 1002badc     LIBCMT:fpexcept.obj
 0002:0000aae4       ??_C@_05KBKMEMPO@_cabs?$AA@ 1002bae4     LIBCMT:fpexcept.obj
 0002:0000aaec       ??_C@_06MEIMCGCF@_hypot?$AA@ 1002baec     LIBCMT:fpexcept.obj
 0002:0000aaf4       ??_C@_04KEPJIHGP@fmod?$AA@ 1002baf4     LIBCMT:fpexcept.obj
 0002:0000aafc       ??_C@_05GKKHEGJL@frexp?$AA@ 1002bafc     LIBCMT:fpexcept.obj
 0002:0000ab04       ??_C@_03MJLDFKDL@_y0?$AA@  1002bb04     LIBCMT:fpexcept.obj
 0002:0000ab08       ??_C@_03NAKIGLHK@_y1?$AA@  1002bb08     LIBCMT:fpexcept.obj
 0002:0000ab0c       ??_C@_03ONILCKOB@_yn?$AA@  1002bb0c     LIBCMT:fpexcept.obj
 0002:0000ab10       ??_C@_05JGDBENOH@_logb?$AA@ 1002bb10     LIBCMT:fpexcept.obj
 0002:0000ab18       ??_C@_0L@KDOEJCKC@_nextafter?$AA@ 1002bb18     LIBCMT:fpexcept.obj
 0002:0000ab28       ___newctype                1002bb28     LIBCMT:ctype.obj
 0002:0000ae28       __wctype                   1002be28     LIBCMT:ctype.obj
 0002:0000b030       ___newclmap                1002c030     LIBCMT:ctype.obj
 0002:0000b1b0       ___newcumap                1002c1b0     LIBCMT:ctype.obj
 0002:0000b330       ___rg_language_count       1002c330     LIBCMT:getqloc.obj
 0002:0000b334       ___rg_country_count        1002c334     LIBCMT:getqloc.obj
 0002:0000b338       ??_C@_06PGGFOGJG@1?$CDSNAN?$AA@ 1002c338     LIBCMT:x10fout.obj
 0002:0000b340       ??_C@_05PHHOCPM@1?$CDIND?$AA@ 1002c340     LIBCMT:x10fout.obj
 0002:0000b348       ??_C@_05DNEBIAHO@1?$CDINF?$AA@ 1002c348     LIBCMT:x10fout.obj
 0002:0000b350       ??_C@_06IMKFLFPG@1?$CDQNAN?$AA@ 1002c350     LIBCMT:x10fout.obj
 0002:0000b358       ??_C@_1BA@BALFACEM@?$AAC?$AAO?$AAN?$AAO?$AAU?$AAT?$AA$?$AA?$AA@ 1002c358     LIBCMT:initcon.obj
 0002:0000b36c       ??_7logic_error@std@@6B@   1002c36c     libcpmt:xthrow.obj
 0002:0000b378       ??_7length_error@std@@6B@  1002c378     libcpmt:xthrow.obj
 0002:0000b384       ??_7out_of_range@std@@6B@  1002c384     libcpmt:xthrow.obj
 0002:0000b390       ??_7error_category@std@@6B@ 1002c390     libcpmt:xthrow.obj
 0002:0000b3ac       ??_7_Generic_error_category@std@@6B@ 1002c3ac     libcpmt:xthrow.obj
 0002:0000b3c8       ??_7_Iostream_error_category@std@@6B@ 1002c3c8     libcpmt:xthrow.obj
 0002:0000b3e4       ??_7_System_error_category@std@@6B@ 1002c3e4     libcpmt:xthrow.obj
 0002:0000b8d0       ??_C@_0BC@CIJDGCDI@permission?5denied?$AA@ 1002c8d0     libcpmt:syserror.obj
 0002:0000b8e4       ??_C@_0M@MIDIAGJP@file?5exists?$AA@ 1002c8e4     libcpmt:syserror.obj
 0002:0000b8f0       ??_C@_0P@FDINDDOK@no?5such?5device?$AA@ 1002c8f0     libcpmt:syserror.obj
 0002:0000b900       ??_C@_0BC@EJHOMAAK@filename?5too?5long?$AA@ 1002c900     libcpmt:syserror.obj
 0002:0000b914       ??_C@_0BI@NGCEHDD@device?5or?5resource?5busy?$AA@ 1002c914     libcpmt:syserror.obj
 0002:0000b92c       ??_C@_08GLNPIFBN@io?5error?$AA@ 1002c92c     libcpmt:syserror.obj
 0002:0000b938       ??_C@_0BE@JIDOCPHM@directory?5not?5empty?$AA@ 1002c938     libcpmt:syserror.obj
 0002:0000b94c       ??_C@_0BB@FCMFBGOM@invalid?5argument?$AA@ 1002c94c     libcpmt:syserror.obj
 0002:0000b960       ??_C@_0BD@IJDJKDEA@no?5space?5on?5device?$AA@ 1002c960     libcpmt:syserror.obj
 0002:0000b974       ??_C@_0BK@NDOCBPGE@no?5such?5file?5or?5directory?$AA@ 1002c974     libcpmt:syserror.obj
 0002:0000b990       ??_C@_0BH@KEFGLDAF@function?5not?5supported?$AA@ 1002c990     libcpmt:syserror.obj
 0002:0000b9a8       ??_C@_0BC@NJECKMKE@no?5lock?5available?$AA@ 1002c9a8     libcpmt:syserror.obj
 0002:0000b9bc       ??_C@_0BC@ENOOLCNF@not?5enough?5memory?$AA@ 1002c9bc     libcpmt:syserror.obj
 0002:0000b9d0       ??_C@_0BP@LKNGHENJ@resource?5unavailable?5try?5again?$AA@ 1002c9d0     libcpmt:syserror.obj
 0002:0000b9f0       ??_C@_0BC@PPHBOELF@cross?5device?5link?$AA@ 1002c9f0     libcpmt:syserror.obj
 0002:0000ba04       ??_C@_0BD@MOLBPMEA@operation?5canceled?$AA@ 1002ca04     libcpmt:syserror.obj
 0002:0000ba18       ??_C@_0BE@GHAFMPAH@too?5many?5files?5open?$AA@ 1002ca18     libcpmt:syserror.obj
 0002:0000ba2c       ??_C@_0BC@FNODOBAE@permission_denied?$AA@ 1002ca2c     libcpmt:syserror.obj
 0002:0000ba40       ??_C@_0P@LNDJPBFK@address_in_use?$AA@ 1002ca40     libcpmt:syserror.obj
 0002:0000ba50       ??_C@_0BG@IPMGOJF@address_not_available?$AA@ 1002ca50     libcpmt:syserror.obj
 0002:0000ba68       ??_C@_0BN@LCBDHODA@address_family_not_supported?$AA@ 1002ca68     libcpmt:syserror.obj
 0002:0000ba88       ??_C@_0BP@FOJJHMCC@connection_already_in_progress?$AA@ 1002ca88     libcpmt:syserror.obj
 0002:0000baa8       ??_C@_0BE@DLHHIBGN@bad_file_descriptor?$AA@ 1002caa8     libcpmt:syserror.obj
 0002:0000babc       ??_C@_0BD@OJMJDIGI@connection_aborted?$AA@ 1002cabc     libcpmt:syserror.obj
 0002:0000bad0       ??_C@_0BD@NGKCIFEP@connection_refused?$AA@ 1002cad0     libcpmt:syserror.obj
 0002:0000bae4       ??_C@_0BB@JOANDNCK@connection_reset?$AA@ 1002cae4     libcpmt:syserror.obj
 0002:0000baf8       ??_C@_0BN@JLJNLKLK@destination_address_required?$AA@ 1002caf8     libcpmt:syserror.obj
 0002:0000bb18       ??_C@_0M@IJGMGFGP@bad_address?$AA@ 1002cb18     libcpmt:syserror.obj
 0002:0000bb24       ??_C@_0BB@KKNHPPIN@host_unreachable?$AA@ 1002cb24     libcpmt:syserror.obj
 0002:0000bb38       ??_C@_0BG@DJGBJIIK@operation_in_progress?$AA@ 1002cb38     libcpmt:syserror.obj
 0002:0000bb50       ??_C@_0M@EGEKIIMP@interrupted?$AA@ 1002cb50     libcpmt:syserror.obj
 0002:0000bb5c       ??_C@_0BB@FFIHMIPJ@invalid_argument?$AA@ 1002cb5c     libcpmt:syserror.obj
 0002:0000bb70       ??_C@_0BC@FIFLCHLO@already_connected?$AA@ 1002cb70     libcpmt:syserror.obj
 0002:0000bb84       ??_C@_0BE@GJJJJDDA@too_many_files_open?$AA@ 1002cb84     libcpmt:syserror.obj
 0002:0000bb98       ??_C@_0N@HPMLKHPL@message_size?$AA@ 1002cb98     libcpmt:syserror.obj
 0002:0000bba8       ??_C@_0BC@LEEIKBAL@filename_too_long?$AA@ 1002cba8     libcpmt:syserror.obj
 0002:0000bbbc       ??_C@_0N@FCPALPJK@network_down?$AA@ 1002cbbc     libcpmt:syserror.obj
 0002:0000bbcc       ??_C@_0O@EHNDLHIG@network_reset?$AA@ 1002cbcc     libcpmt:syserror.obj
 0002:0000bbdc       ??_C@_0BE@JFNJIDNF@network_unreachable?$AA@ 1002cbdc     libcpmt:syserror.obj
 0002:0000bbf0       ??_C@_0BA@FDIJKJCL@no_buffer_space?$AA@ 1002cbf0     libcpmt:syserror.obj
 0002:0000bc00       ??_C@_0BD@JHIHCGKP@no_protocol_option?$AA@ 1002cc00     libcpmt:syserror.obj
 0002:0000bc14       ??_C@_0O@GBCLHHD@not_connected?$AA@ 1002cc14     libcpmt:syserror.obj
 0002:0000bc24       ??_C@_0N@IMHKKLEM@not_a_socket?$AA@ 1002cc24     libcpmt:syserror.obj
 0002:0000bc34       ??_C@_0BI@ICEIDKLJ@operation_not_supported?$AA@ 1002cc34     libcpmt:syserror.obj
 0002:0000bc4c       ??_C@_0BH@KAPBAIJF@protocol_not_supported?$AA@ 1002cc4c     libcpmt:syserror.obj
 0002:0000bc64       ??_C@_0BE@GAOJJFPC@wrong_protocol_type?$AA@ 1002cc64     libcpmt:syserror.obj
 0002:0000bc78       ??_C@_09NCHNLHPG@timed_out?$AA@ 1002cc78     libcpmt:syserror.obj
 0002:0000bc84       ??_C@_0BG@GDGHKFDH@operation_would_block?$AA@ 1002cc84     libcpmt:syserror.obj
 0002:0000bc9c       ??_C@_0BN@LKKBCCDB@address?5family?5not?5supported?$AA@ 1002cc9c     libcpmt:syserror.obj
 0002:0000bcbc       ??_C@_0P@LDMLAFHI@address?5in?5use?$AA@ 1002ccbc     libcpmt:syserror.obj
 0002:0000bccc       ??_C@_0BG@DHPCNBJB@address?5not?5available?$AA@ 1002cccc     libcpmt:syserror.obj
 0002:0000bce4       ??_C@_0BC@DFIBIBIL@already?5connected?$AA@ 1002cce4     libcpmt:syserror.obj
 0002:0000bcf8       ??_C@_0BH@CAKOHOMI@argument?5list?5too?5long?$AA@ 1002ccf8     libcpmt:syserror.obj
 0002:0000bd10       ??_C@_0BH@CGIMPKIM@argument?5out?5of?5domain?$AA@ 1002cd10     libcpmt:syserror.obj
 0002:0000bd28       ??_C@_0M@KGHGGJGL@bad?5address?$AA@ 1002cd28     libcpmt:syserror.obj
 0002:0000bd34       ??_C@_0BE@MPJPGCEO@bad?5file?5descriptor?$AA@ 1002cd34     libcpmt:syserror.obj
 0002:0000bd48       ??_C@_0M@PMMIEFCP@bad?5message?$AA@ 1002cd48     libcpmt:syserror.obj
 0002:0000bd54       ??_C@_0M@KPHOFDBE@broken?5pipe?$AA@ 1002cd54     libcpmt:syserror.obj
 0002:0000bd60       ??_C@_0BD@MGNDDEGM@connection?5aborted?$AA@ 1002cd60     libcpmt:syserror.obj
 0002:0000bd74       ??_C@_0BP@KAIHPOGN@connection?5already?5in?5progress?$AA@ 1002cd74     libcpmt:syserror.obj
 0002:0000bd94       ??_C@_0BD@PJLIIJEL@connection?5refused?$AA@ 1002cd94     libcpmt:syserror.obj
 0002:0000bda8       ??_C@_0BB@IECNJNOI@connection?5reset?$AA@ 1002cda8     libcpmt:syserror.obj
 0002:0000bdbc       ??_C@_0BN@KDMIFEIP@destination?5address?5required?$AA@ 1002cdbc     libcpmt:syserror.obj
 0002:0000bddc       ??_C@_0BI@BNCLIGPB@executable?5format?5error?$AA@ 1002cddc     libcpmt:syserror.obj
 0002:0000bdf4       ??_C@_0P@DNAJLBJK@file?5too?5large?$AA@ 1002cdf4     libcpmt:syserror.obj
 0002:0000be04       ??_C@_0BB@DHFDFGDM@host?5unreachable?$AA@ 1002ce04     libcpmt:syserror.obj
 0002:0000be18       ??_C@_0BD@JPHBMONG@identifier?5removed?$AA@ 1002ce18     libcpmt:syserror.obj
 0002:0000be2c       ??_C@_0BG@CDNPAGJK@illegal?5byte?5sequence?$AA@ 1002ce2c     libcpmt:syserror.obj
 0002:0000be44       ??_C@_0CD@BNPLBMNA@inappropriate?5io?5control?5operati@ 1002ce44     libcpmt:syserror.obj
 0002:0000be68       ??_C@_0N@OHAFKDEK@invalid?5seek?$AA@ 1002ce68     libcpmt:syserror.obj
 0002:0000be78       ??_C@_0P@FLLDBIDK@is?5a?5directory?$AA@ 1002ce78     libcpmt:syserror.obj
 0002:0000be88       ??_C@_0N@IFLPBIOP@message?5size?$AA@ 1002ce88     libcpmt:syserror.obj
 0002:0000be98       ??_C@_0N@KIIEAAIO@network?5down?$AA@ 1002ce98     libcpmt:syserror.obj
 0002:0000bea8       ??_C@_0O@FNPDBHEE@network?5reset?$AA@ 1002cea8     libcpmt:syserror.obj
 0002:0000beb8       ??_C@_0BE@IFNCKGE@network?5unreachable?$AA@ 1002ceb8     libcpmt:syserror.obj
 0002:0000becc       ??_C@_0BA@PFFCAOFK@no?5buffer?5space?$AA@ 1002cecc     libcpmt:syserror.obj
 0002:0000bedc       ??_C@_0BB@IEPBLJHK@no?5child?5process?$AA@ 1002cedc     libcpmt:syserror.obj
 0002:0000bef0       ??_C@_07PLECNNKG@no?5link?$AA@ 1002cef0     libcpmt:syserror.obj
 0002:0000bef8       ??_C@_0BF@PBGGPKKE@no?5message?5available?$AA@ 1002cef8     libcpmt:syserror.obj
 0002:0000bf10       ??_C@_0L@EDOLMPAK@no?5message?$AA@ 1002cf10     libcpmt:syserror.obj
 0002:0000bf1c       ??_C@_0BD@EAMBFIDF@no?5protocol?5option?$AA@ 1002cf1c     libcpmt:syserror.obj
 0002:0000bf30       ??_C@_0BE@MKFDAFMP@no?5stream?5resources?$AA@ 1002cf30     libcpmt:syserror.obj
 0002:0000bf44       ??_C@_0BK@IMCPHCBI@no?5such?5device?5or?5address?$AA@ 1002cf44     libcpmt:syserror.obj
 0002:0000bf60       ??_C@_0BA@ENLPPKBN@no?5such?5process?$AA@ 1002cf60     libcpmt:syserror.obj
 0002:0000bf70       ??_C@_0BA@DOCPFFJG@not?5a?5directory?$AA@ 1002cf70     libcpmt:syserror.obj
 0002:0000bf80       ??_C@_0N@POEIPGGF@not?5a?5socket?$AA@ 1002cf80     libcpmt:syserror.obj
 0002:0000bf90       ??_C@_0N@LGAPMMPI@not?5a?5stream?$AA@ 1002cf90     libcpmt:syserror.obj
 0002:0000bfa0       ??_C@_0O@GLMIBBEG@not?5connected?$AA@ 1002cfa0     libcpmt:syserror.obj
 0002:0000bfb0       ??_C@_0O@NHEDABJP@not?5supported?$AA@ 1002cfb0     libcpmt:syserror.obj
 0002:0000bfc0       ??_C@_0BG@KDKHOPCO@operation?5in?5progress?$AA@ 1002cfc0     libcpmt:syserror.obj
 0002:0000bfd8       ??_C@_0BI@OHIEJAAB@operation?5not?5permitted?$AA@ 1002cfd8     libcpmt:syserror.obj
 0002:0000bff0       ??_C@_0BI@LNEGIFLN@operation?5not?5supported?$AA@ 1002cff0     libcpmt:syserror.obj
 0002:0000c008       ??_C@_0BG@OEMDKMEE@operation?5would?5block?$AA@ 1002d008     libcpmt:syserror.obj
 0002:0000c020       ??_C@_0L@BLPOFLNJ@owner?5dead?$AA@ 1002d020     libcpmt:syserror.obj
 0002:0000c02c       ??_C@_0P@FNPOCJBE@protocol?5error?$AA@ 1002d02c     libcpmt:syserror.obj
 0002:0000c03c       ??_C@_0BH@JPPPLHJB@protocol?5not?5supported?$AA@ 1002d03c     libcpmt:syserror.obj
 0002:0000c054       ??_C@_0BG@EICBIHDP@read?5only?5file?5system?$AA@ 1002d054     libcpmt:syserror.obj
 0002:0000c06c       ??_C@_0BO@BJBOMOEJ@resource?5deadlock?5would?5occur?$AA@ 1002d06c     libcpmt:syserror.obj
 0002:0000c08c       ??_C@_0BE@GOIPJJHG@result?5out?5of?5range?$AA@ 1002d08c     libcpmt:syserror.obj
 0002:0000c0a0       ??_C@_0BG@MPLKFPAE@state?5not?5recoverable?$AA@ 1002d0a0     libcpmt:syserror.obj
 0002:0000c0b8       ??_C@_0P@DIIFGFCG@stream?5timeout?$AA@ 1002d0b8     libcpmt:syserror.obj
 0002:0000c0c8       ??_C@_0P@IPFDMIFL@text?5file?5busy?$AA@ 1002d0c8     libcpmt:syserror.obj
 0002:0000c0d8       ??_C@_09KJPPMAOI@timed?5out?$AA@ 1002d0d8     libcpmt:syserror.obj
 0002:0000c0e4       ??_C@_0BO@HACHBEKI@too?5many?5files?5open?5in?5system?$AA@ 1002d0e4     libcpmt:syserror.obj
 0002:0000c104       ??_C@_0P@HCOMKFCC@too?5many?5links?$AA@ 1002d104     libcpmt:syserror.obj
 0002:0000c114       ??_C@_0BO@EFGOJEF@too?5many?5symbolic?5link?5levels?$AA@ 1002d114     libcpmt:syserror.obj
 0002:0000c134       ??_C@_0BA@KGKGOOJA@value?5too?5large?$AA@ 1002d134     libcpmt:syserror.obj
 0002:0000c144       ??_C@_0BE@MIEJDDNH@wrong?5protocol?5type?$AA@ 1002d144     libcpmt:syserror.obj
 0002:0000c158       __pDestructExceptionObject 1002d158     LIBCMT:frame.obj
 0002:0000c160       ??_7bad_exception@std@@6B@ 1002d160     LIBCMT:frame.obj
 0002:0000c168       ??_C@_0O@DPKOEFFH@bad?5exception?$AA@ 1002d168     LIBCMT:frame.obj
 0002:0000d498       ??_C@_0BM@PAPJHAGI@invalid?5map?1set?$DMT?$DO?5iterator?$AA@ 1002e498     ILuaModuleManager.obj
 0002:0000d4b4       ??_C@_0BE@JONHPENG@map?1set?$DMT?$DO?5too?5long?$AA@ 1002e4b4     ILuaModuleManager.obj
 0002:0000d4c8       ??_C@_07DCLBNMLN@generic?$AA@ 1002e4c8     ILuaObject.obj
 0002:0000d4d0       ??_C@_0O@BFJCFAAK@unknown?5error?$AA@ 1002e4d0     ILuaObject.obj
 0002:0000d4e0       ??_C@_08LLGCOLLL@iostream?$AA@ 1002e4e0     ILuaObject.obj
 0002:0000d4ec       ??_C@_0BG@PADBLCHM@iostream?5stream?5error?$AA@ 1002e4ec     ILuaObject.obj
 0002:0000d504       ??_C@_06FHFOAHML@system?$AA@ 1002e504     ILuaObject.obj
 0002:0000d50c       ??_C@_0BI@CFPLBAOH@invalid?5string?5position?$AA@ 1002e50c     ILuaObject.obj
 0002:0000d524       ??_C@_0BA@JFNIOLAK@string?5too?5long?$AA@ 1002e524     ILuaObject.obj
 0002:0000d534       ??_C@_02DPKJAMEF@?$CFd?$AA@ 1002e534     nav.obj
 0002:0000d538       ??_C@_02NJPGOMH@?$CFf?$AA@ 1002e538     nav.obj
 0002:0000d540       ??_7IRefCounted@@6B@       1002e540     nav.obj
 0002:0000d54c       ??_7?$CMemberFunctor3@PAVNav@@P81@AEXPAUJobInfo_t@@PAVNode@@1@ZPAU2@PAV3@PAV3@V?$CRefCounted1@VCFunctor@@V?$CRefCountServiceBase@$00VCRefMT@@@@@@VCFuncMemPolicyNone@@@@6B?$CRefCountServiceBase@$00VCRefMT@@@@@ 1002e54c     nav.obj
 0002:0000d558       ??_7?$CMemberFunctor3@PAVNav@@P81@AEXPAUJobInfo_t@@PAVNode@@1@ZPAU2@PAV3@PAV3@V?$CRefCounted1@VCFunctor@@V?$CRefCountServiceBase@$00VCRefMT@@@@@@VCFuncMemPolicyNone@@@@6BCFunctor@@@ 1002e558     nav.obj
 0002:0000d568       ??_7CFunctor@@6B@          1002e568     nav.obj
 0002:0000d578       ??_7?$CMemberFunctor1@PAVNav@@P81@AEXPA_N@ZPA_NV?$CRefCounted1@VCFunctor@@V?$CRefCountServiceBase@$00VCRefMT@@@@@@VCFuncMemPolicyNone@@@@6B?$CRefCountServiceBase@$00VCRefMT@@@@@ 1002e578     nav.obj
 0002:0000d584       ??_7?$CMemberFunctor1@PAVNav@@P81@AEXPA_N@ZPA_NV?$CRefCounted1@VCFunctor@@V?$CRefCountServiceBase@$00VCRefMT@@@@@@VCFuncMemPolicyNone@@@@6BCFunctor@@@ 1002e584     nav.obj
 0002:0000d594       ??_7GMOD_TraceFilter@@6B@  1002e594     gmutility.obj
 0002:0000d5a0       ??_7ITraceFilter@@6B@      1002e5a0     gmutility.obj
 0002:0000d5ac       ??_7CTraceFilter@@6B@      1002e5ac     gmutility.obj
 0002:0000d5b4       __real@00000000            1002e5b4     ILuaInterface.obj
 0002:0000d5b8       __real@0000000000000000    1002e5b8     ILuaInterface.obj
 0002:0000d5c0       __real@3c23d70a            1002e5c0     ILuaInterface.obj
 0002:0000d5c4       __real@3dcccccd            1002e5c4     ILuaInterface.obj
 0002:0000d5c8       __real@3eb0c6f7a0b5ed8d    1002e5c8     ILuaInterface.obj
 0002:0000d5d0       __real@3ee66666            1002e5d0     ILuaInterface.obj
 0002:0000d5d4       __real@3f000000            1002e5d4     ILuaInterface.obj
 0002:0000d5d8       __real@3f800000            1002e5d8     ILuaInterface.obj
 0002:0000d5e0       __real@3fe4cccccccccccd    1002e5e0     ILuaInterface.obj
 0002:0000d5e8       __real@3ff0000000000000    1002e5e8     ILuaInterface.obj
 0002:0000d5f0       __real@40000000            1002e5f0     ILuaInterface.obj
 0002:0000d5f8       __real@4000000000000000    1002e5f8     ILuaInterface.obj
 0002:0000d600       __real@4008000000000000    1002e600     ILuaInterface.obj
 0002:0000d608       __real@4010000000000000    1002e608     ILuaInterface.obj
 0002:0000d610       __real@4014000000000000    1002e610     ILuaInterface.obj
 0002:0000d618       __real@4018000000000000    1002e618     ILuaInterface.obj
 0002:0000d620       __real@401c000000000000    1002e620     ILuaInterface.obj
 0002:0000d628       __real@4020000000000000    1002e628     ILuaInterface.obj
 0002:0000d630       __real@4022000000000000    1002e630     ILuaInterface.obj
 0002:0000d638       __real@4024000000000000    1002e638     ILuaInterface.obj
 0002:0000d640       __real@4026000000000000    1002e640     ILuaInterface.obj
 0002:0000d648       __real@4028000000000000    1002e648     ILuaInterface.obj
 0002:0000d650       __real@402a000000000000    1002e650     ILuaInterface.obj
 0002:0000d658       __real@402c000000000000    1002e658     ILuaInterface.obj
 0002:0000d660       __real@41200000            1002e660     ILuaInterface.obj
 0002:0000d664       __real@42c80000            1002e664     ILuaInterface.obj
 0002:0000d668       __real@461c3f9a            1002e668     ILuaInterface.obj
 0002:0000d66c       __real@7f7fffff            1002e66c     ILuaInterface.obj
 0002:0000d670       __real@bf800000            1002e670     ILuaInterface.obj
 0002:0000d680       __xmm@7fffffffffffffff7fffffffffffffff 1002e680     ILuaInterface.obj
 0002:0000d690       __xmm@80000000800000008000000080000000 1002e690     ILuaInterface.obj
 0002:0000d6a0       __load_config_used         1002e6a0     LIBCMT:loadcfg.obj
 0002:0000d774       ??_R4CUtlCharConversion@@6B@ 1002e774     tier1:utlbuffer.obj
 0002:0000d788       ??_R3CUtlCharConversion@@8 1002e788     tier1:utlbuffer.obj
 0002:0000d798       ??_R2CUtlCharConversion@@8 1002e798     tier1:utlbuffer.obj
 0002:0000d7a0       ??_R1A@?0A@EA@CUtlCharConversion@@8 1002e7a0     tier1:utlbuffer.obj
 0002:0000d7bc       ??_R4CUtlNoEscConversion@@6B@ 1002e7bc     tier1:utlbuffer.obj
 0002:0000d7d0       ??_R3CUtlNoEscConversion@@8 1002e7d0     tier1:utlbuffer.obj
 0002:0000d7e0       ??_R2CUtlNoEscConversion@@8 1002e7e0     tier1:utlbuffer.obj
 0002:0000d7ec       ??_R1A@?0A@EA@CUtlNoEscConversion@@8 1002e7ec     tier1:utlbuffer.obj
 0002:0000d808       ??_R4CUtlCStringConversion@@6B@ 1002e808     tier1:utlbuffer.obj
 0002:0000d81c       ??_R3CUtlCStringConversion@@8 1002e81c     tier1:utlbuffer.obj
 0002:0000d82c       ??_R2CUtlCStringConversion@@8 1002e82c     tier1:utlbuffer.obj
 0002:0000d838       ??_R1A@?0A@EA@CUtlCStringConversion@@8 1002e838     tier1:utlbuffer.obj
 0002:0000d854       ??_R1A@?0A@EA@exception@std@@8 1002e854     LIBCMT:new.obj
 0002:0000d870       ??_R3exception@std@@8      1002e870     LIBCMT:new.obj
 0002:0000d880       ??_R2exception@std@@8      1002e880     LIBCMT:new.obj
 0002:0000d888       ??_R4bad_alloc@std@@6B@    1002e888     LIBCMT:new.obj
 0002:0000d89c       ??_R3bad_alloc@std@@8      1002e89c     LIBCMT:new.obj
 0002:0000d8ac       ??_R2bad_alloc@std@@8      1002e8ac     LIBCMT:new.obj
 0002:0000d8b8       ??_R1A@?0A@EA@bad_alloc@std@@8 1002e8b8     LIBCMT:new.obj
 0002:0000d8d4       ??_R4type_info@@6B@        1002e8d4     LIBCMT:typinfo.obj
 0002:0000d8e8       ??_R3type_info@@8          1002e8e8     LIBCMT:typinfo.obj
 0002:0000d8f8       ??_R2type_info@@8          1002e8f8     LIBCMT:typinfo.obj
 0002:0000d900       ??_R1A@?0A@EA@type_info@@8 1002e900     LIBCMT:typinfo.obj
 0002:0000d91c       ??_R4exception@std@@6B@    1002e91c     LIBCMT:stdexcpt.obj
 0002:0000d930       ??_R4logic_error@std@@6B@  1002e930     libcpmt:xthrow.obj
 0002:0000d944       ??_R3logic_error@std@@8    1002e944     libcpmt:xthrow.obj
 0002:0000d954       ??_R2logic_error@std@@8    1002e954     libcpmt:xthrow.obj
 0002:0000d960       ??_R1A@?0A@EA@logic_error@std@@8 1002e960     libcpmt:xthrow.obj
 0002:0000d97c       ??_R4length_error@std@@6B@ 1002e97c     libcpmt:xthrow.obj
 0002:0000d990       ??_R3length_error@std@@8   1002e990     libcpmt:xthrow.obj
 0002:0000d9a0       ??_R2length_error@std@@8   1002e9a0     libcpmt:xthrow.obj
 0002:0000d9b0       ??_R1A@?0A@EA@length_error@std@@8 1002e9b0     libcpmt:xthrow.obj
 0002:0000d9cc       ??_R4out_of_range@std@@6B@ 1002e9cc     libcpmt:xthrow.obj
 0002:0000d9e0       ??_R3out_of_range@std@@8   1002e9e0     libcpmt:xthrow.obj
 0002:0000d9f0       ??_R2out_of_range@std@@8   1002e9f0     libcpmt:xthrow.obj
 0002:0000da00       ??_R1A@?0A@EA@out_of_range@std@@8 1002ea00     libcpmt:xthrow.obj
 0002:0000da1c       ??_R4bad_exception@std@@6B@ 1002ea1c     LIBCMT:frame.obj
 0002:0000da30       ??_R3bad_exception@std@@8  1002ea30     LIBCMT:frame.obj
 0002:0000da40       ??_R2bad_exception@std@@8  1002ea40     LIBCMT:frame.obj
 0002:0000da4c       ??_R1A@?0A@EA@bad_exception@std@@8 1002ea4c     LIBCMT:frame.obj
 0002:0000da68       ??_R3error_category@std@@8 1002ea68     ILuaObject.obj
 0002:0000da78       ??_R1A@?0A@EA@error_category@std@@8 1002ea78     ILuaObject.obj
 0002:0000da94       ??_R3_System_error_category@std@@8 1002ea94     ILuaObject.obj
 0002:0000daa4       ??_R2_System_error_category@std@@8 1002eaa4     ILuaObject.obj
 0002:0000dab4       ??_R4_Generic_error_category@std@@6B@ 1002eab4     ILuaObject.obj
 0002:0000dac8       ??_R1A@?0A@EA@_Generic_error_category@std@@8 1002eac8     ILuaObject.obj
 0002:0000dae4       ??_R1A@?0A@EA@_Iostream_error_category@std@@8 1002eae4     ILuaObject.obj
 0002:0000db00       ??_R4error_category@std@@6B@ 1002eb00     ILuaObject.obj
 0002:0000db14       ??_R4_Iostream_error_category@std@@6B@ 1002eb14     ILuaObject.obj
 0002:0000db28       ??_R2error_category@std@@8 1002eb28     ILuaObject.obj
 0002:0000db30       ??_R1A@?0A@EA@_System_error_category@std@@8 1002eb30     ILuaObject.obj
 0002:0000db4c       ??_R3_Iostream_error_category@std@@8 1002eb4c     ILuaObject.obj
 0002:0000db5c       ??_R4_System_error_category@std@@6B@ 1002eb5c     ILuaObject.obj
 0002:0000db70       ??_R2_Generic_error_category@std@@8 1002eb70     ILuaObject.obj
 0002:0000db7c       ??_R3_Generic_error_category@std@@8 1002eb7c     ILuaObject.obj
 0002:0000db8c       ??_R2_Iostream_error_category@std@@8 1002eb8c     ILuaObject.obj
 0002:0000db9c       ??_R1A@?0A@EA@?$CMemberFunctor1@PAVNav@@P81@AEXPA_N@ZPA_NV?$CRefCounted1@VCFunctor@@V?$CRefCountServiceBase@$00VCRefMT@@@@@@VCFuncMemPolicyNone@@@@8 1002eb9c     nav.obj
 0002:0000dbb8       ??_R4CFunctor@@6B@         1002ebb8     nav.obj
 0002:0000dbcc       ??_R3?$CRefCounted1@VCFunctor@@V?$CRefCountServiceBase@$00VCRefMT@@@@@@8 1002ebcc     nav.obj
 0002:0000dbdc       ??_R4?$CMemberFunctor1@PAVNav@@P81@AEXPA_N@ZPA_NV?$CRefCounted1@VCFunctor@@V?$CRefCountServiceBase@$00VCRefMT@@@@@@VCFuncMemPolicyNone@@@@6B?$CRefCountServiceBase@$00VCRefMT@@@@@ 1002ebdc     nav.obj
 0002:0000dbf0       ??_R3?$CMemberFunctor1@PAVNav@@P81@AEXPA_N@ZPA_NV?$CRefCounted1@VCFunctor@@V?$CRefCountServiceBase@$00VCRefMT@@@@@@VCFuncMemPolicyNone@@@@8 1002ebf0     nav.obj
 0002:0000dc00       ??_R1A@?0A@EA@?$CRefCounted1@VCFunctor@@V?$CRefCountServiceBase@$00VCRefMT@@@@@@8 1002ec00     nav.obj
 0002:0000dc1c       ??_R4?$CMemberFunctor3@PAVNav@@P81@AEXPAUJobInfo_t@@PAVNode@@1@ZPAU2@PAV3@PAV3@V?$CRefCounted1@VCFunctor@@V?$CRefCountServiceBase@$00VCRefMT@@@@@@VCFuncMemPolicyNone@@@@6BCFunctor@@@ 1002ec1c     nav.obj
 0002:0000dc30       ??_R1A@?0A@EA@CFunctor@@8  1002ec30     nav.obj
 0002:0000dc4c       ??_R2?$CMemberFunctor3@PAVNav@@P81@AEXPAUJobInfo_t@@PAVNode@@1@ZPAU2@PAV3@PAV3@V?$CRefCounted1@VCFunctor@@V?$CRefCountServiceBase@$00VCRefMT@@@@@@VCFuncMemPolicyNone@@@@8 1002ec4c     nav.obj
 0002:0000dc64       ??_R4IRefCounted@@6B@      1002ec64     nav.obj
 0002:0000dc78       ??_R2IRefCounted@@8        1002ec78     nav.obj
 0002:0000dc80       ??_R3CFunctor@@8           1002ec80     nav.obj
 0002:0000dc90       ??_R2?$CMemberFunctor1@PAVNav@@P81@AEXPA_N@ZPA_NV?$CRefCounted1@VCFunctor@@V?$CRefCountServiceBase@$00VCRefMT@@@@@@VCFuncMemPolicyNone@@@@8 1002ec90     nav.obj
 0002:0000dca8       ??_R1A@?0A@EA@?$CMemberFunctor3@PAVNav@@P81@AEXPAUJobInfo_t@@PAVNode@@1@ZPAU2@PAV3@PAV3@V?$CRefCounted1@VCFunctor@@V?$CRefCountServiceBase@$00VCRefMT@@@@@@VCFuncMemPolicyNone@@@@8 1002eca8     nav.obj
 0002:0000dcc4       ??_R2CFunctor@@8           1002ecc4     nav.obj
 0002:0000dcd0       ??_R2?$CRefCounted1@VCFunctor@@V?$CRefCountServiceBase@$00VCRefMT@@@@@@8 1002ecd0     nav.obj
 0002:0000dce4       ??_R1A@?0A@EA@IRefCounted@@8 1002ece4     nav.obj
 0002:0000dd00       ??_R3?$CMemberFunctor3@PAVNav@@P81@AEXPAUJobInfo_t@@PAVNode@@1@ZPAU2@PAV3@PAV3@V?$CRefCounted1@VCFunctor@@V?$CRefCountServiceBase@$00VCRefMT@@@@@@VCFuncMemPolicyNone@@@@8 1002ed00     nav.obj
 0002:0000dd10       ??_R4?$CMemberFunctor1@PAVNav@@P81@AEXPA_N@ZPA_NV?$CRefCounted1@VCFunctor@@V?$CRefCountServiceBase@$00VCRefMT@@@@@@VCFuncMemPolicyNone@@@@6BCFunctor@@@ 1002ed10     nav.obj
 0002:0000dd24       ??_R3IRefCounted@@8        1002ed24     nav.obj
 0002:0000dd34       ??_R3?$CRefCountServiceBase@$00VCRefMT@@@@8 1002ed34     nav.obj
 0002:0000dd44       ??_R1A@?0A@EA@?$CRefCountServiceBase@$00VCRefMT@@@@8 1002ed44     nav.obj
 0002:0000dd60       ??_R2?$CRefCountServiceBase@$00VCRefMT@@@@8 1002ed60     nav.obj
 0002:0000dd68       ??_R4?$CMemberFunctor3@PAVNav@@P81@AEXPAUJobInfo_t@@PAVNode@@1@ZPAU2@PAV3@PAV3@V?$CRefCounted1@VCFunctor@@V?$CRefCountServiceBase@$00VCRefMT@@@@@@VCFuncMemPolicyNone@@@@6B?$CRefCountServiceBase@$00VCRefMT@@@@@ 1002ed68     nav.obj
 0002:0000dd7c       ??_R17?0A@EA@?$CRefCountServiceBase@$00VCRefMT@@@@8 1002ed7c     nav.obj
 0002:0000dd98       ??_R1A@?0A@EA@ITraceFilter@@8 1002ed98     gmutility.obj
 0002:0000ddb4       ??_R1A@?0A@EA@CTraceFilter@@8 1002edb4     gmutility.obj
 0002:0000ddd0       ??_R4GMOD_TraceFilter@@6B@ 1002edd0     gmutility.obj
 0002:0000dde4       ??_R4CTraceFilter@@6B@     1002ede4     gmutility.obj
 0002:0000ddf8       ??_R4ITraceFilter@@6B@     1002edf8     gmutility.obj
 0002:0000de0c       ??_R3GMOD_TraceFilter@@8   1002ee0c     gmutility.obj
 0002:0000de1c       ??_R3ITraceFilter@@8       1002ee1c     gmutility.obj
 0002:0000de2c       ??_R3CTraceFilter@@8       1002ee2c     gmutility.obj
 0002:0000de3c       ??_R2CTraceFilter@@8       1002ee3c     gmutility.obj
 0002:0000de48       ??_R2GMOD_TraceFilter@@8   1002ee48     gmutility.obj
 0002:0000de58       ??_R2ITraceFilter@@8       1002ee58     gmutility.obj
 0002:0000de60       ??_R1A@?0A@EA@GMOD_TraceFilter@@8 1002ee60     gmutility.obj
 0002:0000de80       ___safe_se_handler_table   1002ee80     <linker-defined>
 0002:0000deec       ___rtc_iaa                 1002eeec     LIBCMT:initsect.obj
 0002:0000def0       ___rtc_izz                 1002eef0     LIBCMT:initsect.obj
 0002:0000def4       ___rtc_taa                 1002eef4     LIBCMT:initsect.obj
 0002:0000def8       ___rtc_tzz                 1002eef8     LIBCMT:initsect.obj
 0002:0000df00       __TI2?AVbad_alloc@std@@    1002ef00     LIBCMT:new.obj
 0002:0000df10       __CTA2?AVbad_alloc@std@@   1002ef10     LIBCMT:new.obj
 0002:0000df1c       __CT??_R0?AVbad_alloc@std@@@8??0bad_alloc@std@@QAE@ABV01@@Z12 1002ef1c     LIBCMT:new.obj
 0002:0000df38       __CT??_R0?AVexception@std@@@8??0exception@std@@QAE@ABV01@@Z12 1002ef38     LIBCMT:new.obj
 0002:0000e2ac       __CT??_R0?AVlogic_error@std@@@8??0logic_error@std@@QAE@ABV01@@Z12 1002f2ac     libcpmt:xthrow.obj
 0002:0000e2c8       __TI3?AVlength_error@std@@ 1002f2c8     libcpmt:xthrow.obj
 0002:0000e2d8       __CTA3?AVlength_error@std@@ 1002f2d8     libcpmt:xthrow.obj
 0002:0000e2e8       __CT??_R0?AVlength_error@std@@@8??0length_error@std@@QAE@ABV01@@Z12 1002f2e8     libcpmt:xthrow.obj
 0002:0000e304       __TI3?AVout_of_range@std@@ 1002f304     libcpmt:xthrow.obj
 0002:0000e314       __CTA3?AVout_of_range@std@@ 1002f314     libcpmt:xthrow.obj
 0002:0000e324       __CT??_R0?AVout_of_range@std@@@8??0out_of_range@std@@QAE@ABV01@@Z12 1002f324     libcpmt:xthrow.obj
 0002:0000e444       __TI2?AVbad_exception@std@@ 1002f444     LIBCMT:frame.obj
 0002:0000e454       __CTA2?AVbad_exception@std@@ 1002f454     LIBCMT:frame.obj
 0002:0000e460       __CT??_R0?AVbad_exception@std@@@8??0bad_exception@std@@QAE@ABV01@@Z12 1002f460     LIBCMT:frame.obj
 0002:0000e994       __IMPORT_DESCRIPTOR_tier0  1002f994     tier0:tier0.dll
 0002:0000e9a8       __IMPORT_DESCRIPTOR_vstdlib 1002f9a8     vstdlib:vstdlib.dll
 0002:0000e9bc       __IMPORT_DESCRIPTOR_KERNEL32 1002f9bc     kernel32:KERNEL32.dll
 0002:0000e9d0       __NULL_IMPORT_DESCRIPTOR   1002f9d0     tier0:tier0.dll
 0003:00000000       ?pfSqrt@@3P6AMM@ZA         10031000     mathlib:mathlib_base.obj
 0003:00000004       ?pfRSqrt@@3P6AMM@ZA        10031004     mathlib:mathlib_base.obj
 0003:00000008       ?pfRSqrtFast@@3P6AMM@ZA    10031008     mathlib:mathlib_base.obj
 0003:0000000c       ?pfVectorNormalize@@3P6IMAAVVector@@@ZA 1003100c     mathlib:mathlib_base.obj
 0003:00000010       ?pfVectorNormalizeFast@@3P6IXAAVVector@@@ZA 10031010     mathlib:mathlib_base.obj
 0003:00000014       ?pfInvRSquared@@3P6AMPBM@ZA 10031014     mathlib:mathlib_base.obj
 0003:00000018       ?pfFastSinCos@@3P6AXMPAM0@ZA 10031018     mathlib:mathlib_base.obj
 0003:0000001c       ?pfFastCos@@3P6AMM@ZA      1003101c     mathlib:mathlib_base.obj
 0003:00000028       ?vec3_invalid@@3VVector@@B 10031028     mathlib:mathlib_base.obj
 0003:00000080       ?power2_n@@3PAMA           10031080     mathlib:color_conversion.obj
 0003:00000500       ??_R0?AVCUtlCharConversion@@@8 10031500     tier1:utlbuffer.obj
 0003:00000524       ??_R0?AVCUtlNoEscConversion@@@8 10031524     tier1:utlbuffer.obj
 0003:00000548       ??_R0?AVCUtlCStringConversion@@@8 10031548     tier1:utlbuffer.obj
 0003:00000580       ??_R0?AVbad_alloc@std@@@8  10031580     LIBCMT:new.obj
 0003:0000059c       ??_R0?AVexception@std@@@8  1003159c     LIBCMT:new.obj
 0003:000005b8       ??_R0?AVtype_info@@@8      100315b8     LIBCMT:typinfo.obj
 0003:000005d0       __fltused                  100315d0     LIBCMT:fpinit.obj
 0003:000005d4       __ldused                   100315d4     LIBCMT:fpinit.obj
 0003:00000600       __half                     10031600     LIBCMT:pow.obj
 0003:00000610       ___security_cookie         10031610     LIBCMT:gs_cookie.obj
 0003:00000614       ___security_cookie_complement 10031614     LIBCMT:gs_cookie.obj
 0003:00000618       ___isa_enabled             10031618     LIBCMT:cpu_disp.obj
 0003:0000061c       ___nullstring              1003161c     LIBCMT:output.obj
 0003:00000620       ___wnullstring             10031620     LIBCMT:output.obj
 0003:000007a0       ___abort_behavior          100317a0     LIBCMT:abort.obj
 0003:000007b0       ___flsindex                100317b0     LIBCMT:tidtable.obj
 0003:000007b8       ___badioinfo               100317b8     LIBCMT:ioinit.obj
 0003:000007fc       __cfltcvt_tab              100317fc     LIBCMT:cmiscdat.obj
 0003:00000840       ___ptmbcinfo               10031840     LIBCMT:mbctype.obj
 0003:00000938       __mbctype                  10031938     LIBCMT:mbctype.obj
 0003:00000a40       __mbcasemap                10031a40     LIBCMT:mbctype.obj
 0003:00000b40       ___initialmbcinfo          10031b40     LIBCMT:mbctype.obj
 0003:00000d60       ___wclocalestr             10031d60     LIBCMT:nlsdata.obj
 0003:00000d68       ___lc_time_c               10031d68     LIBCMT:nlsdata.obj
 0003:00000ecc       ___ptlocinfo               10031ecc     LIBCMT:nlsdata.obj
 0003:00000ed0       ___initiallocinfo          10031ed0     LIBCMT:nlsdata.obj
 0003:00000f88       ___initiallocalestructinfo 10031f88     LIBCMT:nlsdata.obj
 0003:00000f90       ___mb_cur_max              10031f90     LIBCMT:nlsdata.obj
 0003:00000f94       ___globallocalestatus      10031f94     LIBCMT:glstatus.obj
 0003:00000fa0       __HUGE                     10031fa0     LIBCMT:huge.obj
 0003:00000fa8       __iob                      10031fa8     LIBCMT:_file.obj
 0003:00001350       __d_inf                    10032350     LIBCMT:util.obj
 0003:00001358       __d_ind                    10032358     LIBCMT:util.obj
 0003:00001360       __d_max                    10032360     LIBCMT:util.obj
 0003:00001368       __d_min                    10032368     LIBCMT:util.obj
 0003:00001370       __d_mzero                  10032370     LIBCMT:util.obj
 0003:00001378       __matherr_flag             10032378     LIBCMT:matherr.obj
 0003:00001488       ___lconv                   10032488     LIBCMT:lconv.obj
 0003:0000148c       ___lconv_static_decimal    1003248c     LIBCMT:lconv.obj
 0003:00001490       ___lconv_c                 10032490     LIBCMT:lconv.obj
 0003:000014e0       ___lconv_static_W_decimal  100324e0     LIBCMT:lconv.obj
 0003:000014e4       __pctype                   100324e4     LIBCMT:ctype.obj
 0003:000014e8       __pwctype                  100324e8     LIBCMT:ctype.obj
 0003:00001520       __NLG_Destination          10032520     LIBCMT:exsup.obj
 0003:00001530       __pow10pos                 10032530     LIBCMT:constpow.obj
 0003:00001690       __pow10neg                 10032690     LIBCMT:constpow.obj
 0003:000017ec       __confh                    100327ec     LIBCMT:initcon.obj
 0003:000017f0       ??_R0?AVlogic_error@std@@@8 100327f0     libcpmt:xthrow.obj
 0003:00001810       ??_R0?AVlength_error@std@@@8 10032810     libcpmt:xthrow.obj
 0003:00001830       ??_R0?AVout_of_range@std@@@8 10032830     libcpmt:xthrow.obj
 0003:00001850       ??_R0?AVbad_exception@std@@@8 10032850     LIBCMT:frame.obj
 0003:00001bd0       ??_R0?AV_Iostream_error_category@std@@@8 10032bd0     ILuaObject.obj
 0003:00001bfc       ??_R0?AV_System_error_category@std@@@8 10032bfc     ILuaObject.obj
 0003:00001c28       ??_R0?AVerror_category@std@@@8 10032c28     ILuaObject.obj
 0003:00001c4c       ??_R0?AV_Generic_error_category@std@@@8 10032c4c     ILuaObject.obj
 0003:00001c78       ??_R0?AV?$CMemberFunctor3@PAVNav@@P81@AEXPAUJobInfo_t@@PAVNode@@1@ZPAU2@PAV3@PAV3@V?$CRefCounted1@VCFunctor@@V?$CRefCountServiceBase@$00VCRefMT@@@@@@VCFuncMemPolicyNone@@@@@8 10032c78     nav.obj
 0003:00001d2c       ??_R0?AV?$CRefCountServiceBase@$00VCRefMT@@@@@8 10032d2c     nav.obj
 0003:00001d60       ??_R0?AV?$CMemberFunctor1@PAVNav@@P81@AEXPA_N@ZPA_NV?$CRefCounted1@VCFunctor@@V?$CRefCountServiceBase@$00VCRefMT@@@@@@VCFuncMemPolicyNone@@@@@8 10032d60     nav.obj
 0003:00001df8       ??_R0?AV?$CRefCounted1@VCFunctor@@V?$CRefCountServiceBase@$00VCRefMT@@@@@@@8 10032df8     nav.obj
 0003:00001e48       ??_R0?AVIRefCounted@@@8    10032e48     nav.obj
 0003:00001e64       ??_R0?AVCFunctor@@@8       10032e64     nav.obj
 0003:00001e7c       ??_R0?AVGMOD_TraceFilter@@@8 10032e7c     gmutility.obj
 0003:00001e9c       ??_R0?AVITraceFilter@@@8   10032e9c     gmutility.obj
 0003:00001eb8       ??_R0?AVCTraceFilter@@@8   10032eb8     gmutility.obj
 0003:00001f00       ?SinCosTable@@3PAMA        10032f00     mathlib:mathlib_base.obj
 0003:00002300       ?s_bMathlibInitialized@@3_NA 10033300     mathlib:mathlib_base.obj
 0003:00002310       ?vec3_origin@@3VVector@@B  10033310     mathlib:mathlib_base.obj
 0003:0000231c       ?vec3_angle@@3VQAngle@@B   1003331c     mathlib:mathlib_base.obj
 0003:00002728       ?lineartolightmap@@3PAEA   10033728     mathlib:color_conversion.obj
 0003:00005f28       ?lineartovertex@@3PAMA     10036f28     mathlib:color_conversion.obj
 0003:0000a040       ?s_pInterfaceRegs@InterfaceReg@@2PAV1@A 1003b040     tier1:interface.obj
 0003:0000a050       ?s_StringCharConversion@@3VCUtlCStringConversion@@A 1003b050     tier1:utlbuffer.obj
 0003:0000aa60       ?s_NoEscConversion@@3VCUtlNoEscConversion@@A 1003ba60     tier1:utlbuffer.obj
 0003:0000b37c       __aenvptr                  1003c37c     LIBCMT:dllcrt0.obj
 0003:0000b380       __wenvptr                  1003c380     LIBCMT:dllcrt0.obj
 0003:0000b384       ___fastflag                1003c384     LIBCMT:fpinit.obj
 0003:0000b6a8       ___isa_available           1003c6a8     LIBCMT:cpu_disp.obj
 0003:0000b6ac       ___favor                   1003c6ac     LIBCMT:cpu_disp.obj
 0003:0000b6b0       ___pInvalidArgHandler      1003c6b0     LIBCMT:invarg.obj
 0003:0000b6b4       ?_pnhHeap@@3P6AHI@ZA       1003c6b4     LIBCMT:handler.obj
 0003:0000b6b8       __umaskval                 1003c6b8     LIBCMT:crt0dat.obj
 0003:0000b6bc       __exitflag                 1003c6bc     LIBCMT:crt0dat.obj
 0003:0000b6c0       __C_Termination_Done       1003c6c0     LIBCMT:crt0dat.obj
 0003:0000b6c4       ___winitenv                1003c6c4     LIBCMT:crt0dat.obj
 0003:0000b6c8       ___initenv                 1003c6c8     LIBCMT:crt0dat.obj
 0003:0000b6cc       __C_Exit_Done              1003c6cc     LIBCMT:crt0dat.obj
 0003:0000b6d0       ___argc                    1003c6d0     LIBCMT:crt0dat.obj
 0003:0000b6d4       ___argv                    1003c6d4     LIBCMT:crt0dat.obj
 0003:0000b6d8       ___wargv                   1003c6d8     LIBCMT:crt0dat.obj
 0003:0000b6dc       __environ                  1003c6dc     LIBCMT:crt0dat.obj
 0003:0000b6e0       __wenviron                 1003c6e0     LIBCMT:crt0dat.obj
 0003:0000b6e4       __pgmptr                   1003c6e4     LIBCMT:crt0dat.obj
 0003:0000b6e8       __wpgmptr                  1003c6e8     LIBCMT:crt0dat.obj
 0003:0000b6ec       __maxwait                  1003c6ec     LIBCMT:crtheap.obj
 0003:0000b6f0       ___app_type                1003c6f0     LIBCMT:crt0msg.obj
 0003:0000bd20       ___pPurecall               1003cd20     LIBCMT:inithelp.obj
 0003:0000bd2c       __crtheap                  1003cd2c     LIBCMT:heapinit.obj
 0003:0000bd30       ___pioinfo                 1003cd30     LIBCMT:ioinit.obj
 0003:0000bf3c       ___mblocalename            1003cf3c     LIBCMT:mbctype.obj
 0003:0000bf40       ___mbcodepage              1003cf40     LIBCMT:mbctype.obj
 0003:0000bf44       ___ismbcodepage            1003cf44     LIBCMT:mbctype.obj
 0003:0000bf48       ___mbulinfo                1003cf48     LIBCMT:mbctype.obj
 0003:0000bf58       ___locale_changed          1003cf58     LIBCMT:wsetloca.obj
 0003:0000bf5c       __cflush                   1003cf5c     LIBCMT:_file.obj
 0003:0000bf64       __newmode                  1003cf64     LIBCMT:_newmode.obj
 0003:0000c0b8       ?__pInconsistency@@3P6AXXZA 1003d0b8     LIBCMT:hooks.obj
 0003:0000c0d4       __stdbuf                   1003d0d4     LIBCMT:_sftbuf.obj
 0003:0000c0dc       ___error_mode              1003d0dc     LIBCMT:errmode.obj
 0003:0000c0f8       ?pArgList@UnDecorator@@0PAVReplicator@@A 1003d0f8     LIBCMT:undname.obj
 0003:0000c0fc       ?pZNameList@UnDecorator@@0PAVReplicator@@A 1003d0fc     LIBCMT:undname.obj
 0003:0000c100       ?pTemplateArgList@UnDecorator@@0PAVReplicator@@A 1003d100     LIBCMT:undname.obj
 0003:0000c104       ?gName@UnDecorator@@0PBDB  1003d104     LIBCMT:undname.obj
 0003:0000c108       ?name@UnDecorator@@0PBDB   1003d108     LIBCMT:undname.obj
 0003:0000c10c       ?outputString@UnDecorator@@0PADA 1003d10c     LIBCMT:undname.obj
 0003:0000c110       ?maxStringLength@UnDecorator@@0HA 1003d110     LIBCMT:undname.obj
 0003:0000c114       ?disableFlags@UnDecorator@@0KA 1003d114     LIBCMT:undname.obj
 0003:0000c118       ?fExplicitTemplateParams@UnDecorator@@0_NA 1003d118     LIBCMT:undname.obj
 0003:0000c119       ?fGetTemplateArgumentList@UnDecorator@@0_NA 1003d119     LIBCMT:undname.obj
 0003:0000c11c       ?m_pGetParameter@UnDecorator@@0P6APADJ@ZA 1003d11c     LIBCMT:undname.obj
 0003:0000c134       __outputformat             1003d134     LIBCMT:outputformat.obj
 0003:0000c138       ___lconv_static_null       1003d138     LIBCMT:lconv.obj
 0003:0000c13c       ___lconv_static_W_null     1003d13c     LIBCMT:lconv.obj
 0003:0000c144       ?enginetrace@@3PAVIEngineTrace@@A 1003d144     main.obj
 0003:0000c148       ?engine@@3PAVIVEngineServer@@A 1003d148     main.obj
 0003:0000c14c       ?filesystem@@3PAVIFileSystem@@A 1003d14c     main.obj
 0003:0000c150       ?VectorMetaRef@@3HA        1003d150     main.obj
 0003:0000c154       ?threadPool@@3PAVIThreadPool@@A 1003d154     main.obj
 0003:0000c158       ?util@@3PAVGMUtility@@A    1003d158     main.obj
 0003:0000c180       ?modulemanager@@3PAVILuaModuleManager@@A 1003d180     ILuaModuleManager.obj
 0003:0000c1d4       ?JobQueue@@3V?$CUtlVector@PAUJobInfo_t@@V?$CUtlMemory@PAUJobInfo_t@@H@@@@A 1003d1d4     main.obj
 0003:0000c288       ?id@?$num_put@_WV?$back_insert_iterator@V?$basic_string@_WU?$char_traits@_W@std@@V?$allocator@_W@2@@std@@@std@@@std@@2V0locale@2@A 1003d288     ILuaObject.obj
 0003:0000c28c       ?_System_object@?$_Error_objects@H@std@@2V_System_error_category@2@A 1003d28c     ILuaObject.obj
 0003:0000c290       ?id@?$numpunct@_W@std@@2V0locale@2@A 1003d290     ILuaObject.obj
 0003:0000c294       ?id@?$num_put@DV?$back_insert_iterator@V?$basic_string@DU?$char_traits@D@std@@V?$allocator@D@2@@std@@@std@@@std@@2V0locale@2@A 1003d294     ILuaObject.obj
 0003:0000c298       ?_Generic_object@?$_Error_objects@H@std@@2V_Generic_error_category@2@A 1003d298     ILuaObject.obj
 0003:0000c29c       ?id@?$numpunct@D@std@@2V0locale@2@A 1003d29c     ILuaObject.obj
 0003:0000c2a0       ?_Iostream_object@?$_Error_objects@H@std@@2V_Iostream_error_category@2@A 1003d2a0     ILuaObject.obj
 0003:0000c2a4       ___piob                    1003d2a4     <common>
 0003:0000c2a8       __nstream                  1003d2a8     <common>
 0003:0000c2c0       __bufin                    1003d2c0     <common>
 0003:0000d2c0       __debugger_hook_dummy      1003e2c0     <common>
 0003:0000d2c4       __pmatherr                 1003e2c4     <common>
 0003:0000d2c8       ___use_sse2_mathfcns       1003e2c8     <common>
 0003:0000d2e0       _encodedKERNEL32Functions  1003e2e0     <common>
 0003:0000d354       __nhandle                  1003e354     <common>
 0003:0000d358       ___dyn_tls_init_callback   1003e358     <common>
 0003:0000d35c       ___onexitend               1003e35c     <common>
 0003:0000d360       ___onexitbegin             1003e360     <common>
 0003:0000d364       ___mbctype_initialized     1003e364     <common>
 0003:0000d368       ___env_initialized         1003e368     <common>
 0003:0000d36c       __acmdln                   1003e36c     <common>

 entry point at        0001:0000e3a6

 Static symbols

 0000:fffba000       .debug$S                   10000000     kernel32:KERNEL32.dll
 0000:fffba000       .debug$S                   10000000     kernel32:KERNEL32.dll
 0000:fffba000       .debug$S                   10000000     kernel32:KERNEL32.dll
 0000:fffba000       .debug$S                   10000000     kernel32:KERNEL32.dll
 0000:fffba000       .debug$S                   10000000     kernel32:KERNEL32.dll
 0000:fffba000       .debug$S                   10000000     kernel32:KERNEL32.dll
 0000:fffba000       .debug$S                   10000000     kernel32:KERNEL32.dll
 0000:fffba000       .debug$S                   10000000     kernel32:KERNEL32.dll
 0000:fffba000       .debug$S                   10000000     kernel32:KERNEL32.dll
 0000:fffba000       .debug$S                   10000000     kernel32:KERNEL32.dll
 0000:fffba000       .debug$S                   10000000     kernel32:KERNEL32.dll
 0000:fffba000       .debug$S                   10000000     kernel32:KERNEL32.dll
 0000:fffba000       .debug$S                   10000000     kernel32:KERNEL32.dll
 0000:fffba000       .debug$S                   10000000     kernel32:KERNEL32.dll
 0000:fffba000       .debug$S                   10000000     kernel32:KERNEL32.dll
 0000:fffba000       .debug$S                   10000000     kernel32:KERNEL32.dll
 0000:fffba000       .debug$S                   10000000     kernel32:KERNEL32.dll
 0000:fffba000       .debug$S                   10000000     kernel32:KERNEL32.dll
 0000:fffba000       .debug$S                   10000000     kernel32:KERNEL32.dll
 0000:fffba000       .debug$S                   10000000     kernel32:KERNEL32.dll
 0000:fffba000       .debug$S                   10000000     kernel32:KERNEL32.dll
 0000:fffba000       .debug$S                   10000000     kernel32:KERNEL32.dll
 0000:fffba000       .debug$S                   10000000     kernel32:KERNEL32.dll
 0000:fffba000       .debug$S                   10000000     kernel32:KERNEL32.dll
 0000:fffba000       .debug$S                   10000000     kernel32:KERNEL32.dll
 0000:fffba000       .debug$S                   10000000     kernel32:KERNEL32.dll
 0000:fffba000       .debug$S                   10000000     kernel32:KERNEL32.dll
 0000:fffba000       .debug$S                   10000000     kernel32:KERNEL32.dll
 0000:fffba000       .debug$S                   10000000     kernel32:KERNEL32.dll
 0000:fffba000       .debug$S                   10000000     kernel32:KERNEL32.dll
 0000:fffba000       .debug$S                   10000000     kernel32:KERNEL32.dll
 0000:fffba000       .debug$S                   10000000     kernel32:KERNEL32.dll
 0000:fffba000       .debug$S                   10000000     kernel32:KERNEL32.dll
 0000:fffba000       .debug$S                   10000000     kernel32:KERNEL32.dll
 0000:fffba000       .debug$S                   10000000     kernel32:KERNEL32.dll
 0000:fffba000       .debug$S                   10000000     kernel32:KERNEL32.dll
 0000:fffba000       .debug$S                   10000000     kernel32:KERNEL32.dll
 0000:fffba000       .debug$S                   10000000     kernel32:KERNEL32.dll
 0000:fffba000       .debug$S                   10000000     kernel32:KERNEL32.dll
 0000:fffba000       .debug$S                   10000000     kernel32:KERNEL32.dll
 0000:fffba000       .debug$S                   10000000     kernel32:KERNEL32.dll
 0000:fffba000       .debug$S                   10000000     kernel32:KERNEL32.dll
 0000:fffba000       .debug$S                   10000000     kernel32:KERNEL32.dll
 0000:fffba000       .debug$S                   10000000     kernel32:KERNEL32.dll
 0000:fffba000       .debug$S                   10000000     kernel32:KERNEL32.dll
 0000:fffba000       .debug$S                   10000000     kernel32:KERNEL32.dll
 0000:fffba000       .debug$S                   10000000     kernel32:KERNEL32.dll
 0000:fffba000       .debug$S                   10000000     kernel32:KERNEL32.dll
 0000:fffba000       .debug$S                   10000000     kernel32:KERNEL32.dll
 0000:fffba000       .debug$S                   10000000     kernel32:KERNEL32.dll
 0000:fffba000       .debug$S                   10000000     kernel32:KERNEL32.dll
 0000:fffba000       .debug$S                   10000000     kernel32:KERNEL32.dll
 0000:fffba000       .debug$S                   10000000     kernel32:KERNEL32.dll
 0000:fffba000       .debug$S                   10000000     kernel32:KERNEL32.dll
 0000:fffba000       .debug$S                   10000000     kernel32:KERNEL32.dll
 0000:fffba000       .debug$S                   10000000     kernel32:KERNEL32.dll
 0000:fffba000       .debug$S                   10000000     kernel32:KERNEL32.dll
 0000:fffba000       .debug$S                   10000000     kernel32:KERNEL32.dll
 0000:fffba000       .debug$S                   10000000     kernel32:KERNEL32.dll
 0000:fffba000       .debug$S                   10000000     kernel32:KERNEL32.dll
 0000:fffba000       .debug$S                   10000000     kernel32:KERNEL32.dll
 0000:fffba000       .debug$S                   10000000     kernel32:KERNEL32.dll
 0000:fffba000       .debug$S                   10000000     kernel32:KERNEL32.dll
 0000:fffba000       .debug$S                   10000000     kernel32:KERNEL32.dll
 0000:fffba000       .debug$S                   10000000     kernel32:KERNEL32.dll
 0000:fffba000       .debug$S                   10000000     kernel32:KERNEL32.dll
 0000:fffba000       .debug$S                   10000000     kernel32:KERNEL32.dll
 0000:fffba000       .debug$S                   10000000     kernel32:KERNEL32.dll
 0000:fffba000       .debug$S                   10000000     kernel32:KERNEL32.dll
 0000:fffba000       .debug$S                   10000000     kernel32:KERNEL32.dll
 0000:fffba000       .debug$S                   10000000     kernel32:KERNEL32.dll
 0000:fffba000       .debug$S                   10000000     kernel32:KERNEL32.dll
 0000:fffba000       .debug$S                   10000000     kernel32:KERNEL32.dll
 0000:fffba000       .debug$S                   10000000     kernel32:KERNEL32.dll
 0000:fffba000       .debug$S                   10000000     kernel32:KERNEL32.dll
 0000:fffba000       .debug$S                   10000000     kernel32:KERNEL32.dll
 0000:fffba000       .debug$S                   10000000     kernel32:KERNEL32.dll
 0000:fffba000       .debug$S                   10000000     kernel32:KERNEL32.dll
 0000:fffba000       .debug$S                   10000000     kernel32:KERNEL32.dll
 0000:fffba000       .debug$S                   10000000     kernel32:KERNEL32.dll
 0000:fffba000       .debug$S                   10000000     tier0:tier0.dll
 0000:fffba000       .debug$S                   10000000     tier0:tier0.dll
 0000:fffba000       .debug$S                   10000000     tier0:tier0.dll
 0000:fffba000       .debug$S                   10000000     tier0:tier0.dll
 0000:fffba000       .debug$S                   10000000     tier0:tier0.dll
 0000:fffba000       .debug$S                   10000000     tier0:tier0.dll
 0000:fffba000       .debug$S                   10000000     tier0:tier0.dll
 0000:fffba000       .debug$S                   10000000     tier0:tier0.dll
 0000:fffba000       .debug$S                   10000000     tier0:tier0.dll
 0000:fffba000       .debug$S                   10000000     kernel32:KERNEL32.dll
 0000:fffba000       .debug$S                   10000000     kernel32:KERNEL32.dll
 0000:fffba000       .debug$S                   10000000     tier0:tier0.dll
 0000:fffba000       .debug$S                   10000000     tier0:tier0.dll
 0000:fffba000       .debug$S                   10000000     tier0:tier0.dll
 0000:fffba000       .debug$S                   10000000     tier0:tier0.dll
 0000:fffba000       .debug$S                   10000000     tier0:tier0.dll
 0000:fffba000       .debug$S                   10000000     kernel32:KERNEL32.dll
 0000:fffba000       .debug$S                   10000000     tier0:tier0.dll
 0000:fffba000       .debug$S                   10000000     tier0:tier0.dll
 0000:fffba000       .debug$S                   10000000     tier0:tier0.dll
 0000:fffba000       .debug$S                   10000000     kernel32:KERNEL32.dll
 0000:fffba000       .debug$S                   10000000     kernel32:KERNEL32.dll
 0000:fffba000       .debug$S                   10000000     vstdlib:vstdlib.dll
 0000:fffba000       .debug$S                   10000000     vstdlib:vstdlib.dll
 0000:fffba000       .debug$S                   10000000     kernel32:KERNEL32.dll
 0000:fffba000       .debug$S                   10000000     kernel32:KERNEL32.dll
 0000:fffba000       .debug$S                   10000000     kernel32:KERNEL32.dll
 0001:00001d47       __catch$?_Buyheadnode@?$_Tree_alloc@$0A@U?$_Tree_base_types@U?$pair@QAUlua_State@@PAVILuaInterface@@@std@@V?$allocator@U?$pair@QAUlua_State@@PAVILuaInterface@@@std@@@2@@std@@@std@@QAEPAU?$_Tree_node@U?$pair@QAUlua_State@@PAVILuaInterface@@@std@@PAX@2@XZ$0 10002d47 f i * CIL library *:* CIL module *
 0001:00002022       __catch$??$_Buynode@U?$pair@PAUlua_State@@PAVILuaInterface@@@std@@@?$_Tree_buy@U?$pair@QAUlua_State@@PAVILuaInterface@@@std@@V?$allocator@U?$pair@QAUlua_State@@PAVILuaInterface@@@std@@@2@@std@@QAEPAU?$_Tree_node@U?$pair@QAUlua_State@@PAVILuaInterface@@@std@@PAX@1@$$QAU?$pair@PAUlua_State@@PAVILuaInterface@@@1@@Z$0 10003022 f i * CIL library *:* CIL module *
 0001:00002b00       __catch$??$_Insert_hint@AAU?$pair@QAUlua_State@@PAVILuaInterface@@@std@@PAU?$_Tree_node@U?$pair@QAUlua_State@@PAVILuaInterface@@@std@@PAX@2@@?$_Tree@V?$_Tmap_traits@PAUlua_State@@PAVILuaInterface@@U?$less@PAUlua_State@@@std@@V?$allocator@U?$pair@QAUlua_State@@PAVILuaInterface@@@std@@@4@$0A@@std@@@std@@IAE?AV?$_Tree_iterator@V?$_Tree_val@U?$_Tree_simple_types@U?$pair@QAUlua_State@@PAVILuaInterface@@@std@@@std@@@std@@@1@V?$_Tree_const_iterator@V?$_Tree_val@U?$_Tree_simple_types@U?$pair@QAUlua_State@@PAVILuaInterface@@@std@@@std@@@std@@@1@AAU?$pair@QAUlua_State@@PAVILuaInterface@@@1@PAU?$_Tree_node@U?$pair@QAUlua_State@@PAVILuaInterface@@@std@@PAX@1@@Z$0 10003b00 f i * CIL library *:* CIL module *
 0001:00002cfd       __catch$?_Buynode0@?$_Tree_buy@U?$pair@QAUlua_State@@PAVILuaInterface@@@std@@V?$allocator@U?$pair@QAUlua_State@@PAVILuaInterface@@@std@@@2@@std@@QAEPAU?$_Tree_node@U?$pair@QAUlua_State@@PAVILuaInterface@@@std@@PAX@2@XZ$0 10003cfd f i * CIL library *:* CIL module *
 0001:000035d2       __catch$??$_Insert_nohint@AAU?$pair@QAUlua_State@@PAVILuaInterface@@@std@@PAU?$_Tree_node@U?$pair@QAUlua_State@@PAVILuaInterface@@@std@@PAX@2@@?$_Tree@V?$_Tmap_traits@PAUlua_State@@PAVILuaInterface@@U?$less@PAUlua_State@@@std@@V?$allocator@U?$pair@QAUlua_State@@PAVILuaInterface@@@std@@@4@$0A@@std@@@std@@IAE?AU?$pair@V?$_Tree_iterator@V?$_Tree_val@U?$_Tree_simple_types@U?$pair@QAUlua_State@@PAVILuaInterface@@@std@@@std@@@std@@@std@@_N@1@_NAAU?$pair@QAUlua_State@@PAVILuaInterface@@@1@PAU?$_Tree_node@U?$pair@QAUlua_State@@PAVILuaInterface@@@std@@PAX@1@@Z$0 100045d2 f i * CIL library *:* CIL module *
 0001:00004488       __catch$?_Copy@?$basic_string@DU?$char_traits@D@std@@V?$allocator@D@2@@std@@QAEXII@Z$0 10005488 f i * CIL library *:* CIL module *
 0001:000044bc       __catch$?_Copy@?$basic_string@DU?$char_traits@D@std@@V?$allocator@D@2@@std@@QAEXII@Z$1 100054bc f i * CIL library *:* CIL module *
 0001:00004882       _difftime                  10005882 f   * CIL library *:* CIL module *
 0001:0000489b       _time                      1000589b f   * CIL library *:* CIL module *
 0001:0000803d       $LN19                      1000903d     * CIL library *:* CIL module *
 0001:00009b83       $LN53                      1000ab83     * CIL library *:* CIL module *
 0001:0000d5d8       $LN111                     1000e5d8     tier1:utlbuffer.obj
 0001:0000d5f4       $LN102                     1000e5f4     tier1:utlbuffer.obj
 0001:0000d690       $$000000                   1000e690     LIBCMT:memmove.obj
 0001:0000d8e0       LeadUpVec                  1000e8e0     LIBCMT:memmove.obj
 0001:0000d95c       UnwindUpVec                1000e95c     LIBCMT:memmove.obj
 0001:0000d9c8       TrailUpVec                 1000e9c8     LIBCMT:memmove.obj
 0001:0000da6c       LeadDownVec                1000ea6c     LIBCMT:memmove.obj
 0001:0000daf8       UnwindDownVec              1000eaf8     LIBCMT:memmove.obj
 0001:0000db64       TrailDownVec               1000eb64     LIBCMT:memmove.obj
 0001:0000df3a       __onexit_nolock            1000ef3a f   LIBCMT:onexit.obj
 0001:0000e110       $$000000                   1000f110     LIBCMT:strncpy.obj
 0001:0000e3c9       ___DllMainCRTStartup       1000f3c9 f   LIBCMT:dllcrt0.obj
 0001:0000e580       $$000000                   1000f580     LIBCMT:acos.obj
 0001:0000e6d0       $$000000                   1000f6d0     LIBCMT:asin.obj
 0001:0000e820       $$000000                   1000f820     LIBCMT:87fmod.obj
 0001:0000e850       $$000000                   1000f850     LIBCMT:pow.obj
 0001:0000eae0       $$000000                   1000fae0     LIBCMT:ftol2.obj
 0001:0000eb90       $$000000                   1000fb90     LIBCMT:floor_pentium4.obj
 0001:0000ecc0       $$000000                   1000fcc0     LIBCMT:memset.obj
 0001:0000ed50       $$000000                   1000fd50     LIBCMT:alloca16.obj
 0001:0000ed80       $$000000                   1000fd80     LIBCMT:strstr.obj
 0001:0000eff0       $$000000                   1000fff0     LIBCMT:memcpy.obj
 0001:0000f240       LeadUpVec                  10010240     LIBCMT:memcpy.obj
 0001:0000f2bc       UnwindUpVec                100102bc     LIBCMT:memcpy.obj
 0001:0000f328       TrailUpVec                 10010328     LIBCMT:memcpy.obj
 0001:0000f3cc       LeadDownVec                100103cc     LIBCMT:memcpy.obj
 0001:0000f458       UnwindDownVec              10010458     LIBCMT:memcpy.obj
 0001:0000f4c4       TrailDownVec               100104c4     LIBCMT:memcpy.obj
 0001:0000f7c0       $$000000                   100107c0     LIBCMT:strchr.obj
 0001:0000fa15       ?strtoxl@@YAKPAUlocaleinfo_struct@@PBDPAPBDHH@Z 10010a15 f   LIBCMT:strtol.obj
 0001:0000fe00       $$000000                   10010e00     LIBCMT:strncat.obj
 0001:00010000       $$000000                   10011000     LIBCMT:llrem.obj
 0001:000100c0       $$000000                   100110c0     LIBCMT:lldiv.obj
 0001:00011224       $LN272                     10012224     LIBCMT:output.obj
 0001:00011d8c       $LN277                     10012d8c     LIBCMT:outputs.obj
 0001:00011dac       _write_char                10012dac f   LIBCMT:outputs.obj
 0001:00011dac       _write_char                10012dac f   LIBCMT:outputs.obj
 0001:00011df2       _write_multi_char          10012df2 f   LIBCMT:outputs.obj
 0001:00011df2       _write_multi_char          10012df2 f   LIBCMT:outputs.obj
 0001:00011e1e       _write_string              10012e1e f   LIBCMT:outputs.obj
 0001:00011e1e       _write_string              10012e1e f   LIBCMT:outputs.obj
 0001:00012403       __initterm                 10013403 f   LIBCMT:crt0dat.obj
 0001:00012453       _doexit                    10013453 f   LIBCMT:crt0dat.obj
 0001:000126a0       $$000000                   100136a0     LIBCMT:sehprolg4.obj
 0001:00012b20       $$000000                   10013b20     LIBCMT:strcmp.obj
 0001:00012c20       $$000000                   10013c20     LIBCMT:ulldiv.obj
 0001:00013509       _parse_cmdline             10014509 f   LIBCMT:stdargv.obj
 0001:00014016       __cftoe2_l                 10015016 f   LIBCMT:cvt.obj
 0001:00014231       __cftof2_l                 10015231 f   LIBCMT:cvt.obj
 0001:0001465b       __shift                    1001565b f   LIBCMT:cvt.obj
 0001:000146e0       $$000000                   100156e0     LIBCMT:acos_pentium4.obj
 0001:00014c40       $$000000                   10015c40     LIBCMT:87disp.obj
 0001:00014e10       $$000000                   10015e10     LIBCMT:genexcep.obj
 0001:00014e70       $$000000                   10015e70     LIBCMT:common.obj
 0001:00015000       $$000000                   10016000     LIBCMT:asin_pentium4.obj
 0001:00015580       $$000000                   10016580     LIBCMT:87cdisp.obj
 0001:00015800       $$000000                   10016800     LIBCMT:pow_pentium4.obj
 0001:00016360       $$000000                   10017360     LIBCMT:87tran.obj
 0001:000169a3       $LN79                      100179a3     LIBCMT:libm_error.obj
 0001:00016b80       $$000000                   10017b80     LIBCMT:chkstk.obj
 0001:00016f15       ?CPtoLocaleName@@YAPB_WH@Z 10017f15 f   LIBCMT:mbctype.obj
 0001:00016f4f       ?getSystemCP@@YAHH@Z       10017f4f f   LIBCMT:mbctype.obj
 0001:00016fbb       ?setSBCS@@YAXPAUthreadmbcinfostruct@@@Z 10017fbb f   LIBCMT:mbctype.obj
 0001:00017024       ?setSBUpLow@@YAXPAUthreadmbcinfostruct@@@Z 10018024 f   LIBCMT:mbctype.obj
 0001:000177e7       ?__crtLCMapStringA_stat@@YAHPAUlocaleinfo_struct@@PB_WKPBDHPADHHH@Z 100187e7 f   LIBCMT:a_map.obj
 0001:000186f0       $$000000                   100196f0     LIBCMT:strlen.obj
 0001:000188d0       $$000000                   100198d0     LIBCMT:ulldvrm.obj
 0001:00018efc       _siglookup                 10019efc f   LIBCMT:winsig.obj
 0001:00019060       $$000000                   1001a060     LIBCMT:exsup4.obj
 0001:000190f0       __unwind_handler4          1001a0f0 f   LIBCMT:exsup4.obj
 0001:000196a5       ?x_ismbbtype_l@@YAHPAUlocaleinfo_struct@@IHH@Z 1001a6a5 f   LIBCMT:ismbbyte.obj
 0001:00019720       $$000000                   1001a720     LIBCMT:strrchr.obj
 0001:00019b80       $$000000                   1001ab80     LIBCMT:lldvrm.obj
 0001:00019c60       $$000000                   1001ac60     LIBCMT:ullshr.obj
 0001:0001ace4       ?__crtGetStringTypeA_stat@@YAHPAUlocaleinfo_struct@@KPBDHPAGHH@Z 1001bce4 f   LIBCMT:a_str.obj
 0001:0001c03a       $LN304                     1001d03a     LIBCMT:strgtold.obj
 0001:0001c2c5       _flsall                    1001d2c5 f   LIBCMT:fflush.obj
 0001:0001c590       $$000000                   1001d590     LIBCMT:exsup.obj
 0001:0001c5b0       __unwind_handler           1001d5b0 f   LIBCMT:exsup.obj
 0001:0001d08b       ___hw_cw_sse2              1001e08b f   LIBCMT:ieee87.obj
 0001:0001d434       __hw_cw                    1001e434 f   LIBCMT:ieee87.obj
 0001:0001da40       $$000000                   1001ea40     LIBCMT:llmul.obj
 0001:0001dc0c       ?CatchGuardHandler@@YA?AW4_EXCEPTION_DISPOSITION@@PAUEHExceptionRecord@@PAUCatchGuardRN@@PAX2@Z 1001ec0c f   LIBCMT:_trnsctrl_.obj
 0001:0001dc3d       ?TranslatorGuardHandler@@YA?AW4_EXCEPTION_DISPOSITION@@PAUEHExceptionRecord@@PAUTranslatorGuardRN@@PAX2@Z 1001ec3d f   LIBCMT:_trnsctrl_.obj
 0001:0001dff0       $$000000                   1001eff0     LIBCMT:lowhelpr.obj
 0001:0001e112       ?CallCatchBlock@@YAPAXPAUEHExceptionRecord@@PAUEHRegistrationNode@@PAU_CONTEXT@@PBU_s_FuncInfo@@PAXHK@Z 1001f112 f   LIBCMT:frame.obj
 0001:0001e2e0       ?CallUnexpected@@YAXPBU_s_ESTypeList@@@Z 1001f2e0 f   LIBCMT:frame.obj
 0001:0001e308       __catch$?CallUnexpected@@YAXPBU_s_ESTypeList@@@Z$0 1001f308 f   LIBCMT:frame.obj
 0001:0001e320       ?CatchIt@@YAXPAUEHExceptionRecord@@PAUEHRegistrationNode@@PAU_CONTEXT@@PAXPBU_s_FuncInfo@@PBU_s_HandlerType@@PBU_s_CatchableType@@PBU_s_TryBlockMapEntry@@H1E@Z 1001f320 f   LIBCMT:frame.obj
 0001:0001e39b       ?ExFilterRethrow@@YAHPAU_EXCEPTION_POINTERS@@@Z 1001f39b f   LIBCMT:frame.obj
 0001:0001e3e8       ?FindHandler@@YAXPAUEHExceptionRecord@@PAUEHRegistrationNode@@PAU_CONTEXT@@PAXPBU_s_FuncInfo@@EH1@Z 1001f3e8 f   LIBCMT:frame.obj
 0001:0001e783       ?FindHandlerForForeignException@@YAXPAUEHExceptionRecord@@PAUEHRegistrationNode@@PAU_CONTEXT@@PAXPBU_s_FuncInfo@@HH1@Z 1001f783 f   LIBCMT:frame.obj
 0001:0001e89d       ?IsInExceptionSpec@@YAEPAUEHExceptionRecord@@PBU_s_ESTypeList@@@Z 1001f89d f   LIBCMT:frame.obj
 0001:0001edd0       $$000000                   1001fdd0     LIBCMT:sqrt_sse2_precise.obj
 0001:0001eed0       $$000000                   1001fed0     LIBCMT:sqrt.obj
 0001:0001ef8a       __ehhandler$?CallUnexpected@@YAXPBU_s_ESTypeList@@@Z 1001ff8a f   LIBCMT:frame.obj
 0001:0001efa5       __unwindfunclet$??0ILuaInterface@@QAE@PAUlua_State@@@Z$0 1001ffa5 f   * CIL library *:* CIL module *
 0001:0001efaf       __unwindfunclet$??0ILuaInterface@@QAE@PAUlua_State@@@Z$1 1001ffaf f   * CIL library *:* CIL module *
 0001:0001efb9       __unwindfunclet$??0ILuaInterface@@QAE@PAUlua_State@@@Z$2 1001ffb9 f   * CIL library *:* CIL module *
 0001:0001efc3       __ehhandler$??0ILuaInterface@@QAE@PAUlua_State@@@Z 1001ffc3 f   * CIL library *:* CIL module *
 0001:0001efde       __unwindfunclet$??0GMUtility@@QAE@PAVIEngineTrace@@@Z$0 1001ffde f   * CIL library *:* CIL module *
 0001:0001efde       __unwindfunclet$?GetObject@ILuaInterface@@QAEPAVILuaObject@@H@Z$0 1001ffde f   * CIL library *:* CIL module *
 0001:0001efde       __unwindfunclet$?GetNewTable@ILuaInterface@@QAEPAVILuaObject@@XZ$0 1001ffde f   * CIL library *:* CIL module *
 0001:0001efde       __unwindfunclet$?GetMetaTable@ILuaInterface@@QAEPAVILuaObject@@PBDH@Z$0 1001ffde f   * CIL library *:* CIL module *
 0001:0001efe8       __ehhandler$?GetObject@ILuaInterface@@QAEPAVILuaObject@@H@Z 1001ffe8 f   * CIL library *:* CIL module *
 0001:0001efe8       __ehhandler$?GetNewTable@ILuaInterface@@QAEPAVILuaObject@@XZ 1001ffe8 f   * CIL library *:* CIL module *
 0001:0001efe8       __ehhandler$??0GMUtility@@QAE@PAVIEngineTrace@@@Z 1001ffe8 f   * CIL library *:* CIL module *
 0001:0001efe8       __ehhandler$?GetMetaTable@ILuaInterface@@QAEPAVILuaObject@@PBDH@Z 1001ffe8 f   * CIL library *:* CIL module *
 0001:0001f003       __ehhandler$??$_Buynode@U?$pair@PAUlua_State@@PAVILuaInterface@@@std@@@?$_Tree_buy@U?$pair@QAUlua_State@@PAVILuaInterface@@@std@@V?$allocator@U?$pair@QAUlua_State@@PAVILuaInterface@@@std@@@2@@std@@QAEPAU?$_Tree_node@U?$pair@QAUlua_State@@PAVILuaInterface@@@std@@PAX@1@$$QAU?$pair@PAUlua_State@@PAVILuaInterface@@@1@@Z 10020003 f   * CIL library *:* CIL module *
 0001:0001f01e       __ehhandler$??$_Insert_hint@AAU?$pair@QAUlua_State@@PAVILuaInterface@@@std@@PAU?$_Tree_node@U?$pair@QAUlua_State@@PAVILuaInterface@@@std@@PAX@2@@?$_Tree@V?$_Tmap_traits@PAUlua_State@@PAVILuaInterface@@U?$less@PAUlua_State@@@std@@V?$allocator@U?$pair@QAUlua_State@@PAVILuaInterface@@@std@@@4@$0A@@std@@@std@@IAE?AV?$_Tree_iterator@V?$_Tree_val@U?$_Tree_simple_types@U?$pair@QAUlua_State@@PAVILuaInterface@@@std@@@std@@@std@@@1@V?$_Tree_const_iterator@V?$_Tree_val@U?$_Tree_simple_types@U?$pair@QAUlua_State@@PAVILuaInterface@@@std@@@std@@@std@@@1@AAU?$pair@QAUlua_State@@PAVILuaInterface@@@1@PAU?$_Tree_node@U?$pair@QAUlua_State@@PAVILuaInterface@@@std@@PAX@1@@Z 1002001e f   * CIL library *:* CIL module *
 0001:0001f03c       __ehhandler$??$_Insert_nohint@AAU?$pair@QAUlua_State@@PAVILuaInterface@@@std@@PAU?$_Tree_node@U?$pair@QAUlua_State@@PAVILuaInterface@@@std@@PAX@2@@?$_Tree@V?$_Tmap_traits@PAUlua_State@@PAVILuaInterface@@U?$less@PAUlua_State@@@std@@V?$allocator@U?$pair@QAUlua_State@@PAVILuaInterface@@@std@@@4@$0A@@std@@@std@@IAE?AU?$pair@V?$_Tree_iterator@V?$_Tree_val@U?$_Tree_simple_types@U?$pair@QAUlua_State@@PAVILuaInterface@@@std@@@std@@@std@@@std@@_N@1@_NAAU?$pair@QAUlua_State@@PAVILuaInterface@@@1@PAU?$_Tree_node@U?$pair@QAUlua_State@@PAVILuaInterface@@@std@@PAX@1@@Z 1002003c f   * CIL library *:* CIL module *
 0001:0001f05a       __unwindfunclet$??$construct@PAU?$_Tree_node@U?$pair@QAUlua_State@@PAVILuaInterface@@@std@@PAX@std@@AAPAU12@@?$allocator@U?$_Tree_node@U?$pair@QAUlua_State@@PAVILuaInterface@@@std@@PAX@std@@@std@@QAEXPAPAU?$_Tree_node@U?$pair@QAUlua_State@@PAVILuaInterface@@@std@@PAX@1@AAPAU21@@Z$0 1002005a f   * CIL library *:* CIL module *
 0001:0001f05a       __unwindfunclet$??$construct@U?$pair@QAUlua_State@@PAVILuaInterface@@@std@@U?$pair@PAUlua_State@@PAVILuaInterface@@@2@@?$allocator@U?$_Tree_node@U?$pair@QAUlua_State@@PAVILuaInterface@@@std@@PAX@std@@@std@@QAEXPAU?$pair@QAUlua_State@@PAVILuaInterface@@@1@$$QAU?$pair@PAUlua_State@@PAVILuaInterface@@@1@@Z$0 1002005a f   * CIL library *:* CIL module *
 0001:0001f05a       __unwindfunclet$??$construct@PADAAPAD@?$allocator@D@std@@QAEXPAPADAAPAD@Z$0 1002005a f   * CIL library *:* CIL module *
 0001:0001f068       __ehhandler$??$construct@U?$pair@QAUlua_State@@PAVILuaInterface@@@std@@U?$pair@PAUlua_State@@PAVILuaInterface@@@2@@?$allocator@U?$_Tree_node@U?$pair@QAUlua_State@@PAVILuaInterface@@@std@@PAX@std@@@std@@QAEXPAU?$pair@QAUlua_State@@PAVILuaInterface@@@1@$$QAU?$pair@PAUlua_State@@PAVILuaInterface@@@1@@Z 10020068 f   * CIL library *:* CIL module *
 0001:0001f068       __ehhandler$??$construct@PAU?$_Tree_node@U?$pair@QAUlua_State@@PAVILuaInterface@@@std@@PAX@std@@AAPAU12@@?$allocator@U?$_Tree_node@U?$pair@QAUlua_State@@PAVILuaInterface@@@std@@PAX@std@@@std@@QAEXPAPAU?$_Tree_node@U?$pair@QAUlua_State@@PAVILuaInterface@@@std@@PAX@1@AAPAU21@@Z 10020068 f   * CIL library *:* CIL module *
 0001:0001f068       __ehhandler$??$construct@PADAAPAD@?$allocator@D@std@@QAEXPAPADAAPAD@Z 10020068 f   * CIL library *:* CIL module *
 0001:0001f083       __unwindfunclet$?CreateInterface@ILuaModuleManager@@QAEXPAUlua_State@@@Z$0 10020083 f   * CIL library *:* CIL module *
 0001:0001f08d       __ehhandler$?CreateInterface@ILuaModuleManager@@QAEXPAUlua_State@@@Z 1002008d f   * CIL library *:* CIL module *
 0001:0001f0a8       __ehhandler$?_Buyheadnode@?$_Tree_alloc@$0A@U?$_Tree_base_types@U?$pair@QAUlua_State@@PAVILuaInterface@@@std@@V?$allocator@U?$pair@QAUlua_State@@PAVILuaInterface@@@std@@@2@@std@@@std@@QAEPAU?$_Tree_node@U?$pair@QAUlua_State@@PAVILuaInterface@@@std@@PAX@2@XZ 100200a8 f   * CIL library *:* CIL module *
 0001:0001f0c3       __ehhandler$?_Buynode0@?$_Tree_buy@U?$pair@QAUlua_State@@PAVILuaInterface@@@std@@V?$allocator@U?$pair@QAUlua_State@@PAVILuaInterface@@@std@@@2@@std@@QAEPAU?$_Tree_node@U?$pair@QAUlua_State@@PAVILuaInterface@@@std@@PAX@2@XZ 100200c3 f   * CIL library *:* CIL module *
 0001:0001f0de       __unwindfunclet$?GetGlobal@ILuaInterface@@QAEPAVILuaObject@@PBD@Z$0 100200de f   * CIL library *:* CIL module *
 0001:0001f0de       __unwindfunclet$?GetMember@ILuaObject@@QAEPAV1@PBD@Z$0 100200de f   * CIL library *:* CIL module *
 0001:0001f0e8       __ehhandler$?GetGlobal@ILuaInterface@@QAEPAVILuaObject@@PBD@Z 100200e8 f   * CIL library *:* CIL module *
 0001:0001f0e8       __ehhandler$?GetMember@ILuaObject@@QAEPAV1@PBD@Z 100200e8 f   * CIL library *:* CIL module *
 0001:0001f103       __ehhandler$?_Copy@?$basic_string@DU?$char_traits@D@std@@V?$allocator@D@2@@std@@QAEXII@Z 10020103 f   * CIL library *:* CIL module *
 0001:0001f11e       __unwindfunclet$??0?$CUtlLinkedList@UGroundSeedSpot@@H$0A@HV?$CUtlMemory@U?$UtlLinkedListElem_t@UGroundSeedSpot@@H@@H@@@@QAE@HH@Z$0 1002011e f   * CIL library *:* CIL module *
 0001:0001f11e       __unwindfunclet$??1?$CUtlVector@PAVNode@@V?$CUtlMemory@PAVNode@@H@@@@QAE@XZ$0 1002011e f   * CIL library *:* CIL module *
 0001:0001f11e       __unwindfunclet$??1?$CUtlLinkedList@UAirSeedSpot@@H$0A@HV?$CUtlMemory@U?$UtlLinkedListElem_t@UAirSeedSpot@@H@@H@@@@QAE@XZ$0 1002011e f   * CIL library *:* CIL module *
 0001:0001f11e       __unwindfunclet$??0?$CUtlLinkedList@UAirSeedSpot@@H$0A@HV?$CUtlMemory@U?$UtlLinkedListElem_t@UAirSeedSpot@@H@@H@@@@QAE@HH@Z$0 1002011e f   * CIL library *:* CIL module *
 0001:0001f11e       __unwindfunclet$??1?$CUtlLinkedList@UGroundSeedSpot@@H$0A@HV?$CUtlMemory@U?$UtlLinkedListElem_t@UGroundSeedSpot@@H@@H@@@@QAE@XZ$0 1002011e f   * CIL library *:* CIL module *
 0001:0001f11e       __unwindfunclet$??0?$CUtlVector@PAUJobInfo_t@@V?$CUtlMemory@PAUJobInfo_t@@H@@@@QAE@HH@Z$0 1002011e f   * CIL library *:* CIL module *
 0001:0001f11e       __unwindfunclet$??1?$CUtlVector@PAUJobInfo_t@@V?$CUtlMemory@PAUJobInfo_t@@H@@@@QAE@XZ$0 1002011e f   * CIL library *:* CIL module *
 0001:0001f11e       __unwindfunclet$??0?$CUtlVector@PAVNode@@V?$CUtlMemory@PAVNode@@H@@@@QAE@HH@Z$0 1002011e f   * CIL library *:* CIL module *
 0001:0001f126       __ehhandler$??0?$CUtlVector@PAUJobInfo_t@@V?$CUtlMemory@PAUJobInfo_t@@H@@@@QAE@HH@Z 10020126 f   * CIL library *:* CIL module *
 0001:0001f126       __ehhandler$??1?$CUtlVector@PAUJobInfo_t@@V?$CUtlMemory@PAUJobInfo_t@@H@@@@QAE@XZ 10020126 f   * CIL library *:* CIL module *
 0001:0001f126       __ehhandler$??1?$CUtlLinkedList@UGroundSeedSpot@@H$0A@HV?$CUtlMemory@U?$UtlLinkedListElem_t@UGroundSeedSpot@@H@@H@@@@QAE@XZ 10020126 f   * CIL library *:* CIL module *
 0001:0001f126       __ehhandler$??0?$CUtlLinkedList@UAirSeedSpot@@H$0A@HV?$CUtlMemory@U?$UtlLinkedListElem_t@UAirSeedSpot@@H@@H@@@@QAE@HH@Z 10020126 f   * CIL library *:* CIL module *
 0001:0001f126       __ehhandler$??1?$CUtlLinkedList@UAirSeedSpot@@H$0A@HV?$CUtlMemory@U?$UtlLinkedListElem_t@UAirSeedSpot@@H@@H@@@@QAE@XZ 10020126 f   * CIL library *:* CIL module *
 0001:0001f126       __ehhandler$??0?$CUtlVector@PAVNode@@V?$CUtlMemory@PAVNode@@H@@@@QAE@HH@Z 10020126 f   * CIL library *:* CIL module *
 0001:0001f126       __ehhandler$??0?$CUtlLinkedList@UGroundSeedSpot@@H$0A@HV?$CUtlMemory@U?$UtlLinkedListElem_t@UGroundSeedSpot@@H@@H@@@@QAE@HH@Z 10020126 f   * CIL library *:* CIL module *
 0001:0001f126       __ehhandler$??1?$CUtlVector@PAVNode@@V?$CUtlMemory@PAVNode@@H@@@@QAE@XZ 10020126 f   * CIL library *:* CIL module *
 0001:0001f141       __unwindfunclet$?Init@@YAHPAUlua_State@@@Z$0 10020141 f   * CIL library *:* CIL module *
 0001:0001f14e       __ehhandler$?Init@@YAHPAUlua_State@@@Z 1002014e f   * CIL library *:* CIL module *
 0001:0001f176       __unwindfunclet$?Nav_Generate@@YAHPAUlua_State@@@Z$0 10020176 f   * CIL library *:* CIL module *
 0001:0001f176       __unwindfunclet$?Nav_FindPathHull@@YAHPAUlua_State@@@Z$0 10020176 f   * CIL library *:* CIL module *
 0001:0001f176       __unwindfunclet$?Nav_FindPath@@YAHPAUlua_State@@@Z$0 10020176 f   * CIL library *:* CIL module *
 0001:0001f180       __ehhandler$?Nav_FindPathHull@@YAHPAUlua_State@@@Z 10020180 f   * CIL library *:* CIL module *
 0001:0001f180       __ehhandler$?Nav_FindPath@@YAHPAUlua_State@@@Z 10020180 f   * CIL library *:* CIL module *
 0001:0001f180       __ehhandler$?Nav_Generate@@YAHPAUlua_State@@@Z 10020180 f   * CIL library *:* CIL module *
 0001:0001f19b       __unwindfunclet$??$CreateFunctor@PAVNav@@V1@XPAUJobInfo_t@@PAVNode@@PAV3@PAU2@PAV3@PAV3@@@YAPAVCFunctor@@PAVNav@@P81@AEXPAUJobInfo_t@@PAVNode@@2@ZABQAU2@ABQAV3@5@Z$0 1002019b f   * CIL library *:* CIL module *
 0001:0001f19b       __unwindfunclet$??__Emodulemanager@@YAXXZ$0 1002019b f   * CIL library *:* CIL module *
 0001:0001f19b       __unwindfunclet$??$CreateFunctor@PAVNav@@V1@XPA_NPA_N@@YAPAVCFunctor@@PAVNav@@P81@AEXPA_N@ZABQA_N@Z$0 1002019b f   * CIL library *:* CIL module *
 0001:0001f19b       __unwindfunclet$?nav_Create@@YAHPAUlua_State@@@Z$0 1002019b f   * CIL library *:* CIL module *
 0001:0001f1a5       __ehhandler$?nav_Create@@YAHPAUlua_State@@@Z 100201a5 f   * CIL library *:* CIL module *
 0001:0001f1a5       __ehhandler$??$CreateFunctor@PAVNav@@V1@XPA_NPA_N@@YAPAVCFunctor@@PAVNav@@P81@AEXPA_N@ZABQA_N@Z 100201a5 f   * CIL library *:* CIL module *
 0001:0001f1a5       __ehhandler$??$CreateFunctor@PAVNav@@V1@XPAUJobInfo_t@@PAVNode@@PAV3@PAU2@PAV3@PAV3@@@YAPAVCFunctor@@PAVNav@@P81@AEXPAUJobInfo_t@@PAVNode@@2@ZABQAU2@ABQAV3@5@Z 100201a5 f   * CIL library *:* CIL module *
 0001:0001f1a5       __ehhandler$??__Emodulemanager@@YAXXZ 100201a5 f   * CIL library *:* CIL module *
 0001:0001f1c0       __unwindfunclet$??0Nav@@QAE@PAVGMUtility@@PAVIThreadPool@@PAVIFileSystem@@H@Z$0 100201c0 f   * CIL library *:* CIL module *
 0001:0001f1cc       __unwindfunclet$??0Nav@@QAE@PAVGMUtility@@PAVIThreadPool@@PAVIFileSystem@@H@Z$1 100201cc f   * CIL library *:* CIL module *
 0001:0001f1d7       __unwindfunclet$??0Nav@@QAE@PAVGMUtility@@PAVIThreadPool@@PAVIFileSystem@@H@Z$2 100201d7 f   * CIL library *:* CIL module *
 0001:0001f1e5       __unwindfunclet$??0Nav@@QAE@PAVGMUtility@@PAVIThreadPool@@PAVIFileSystem@@H@Z$3 100201e5 f   * CIL library *:* CIL module *
 0001:0001f1f3       __unwindfunclet$??0Nav@@QAE@PAVGMUtility@@PAVIThreadPool@@PAVIFileSystem@@H@Z$4 100201f3 f   * CIL library *:* CIL module *
 0001:0001f201       __unwindfunclet$??0Nav@@QAE@PAVGMUtility@@PAVIThreadPool@@PAVIFileSystem@@H@Z$5 10020201 f   * CIL library *:* CIL module *
 0001:0001f20f       __ehhandler$??0Nav@@QAE@PAVGMUtility@@PAVIThreadPool@@PAVIFileSystem@@H@Z 1002020f f   * CIL library *:* CIL module *
 0001:0001f22a       __unwindfunclet$??0?$CMemberFunctor3@PAVNav@@P81@AEXPAUJobInfo_t@@PAVNode@@1@ZPAU2@PAV3@PAV3@V?$CRefCounted1@VCFunctor@@V?$CRefCountServiceBase@$00VCRefMT@@@@@@VCFuncMemPolicyNone@@@@QAE@PAVNav@@P81@AEXPAUJobInfo_t@@PAVNode@@2@ZABQAU2@ABQAV3@5@Z$0 1002022a f   * CIL library *:* CIL module *
 0001:0001f22a       __unwindfunclet$??0?$CMemberFunctor1@PAVNav@@P81@AEXPA_N@ZPA_NV?$CRefCounted1@VCFunctor@@V?$CRefCountServiceBase@$00VCRefMT@@@@@@VCFuncMemPolicyNone@@@@QAE@PAVNav@@P81@AEXPA_N@ZABQA_N@Z$0 1002022a f   * CIL library *:* CIL module *
 0001:0001f22a       __unwindfunclet$??1?$CMemberFunctor1@PAVNav@@P81@AEXPA_N@ZPA_NV?$CRefCounted1@VCFunctor@@V?$CRefCountServiceBase@$00VCRefMT@@@@@@VCFuncMemPolicyNone@@@@UAE@XZ$0 1002022a f   * CIL library *:* CIL module *
 0001:0001f22a       __unwindfunclet$??1?$CMemberFunctor3@PAVNav@@P81@AEXPAUJobInfo_t@@PAVNode@@1@ZPAU2@PAV3@PAV3@V?$CRefCounted1@VCFunctor@@V?$CRefCountServiceBase@$00VCRefMT@@@@@@VCFuncMemPolicyNone@@@@UAE@XZ$0 1002022a f   * CIL library *:* CIL module *
 0001:0001f232       __ehhandler$??1?$CMemberFunctor3@PAVNav@@P81@AEXPAUJobInfo_t@@PAVNode@@1@ZPAU2@PAV3@PAV3@V?$CRefCounted1@VCFunctor@@V?$CRefCountServiceBase@$00VCRefMT@@@@@@VCFuncMemPolicyNone@@@@UAE@XZ 10020232 f   * CIL library *:* CIL module *
 0001:0001f232       __ehhandler$??1?$CMemberFunctor1@PAVNav@@P81@AEXPA_N@ZPA_NV?$CRefCounted1@VCFunctor@@V?$CRefCountServiceBase@$00VCRefMT@@@@@@VCFuncMemPolicyNone@@@@UAE@XZ 10020232 f   * CIL library *:* CIL module *
 0001:0001f232       __ehhandler$??0?$CMemberFunctor3@PAVNav@@P81@AEXPAUJobInfo_t@@PAVNode@@1@ZPAU2@PAV3@PAV3@V?$CRefCounted1@VCFunctor@@V?$CRefCountServiceBase@$00VCRefMT@@@@@@VCFuncMemPolicyNone@@@@QAE@PAVNav@@P81@AEXPAUJobInfo_t@@PAVNode@@2@ZABQAU2@ABQAV3@5@Z 10020232 f   * CIL library *:* CIL module *
 0001:0001f232       __ehhandler$??0?$CMemberFunctor1@PAVNav@@P81@AEXPA_N@ZPA_NV?$CRefCounted1@VCFunctor@@V?$CRefCountServiceBase@$00VCRefMT@@@@@@VCFuncMemPolicyNone@@@@QAE@PAVNav@@P81@AEXPA_N@ZABQA_N@Z 10020232 f   * CIL library *:* CIL module *
 0001:0001f24d       __unwindfunclet$?AddNode@Nav@@QAEPAVNode@@ABVVector@@0W4NavDirType@@PAV2@@Z$0 1002024d f   * CIL library *:* CIL module *
 0001:0001f257       __ehhandler$?AddNode@Nav@@QAEPAVNode@@ABVVector@@0W4NavDirType@@PAV2@@Z 10020257 f   * CIL library *:* CIL module *
 0001:0001f272       __unwindfunclet$?GetNextAirSeedNode@Nav@@QAEPAVNode@@XZ$0 10020272 f   * CIL library *:* CIL module *
 0001:0001f272       __unwindfunclet$?GetNextGroundSeedNode@Nav@@QAEPAVNode@@XZ$0 10020272 f   * CIL library *:* CIL module *
 0001:0001f27c       __ehhandler$?GetNextAirSeedNode@Nav@@QAEPAVNode@@XZ 1002027c f   * CIL library *:* CIL module *
 0001:0001f27c       __ehhandler$?GetNextGroundSeedNode@Nav@@QAEPAVNode@@XZ 1002027c f   * CIL library *:* CIL module *
 0001:0001f297       __unwindfunclet$?Load@Nav@@QAE_NPBD@Z$0 10020297 f   * CIL library *:* CIL module *
 0001:0001f2a2       __unwindfunclet$?Load@Nav@@QAE_NPBD@Z$1 100202a2 f   * CIL library *:* CIL module *
 0001:0001f2ac       __ehhandler$?Load@Nav@@QAE_NPBD@Z 100202ac f   * CIL library *:* CIL module *
 0001:0001f2c7       __unwindfunclet$?Save@Nav@@QAE_NPBD@Z$0 100202c7 f   * CIL library *:* CIL module *
 0001:0001f2cf       __ehhandler$?Save@Nav@@QAE_NPBD@Z 100202cf f   * CIL library *:* CIL module *
 0001:0001f2f0       ??__Evec2_origin@@YAXXZ    100202f0 f   * CIL library *:* CIL module *
 0001:0001f31b       ??__Evec2_invalid@@YAXXZ   1002031b f   * CIL library *:* CIL module *
 0001:0001f346       ??__Evec2_origin@@YAXXZ    10020346 f   * CIL library *:* CIL module *
 0001:0001f371       ??__Evec2_invalid@@YAXXZ   10020371 f   * CIL library *:* CIL module *
 0001:0001f39c       ??__Epiecewise_construct@std@@YAXXZ 1002039c f   * CIL library *:* CIL module *
 0001:0001f3a7       ??__Eallocator_arg@std@@YAXXZ 100203a7 f   * CIL library *:* CIL module *
 0001:0001f3b2       ??__Emodulemanager@@YAXXZ  100203b2 f   * CIL library *:* CIL module *
 0001:0001f41c       ??__Evec2_origin@@YAXXZ    1002041c f   * CIL library *:* CIL module *
 0001:0001f447       ??__Evec2_invalid@@YAXXZ   10020447 f   * CIL library *:* CIL module *
 0001:0001f472       ??__Epiecewise_construct@std@@YAXXZ 10020472 f   * CIL library *:* CIL module *
 0001:0001f47d       ??__Eallocator_arg@std@@YAXXZ 1002047d f   * CIL library *:* CIL module *
 0001:0001f488       ??__E?_Generic_object@?$_Error_objects@H@std@@2V_Generic_error_category@2@A@@YAXXZ 10020488 f   * CIL library *:* CIL module *
 0001:0001f4a2       ??__E?_Iostream_object@?$_Error_objects@H@std@@2V_Iostream_error_category@2@A@@YAXXZ 100204a2 f   * CIL library *:* CIL module *
 0001:0001f4bc       ??__E?_System_object@?$_Error_objects@H@std@@2V_System_error_category@2@A@@YAXXZ 100204bc f   * CIL library *:* CIL module *
 0001:0001f4d6       ??__E?id@?$num_put@DV?$back_insert_iterator@V?$basic_string@DU?$char_traits@D@std@@V?$allocator@D@2@@std@@@std@@@std@@2V0locale@2@A@@YAXXZ 100204d6 f   * CIL library *:* CIL module *
 0001:0001f4e7       ??__E?id@?$num_put@_WV?$back_insert_iterator@V?$basic_string@_WU?$char_traits@_W@std@@V?$allocator@_W@2@@std@@@std@@@std@@2V0locale@2@A@@YAXXZ 100204e7 f   * CIL library *:* CIL module *
 0001:0001f4f8       ??__E?id@?$numpunct@D@std@@2V0locale@2@A@@YAXXZ 100204f8 f   * CIL library *:* CIL module *
 0001:0001f509       ??__E?id@?$numpunct@_W@std@@2V0locale@2@A@@YAXXZ 10020509 f   * CIL library *:* CIL module *
 0001:0001f51a       ??__Evec2_origin@@YAXXZ    1002051a f   * CIL library *:* CIL module *
 0001:0001f545       ??__Evec2_invalid@@YAXXZ   10020545 f   * CIL library *:* CIL module *
 0001:0001f570       ??__Evec4_origin@@YAXXZ    10020570 f   * CIL library *:* CIL module *
 0001:0001f5b7       ??__Evec4_invalid@@YAXXZ   100205b7 f   * CIL library *:* CIL module *
 0001:0001f5fe       ??__Epiecewise_construct@std@@YAXXZ 100205fe f   * CIL library *:* CIL module *
 0001:0001f609       ??__Eallocator_arg@std@@YAXXZ 10020609 f   * CIL library *:* CIL module *
 0001:0001f614       ??__Evector_origin@@YAXXZ  10020614 f   * CIL library *:* CIL module *
 0001:0001f64d       ??__EJobQueue@@YAXXZ       1002064d f   * CIL library *:* CIL module *
 0001:0001f66b       ??__Evec2_origin@@YAXXZ    1002066b f   * CIL library *:* CIL module *
 0001:0001f696       ??__Evec2_invalid@@YAXXZ   10020696 f   * CIL library *:* CIL module *
 0001:0001f6c1       ??__Evec4_origin@@YAXXZ    100206c1 f   * CIL library *:* CIL module *
 0001:0001f708       ??__Evec4_invalid@@YAXXZ   10020708 f   * CIL library *:* CIL module *
 0001:0001f74f       ??__Epiecewise_construct@std@@YAXXZ 1002074f f   * CIL library *:* CIL module *
 0001:0001f75a       ??__Eallocator_arg@std@@YAXXZ 1002075a f   * CIL library *:* CIL module *
 0001:0001f765       ??__Evector_origin@@YAXXZ  10020765 f   * CIL library *:* CIL module *
 0001:0001f79e       ??__Evec2_origin@@YAXXZ    1002079e f   * CIL library *:* CIL module *
 0001:0001f7c9       ??__Evec2_invalid@@YAXXZ   100207c9 f   * CIL library *:* CIL module *
 0001:0001f7f4       ??__Evec4_origin@@YAXXZ    100207f4 f   * CIL library *:* CIL module *
 0001:0001f83b       ??__Evec4_invalid@@YAXXZ   1002083b f   * CIL library *:* CIL module *
 0001:0001f882       ??__Epiecewise_construct@std@@YAXXZ 10020882 f   * CIL library *:* CIL module *
 0001:0001f88d       ??__Eallocator_arg@std@@YAXXZ 1002088d f   * CIL library *:* CIL module *
 0001:0001f898       ??__Evec2_origin@@YAXXZ    10020898 f   * CIL library *:* CIL module *
 0001:0001f8c3       ??__Evec2_invalid@@YAXXZ   100208c3 f   * CIL library *:* CIL module *
 0001:0001f8ee       ??__Evec4_origin@@YAXXZ    100208ee f   * CIL library *:* CIL module *
 0001:0001f935       ??__Evec4_invalid@@YAXXZ   10020935 f   * CIL library *:* CIL module *
 0001:0001f980       ??__Es_StringCharConversion@@YAXXZ 10020980 f   tier1:utlbuffer.obj
 0001:0001f9e0       ??__Es_NoEscConversion@@YAXXZ 100209e0 f   tier1:utlbuffer.obj
 0001:0001fa03       ??__F?_System_object@?$_Error_objects@H@std@@2V_System_error_category@2@A@@YAXXZ 10020a03 f   * CIL library *:* CIL module *
 0001:0001fa12       ??__F?_Iostream_object@?$_Error_objects@H@std@@2V_Iostream_error_category@2@A@@YAXXZ 10020a12 f   * CIL library *:* CIL module *
 0001:0001fa21       ??__F?_Generic_object@?$_Error_objects@H@std@@2V_Generic_error_category@2@A@@YAXXZ 10020a21 f   * CIL library *:* CIL module *
 0001:0001fa30       ??__FJobQueue@@YAXXZ       10020a30 f   * CIL library *:* CIL module *
 0002:00000140       _s_StringCharConversion$initializer$ 10021140     tier1:utlbuffer.obj
 0002:00000144       _s_NoEscConversion$initializer$ 10021144     tier1:utlbuffer.obj
 0002:00000148       _vec2_origin$initializer$  10021148     * CIL library *:* CIL module *
 0002:0000014c       _vec2_invalid$initializer$ 1002114c     * CIL library *:* CIL module *
 0002:00000150       _vec2_origin$initializer$  10021150     * CIL library *:* CIL module *
 0002:00000154       _vec2_invalid$initializer$ 10021154     * CIL library *:* CIL module *
 0002:00000158       _piecewise_construct$initializer$ 10021158     * CIL library *:* CIL module *
 0002:0000015c       _allocator_arg$initializer$ 1002115c     * CIL library *:* CIL module *
 0002:00000160       _modulemanager$initializer$ 10021160     * CIL library *:* CIL module *
 0002:00000164       _vec2_origin$initializer$  10021164     * CIL library *:* CIL module *
 0002:00000168       _vec2_invalid$initializer$ 10021168     * CIL library *:* CIL module *
 0002:0000016c       _piecewise_construct$initializer$ 1002116c     * CIL library *:* CIL module *
 0002:00000170       _allocator_arg$initializer$ 10021170     * CIL library *:* CIL module *
 0002:00000174       ?_Generic_object$initializer$@?$_Error_objects@H@std@@2P6AXXZA 10021174     * CIL library *:* CIL module *
 0002:00000178       ?_Iostream_object$initializer$@?$_Error_objects@H@std@@2P6AXXZA 10021178     * CIL library *:* CIL module *
 0002:0000017c       ?_System_object$initializer$@?$_Error_objects@H@std@@2P6AXXZA 1002117c     * CIL library *:* CIL module *
 0002:00000180       ?id$initializer$@?$num_put@DV?$back_insert_iterator@V?$basic_string@DU?$char_traits@D@std@@V?$allocator@D@2@@std@@@std@@@std@@2P6AXXZA 10021180     * CIL library *:* CIL module *
 0002:00000184       ?id$initializer$@?$num_put@_WV?$back_insert_iterator@V?$basic_string@_WU?$char_traits@_W@std@@V?$allocator@_W@2@@std@@@std@@@std@@2P6AXXZA 10021184     * CIL library *:* CIL module *
 0002:00000188       ?id$initializer$@?$numpunct@D@std@@2P6AXXZA 10021188     * CIL library *:* CIL module *
 0002:0000018c       ?id$initializer$@?$numpunct@_W@std@@2P6AXXZA 1002118c     * CIL library *:* CIL module *
 0002:00000190       _vec2_origin$initializer$  10021190     * CIL library *:* CIL module *
 0002:00000194       _vec2_invalid$initializer$ 10021194     * CIL library *:* CIL module *
 0002:00000198       _vec4_origin$initializer$  10021198     * CIL library *:* CIL module *
 0002:0000019c       _vec4_invalid$initializer$ 1002119c     * CIL library *:* CIL module *
 0002:000001a0       _piecewise_construct$initializer$ 100211a0     * CIL library *:* CIL module *
 0002:000001a4       _allocator_arg$initializer$ 100211a4     * CIL library *:* CIL module *
 0002:000001a8       _vector_origin$initializer$ 100211a8     * CIL library *:* CIL module *
 0002:000001ac       _JobQueue$initializer$     100211ac     * CIL library *:* CIL module *
 0002:000001b0       _vec2_origin$initializer$  100211b0     * CIL library *:* CIL module *
 0002:000001b4       _vec2_invalid$initializer$ 100211b4     * CIL library *:* CIL module *
 0002:000001b8       _vec4_origin$initializer$  100211b8     * CIL library *:* CIL module *
 0002:000001bc       _vec4_invalid$initializer$ 100211bc     * CIL library *:* CIL module *
 0002:000001c0       _piecewise_construct$initializer$ 100211c0     * CIL library *:* CIL module *
 0002:000001c4       _allocator_arg$initializer$ 100211c4     * CIL library *:* CIL module *
 0002:000001c8       _vector_origin$initializer$ 100211c8     * CIL library *:* CIL module *
 0002:000001cc       _vec2_origin$initializer$  100211cc     * CIL library *:* CIL module *
 0002:000001d0       _vec2_invalid$initializer$ 100211d0     * CIL library *:* CIL module *
 0002:000001d4       _vec4_origin$initializer$  100211d4     * CIL library *:* CIL module *
 0002:000001d8       _vec4_invalid$initializer$ 100211d8     * CIL library *:* CIL module *
 0002:000001dc       _piecewise_construct$initializer$ 100211dc     * CIL library *:* CIL module *
 0002:000001e0       _allocator_arg$initializer$ 100211e0     * CIL library *:* CIL module *
 0002:000001e4       _vec2_origin$initializer$  100211e4     * CIL library *:* CIL module *
 0002:000001e8       _vec2_invalid$initializer$ 100211e8     * CIL library *:* CIL module *
 0002:000001ec       _vec4_origin$initializer$  100211ec     * CIL library *:* CIL module *
 0002:000001f0       _vec4_invalid$initializer$ 100211f0     * CIL library *:* CIL module *
 0002:000001fc       _pinit                     100211fc     LIBCMT:onexit.obj
 0002:00000200       _pinit                     10021200     LIBCMT:cpu_disp.obj
 0002:00000204       _pinit                     10021204     LIBCMT:mathfcns.obj
 0002:00000208       _pinit                     10021208     LIBCMT:mbctype.obj
 0002:0000020c       _pinit                     1002120c     LIBCMT:_file.obj
 0002:00000218       _pterm                     10021218     LIBCMT:wsetloca.obj
 0002:0000021c       _pterm                     1002121c     LIBCMT:initcon.obj
 0002:00000220       _pterm                     10021220     LIBCMT:_file.obj
 0002:00000280       __sincos_masks             10021280     mathlib:sse.obj
 0002:00000288       __sincos_inv_masks         10021288     mathlib:sse.obj
 0002:00000290       __ps_am_1                  10021290     mathlib:sse.obj
 0002:000002a0       __ps_am_pi_o_2             100212a0     mathlib:sse.obj
 0002:000002b0       __ps_am_2_o_pi             100212b0     mathlib:sse.obj
 0002:000002c0       __ps_am_sign_mask          100212c0     mathlib:sse.obj
 0002:000002d0       __ps_am_inv_sign_mask      100212d0     mathlib:sse.obj
 0002:000002e0       __epi32_1                  100212e0     mathlib:sse.obj
 0002:000002f0       __epi32_2                  100212f0     mathlib:sse.obj
 0002:00000300       __ps_sincos_p0             10021300     mathlib:sse.obj
 0002:00000310       __ps_sincos_p1             10021310     mathlib:sse.obj
 0002:00000320       __ps_sincos_p2             10021320     mathlib:sse.obj
 0002:00000330       __ps_sincos_p3             10021330     mathlib:sse.obj
 0002:00000420       _One                       10021420     LIBCMT:floor_pentium4.obj
 0002:00000430       _Bns                       10021430     LIBCMT:floor_pentium4.obj
 0002:00000440       _NegOne                    10021440     LIBCMT:floor_pentium4.obj
 0002:00000450       _NegZero                   10021450     LIBCMT:floor_pentium4.obj
 0002:00000460       _S                         10021460     LIBCMT:floor_pentium4.obj
 0002:00000470       _GS_ExceptionPointers      10021470     LIBCMT:gs_report.obj
 0002:0000056c       ?ExceptionTemplate@?1??_CxxThrowException@@9@8@4UEHExceptionRecord@@B 1002156c     LIBCMT:throw.obj
 0002:00000e40       _rterrs                    10021e40     LIBCMT:crt0msg.obj
 0002:00001350       Shifter                    10022350     LIBCMT:acos_pentium4.obj
 0002:00001360       Tbl_addr                   10022360     LIBCMT:acos_pentium4.obj
 0002:00002260       T_table                    10023260     LIBCMT:acos_pentium4.obj
 0002:00002a60       PI_BY_2                    10023a60     LIBCMT:acos_pentium4.obj
 0002:00002a70       NEG_PI                     10023a70     LIBCMT:acos_pentium4.obj
 0002:00002a80       PI                         10023a80     LIBCMT:acos_pentium4.obj
 0002:00002a90       SIGNMASK                   10023a90     LIBCMT:acos_pentium4.obj
 0002:00002aa0       HALFMASK                   10023aa0     LIBCMT:acos_pentium4.obj
 0002:00002ab0       HALFMASK2                  10023ab0     LIBCMT:acos_pentium4.obj
 0002:00002ac0       cv                         10023ac0     LIBCMT:acos_pentium4.obj
 0002:00002ae0       cv2                        10023ae0     LIBCMT:acos_pentium4.obj
 0002:00002b20       ABSVALMASK                 10023b20     LIBCMT:acos_pentium4.obj
 0002:00002b28       TMASK                      10023b28     LIBCMT:acos_pentium4.obj
 0002:00002b30       ONEMASK                    10023b30     LIBCMT:acos_pentium4.obj
 0002:00002b38       ONE_BY_2                   10023b38     LIBCMT:acos_pentium4.obj
 0002:00002b40       EMIN                       10023b40     LIBCMT:acos_pentium4.obj
 0002:00002b48       MAX_ARG                    10023b48     LIBCMT:acos_pentium4.obj
 0002:00002b50       MIN_ARG                    10023b50     LIBCMT:acos_pentium4.obj
 0002:00002b58       INF                        10023b58     LIBCMT:acos_pentium4.obj
 0002:00002b60       ZERO                       10023b60     LIBCMT:acos_pentium4.obj
 0002:00002b68       ALPHA                      10023b68     LIBCMT:acos_pentium4.obj
 0002:00002b84       One                        10023b84     LIBCMT:87disp.obj
 0002:00002b8c       XAMtoTagTab                10023b8c     LIBCMT:87disp.obj
 0002:00002ba0       One                        10023ba0     LIBCMT:common.obj
 0002:00002bb4       DblMax                     10023bb4     LIBCMT:common.obj
 0002:00002bbc       DblMin                     10023bbc     LIBCMT:common.obj
 0002:00002bc4       IeeeAdjO                   10023bc4     LIBCMT:common.obj
 0002:00002bcc       IeeeAdjU                   10023bcc     LIBCMT:common.obj
 0002:00002bd4       _infinity                  10023bd4     LIBCMT:common.obj
 0002:00002bdc       _zero                      10023bdc     LIBCMT:common.obj
 0002:00002bf0       Shifter                    10023bf0     LIBCMT:asin_pentium4.obj
 0002:00002c00       Tbl_addr                   10023c00     LIBCMT:asin_pentium4.obj
 0002:00003b00       T_table                    10024b00     LIBCMT:asin_pentium4.obj
 0002:00004300       PI_BY_2                    10025300     LIBCMT:asin_pentium4.obj
 0002:00004310       SIGNMASK                   10025310     LIBCMT:asin_pentium4.obj
 0002:00004320       HALFMASK                   10025320     LIBCMT:asin_pentium4.obj
 0002:00004330       HALFMASK2                  10025330     LIBCMT:asin_pentium4.obj
 0002:00004338       cv                         10025338     LIBCMT:asin_pentium4.obj
 0002:00004350       cv2                        10025350     LIBCMT:asin_pentium4.obj
 0002:00004390       ABSVALMASK                 10025390     LIBCMT:asin_pentium4.obj
 0002:00004398       TMASK                      10025398     LIBCMT:asin_pentium4.obj
 0002:000043a0       ONEMASK                    100253a0     LIBCMT:asin_pentium4.obj
 0002:000043a8       EMIN                       100253a8     LIBCMT:asin_pentium4.obj
 0002:000043b0       MAX_ARG                    100253b0     LIBCMT:asin_pentium4.obj
 0002:000043b8       MIN_ARG                    100253b8     LIBCMT:asin_pentium4.obj
 0002:000043c0       INF                        100253c0     LIBCMT:asin_pentium4.obj
 0002:000043c8       ZERO                       100253c8     LIBCMT:asin_pentium4.obj
 0002:000043d0       DblMax                     100253d0     LIBCMT:87cdisp.obj
 0002:000043d8       DblMin                     100253d8     LIBCMT:87cdisp.obj
 0002:000043e0       IeeeAdjO                   100253e0     LIBCMT:87cdisp.obj
 0002:000043e8       IeeeAdjU                   100253e8     LIBCMT:87cdisp.obj
 0002:000043f0       _infinity                  100253f0     LIBCMT:87cdisp.obj
 0002:000043f8       _zero                      100253f8     LIBCMT:87cdisp.obj
 0002:00004400       rcp_t1                     10025400     LIBCMT:pow_pentium4.obj
 0002:00004810       log2_t1                    10025810     LIBCMT:pow_pentium4.obj
 0002:00005020       rcp_t2                     10026020     LIBCMT:pow_pentium4.obj
 0002:00005430       log2_t2                    10026430     LIBCMT:pow_pentium4.obj
 0002:00005c40       rcp_t3                     10026c40     LIBCMT:pow_pentium4.obj
 0002:00006450       log2_t3                    10027450     LIBCMT:pow_pentium4.obj
 0002:00007460       clv                        10028460     LIBCMT:pow_pentium4.obj
 0002:00007480       exp2_tbl                   10028480     LIBCMT:pow_pentium4.obj
 0002:00007c80       Shifter                    10028c80     LIBCMT:pow_pentium4.obj
 0002:00007c90       SIGMASK                    10028c90     LIBCMT:pow_pentium4.obj
 0002:00007ca0       ONEMASK                    10028ca0     LIBCMT:pow_pentium4.obj
 0002:00007cb0       ABSVALMASK                 10028cb0     LIBCMT:pow_pentium4.obj
 0002:00007cc0       cev                        10028cc0     LIBCMT:pow_pentium4.obj
 0002:00007ce8       HALFSIG                    10028ce8     LIBCMT:pow_pentium4.obj
 0002:00007cf0       LHN                        10028cf0     LIBCMT:pow_pentium4.obj
 0002:00007cf8       sNaN                       10028cf8     LIBCMT:pow_pentium4.obj
 0002:00007d00       INF                        10028d00     LIBCMT:pow_pentium4.obj
 0002:00007d08       NEG_INF                    10028d08     LIBCMT:pow_pentium4.obj
 0002:00007d10       NEG_ZERO                   10028d10     LIBCMT:pow_pentium4.obj
 0002:00007d18       NEG_BIG                    10028d18     LIBCMT:pow_pentium4.obj
 0002:00007d20       POS_BIG                    10028d20     LIBCMT:pow_pentium4.obj
 0002:00007d28       EMIN                       10028d28     LIBCMT:pow_pentium4.obj
 0002:00007d30       QIND                       10028d30     LIBCMT:pow_pentium4.obj
 0002:00007d5e       _log2max                   10028d5e     LIBCMT:87tran.obj
 0002:00007d68       _smallarg                  10028d68     LIBCMT:87tran.obj
 0002:00007d72       _half                      10028d72     LIBCMT:87tran.obj
 0002:00007da0       _INF                       10028da0     LIBCMT:libm_error.obj
 0002:00007db0       _BIG                       10028db0     LIBCMT:libm_error.obj
 0002:00007dc0       _ZERO                      10028dc0     LIBCMT:libm_error.obj
 0002:00007dd0       _INF_32                    10028dd0     LIBCMT:libm_error.obj
 0002:00007dd8       _NAN_32                    10028dd8     LIBCMT:libm_error.obj
 0002:00007de0       _ZERO_32                   10028de0     LIBCMT:libm_error.obj
 0002:00007de8       _libm_largef               10028de8     LIBCMT:libm_error.obj
 0002:00007df0       _libm_smallf               10028df0     LIBCMT:libm_error.obj
 0002:00007df8       _libm_small                10028df8     LIBCMT:libm_error.obj
 0002:00007e68       __mb_locale_names          10028e68     LIBCMT:mbctype.obj
 0002:00008208       __first_127char            10029208     LIBCMT:wsetloca.obj
 0002:0000a380       _tokenTable                1002b380     LIBCMT:undname.obj
 0002:0000a3b4       _rttiTable                 1002b3b4     LIBCMT:undname.obj
 0002:0000a3c8       _nameTable                 1002b3c8     LIBCMT:undname.obj
 0002:0000b400       __Win_errtab               1002c400     libcpmt:syserror.obj
 0002:0000b658       __Sys_errtab               1002c658     libcpmt:syserror.obj
 0002:0000c178       $SG4294967291              1002d178     * CIL library *:* CIL module *
 0002:0000c17c       $SG4294967290              1002d17c     * CIL library *:* CIL module *
 0002:0000c184       $SG4294967289              1002d184     * CIL library *:* CIL module *
 0002:0000c194       $SG4294967288              1002d194     * CIL library *:* CIL module *
 0002:0000c19c       $SG4294967287              1002d19c     * CIL library *:* CIL module *
 0002:0000c1a4       $SG4294967286              1002d1a4     * CIL library *:* CIL module *
 0002:0000c1ac       $SG4294967285              1002d1ac     * CIL library *:* CIL module *
 0002:0000c1b8       $SG4294967284              1002d1b8     * CIL library *:* CIL module *
 0002:0000c1c4       $SG4294967283              1002d1c4     * CIL library *:* CIL module *
 0002:0000c1cc       $SG4294967282              1002d1cc     * CIL library *:* CIL module *
 0002:0000c1d4       $SG4294967281              1002d1d4     * CIL library *:* CIL module *
 0002:0000c1dc       $SG4294967280              1002d1dc     * CIL library *:* CIL module *
 0002:0000c1e4       $SG4294967279              1002d1e4     * CIL library *:* CIL module *
 0002:0000c1ec       $SG4294967278              1002d1ec     * CIL library *:* CIL module *
 0002:0000c1f4       $SG4294967277              1002d1f4     * CIL library *:* CIL module *
 0002:0000c1fc       $SG4294967276              1002d1fc     * CIL library *:* CIL module *
 0002:0000c208       $SG4294967275              1002d208     * CIL library *:* CIL module *
 0002:0000c214       $SG4294967274              1002d214     * CIL library *:* CIL module *
 0002:0000c220       $SG4294967273              1002d220     * CIL library *:* CIL module *
 0002:0000c230       $SG4294967272              1002d230     * CIL library *:* CIL module *
 0002:0000c238       $SG4294967271              1002d238     * CIL library *:* CIL module *
 0002:0000c240       $SG4294967270              1002d240     * CIL library *:* CIL module *
 0002:0000c24c       $SG4294967269              1002d24c     * CIL library *:* CIL module *
 0002:0000c254       $SG4294967268              1002d254     * CIL library *:* CIL module *
 0002:0000c260       $SG4294967267              1002d260     * CIL library *:* CIL module *
 0002:0000c270       $SG4294967266              1002d270     * CIL library *:* CIL module *
 0002:0000c278       $SG4294967265              1002d278     * CIL library *:* CIL module *
 0002:0000c280       $SG4294967264              1002d280     * CIL library *:* CIL module *
 0002:0000c288       $SG4294967263              1002d288     * CIL library *:* CIL module *
 0002:0000c290       $SG4294967262              1002d290     * CIL library *:* CIL module *
 0002:0000c298       $SG4294967261              1002d298     * CIL library *:* CIL module *
 0002:0000c2a0       $SG4294967260              1002d2a0     * CIL library *:* CIL module *
 0002:0000c2b0       $SG4294967259              1002d2b0     * CIL library *:* CIL module *
 0002:0000c2b8       $SG4294967258              1002d2b8     * CIL library *:* CIL module *
 0002:0000c2c0       $SG4294967257              1002d2c0     * CIL library *:* CIL module *
 0002:0000c2c8       $SG4294967245              1002d2c8     * CIL library *:* CIL module *
 0002:0000c2d4       $SG4294967244              1002d2d4     * CIL library *:* CIL module *
 0002:0000c2f4       $SG4294967242              1002d2f4     * CIL library *:* CIL module *
 0002:0000c32c       $SG4294966453              1002d32c     * CIL library *:* CIL module *
 0002:0000c330       $SG4294967243              1002d330     * CIL library *:* CIL module *
 0002:0000c388       $SG4294966452              1002d388     * CIL library *:* CIL module *
 0002:0000c390       $SG4294966451              1002d390     * CIL library *:* CIL module *
 0002:0000c3a0       $SG4294966450              1002d3a0     * CIL library *:* CIL module *
 0002:0000c3a8       $SG4294966449              1002d3a8     * CIL library *:* CIL module *
 0002:0000c3b0       $SG4294966448              1002d3b0     * CIL library *:* CIL module *
 0002:0000c3b8       $SG4294966447              1002d3b8     * CIL library *:* CIL module *
 0002:0000c3c4       $SG4294966446              1002d3c4     * CIL library *:* CIL module *
 0002:0000c3d0       $SG4294966445              1002d3d0     * CIL library *:* CIL module *
 0002:0000c3d8       $SG4294966444              1002d3d8     * CIL library *:* CIL module *
 0002:0000c3e0       $SG4294966443              1002d3e0     * CIL library *:* CIL module *
 0002:0000c3e8       $SG4294966442              1002d3e8     * CIL library *:* CIL module *
 0002:0000c3f0       $SG4294966441              1002d3f0     * CIL library *:* CIL module *
 0002:0000c3f8       $SG4294966440              1002d3f8     * CIL library *:* CIL module *
 0002:0000c400       $SG4294966439              1002d400     * CIL library *:* CIL module *
 0002:0000c408       $SG4294966438              1002d408     * CIL library *:* CIL module *
 0002:0000c414       $SG4294966437              1002d414     * CIL library *:* CIL module *
 0002:0000c420       $SG4294966436              1002d420     * CIL library *:* CIL module *
 0002:0000c42c       $SG4294966435              1002d42c     * CIL library *:* CIL module *
 0002:0000c43c       $SG4294966434              1002d43c     * CIL library *:* CIL module *
 0002:0000c444       $SG4294966433              1002d444     * CIL library *:* CIL module *
 0002:0000c44c       $SG4294966432              1002d44c     * CIL library *:* CIL module *
 0002:0000c458       $SG4294966431              1002d458     * CIL library *:* CIL module *
 0002:0000c460       $SG4294966430              1002d460     * CIL library *:* CIL module *
 0002:0000c46c       $SG4294966429              1002d46c     * CIL library *:* CIL module *
 0002:0000c47c       $SG4294966428              1002d47c     * CIL library *:* CIL module *
 0002:0000c484       $SG4294966427              1002d484     * CIL library *:* CIL module *
 0002:0000c48c       $SG4294966426              1002d48c     * CIL library *:* CIL module *
 0002:0000c494       $SG4294966425              1002d494     * CIL library *:* CIL module *
 0002:0000c49c       $SG4294966424              1002d49c     * CIL library *:* CIL module *
 0002:0000c4a4       $SG4294966423              1002d4a4     * CIL library *:* CIL module *
 0002:0000c4ac       $SG4294966422              1002d4ac     * CIL library *:* CIL module *
 0002:0000c4bc       $SG4294966421              1002d4bc     * CIL library *:* CIL module *
 0002:0000c4c4       $SG4294966420              1002d4c4     * CIL library *:* CIL module *
 0002:0000c4cc       $SG4294966419              1002d4cc     * CIL library *:* CIL module *
 0002:0000c4d4       $SG4294965006              1002d4d4     * CIL library *:* CIL module *
 0002:0000c4d8       $SG4294965005              1002d4d8     * CIL library *:* CIL module *
 0002:0000c4e0       $SG4294965004              1002d4e0     * CIL library *:* CIL module *
 0002:0000c4f0       $SG4294965003              1002d4f0     * CIL library *:* CIL module *
 0002:0000c4f8       $SG4294965002              1002d4f8     * CIL library *:* CIL module *
 0002:0000c500       $SG4294965001              1002d500     * CIL library *:* CIL module *
 0002:0000c508       $SG4294965000              1002d508     * CIL library *:* CIL module *
 0002:0000c514       $SG4294964999              1002d514     * CIL library *:* CIL module *
 0002:0000c520       $SG4294964998              1002d520     * CIL library *:* CIL module *
 0002:0000c528       $SG4294964997              1002d528     * CIL library *:* CIL module *
 0002:0000c530       $SG4294964996              1002d530     * CIL library *:* CIL module *
 0002:0000c538       $SG4294964995              1002d538     * CIL library *:* CIL module *
 0002:0000c540       $SG4294964994              1002d540     * CIL library *:* CIL module *
 0002:0000c548       $SG4294964993              1002d548     * CIL library *:* CIL module *
 0002:0000c550       $SG4294964992              1002d550     * CIL library *:* CIL module *
 0002:0000c558       $SG4294964991              1002d558     * CIL library *:* CIL module *
 0002:0000c564       $SG4294964990              1002d564     * CIL library *:* CIL module *
 0002:0000c570       $SG4294964989              1002d570     * CIL library *:* CIL module *
 0002:0000c57c       $SG4294964988              1002d57c     * CIL library *:* CIL module *
 0002:0000c58c       $SG4294964987              1002d58c     * CIL library *:* CIL module *
 0002:0000c594       $SG4294964986              1002d594     * CIL library *:* CIL module *
 0002:0000c59c       $SG4294964985              1002d59c     * CIL library *:* CIL module *
 0002:0000c5a8       $SG4294964984              1002d5a8     * CIL library *:* CIL module *
 0002:0000c5b0       $SG4294964983              1002d5b0     * CIL library *:* CIL module *
 0002:0000c5bc       $SG4294964982              1002d5bc     * CIL library *:* CIL module *
 0002:0000c5cc       $SG4294964981              1002d5cc     * CIL library *:* CIL module *
 0002:0000c5d4       $SG4294964980              1002d5d4     * CIL library *:* CIL module *
 0002:0000c5dc       $SG4294964979              1002d5dc     * CIL library *:* CIL module *
 0002:0000c5e4       $SG4294964978              1002d5e4     * CIL library *:* CIL module *
 0002:0000c5ec       $SG4294964977              1002d5ec     * CIL library *:* CIL module *
 0002:0000c5f4       $SG4294964976              1002d5f4     * CIL library *:* CIL module *
 0002:0000c5fc       $SG4294964975              1002d5fc     * CIL library *:* CIL module *
 0002:0000c60c       $SG4294964974              1002d60c     * CIL library *:* CIL module *
 0002:0000c614       $SG4294964973              1002d614     * CIL library *:* CIL module *
 0002:0000c61c       $SG4294964972              1002d61c     * CIL library *:* CIL module *
 0002:0000c624       $SG4294964866              1002d624     * CIL library *:* CIL module *
 0002:0000c650       $SG4294961649              1002d650     * CIL library *:* CIL module *
 0002:0000c654       $SG4294961648              1002d654     * CIL library *:* CIL module *
 0002:0000c65c       $SG4294961647              1002d65c     * CIL library *:* CIL module *
 0002:0000c66c       $SG4294961646              1002d66c     * CIL library *:* CIL module *
 0002:0000c674       $SG4294961645              1002d674     * CIL library *:* CIL module *
 0002:0000c67c       $SG4294961644              1002d67c     * CIL library *:* CIL module *
 0002:0000c684       $SG4294961643              1002d684     * CIL library *:* CIL module *
 0002:0000c690       $SG4294961642              1002d690     * CIL library *:* CIL module *
 0002:0000c69c       $SG4294961641              1002d69c     * CIL library *:* CIL module *
 0002:0000c6a4       $SG4294961640              1002d6a4     * CIL library *:* CIL module *
 0002:0000c6ac       $SG4294961639              1002d6ac     * CIL library *:* CIL module *
 0002:0000c6b4       $SG4294961638              1002d6b4     * CIL library *:* CIL module *
 0002:0000c6bc       $SG4294961637              1002d6bc     * CIL library *:* CIL module *
 0002:0000c6c4       $SG4294961636              1002d6c4     * CIL library *:* CIL module *
 0002:0000c6cc       $SG4294961635              1002d6cc     * CIL library *:* CIL module *
 0002:0000c6d4       $SG4294961634              1002d6d4     * CIL library *:* CIL module *
 0002:0000c6e0       $SG4294961633              1002d6e0     * CIL library *:* CIL module *
 0002:0000c6ec       $SG4294961632              1002d6ec     * CIL library *:* CIL module *
 0002:0000c6f8       $SG4294961631              1002d6f8     * CIL library *:* CIL module *
 0002:0000c708       $SG4294961630              1002d708     * CIL library *:* CIL module *
 0002:0000c710       $SG4294961629              1002d710     * CIL library *:* CIL module *
 0002:0000c718       $SG4294961628              1002d718     * CIL library *:* CIL module *
 0002:0000c724       $SG4294961627              1002d724     * CIL library *:* CIL module *
 0002:0000c72c       $SG4294961626              1002d72c     * CIL library *:* CIL module *
 0002:0000c738       $SG4294961625              1002d738     * CIL library *:* CIL module *
 0002:0000c748       $SG4294961624              1002d748     * CIL library *:* CIL module *
 0002:0000c750       $SG4294961623              1002d750     * CIL library *:* CIL module *
 0002:0000c758       $SG4294961622              1002d758     * CIL library *:* CIL module *
 0002:0000c760       $SG4294961621              1002d760     * CIL library *:* CIL module *
 0002:0000c768       $SG4294961620              1002d768     * CIL library *:* CIL module *
 0002:0000c770       $SG4294961619              1002d770     * CIL library *:* CIL module *
 0002:0000c778       $SG4294961618              1002d778     * CIL library *:* CIL module *
 0002:0000c788       $SG4294961617              1002d788     * CIL library *:* CIL module *
 0002:0000c790       $SG4294961616              1002d790     * CIL library *:* CIL module *
 0002:0000c798       $SG4294961615              1002d798     * CIL library *:* CIL module *
 0002:0000c7a0       $SG4294961596              1002d7a0     * CIL library *:* CIL module *
 0002:0000c7a8       $SG4294961595              1002d7a8     * CIL library *:* CIL module *
 0002:0000c7b0       $SG4294961594              1002d7b0     * CIL library *:* CIL module *
 0002:0000c7bc       $SG4294961593              1002d7bc     * CIL library *:* CIL module *
 0002:0000c7c0       $SG4294961592              1002d7c0     * CIL library *:* CIL module *
 0002:0000c7c8       $SG4294961591              1002d7c8     * CIL library *:* CIL module *
 0002:0000c7d4       $SG4294961590              1002d7d4     * CIL library *:* CIL module *
 0002:0000c7e0       $SG4294961589              1002d7e0     * CIL library *:* CIL module *
 0002:0000c7e8       $SG4294961588              1002d7e8     * CIL library *:* CIL module *
 0002:0000c7f4       $SG4294961587              1002d7f4     * CIL library *:* CIL module *
 0002:0000c818       $SG4294961586              1002d818     * CIL library *:* CIL module *
 0002:0000c83c       $SG4294961585              1002d83c     * CIL library *:* CIL module *
 0002:0000c860       $SG4294961584              1002d860     * CIL library *:* CIL module *
 0002:0000c8b8       $SG4294961583              1002d8b8     * CIL library *:* CIL module *
 0002:0000c8d8       $SG4294961582              1002d8d8     * CIL library *:* CIL module *
 0002:0000c8f8       $SG4294961581              1002d8f8     * CIL library *:* CIL module *
 0002:0000c91c       $SG4294961580              1002d91c     * CIL library *:* CIL module *
 0002:0000c928       $SG4294961579              1002d928     * CIL library *:* CIL module *
 0002:0000c93c       $SG4294961578              1002d93c     * CIL library *:* CIL module *
 0002:0000c970       $SG4294961577              1002d970     * CIL library *:* CIL module *
 0002:0000c988       $SG4294961576              1002d988     * CIL library *:* CIL module *
 0002:0000c9b8       $SG4294961575              1002d9b8     * CIL library *:* CIL module *
 0002:0000c9d0       $SG4294961574              1002d9d0     * CIL library *:* CIL module *
 0002:0000c9f4       $SG4294961573              1002d9f4     * CIL library *:* CIL module *
 0002:0000ca04       $SG4294961572              1002da04     * CIL library *:* CIL module *
 0002:0000ca34       $SG4294961571              1002da34     * CIL library *:* CIL module *
 0002:0000ca58       $SG4294961570              1002da58     * CIL library *:* CIL module *
 0002:0000ca60       $SG4294961569              1002da60     * CIL library *:* CIL module *
 0002:0000ca68       $SG4294961568              1002da68     * CIL library *:* CIL module *
 0002:0000ca70       $SG4294961567              1002da70     * CIL library *:* CIL module *
 0002:0000ca78       $SG4294961566              1002da78     * CIL library *:* CIL module *
 0002:0000ca80       $SG4294961565              1002da80     * CIL library *:* CIL module *
 0002:0000ca88       $SG4294961564              1002da88     * CIL library *:* CIL module *
 0002:0000ca94       $SG4294961563              1002da94     * CIL library *:* CIL module *
 0002:0000caa0       $SG4294961562              1002daa0     * CIL library *:* CIL module *
 0002:0000caac       $SG4294961561              1002daac     * CIL library *:* CIL module *
 0002:0000cab8       $SG4294961560              1002dab8     * CIL library *:* CIL module *
 0002:0000cabc       $SG4294961559              1002dabc     * CIL library *:* CIL module *
 0002:0000cac4       $SG4294961558              1002dac4     * CIL library *:* CIL module *
 0002:0000cacc       $SG4294961557              1002dacc     * CIL library *:* CIL module *
 0002:0000cad4       $SG4294961556              1002dad4     * CIL library *:* CIL module *
 0002:0000cadc       $SG4294961555              1002dadc     * CIL library *:* CIL module *
 0002:0000cae8       $SG4294961554              1002dae8     * CIL library *:* CIL module *
 0002:0000caf8       $SG4294961553              1002daf8     * CIL library *:* CIL module *
 0002:0000cb10       $SG4294961552              1002db10     * CIL library *:* CIL module *
 0002:0000cb24       $SG4294961551              1002db24     * CIL library *:* CIL module *
 0002:0000cb38       $SG4294961550              1002db38     * CIL library *:* CIL module *
 0002:0000cb4c       $SG4294961549              1002db4c     * CIL library *:* CIL module *
 0002:0000cb60       $SG4294961548              1002db60     * CIL library *:* CIL module *
 0002:0000cb64       $SG4294961547              1002db64     * CIL library *:* CIL module *
 0002:0000cb68       $SG4294961546              1002db68     * CIL library *:* CIL module *
 0002:0000cb74       $SG4294961545              1002db74     * CIL library *:* CIL module *
 0002:0000cb80       $SG4294961544              1002db80     * CIL library *:* CIL module *
 0002:0000cb90       $SG4294961543              1002db90     * CIL library *:* CIL module *
 0002:0000cba0       $SG4294961542              1002dba0     * CIL library *:* CIL module *
 0002:0000cbb0       $SG4294961541              1002dbb0     * CIL library *:* CIL module *
 0002:0000cbbc       $SG4294961540              1002dbbc     * CIL library *:* CIL module *
 0002:0000cbd0       $SG4294961539              1002dbd0     * CIL library *:* CIL module *
 0002:0000cbe4       $SG4294961538              1002dbe4     * CIL library *:* CIL module *
 0002:0000cbf4       $SG4294961537              1002dbf4     * CIL library *:* CIL module *
 0002:0000cc08       $SG4294961536              1002dc08     * CIL library *:* CIL module *
 0002:0000cc14       $SG4294961535              1002dc14     * CIL library *:* CIL module *
 0002:0000cc24       $SG4294961534              1002dc24     * CIL library *:* CIL module *
 0002:0000cc30       $SG4294961533              1002dc30     * CIL library *:* CIL module *
 0002:0000cc3c       $SG4294961532              1002dc3c     * CIL library *:* CIL module *
 0002:0000cc4c       $SG4294961531              1002dc4c     * CIL library *:* CIL module *
 0002:0000cc5c       $SG4294961530              1002dc5c     * CIL library *:* CIL module *
 0002:0000cc68       $SG4294961529              1002dc68     * CIL library *:* CIL module *
 0002:0000cc70       $SG4294961528              1002dc70     * CIL library *:* CIL module *
 0002:0000cc80       $SG4294961527              1002dc80     * CIL library *:* CIL module *
 0002:0000cc8c       $SG4294961526              1002dc8c     * CIL library *:* CIL module *
 0002:0000cc94       $SG4294961525              1002dc94     * CIL library *:* CIL module *
 0002:0000cc9c       $SG4294961524              1002dc9c     * CIL library *:* CIL module *
 0002:0000ccac       $SG4294961523              1002dcac     * CIL library *:* CIL module *
 0002:0000ccc0       $SG4294961522              1002dcc0     * CIL library *:* CIL module *
 0002:0000ccc8       $SG4294961521              1002dcc8     * CIL library *:* CIL module *
 0002:0000ccd0       $SG4294961520              1002dcd0     * CIL library *:* CIL module *
 0002:0000ccdc       $SG4294961519              1002dcdc     * CIL library *:* CIL module *
 0002:0000cce8       $SG4294961518              1002dce8     * CIL library *:* CIL module *
 0002:0000ccf4       $SG4294961517              1002dcf4     * CIL library *:* CIL module *
 0002:0000cd00       $SG4294961516              1002dd00     * CIL library *:* CIL module *
 0002:0000cd08       $SG4294961515              1002dd08     * CIL library *:* CIL module *
 0002:0000cd10       $SG4294961514              1002dd10     * CIL library *:* CIL module *
 0002:0000cd1c       $SG4294961513              1002dd1c     * CIL library *:* CIL module *
 0002:0000cd28       $SG4294961512              1002dd28     * CIL library *:* CIL module *
 0002:0000cd30       $SG4294961511              1002dd30     * CIL library *:* CIL module *
 0002:0000cd38       $SG4294961510              1002dd38     * CIL library *:* CIL module *
 0002:0000cd40       $SG4294961509              1002dd40     * CIL library *:* CIL module *
 0002:0000cd4c       $SG4294961508              1002dd4c     * CIL library *:* CIL module *
 0002:0000cd54       $SG4294961507              1002dd54     * CIL library *:* CIL module *
 0002:0000cd60       $SG4294961506              1002dd60     * CIL library *:* CIL module *
 0002:0000cd70       $SG4294961505              1002dd70     * CIL library *:* CIL module *
 0002:0000cd7c       $SG4294961504              1002dd7c     * CIL library *:* CIL module *
 0002:0000cd88       $SG4294961503              1002dd88     * CIL library *:* CIL module *
 0002:0000cd94       $SG4294961502              1002dd94     * CIL library *:* CIL module *
 0002:0000cda0       $SG4294961501              1002dda0     * CIL library *:* CIL module *
 0002:0000cdac       $SG4294961500              1002ddac     * CIL library *:* CIL module *
 0002:0000cdb8       $SG4294961499              1002ddb8     * CIL library *:* CIL module *
 0002:0000cdcc       $SG4294961498              1002ddcc     * CIL library *:* CIL module *
 0002:0000cdd4       $SG4294961497              1002ddd4     * CIL library *:* CIL module *
 0002:0000cddc       $SG4294961496              1002dddc     * CIL library *:* CIL module *
 0002:0000cde4       $SG4294961495              1002dde4     * CIL library *:* CIL module *
 0002:0000cde8       $SG4294961494              1002dde8     * CIL library *:* CIL module *
 0002:0000cdf0       $SG4294961493              1002ddf0     * CIL library *:* CIL module *
 0002:0000cdf8       $SG4294961492              1002ddf8     * CIL library *:* CIL module *
 0002:0000ce10       $SG4294958451              1002de10     * CIL library *:* CIL module *
 0002:0000ce14       $SG4294958450              1002de14     * CIL library *:* CIL module *
 0002:0000ce1c       $SG4294958449              1002de1c     * CIL library *:* CIL module *
 0002:0000ce2c       $SG4294958448              1002de2c     * CIL library *:* CIL module *
 0002:0000ce34       $SG4294958447              1002de34     * CIL library *:* CIL module *
 0002:0000ce3c       $SG4294958446              1002de3c     * CIL library *:* CIL module *
 0002:0000ce44       $SG4294958445              1002de44     * CIL library *:* CIL module *
 0002:0000ce50       $SG4294958444              1002de50     * CIL library *:* CIL module *
 0002:0000ce5c       $SG4294958443              1002de5c     * CIL library *:* CIL module *
 0002:0000ce64       $SG4294958442              1002de64     * CIL library *:* CIL module *
 0002:0000ce6c       $SG4294958441              1002de6c     * CIL library *:* CIL module *
 0002:0000ce74       $SG4294958440              1002de74     * CIL library *:* CIL module *
 0002:0000ce7c       $SG4294958439              1002de7c     * CIL library *:* CIL module *
 0002:0000ce84       $SG4294958438              1002de84     * CIL library *:* CIL module *
 0002:0000ce8c       $SG4294958437              1002de8c     * CIL library *:* CIL module *
 0002:0000ce94       $SG4294958436              1002de94     * CIL library *:* CIL module *
 0002:0000cea0       $SG4294958435              1002dea0     * CIL library *:* CIL module *
 0002:0000ceac       $SG4294958434              1002deac     * CIL library *:* CIL module *
 0002:0000ceb8       $SG4294958433              1002deb8     * CIL library *:* CIL module *
 0002:0000cec8       $SG4294958432              1002dec8     * CIL library *:* CIL module *
 0002:0000ced0       $SG4294958431              1002ded0     * CIL library *:* CIL module *
 0002:0000ced8       $SG4294958430              1002ded8     * CIL library *:* CIL module *
 0002:0000cee4       $SG4294958429              1002dee4     * CIL library *:* CIL module *
 0002:0000ceec       $SG4294958428              1002deec     * CIL library *:* CIL module *
 0002:0000cef8       $SG4294958427              1002def8     * CIL library *:* CIL module *
 0002:0000cf08       $SG4294958426              1002df08     * CIL library *:* CIL module *
 0002:0000cf10       $SG4294958425              1002df10     * CIL library *:* CIL module *
 0002:0000cf18       $SG4294958424              1002df18     * CIL library *:* CIL module *
 0002:0000cf20       $SG4294958423              1002df20     * CIL library *:* CIL module *
 0002:0000cf28       $SG4294958422              1002df28     * CIL library *:* CIL module *
 0002:0000cf30       $SG4294958421              1002df30     * CIL library *:* CIL module *
 0002:0000cf38       $SG4294958420              1002df38     * CIL library *:* CIL module *
 0002:0000cf48       $SG4294958419              1002df48     * CIL library *:* CIL module *
 0002:0000cf50       $SG4294958418              1002df50     * CIL library *:* CIL module *
 0002:0000cf58       $SG4294958417              1002df58     * CIL library *:* CIL module *
 0002:0000cf60       $SG4294958396              1002df60     * CIL library *:* CIL module *
 0002:0000cf64       $SG4294958395              1002df64     * CIL library *:* CIL module *
 0002:0000cf68       $SG4294958394              1002df68     * CIL library *:* CIL module *
 0002:0000cf80       $SG4294958393              1002df80     * CIL library *:* CIL module *
 0002:0000cf90       $SG4294958392              1002df90     * CIL library *:* CIL module *
 0002:0000cf94       $SG4294958391              1002df94     * CIL library *:* CIL module *
 0002:0000cf98       $SG4294958390              1002df98     * CIL library *:* CIL module *
 0002:0000cfb0       $SG4294958389              1002dfb0     * CIL library *:* CIL module *
 0002:0000cfc4       $SG4294958388              1002dfc4     * CIL library *:* CIL module *
 0002:0000cfdc       $SG4294958387              1002dfdc     * CIL library *:* CIL module *
 0002:0000cfe0       $SG4294958386              1002dfe0     * CIL library *:* CIL module *
 0002:0000cfe4       $SG4294958385              1002dfe4     * CIL library *:* CIL module *
 0002:0000cffc       $SG4294958384              1002dffc     * CIL library *:* CIL module *
 0002:0000d00c       $SG4294958383              1002e00c     * CIL library *:* CIL module *
 0002:0000d010       $SG4294958382              1002e010     * CIL library *:* CIL module *
 0002:0000d014       $SG4294958381              1002e014     * CIL library *:* CIL module *
 0002:0000d02c       $SG4294958380              1002e02c     * CIL library *:* CIL module *
 0002:0000d03c       $SG4294958379              1002e03c     * CIL library *:* CIL module *
 0002:0000d054       $SG4294958378              1002e054     * CIL library *:* CIL module *
 0002:0000d074       $SG4294958377              1002e074     * CIL library *:* CIL module *
 0002:0000d078       $SG4294958376              1002e078     * CIL library *:* CIL module *
 0002:0000d07c       $SG4294958375              1002e07c     * CIL library *:* CIL module *
 0002:0000d094       $SG4294958374              1002e094     * CIL library *:* CIL module *
 0002:0000d0ac       $SG4294958373              1002e0ac     * CIL library *:* CIL module *
 0002:0000d0b0       $SG4294958372              1002e0b0     * CIL library *:* CIL module *
 0002:0000d0b4       $SG4294958371              1002e0b4     * CIL library *:* CIL module *
 0002:0000d0cc       $SG4294958370              1002e0cc     * CIL library *:* CIL module *
 0002:0000d0e0       $SG4294958369              1002e0e0     * CIL library *:* CIL module *
 0002:0000d0fc       $SG4294958368              1002e0fc     * CIL library *:* CIL module *
 0002:0000d114       $SG4294958367              1002e114     * CIL library *:* CIL module *
 0002:0000d12c       $SG4294958366              1002e12c     * CIL library *:* CIL module *
 0002:0000d154       $SG4294958365              1002e154     * CIL library *:* CIL module *
 0002:0000d17c       $SG4294958364              1002e17c     * CIL library *:* CIL module *
 0002:0000d1a4       $SG4294958363              1002e1a4     * CIL library *:* CIL module *
 0002:0000d1cc       $SG4294958362              1002e1cc     * CIL library *:* CIL module *
 0002:0000d1f0       $SG4294958361              1002e1f0     * CIL library *:* CIL module *
 0002:0000d214       $SG4294958360              1002e214     * CIL library *:* CIL module *
 0002:0000d228       $SG4294958359              1002e228     * CIL library *:* CIL module *
 0002:0000d240       $SG4294958358              1002e240     * CIL library *:* CIL module *
 0002:0000d25c       $SG4294958357              1002e25c     * CIL library *:* CIL module *
 0002:0000d268       $SG4294958356              1002e268     * CIL library *:* CIL module *
 0002:0000d278       $SG4294958355              1002e278     * CIL library *:* CIL module *
 0002:0000d28c       $SG4294958354              1002e28c     * CIL library *:* CIL module *
 0002:0000d298       $SG4294958353              1002e298     * CIL library *:* CIL module *
 0002:0000d2a8       $SG4294958352              1002e2a8     * CIL library *:* CIL module *
 0002:0000d2b0       $SG4294958351              1002e2b0     * CIL library *:* CIL module *
 0002:0000d2c0       $SG4294958350              1002e2c0     * CIL library *:* CIL module *
 0002:0000d2c4       $SG4294958349              1002e2c4     * CIL library *:* CIL module *
 0002:0000d2c8       $SG4294958348              1002e2c8     * CIL library *:* CIL module *
 0002:0000d2e4       $SG4294958347              1002e2e4     * CIL library *:* CIL module *
 0002:0000d2f0       $SG4294958346              1002e2f0     * CIL library *:* CIL module *
 0002:0000d30c       $SG4294958345              1002e30c     * CIL library *:* CIL module *
 0002:0000d328       _DeathDrop                 1002e328     * CIL library *:* CIL module *
 0002:0000d32c       _HumanHeight               1002e32c     * CIL library *:* CIL module *
 0002:0000d330       $SG4294955261              1002e330     * CIL library *:* CIL module *
 0002:0000d334       $SG4294955260              1002e334     * CIL library *:* CIL module *
 0002:0000d33c       $SG4294955259              1002e33c     * CIL library *:* CIL module *
 0002:0000d34c       $SG4294955258              1002e34c     * CIL library *:* CIL module *
 0002:0000d354       $SG4294955257              1002e354     * CIL library *:* CIL module *
 0002:0000d35c       $SG4294955256              1002e35c     * CIL library *:* CIL module *
 0002:0000d364       $SG4294955255              1002e364     * CIL library *:* CIL module *
 0002:0000d370       $SG4294955254              1002e370     * CIL library *:* CIL module *
 0002:0000d37c       $SG4294955253              1002e37c     * CIL library *:* CIL module *
 0002:0000d384       $SG4294955252              1002e384     * CIL library *:* CIL module *
 0002:0000d38c       $SG4294955251              1002e38c     * CIL library *:* CIL module *
 0002:0000d394       $SG4294955250              1002e394     * CIL library *:* CIL module *
 0002:0000d39c       $SG4294955249              1002e39c     * CIL library *:* CIL module *
 0002:0000d3a4       $SG4294955248              1002e3a4     * CIL library *:* CIL module *
 0002:0000d3ac       $SG4294955247              1002e3ac     * CIL library *:* CIL module *
 0002:0000d3b4       $SG4294955246              1002e3b4     * CIL library *:* CIL module *
 0002:0000d3c0       $SG4294955245              1002e3c0     * CIL library *:* CIL module *
 0002:0000d3cc       $SG4294955244              1002e3cc     * CIL library *:* CIL module *
 0002:0000d3d8       $SG4294955243              1002e3d8     * CIL library *:* CIL module *
 0002:0000d3e8       $SG4294955242              1002e3e8     * CIL library *:* CIL module *
 0002:0000d3f0       $SG4294955241              1002e3f0     * CIL library *:* CIL module *
 0002:0000d3f8       $SG4294955240              1002e3f8     * CIL library *:* CIL module *
 0002:0000d404       $SG4294955239              1002e404     * CIL library *:* CIL module *
 0002:0000d40c       $SG4294955238              1002e40c     * CIL library *:* CIL module *
 0002:0000d418       $SG4294955237              1002e418     * CIL library *:* CIL module *
 0002:0000d428       $SG4294955236              1002e428     * CIL library *:* CIL module *
 0002:0000d430       $SG4294955235              1002e430     * CIL library *:* CIL module *
 0002:0000d438       $SG4294955234              1002e438     * CIL library *:* CIL module *
 0002:0000d440       $SG4294955233              1002e440     * CIL library *:* CIL module *
 0002:0000d448       $SG4294955232              1002e448     * CIL library *:* CIL module *
 0002:0000d450       $SG4294955231              1002e450     * CIL library *:* CIL module *
 0002:0000d458       $SG4294955230              1002e458     * CIL library *:* CIL module *
 0002:0000d468       $SG4294955229              1002e468     * CIL library *:* CIL module *
 0002:0000d470       $SG4294955228              1002e470     * CIL library *:* CIL module *
 0002:0000d478       $SG4294955227              1002e478     * CIL library *:* CIL module *
 0002:0000d480       $SG4294955222              1002e480     * CIL library *:* CIL module *
 0002:0000df58       __sehtable$__onexit        1002ef58     LIBCMT:onexit.obj
 0002:0000df78       __sehtable$__CRT_INIT@12   1002ef78     LIBCMT:dllcrt0.obj
 0002:0000df98       __sehtable$___DllMainCRTStartup 1002ef98     LIBCMT:dllcrt0.obj
 0002:0000dfb8       __sehtable$_doexit         1002efb8     LIBCMT:crt0dat.obj
 0002:0000dfd8       __sehtable$?_Type_info_dtor@type_info@@CAXPAV1@@Z 1002efd8     LIBCMT:typname.obj
 0002:0000dff8       __sehtable$__freefls@4     1002eff8     LIBCMT:tidtable.obj
 0002:0000e020       __sehtable$__initptd       1002f020     LIBCMT:tidtable.obj
 0002:0000e048       __sehtable$__ioinit        1002f048     LIBCMT:ioinit.obj
 0002:0000e068       __sehtable$___updatetlocinfo 1002f068     LIBCMT:localref.obj
 0002:0000e088       __sehtable$___updatetmbcinfo 1002f088     LIBCMT:mbctype.obj
 0002:0000e0a8       __sehtable$__setmbcp       1002f0a8     LIBCMT:mbctype.obj
 0002:0000e0c8       __sehtable$__locterm       1002f0c8     LIBCMT:wsetloca.obj
 0002:0000e0e8       __sehtable$__write         1002f0e8     LIBCMT:write.obj
 0002:0000e108       __sehtable$__lseeki64      1002f108     LIBCMT:lseeki64.obj
 0002:0000e128       __sehtable$__mtinitlocknum 1002f128     LIBCMT:mlock.obj
 0002:0000e148       __sehtable$__IsNonwritableInCurrentImage 1002f148     LIBCMT:pesect.obj
 0002:0000e168       __sehtable$?terminate@@YAXXZ 1002f168     LIBCMT:hooks.obj
 0002:0000e188       __sehtable$?_inconsistency@@YAXXZ 1002f188     LIBCMT:hooks.obj
 0002:0000e1a8       __sehtable$_raise          1002f1a8     LIBCMT:winsig.obj
 0002:0000e1c8       __sehtable$___set_fpsr_sse2 1002f1c8     LIBCMT:fpctrl.obj
 0002:0000e1e8       __sehtable$__fcloseall     1002f1e8     LIBCMT:closeall.obj
 0002:0000e208       __sehtable$_flsall         1002f208     LIBCMT:fflush.obj
 0002:0000e230       __sehtable$___lock_fhandle 1002f230     LIBCMT:osfinfo.obj
 0002:0000e250       __sehtable$_fclose         1002f250     LIBCMT:fclose.obj
 0002:0000e270       __sehtable$__commit        1002f270     LIBCMT:commit.obj
 0002:0000e290       __sehtable$__close         1002f290     LIBCMT:close.obj
 0002:0000e340       __sehtable$___FrameUnwindToState 1002f340     LIBCMT:frame.obj
 0002:0000e368       __sehtable$?CallCatchBlock@@YAPAXPAUEHExceptionRecord@@PAUEHRegistrationNode@@PAU_CONTEXT@@PBU_s_FuncInfo@@PAXHK@Z 1002f368     LIBCMT:frame.obj
 0002:0000e390       __sehtable$___BuildCatchObject 1002f390     LIBCMT:frame.obj
 0002:0000e3b0       __sehtable$___DestructExceptionObject 1002f3b0     LIBCMT:frame.obj
 0002:0000e3cc       __catchsym$?CallUnexpected@@YAXPBU_s_ESTypeList@@@Z$2 1002f3cc     LIBCMT:frame.obj
 0002:0000e3dc       __unwindtable$?CallUnexpected@@YAXPBU_s_ESTypeList@@@Z 1002f3dc     LIBCMT:frame.obj
 0002:0000e3ec       __tryblocktable$?CallUnexpected@@YAXPBU_s_ESTypeList@@@Z 1002f3ec     LIBCMT:frame.obj
 0002:0000e400       __ehfuncinfo$?CallUnexpected@@YAXPBU_s_ESTypeList@@@Z 1002f400     LIBCMT:frame.obj
 0002:0000e428       __sehtable$___BuildCatchObjectHelper 1002f428     LIBCMT:frame.obj
 0002:0000e47c       __ehfuncinfo$?GetMetaTable@ILuaInterface@@QAEPAVILuaObject@@PBDH@Z 1002f47c     * CIL library *:* CIL module *
 0002:0000e47c       __ehfuncinfo$??0GMUtility@@QAE@PAVIEngineTrace@@@Z 1002f47c     * CIL library *:* CIL module *
 0002:0000e47c       __ehfuncinfo$?GetNewTable@ILuaInterface@@QAEPAVILuaObject@@XZ 1002f47c     * CIL library *:* CIL module *
 0002:0000e47c       __ehfuncinfo$?GetObject@ILuaInterface@@QAEPAVILuaObject@@H@Z 1002f47c     * CIL library *:* CIL module *
 0002:0000e4a0       __unwindtable$??0GMUtility@@QAE@PAVIEngineTrace@@@Z 1002f4a0     * CIL library *:* CIL module *
 0002:0000e4a0       __unwindtable$?GetMetaTable@ILuaInterface@@QAEPAVILuaObject@@PBDH@Z 1002f4a0     * CIL library *:* CIL module *
 0002:0000e4a0       __unwindtable$?GetObject@ILuaInterface@@QAEPAVILuaObject@@H@Z 1002f4a0     * CIL library *:* CIL module *
 0002:0000e4a0       __unwindtable$?GetNewTable@ILuaInterface@@QAEPAVILuaObject@@XZ 1002f4a0     * CIL library *:* CIL module *
 0002:0000e4a8       __ehfuncinfo$??0ILuaInterface@@QAE@PAUlua_State@@@Z 1002f4a8     * CIL library *:* CIL module *
 0002:0000e4cc       __unwindtable$??0ILuaInterface@@QAE@PAUlua_State@@@Z 1002f4cc     * CIL library *:* CIL module *
 0002:0000e4e4       __ehfuncinfo$??$construct@PADAAPAD@?$allocator@D@std@@QAEXPAPADAAPAD@Z 1002f4e4     * CIL library *:* CIL module *
 0002:0000e4e4       __ehfuncinfo$??$construct@U?$pair@QAUlua_State@@PAVILuaInterface@@@std@@U?$pair@PAUlua_State@@PAVILuaInterface@@@2@@?$allocator@U?$_Tree_node@U?$pair@QAUlua_State@@PAVILuaInterface@@@std@@PAX@std@@@std@@QAEXPAU?$pair@QAUlua_State@@PAVILuaInterface@@@1@$$QAU?$pair@PAUlua_State@@PAVILuaInterface@@@1@@Z 1002f4e4     * CIL library *:* CIL module *
 0002:0000e4e4       __ehfuncinfo$??$construct@PAU?$_Tree_node@U?$pair@QAUlua_State@@PAVILuaInterface@@@std@@PAX@std@@AAPAU12@@?$allocator@U?$_Tree_node@U?$pair@QAUlua_State@@PAVILuaInterface@@@std@@PAX@std@@@std@@QAEXPAPAU?$_Tree_node@U?$pair@QAUlua_State@@PAVILuaInterface@@@std@@PAX@1@AAPAU21@@Z 1002f4e4     * CIL library *:* CIL module *
 0002:0000e508       __unwindtable$??$construct@PADAAPAD@?$allocator@D@std@@QAEXPAPADAAPAD@Z 1002f508     * CIL library *:* CIL module *
 0002:0000e508       __unwindtable$??$construct@PAU?$_Tree_node@U?$pair@QAUlua_State@@PAVILuaInterface@@@std@@PAX@std@@AAPAU12@@?$allocator@U?$_Tree_node@U?$pair@QAUlua_State@@PAVILuaInterface@@@std@@PAX@std@@@std@@QAEXPAPAU?$_Tree_node@U?$pair@QAUlua_State@@PAVILuaInterface@@@std@@PAX@1@AAPAU21@@Z 1002f508     * CIL library *:* CIL module *
 0002:0000e508       __unwindtable$??$construct@U?$pair@QAUlua_State@@PAVILuaInterface@@@std@@U?$pair@PAUlua_State@@PAVILuaInterface@@@2@@?$allocator@U?$_Tree_node@U?$pair@QAUlua_State@@PAVILuaInterface@@@std@@PAX@std@@@std@@QAEXPAU?$pair@QAUlua_State@@PAVILuaInterface@@@1@$$QAU?$pair@PAUlua_State@@PAVILuaInterface@@@1@@Z 1002f508     * CIL library *:* CIL module *
 0002:0000e510       __ehfuncinfo$??$_Insert_nohint@AAU?$pair@QAUlua_State@@PAVILuaInterface@@@std@@PAU?$_Tree_node@U?$pair@QAUlua_State@@PAVILuaInterface@@@std@@PAX@2@@?$_Tree@V?$_Tmap_traits@PAUlua_State@@PAVILuaInterface@@U?$less@PAUlua_State@@@std@@V?$allocator@U?$pair@QAUlua_State@@PAVILuaInterface@@@std@@@4@$0A@@std@@@std@@IAE?AU?$pair@V?$_Tree_iterator@V?$_Tree_val@U?$_Tree_simple_types@U?$pair@QAUlua_State@@PAVILuaInterface@@@std@@@std@@@std@@@std@@_N@1@_NAAU?$pair@QAUlua_State@@PAVILuaInterface@@@1@PAU?$_Tree_node@U?$pair@QAUlua_State@@PAVILuaInterface@@@std@@PAX@1@@Z 1002f510     * CIL library *:* CIL module *
 0002:0000e534       __unwindtable$??$_Insert_nohint@AAU?$pair@QAUlua_State@@PAVILuaInterface@@@std@@PAU?$_Tree_node@U?$pair@QAUlua_State@@PAVILuaInterface@@@std@@PAX@2@@?$_Tree@V?$_Tmap_traits@PAUlua_State@@PAVILuaInterface@@U?$less@PAUlua_State@@@std@@V?$allocator@U?$pair@QAUlua_State@@PAVILuaInterface@@@std@@@4@$0A@@std@@@std@@IAE?AU?$pair@V?$_Tree_iterator@V?$_Tree_val@U?$_Tree_simple_types@U?$pair@QAUlua_State@@PAVILuaInterface@@@std@@@std@@@std@@@std@@_N@1@_NAAU?$pair@QAUlua_State@@PAVILuaInterface@@@1@PAU?$_Tree_node@U?$pair@QAUlua_State@@PAVILuaInterface@@@std@@PAX@1@@Z 1002f534     * CIL library *:* CIL module *
 0002:0000e544       __tryblocktable$??$_Insert_nohint@AAU?$pair@QAUlua_State@@PAVILuaInterface@@@std@@PAU?$_Tree_node@U?$pair@QAUlua_State@@PAVILuaInterface@@@std@@PAX@2@@?$_Tree@V?$_Tmap_traits@PAUlua_State@@PAVILuaInterface@@U?$less@PAUlua_State@@@std@@V?$allocator@U?$pair@QAUlua_State@@PAVILuaInterface@@@std@@@4@$0A@@std@@@std@@IAE?AU?$pair@V?$_Tree_iterator@V?$_Tree_val@U?$_Tree_simple_types@U?$pair@QAUlua_State@@PAVILuaInterface@@@std@@@std@@@std@@@std@@_N@1@_NAAU?$pair@QAUlua_State@@PAVILuaInterface@@@1@PAU?$_Tree_node@U?$pair@QAUlua_State@@PAVILuaInterface@@@std@@PAX@1@@Z 1002f544     * CIL library *:* CIL module *
 0002:0000e558       __catchsym$??$_Insert_nohint@AAU?$pair@QAUlua_State@@PAVILuaInterface@@@std@@PAU?$_Tree_node@U?$pair@QAUlua_State@@PAVILuaInterface@@@std@@PAX@2@@?$_Tree@V?$_Tmap_traits@PAUlua_State@@PAVILuaInterface@@U?$less@PAUlua_State@@@std@@V?$allocator@U?$pair@QAUlua_State@@PAVILuaInterface@@@std@@@4@$0A@@std@@@std@@IAE?AU?$pair@V?$_Tree_iterator@V?$_Tree_val@U?$_Tree_simple_types@U?$pair@QAUlua_State@@PAVILuaInterface@@@std@@@std@@@std@@@std@@_N@1@_NAAU?$pair@QAUlua_State@@PAVILuaInterface@@@1@PAU?$_Tree_node@U?$pair@QAUlua_State@@PAVILuaInterface@@@std@@PAX@1@@Z$2 1002f558     * CIL library *:* CIL module *
 0002:0000e568       __ehfuncinfo$?_Buynode0@?$_Tree_buy@U?$pair@QAUlua_State@@PAVILuaInterface@@@std@@V?$allocator@U?$pair@QAUlua_State@@PAVILuaInterface@@@std@@@2@@std@@QAEPAU?$_Tree_node@U?$pair@QAUlua_State@@PAVILuaInterface@@@std@@PAX@2@XZ 1002f568     * CIL library *:* CIL module *
 0002:0000e58c       __unwindtable$?_Buynode0@?$_Tree_buy@U?$pair@QAUlua_State@@PAVILuaInterface@@@std@@V?$allocator@U?$pair@QAUlua_State@@PAVILuaInterface@@@std@@@2@@std@@QAEPAU?$_Tree_node@U?$pair@QAUlua_State@@PAVILuaInterface@@@std@@PAX@2@XZ 1002f58c     * CIL library *:* CIL module *
 0002:0000e59c       __tryblocktable$?_Buynode0@?$_Tree_buy@U?$pair@QAUlua_State@@PAVILuaInterface@@@std@@V?$allocator@U?$pair@QAUlua_State@@PAVILuaInterface@@@std@@@2@@std@@QAEPAU?$_Tree_node@U?$pair@QAUlua_State@@PAVILuaInterface@@@std@@PAX@2@XZ 1002f59c     * CIL library *:* CIL module *
 0002:0000e5b0       __catchsym$?_Buynode0@?$_Tree_buy@U?$pair@QAUlua_State@@PAVILuaInterface@@@std@@V?$allocator@U?$pair@QAUlua_State@@PAVILuaInterface@@@std@@@2@@std@@QAEPAU?$_Tree_node@U?$pair@QAUlua_State@@PAVILuaInterface@@@std@@PAX@2@XZ$2 1002f5b0     * CIL library *:* CIL module *
 0002:0000e5c0       __ehfuncinfo$??$_Insert_hint@AAU?$pair@QAUlua_State@@PAVILuaInterface@@@std@@PAU?$_Tree_node@U?$pair@QAUlua_State@@PAVILuaInterface@@@std@@PAX@2@@?$_Tree@V?$_Tmap_traits@PAUlua_State@@PAVILuaInterface@@U?$less@PAUlua_State@@@std@@V?$allocator@U?$pair@QAUlua_State@@PAVILuaInterface@@@std@@@4@$0A@@std@@@std@@IAE?AV?$_Tree_iterator@V?$_Tree_val@U?$_Tree_simple_types@U?$pair@QAUlua_State@@PAVILuaInterface@@@std@@@std@@@std@@@1@V?$_Tree_const_iterator@V?$_Tree_val@U?$_Tree_simple_types@U?$pair@QAUlua_State@@PAVILuaInterface@@@std@@@std@@@std@@@1@AAU?$pair@QAUlua_State@@PAVILuaInterface@@@1@PAU?$_Tree_node@U?$pair@QAUlua_State@@PAVILuaInterface@@@std@@PAX@1@@Z 1002f5c0     * CIL library *:* CIL module *
 0002:0000e5e4       __unwindtable$??$_Insert_hint@AAU?$pair@QAUlua_State@@PAVILuaInterface@@@std@@PAU?$_Tree_node@U?$pair@QAUlua_State@@PAVILuaInterface@@@std@@PAX@2@@?$_Tree@V?$_Tmap_traits@PAUlua_State@@PAVILuaInterface@@U?$less@PAUlua_State@@@std@@V?$allocator@U?$pair@QAUlua_State@@PAVILuaInterface@@@std@@@4@$0A@@std@@@std@@IAE?AV?$_Tree_iterator@V?$_Tree_val@U?$_Tree_simple_types@U?$pair@QAUlua_State@@PAVILuaInterface@@@std@@@std@@@std@@@1@V?$_Tree_const_iterator@V?$_Tree_val@U?$_Tree_simple_types@U?$pair@QAUlua_State@@PAVILuaInterface@@@std@@@std@@@std@@@1@AAU?$pair@QAUlua_State@@PAVILuaInterface@@@1@PAU?$_Tree_node@U?$pair@QAUlua_State@@PAVILuaInterface@@@std@@PAX@1@@Z 1002f5e4     * CIL library *:* CIL module *
 0002:0000e5f4       __tryblocktable$??$_Insert_hint@AAU?$pair@QAUlua_State@@PAVILuaInterface@@@std@@PAU?$_Tree_node@U?$pair@QAUlua_State@@PAVILuaInterface@@@std@@PAX@2@@?$_Tree@V?$_Tmap_traits@PAUlua_State@@PAVILuaInterface@@U?$less@PAUlua_State@@@std@@V?$allocator@U?$pair@QAUlua_State@@PAVILuaInterface@@@std@@@4@$0A@@std@@@std@@IAE?AV?$_Tree_iterator@V?$_Tree_val@U?$_Tree_simple_types@U?$pair@QAUlua_State@@PAVILuaInterface@@@std@@@std@@@std@@@1@V?$_Tree_const_iterator@V?$_Tree_val@U?$_Tree_simple_types@U?$pair@QAUlua_State@@PAVILuaInterface@@@std@@@std@@@std@@@1@AAU?$pair@QAUlua_State@@PAVILuaInterface@@@1@PAU?$_Tree_node@U?$pair@QAUlua_State@@PAVILuaInterface@@@std@@PAX@1@@Z 1002f5f4     * CIL library *:* CIL module *
 0002:0000e608       __catchsym$??$_Insert_hint@AAU?$pair@QAUlua_State@@PAVILuaInterface@@@std@@PAU?$_Tree_node@U?$pair@QAUlua_State@@PAVILuaInterface@@@std@@PAX@2@@?$_Tree@V?$_Tmap_traits@PAUlua_State@@PAVILuaInterface@@U?$less@PAUlua_State@@@std@@V?$allocator@U?$pair@QAUlua_State@@PAVILuaInterface@@@std@@@4@$0A@@std@@@std@@IAE?AV?$_Tree_iterator@V?$_Tree_val@U?$_Tree_simple_types@U?$pair@QAUlua_State@@PAVILuaInterface@@@std@@@std@@@std@@@1@V?$_Tree_const_iterator@V?$_Tree_val@U?$_Tree_simple_types@U?$pair@QAUlua_State@@PAVILuaInterface@@@std@@@std@@@std@@@1@AAU?$pair@QAUlua_State@@PAVILuaInterface@@@1@PAU?$_Tree_node@U?$pair@QAUlua_State@@PAVILuaInterface@@@std@@PAX@1@@Z$2 1002f608     * CIL library *:* CIL module *
 0002:0000e618       __ehfuncinfo$??$_Buynode@U?$pair@PAUlua_State@@PAVILuaInterface@@@std@@@?$_Tree_buy@U?$pair@QAUlua_State@@PAVILuaInterface@@@std@@V?$allocator@U?$pair@QAUlua_State@@PAVILuaInterface@@@std@@@2@@std@@QAEPAU?$_Tree_node@U?$pair@QAUlua_State@@PAVILuaInterface@@@std@@PAX@1@$$QAU?$pair@PAUlua_State@@PAVILuaInterface@@@1@@Z 1002f618     * CIL library *:* CIL module *
 0002:0000e63c       __unwindtable$??$_Buynode@U?$pair@PAUlua_State@@PAVILuaInterface@@@std@@@?$_Tree_buy@U?$pair@QAUlua_State@@PAVILuaInterface@@@std@@V?$allocator@U?$pair@QAUlua_State@@PAVILuaInterface@@@std@@@2@@std@@QAEPAU?$_Tree_node@U?$pair@QAUlua_State@@PAVILuaInterface@@@std@@PAX@1@$$QAU?$pair@PAUlua_State@@PAVILuaInterface@@@1@@Z 1002f63c     * CIL library *:* CIL module *
 0002:0000e64c       __tryblocktable$??$_Buynode@U?$pair@PAUlua_State@@PAVILuaInterface@@@std@@@?$_Tree_buy@U?$pair@QAUlua_State@@PAVILuaInterface@@@std@@V?$allocator@U?$pair@QAUlua_State@@PAVILuaInterface@@@std@@@2@@std@@QAEPAU?$_Tree_node@U?$pair@QAUlua_State@@PAVILuaInterface@@@std@@PAX@1@$$QAU?$pair@PAUlua_State@@PAVILuaInterface@@@1@@Z 1002f64c     * CIL library *:* CIL module *
 0002:0000e660       __catchsym$??$_Buynode@U?$pair@PAUlua_State@@PAVILuaInterface@@@std@@@?$_Tree_buy@U?$pair@QAUlua_State@@PAVILuaInterface@@@std@@V?$allocator@U?$pair@QAUlua_State@@PAVILuaInterface@@@std@@@2@@std@@QAEPAU?$_Tree_node@U?$pair@QAUlua_State@@PAVILuaInterface@@@std@@PAX@1@$$QAU?$pair@PAUlua_State@@PAVILuaInterface@@@1@@Z$2 1002f660     * CIL library *:* CIL module *
 0002:0000e670       __ehfuncinfo$?_Buyheadnode@?$_Tree_alloc@$0A@U?$_Tree_base_types@U?$pair@QAUlua_State@@PAVILuaInterface@@@std@@V?$allocator@U?$pair@QAUlua_State@@PAVILuaInterface@@@std@@@2@@std@@@std@@QAEPAU?$_Tree_node@U?$pair@QAUlua_State@@PAVILuaInterface@@@std@@PAX@2@XZ 1002f670     * CIL library *:* CIL module *
 0002:0000e694       __unwindtable$?_Buyheadnode@?$_Tree_alloc@$0A@U?$_Tree_base_types@U?$pair@QAUlua_State@@PAVILuaInterface@@@std@@V?$allocator@U?$pair@QAUlua_State@@PAVILuaInterface@@@std@@@2@@std@@@std@@QAEPAU?$_Tree_node@U?$pair@QAUlua_State@@PAVILuaInterface@@@std@@PAX@2@XZ 1002f694     * CIL library *:* CIL module *
 0002:0000e6a4       __tryblocktable$?_Buyheadnode@?$_Tree_alloc@$0A@U?$_Tree_base_types@U?$pair@QAUlua_State@@PAVILuaInterface@@@std@@V?$allocator@U?$pair@QAUlua_State@@PAVILuaInterface@@@std@@@2@@std@@@std@@QAEPAU?$_Tree_node@U?$pair@QAUlua_State@@PAVILuaInterface@@@std@@PAX@2@XZ 1002f6a4     * CIL library *:* CIL module *
 0002:0000e6b8       __catchsym$?_Buyheadnode@?$_Tree_alloc@$0A@U?$_Tree_base_types@U?$pair@QAUlua_State@@PAVILuaInterface@@@std@@V?$allocator@U?$pair@QAUlua_State@@PAVILuaInterface@@@std@@@2@@std@@@std@@QAEPAU?$_Tree_node@U?$pair@QAUlua_State@@PAVILuaInterface@@@std@@PAX@2@XZ$2 1002f6b8     * CIL library *:* CIL module *
 0002:0000e6c8       __ehfuncinfo$?CreateInterface@ILuaModuleManager@@QAEXPAUlua_State@@@Z 1002f6c8     * CIL library *:* CIL module *
 0002:0000e6ec       __unwindtable$?CreateInterface@ILuaModuleManager@@QAEXPAUlua_State@@@Z 1002f6ec     * CIL library *:* CIL module *
 0002:0000e6f4       __ehfuncinfo$?_Copy@?$basic_string@DU?$char_traits@D@std@@V?$allocator@D@2@@std@@QAEXII@Z 1002f6f4     * CIL library *:* CIL module *
 0002:0000e718       __unwindtable$?_Copy@?$basic_string@DU?$char_traits@D@std@@V?$allocator@D@2@@std@@QAEXII@Z 1002f718     * CIL library *:* CIL module *
 0002:0000e738       __tryblocktable$?_Copy@?$basic_string@DU?$char_traits@D@std@@V?$allocator@D@2@@std@@QAEXII@Z 1002f738     * CIL library *:* CIL module *
 0002:0000e760       __catchsym$?_Copy@?$basic_string@DU?$char_traits@D@std@@V?$allocator@D@2@@std@@QAEXII@Z$4 1002f760     * CIL library *:* CIL module *
 0002:0000e770       __catchsym$?_Copy@?$basic_string@DU?$char_traits@D@std@@V?$allocator@D@2@@std@@QAEXII@Z$5 1002f770     * CIL library *:* CIL module *
 0002:0000e780       __ehfuncinfo$?GetMember@ILuaObject@@QAEPAV1@PBD@Z 1002f780     * CIL library *:* CIL module *
 0002:0000e780       __ehfuncinfo$?GetGlobal@ILuaInterface@@QAEPAVILuaObject@@PBD@Z 1002f780     * CIL library *:* CIL module *
 0002:0000e7a4       __unwindtable$?GetGlobal@ILuaInterface@@QAEPAVILuaObject@@PBD@Z 1002f7a4     * CIL library *:* CIL module *
 0002:0000e7a4       __unwindtable$?GetMember@ILuaObject@@QAEPAV1@PBD@Z 1002f7a4     * CIL library *:* CIL module *
 0002:0000e7ac       __ehfuncinfo$??1?$CUtlVector@PAVNode@@V?$CUtlMemory@PAVNode@@H@@@@QAE@XZ 1002f7ac     * CIL library *:* CIL module *
 0002:0000e7ac       __ehfuncinfo$??0?$CUtlLinkedList@UAirSeedSpot@@H$0A@HV?$CUtlMemory@U?$UtlLinkedListElem_t@UAirSeedSpot@@H@@H@@@@QAE@HH@Z 1002f7ac     * CIL library *:* CIL module *
 0002:0000e7ac       __ehfuncinfo$??0?$CUtlVector@PAVNode@@V?$CUtlMemory@PAVNode@@H@@@@QAE@HH@Z 1002f7ac     * CIL library *:* CIL module *
 0002:0000e7ac       __ehfuncinfo$??1?$CUtlLinkedList@UAirSeedSpot@@H$0A@HV?$CUtlMemory@U?$UtlLinkedListElem_t@UAirSeedSpot@@H@@H@@@@QAE@XZ 1002f7ac     * CIL library *:* CIL module *
 0002:0000e7ac       __ehfuncinfo$??0?$CUtlLinkedList@UGroundSeedSpot@@H$0A@HV?$CUtlMemory@U?$UtlLinkedListElem_t@UGroundSeedSpot@@H@@H@@@@QAE@HH@Z 1002f7ac     * CIL library *:* CIL module *
 0002:0000e7ac       __ehfuncinfo$??1?$CUtlLinkedList@UGroundSeedSpot@@H$0A@HV?$CUtlMemory@U?$UtlLinkedListElem_t@UGroundSeedSpot@@H@@H@@@@QAE@XZ 1002f7ac     * CIL library *:* CIL module *
 0002:0000e7ac       __ehfuncinfo$??0?$CUtlVector@PAUJobInfo_t@@V?$CUtlMemory@PAUJobInfo_t@@H@@@@QAE@HH@Z 1002f7ac     * CIL library *:* CIL module *
 0002:0000e7ac       __ehfuncinfo$??1?$CUtlVector@PAUJobInfo_t@@V?$CUtlMemory@PAUJobInfo_t@@H@@@@QAE@XZ 1002f7ac     * CIL library *:* CIL module *
 0002:0000e7d0       __unwindtable$??0?$CUtlVector@PAVNode@@V?$CUtlMemory@PAVNode@@H@@@@QAE@HH@Z 1002f7d0     * CIL library *:* CIL module *
 0002:0000e7d0       __unwindtable$??1?$CUtlLinkedList@UAirSeedSpot@@H$0A@HV?$CUtlMemory@U?$UtlLinkedListElem_t@UAirSeedSpot@@H@@H@@@@QAE@XZ 1002f7d0     * CIL library *:* CIL module *
 0002:0000e7d0       __unwindtable$??1?$CUtlVector@PAVNode@@V?$CUtlMemory@PAVNode@@H@@@@QAE@XZ 1002f7d0     * CIL library *:* CIL module *
 0002:0000e7d0       __unwindtable$??1?$CUtlLinkedList@UGroundSeedSpot@@H$0A@HV?$CUtlMemory@U?$UtlLinkedListElem_t@UGroundSeedSpot@@H@@H@@@@QAE@XZ 1002f7d0     * CIL library *:* CIL module *
 0002:0000e7d0       __unwindtable$??0?$CUtlLinkedList@UAirSeedSpot@@H$0A@HV?$CUtlMemory@U?$UtlLinkedListElem_t@UAirSeedSpot@@H@@H@@@@QAE@HH@Z 1002f7d0     * CIL library *:* CIL module *
 0002:0000e7d0       __unwindtable$??0?$CUtlLinkedList@UGroundSeedSpot@@H$0A@HV?$CUtlMemory@U?$UtlLinkedListElem_t@UGroundSeedSpot@@H@@H@@@@QAE@HH@Z 1002f7d0     * CIL library *:* CIL module *
 0002:0000e7d0       __unwindtable$??1?$CUtlVector@PAUJobInfo_t@@V?$CUtlMemory@PAUJobInfo_t@@H@@@@QAE@XZ 1002f7d0     * CIL library *:* CIL module *
 0002:0000e7d0       __unwindtable$??0?$CUtlVector@PAUJobInfo_t@@V?$CUtlMemory@PAUJobInfo_t@@H@@@@QAE@HH@Z 1002f7d0     * CIL library *:* CIL module *
 0002:0000e7d8       __ehfuncinfo$?Init@@YAHPAUlua_State@@@Z 1002f7d8     * CIL library *:* CIL module *
 0002:0000e7fc       __unwindtable$?Init@@YAHPAUlua_State@@@Z 1002f7fc     * CIL library *:* CIL module *
 0002:0000e804       __ehfuncinfo$?Nav_Generate@@YAHPAUlua_State@@@Z 1002f804     * CIL library *:* CIL module *
 0002:0000e804       __ehfuncinfo$?Nav_FindPathHull@@YAHPAUlua_State@@@Z 1002f804     * CIL library *:* CIL module *
 0002:0000e804       __ehfuncinfo$?Nav_FindPath@@YAHPAUlua_State@@@Z 1002f804     * CIL library *:* CIL module *
 0002:0000e828       __unwindtable$?Nav_FindPath@@YAHPAUlua_State@@@Z 1002f828     * CIL library *:* CIL module *
 0002:0000e828       __unwindtable$?Nav_FindPathHull@@YAHPAUlua_State@@@Z 1002f828     * CIL library *:* CIL module *
 0002:0000e828       __unwindtable$?Nav_Generate@@YAHPAUlua_State@@@Z 1002f828     * CIL library *:* CIL module *
 0002:0000e830       __ehfuncinfo$??1?$CMemberFunctor1@PAVNav@@P81@AEXPA_N@ZPA_NV?$CRefCounted1@VCFunctor@@V?$CRefCountServiceBase@$00VCRefMT@@@@@@VCFuncMemPolicyNone@@@@UAE@XZ 1002f830     * CIL library *:* CIL module *
 0002:0000e830       __ehfuncinfo$??0?$CMemberFunctor1@PAVNav@@P81@AEXPA_N@ZPA_NV?$CRefCounted1@VCFunctor@@V?$CRefCountServiceBase@$00VCRefMT@@@@@@VCFuncMemPolicyNone@@@@QAE@PAVNav@@P81@AEXPA_N@ZABQA_N@Z 1002f830     * CIL library *:* CIL module *
 0002:0000e830       __ehfuncinfo$??0?$CMemberFunctor3@PAVNav@@P81@AEXPAUJobInfo_t@@PAVNode@@1@ZPAU2@PAV3@PAV3@V?$CRefCounted1@VCFunctor@@V?$CRefCountServiceBase@$00VCRefMT@@@@@@VCFuncMemPolicyNone@@@@QAE@PAVNav@@P81@AEXPAUJobInfo_t@@PAVNode@@2@ZABQAU2@ABQAV3@5@Z 1002f830     * CIL library *:* CIL module *
 0002:0000e830       __ehfuncinfo$??1?$CMemberFunctor3@PAVNav@@P81@AEXPAUJobInfo_t@@PAVNode@@1@ZPAU2@PAV3@PAV3@V?$CRefCounted1@VCFunctor@@V?$CRefCountServiceBase@$00VCRefMT@@@@@@VCFuncMemPolicyNone@@@@UAE@XZ 1002f830     * CIL library *:* CIL module *
 0002:0000e854       __unwindtable$??1?$CMemberFunctor1@PAVNav@@P81@AEXPA_N@ZPA_NV?$CRefCounted1@VCFunctor@@V?$CRefCountServiceBase@$00VCRefMT@@@@@@VCFuncMemPolicyNone@@@@UAE@XZ 1002f854     * CIL library *:* CIL module *
 0002:0000e854       __unwindtable$??0?$CMemberFunctor3@PAVNav@@P81@AEXPAUJobInfo_t@@PAVNode@@1@ZPAU2@PAV3@PAV3@V?$CRefCounted1@VCFunctor@@V?$CRefCountServiceBase@$00VCRefMT@@@@@@VCFuncMemPolicyNone@@@@QAE@PAVNav@@P81@AEXPAUJobInfo_t@@PAVNode@@2@ZABQAU2@ABQAV3@5@Z 1002f854     * CIL library *:* CIL module *
 0002:0000e854       __unwindtable$??0?$CMemberFunctor1@PAVNav@@P81@AEXPA_N@ZPA_NV?$CRefCounted1@VCFunctor@@V?$CRefCountServiceBase@$00VCRefMT@@@@@@VCFuncMemPolicyNone@@@@QAE@PAVNav@@P81@AEXPA_N@ZABQA_N@Z 1002f854     * CIL library *:* CIL module *
 0002:0000e854       __unwindtable$??1?$CMemberFunctor3@PAVNav@@P81@AEXPAUJobInfo_t@@PAVNode@@1@ZPAU2@PAV3@PAV3@V?$CRefCounted1@VCFunctor@@V?$CRefCountServiceBase@$00VCRefMT@@@@@@VCFuncMemPolicyNone@@@@UAE@XZ 1002f854     * CIL library *:* CIL module *
 0002:0000e85c       __ehfuncinfo$?nav_Create@@YAHPAUlua_State@@@Z 1002f85c     * CIL library *:* CIL module *
 0002:0000e85c       __ehfuncinfo$??$CreateFunctor@PAVNav@@V1@XPA_NPA_N@@YAPAVCFunctor@@PAVNav@@P81@AEXPA_N@ZABQA_N@Z 1002f85c     * CIL library *:* CIL module *
 0002:0000e85c       __ehfuncinfo$??__Emodulemanager@@YAXXZ 1002f85c     * CIL library *:* CIL module *
 0002:0000e85c       __ehfuncinfo$??$CreateFunctor@PAVNav@@V1@XPAUJobInfo_t@@PAVNode@@PAV3@PAU2@PAV3@PAV3@@@YAPAVCFunctor@@PAVNav@@P81@AEXPAUJobInfo_t@@PAVNode@@2@ZABQAU2@ABQAV3@5@Z 1002f85c     * CIL library *:* CIL module *
 0002:0000e880       __unwindtable$??$CreateFunctor@PAVNav@@V1@XPA_NPA_N@@YAPAVCFunctor@@PAVNav@@P81@AEXPA_N@ZABQA_N@Z 1002f880     * CIL library *:* CIL module *
 0002:0000e880       __unwindtable$??__Emodulemanager@@YAXXZ 1002f880     * CIL library *:* CIL module *
 0002:0000e880       __unwindtable$?nav_Create@@YAHPAUlua_State@@@Z 1002f880     * CIL library *:* CIL module *
 0002:0000e880       __unwindtable$??$CreateFunctor@PAVNav@@V1@XPAUJobInfo_t@@PAVNode@@PAV3@PAU2@PAV3@PAV3@@@YAPAVCFunctor@@PAVNav@@P81@AEXPAUJobInfo_t@@PAVNode@@2@ZABQAU2@ABQAV3@5@Z 1002f880     * CIL library *:* CIL module *
 0002:0000e888       __ehfuncinfo$?GetNextAirSeedNode@Nav@@QAEPAVNode@@XZ 1002f888     * CIL library *:* CIL module *
 0002:0000e888       __ehfuncinfo$?GetNextGroundSeedNode@Nav@@QAEPAVNode@@XZ 1002f888     * CIL library *:* CIL module *
 0002:0000e8ac       __unwindtable$?GetNextGroundSeedNode@Nav@@QAEPAVNode@@XZ 1002f8ac     * CIL library *:* CIL module *
 0002:0000e8ac       __unwindtable$?GetNextAirSeedNode@Nav@@QAEPAVNode@@XZ 1002f8ac     * CIL library *:* CIL module *
 0002:0000e8b4       __ehfuncinfo$?Load@Nav@@QAE_NPBD@Z 1002f8b4     * CIL library *:* CIL module *
 0002:0000e8d8       __unwindtable$?Load@Nav@@QAE_NPBD@Z 1002f8d8     * CIL library *:* CIL module *
 0002:0000e8e8       __ehfuncinfo$?Save@Nav@@QAE_NPBD@Z 1002f8e8     * CIL library *:* CIL module *
 0002:0000e90c       __unwindtable$?Save@Nav@@QAE_NPBD@Z 1002f90c     * CIL library *:* CIL module *
 0002:0000e914       __ehfuncinfo$?AddNode@Nav@@QAEPAVNode@@ABVVector@@0W4NavDirType@@PAV2@@Z 1002f914     * CIL library *:* CIL module *
 0002:0000e938       __unwindtable$?AddNode@Nav@@QAEPAVNode@@ABVVector@@0W4NavDirType@@PAV2@@Z 1002f938     * CIL library *:* CIL module *
 0002:0000e940       __ehfuncinfo$??0Nav@@QAE@PAVGMUtility@@PAVIThreadPool@@PAVIFileSystem@@H@Z 1002f940     * CIL library *:* CIL module *
 0002:0000e964       __unwindtable$??0Nav@@QAE@PAVGMUtility@@PAVIThreadPool@@PAVIFileSystem@@H@Z 1002f964     * CIL library *:* CIL module *
 0002:0000ebae       .idata$6                   1002fbae     tier0:tier0.dll
 0002:0000ebe0       .idata$6                   1002fbe0     vstdlib:vstdlib.dll
 0002:0000ec3e       .idata$6                   1002fc3e     kernel32:KERNEL32.dll
 0002:0000f0f0       .edata                     100300f0     gmcl_navigation_win32.exp
 0002:0000f118       rgpv                       10030118     gmcl_navigation_win32.exp
 0002:0000f124       rgszName                   10030124     gmcl_navigation_win32.exp
 0002:0000f130       rgwOrd                     10030130     gmcl_navigation_win32.exp
 0002:0000f136       szName                     10030136     gmcl_navigation_win32.exp
 0002:0000f150       $N00001                    10030150     gmcl_navigation_win32.exp
 0002:0000f160       $N00002                    10030160     gmcl_navigation_win32.exp
 0002:0000f16d       $N00003                    1003016d     gmcl_navigation_win32.exp
 0003:00000020       _vec2_invalid              10031020     mathlib:mathlib_base.obj
 0003:00000480       _vec2_invalid              10031480     mathlib:color_conversion.obj
 0003:00000488       _vec2_invalid              10031488     mathlib:sse.obj
 0003:00000490       _vec2_invalid              10031490     mathlib:3dnow.obj
 0003:00000498       _s_pConversionArrays_StringCharConversion 10031498     tier1:utlbuffer.obj
 0003:000004f0       _s_pConversionArrays_NoEscConversion 100314f0     tier1:utlbuffer.obj
 0003:000004f8       _vec2_invalid              100314f8     tier1:utlbuffer.obj
 0003:0000056c       _s_BackSlashMap            1003156c     tier1:strtools.obj
 0003:00000578       _vec2_invalid              10031578     tier1:strtools.obj
 0003:000005e0       _NAME_                     100315e0     LIBCMT:acos.obj
 0003:000005f0       _NAME_                     100315f0     LIBCMT:asin.obj
 0003:00000608       POW_name                   10031608     LIBCMT:pow.obj
 0003:00000628       _errtable                  10031628     LIBCMT:dosmap.obj
 0003:00000790       _ErrnoNoMem                10031790     LIBCMT:dosmap.obj
 0003:00000794       _DoserrorNoMem             10031794     LIBCMT:dosmap.obj
 0003:000007f8       ?isPackaged@?1??__crtIsPackagedApp@@9@9 100317f8     LIBCMT:winapisupp.obj
 0003:00000830       _newcw                     10031830     LIBCMT:floor.obj
 0003:00000844       ___rgctypeflag             10031844     LIBCMT:mbctype.obj
 0003:00000848       ___rgcode_page_info        10031848     LIBCMT:mbctype.obj
 0003:00000f98       __ctype_loc_style          10031f98     LIBCMT:wsetloca.obj
 0003:00001230       __locktable                10032230     LIBCMT:mlock.obj
 0003:00001380       ?_names@?1??_get_fname@@9@9 10032380     LIBCMT:fpexcept.obj
 0003:00001468       _over                      10032468     LIBCMT:fpctrl.obj
 0003:00001474       _under                     10032474     LIBCMT:fpctrl.obj
 0003:00001480       ?__DAZ_ENABLED@?1??__set_fpsr_sse2@@9@9 10032480     LIBCMT:fpctrl.obj
 0003:000014ec       _DoubleFormat              100324ec     LIBCMT:intrncvt.obj
 0003:00001504       _FloatFormat               10032504     LIBCMT:intrncvt.obj
 0003:00001870       _Name                      10032870     * CIL library *:* CIL module *
 0003:00001900       _Name                      10032900     * CIL library *:* CIL module *
 0003:00001990       _Name                      10032990     * CIL library *:* CIL module *
 0003:00001a20       _Name                      10032a20     * CIL library *:* CIL module *
 0003:00001ab0       _Name                      10032ab0     * CIL library *:* CIL module *
 0003:00001b40       _Name                      10032b40     * CIL library *:* CIL module *
 0003:00001ee0       _NAME_                     10032ee0     LIBCMT:sqrt.obj
 0003:00002301       _s_b3DNowEnabled           10033301     mathlib:mathlib_base.obj
 0003:00002302       _s_bMMXEnabled             10033302     mathlib:mathlib_base.obj
 0003:00002303       _s_bSSEEnabled             10033303     mathlib:mathlib_base.obj
 0003:00002304       _s_bSSE2Enabled            10033304     mathlib:mathlib_base.obj
 0003:00002308       _vec2_origin               10033308     mathlib:mathlib_base.obj
 0003:00002328       _texturetolinear           10033328     mathlib:color_conversion.obj
 0003:00003728       _g_Mathlib_LinearToGamma   10034728     mathlib:color_conversion.obj
 0003:00003b28       _lineartotexture           10034b28     mathlib:color_conversion.obj
 0003:00004b28       _lineartoscreen            10035b28     mathlib:color_conversion.obj
 0003:00005b28       _g_Mathlib_GammaToLinear   10036b28     mathlib:color_conversion.obj
 0003:00009f28       _texgammatable             1003af28     mathlib:color_conversion.obj
 0003:0000a028       _vec2_origin               1003b028     mathlib:color_conversion.obj
 0003:0000a030       _vec2_origin               1003b030     mathlib:sse.obj
 0003:0000a038       _vec2_origin               1003b038     mathlib:3dnow.obj
 0003:0000a048       _vec2_origin               1003b048     tier1:utlbuffer.obj
 0003:0000b370       _vec2_origin               1003c370     tier1:strtools.obj
 0003:0000b378       ___proc_attached           1003c378     LIBCMT:dllcrt0.obj
 0003:0000b388       _GS_ExceptionRecord        1003c388     LIBCMT:gs_report.obj
 0003:0000b3d8       _GS_ContextRecord          1003c3d8     LIBCMT:gs_report.obj
 0003:0000b6a4       _DebuggerWasPresent        1003c6a4     LIBCMT:gs_report.obj
 0003:0000b6f8       ?outmsg@?8??_NMSG_WRITE@@9@9 1003c6f8     LIBCMT:crt0msg.obj
 0003:0000bd24       ___type_info_root_node     1003cd24     LIBCMT:typname.obj
 0003:0000be30       ?_pgmname@?1??_setargv@@9@9 1003ce30     LIBCMT:stdargv.obj
 0003:0000bf38       __pmatherr_set             1003cf38     LIBCMT:libm_error.obj
 0003:0000bf54       _fSystemSet                1003cf54     LIBCMT:mbctype.obj
 0003:0000bf60       ___enable_percent_n        1003cf60     LIBCMT:printf.obj
 0003:0000bf68       _lclcritsects              1003cf68     LIBCMT:mlock.obj
 0003:0000c0bc       _g_pfnRtlGenRandom         1003d0bc     LIBCMT:rand_s.obj
 0003:0000c0c0       _ctrlc_action              1003d0c0     LIBCMT:winsig.obj
 0003:0000c0c4       _ctrlbreak_action          1003d0c4     LIBCMT:winsig.obj
 0003:0000c0c8       _abort_action              1003d0c8     LIBCMT:winsig.obj
 0003:0000c0cc       _term_action               1003d0cc     LIBCMT:winsig.obj
 0003:0000c0d0       _ConsoleCtrlHandler_Installed 1003d0d0     LIBCMT:winsig.obj
 0003:0000c0e0       ?pfnMessageBox@?1??__crtMessageBoxW@@9@9 1003d0e0     LIBCMT:crtmboxw.obj
 0003:0000c0e4       ?pfnGetActiveWindow@?1??__crtMessageBoxW@@9@9 1003d0e4     LIBCMT:crtmboxw.obj
 0003:0000c0e8       ?pfnGetLastActivePopup@?1??__crtMessageBoxW@@9@9 1003d0e8     LIBCMT:crtmboxw.obj
 0003:0000c0ec       ?pfnGetProcessWindowStation@?1??__crtMessageBoxW@@9@9 1003d0ec     LIBCMT:crtmboxw.obj
 0003:0000c0f0       ?pfnGetUserObjectInformation@?1??__crtMessageBoxW@@9@9 1003d0f0     LIBCMT:crtmboxw.obj
 0003:0000c0f4       ___crtCallProc             1003d0f4     LIBCMT:winapinls.obj
 0003:0000c120       _heap                      1003d120     LIBCMT:undname.obj
 0003:0000c13e       __Tuple_alloc              1003d13e     libcpmt:xthrow.obj
 0003:0000c13f       _ignore                    1003d13f     libcpmt:xthrow.obj
 0003:0000c140       _allocator_arg             1003d140     libcpmt:xthrow.obj
 0003:0000c141       _piecewise_construct       1003d141     libcpmt:xthrow.obj
 0003:0000c142       _allocator_arg             1003d142     libcpmt:syserror.obj
 0003:0000c143       _piecewise_construct       1003d143     libcpmt:syserror.obj
 0003:0000c15c       _vec2_origin               1003d15c     * CIL library *:* CIL module *
 0003:0000c164       _vec2_invalid              1003d164     * CIL library *:* CIL module *
 0003:0000c16c       _allocator_arg             1003d16c     * CIL library *:* CIL module *
 0003:0000c16d       _piecewise_construct       1003d16d     * CIL library *:* CIL module *
 0003:0000c16e       _allocator_arg             1003d16e     * CIL library *:* CIL module *
 0003:0000c16f       _piecewise_construct       1003d16f     * CIL library *:* CIL module *
 0003:0000c170       _vec2_origin               1003d170     * CIL library *:* CIL module *
 0003:0000c178       _vec2_invalid              1003d178     * CIL library *:* CIL module *
 0003:0000c184       _vec2_origin               1003d184     * CIL library *:* CIL module *
 0003:0000c18c       _vec2_invalid              1003d18c     * CIL library *:* CIL module *
 0003:0000c194       _vec4_origin               1003d194     * CIL library *:* CIL module *
 0003:0000c1a4       _allocator_arg             1003d1a4     * CIL library *:* CIL module *
 0003:0000c1a5       _piecewise_construct       1003d1a5     * CIL library *:* CIL module *
 0003:0000c1a6       _allocator_arg             1003d1a6     * CIL library *:* CIL module *
 0003:0000c1a7       _piecewise_construct       1003d1a7     * CIL library *:* CIL module *
 0003:0000c1a8       _vec2_origin               1003d1a8     * CIL library *:* CIL module *
 0003:0000c1b0       _vector_origin             1003d1b0     * CIL library *:* CIL module *
 0003:0000c1bc       _vec4_invalid              1003d1bc     * CIL library *:* CIL module *
 0003:0000c1cc       _vec2_invalid              1003d1cc     * CIL library *:* CIL module *
 0003:0000c1e8       _vec4_origin               1003d1e8     * CIL library *:* CIL module *
 0003:0000c1f8       _vec2_origin               1003d1f8     * CIL library *:* CIL module *
 0003:0000c200       _vector_origin             1003d200     * CIL library *:* CIL module *
 0003:0000c20c       _vec4_invalid              1003d20c     * CIL library *:* CIL module *
 0003:0000c21c       _vec2_invalid              1003d21c     * CIL library *:* CIL module *
 0003:0000c224       _vec4_origin               1003d224     * CIL library *:* CIL module *
 0003:0000c234       _allocator_arg             1003d234     * CIL library *:* CIL module *
 0003:0000c235       _piecewise_construct       1003d235     * CIL library *:* CIL module *
 0003:0000c238       _vec2_origin               1003d238     * CIL library *:* CIL module *
 0003:0000c240       _vec4_invalid              1003d240     * CIL library *:* CIL module *
 0003:0000c250       _vec2_invalid              1003d250     * CIL library *:* CIL module *
 0003:0000c258       _vec4_origin               1003d258     * CIL library *:* CIL module *
 0003:0000c268       _vec2_origin               1003d268     * CIL library *:* CIL module *
 0003:0000c270       _vec4_invalid              1003d270     * CIL library *:* CIL module *
 0003:0000c280       _vec2_invalid              1003d280     * CIL library *:* CIL module *
 0004:00000060       $R000000                   1003f060     * linker generated manifest res *
